///////////////////////////////////////////////////////////////////////////////
//
// IAR C/C++ Compiler V9.10.1.2146 for 8051               07/Jul/2023  16:40:36
// Copyright 2004-2014 IAR Systems AB.
// Standalone license - IAR Embedded Workbench for 8051
//
//    Core               =  plain
//    Code model         =  banked
//    Data model         =  large
//    Calling convention =  xdata reentrant
//    Constant location  =  data_rom
//    Dptr setup         =  1,16
//                          
//    Source file        =  
//        I:\1_git_code\EPnode_OTA\CC2530
//        IAP\CC2530_stack\zstack-2.4.0-1.4.0x\Projects\zstack\Samples\common\at-uart.c
//    Command line       =  
//        -f "I:\1_git_code\EPnode_OTA\CC2530
//        IAP\CC2530_stack\zstack-2.4.0-1.4.0x\Projects\zstack\Samples\CC2530-Serial(IAP)\CC2530DB\..\..\..\Tools\CC2530DB\f8wRouter.cfg"
//        (-DCPU32MHZ -DROOT=__near_func -DMAC_CFG_APP_PENDING_QUEUE=TRUE
//        -DMAC_CFG_TX_DATA_MAX=5 -DMAC_CFG_TX_MAX=8 -DMAC_CFG_RX_MAX=5
//        -DRTR_NWK) -f "I:\1_git_code\EPnode_OTA\CC2530
//        IAP\CC2530_stack\zstack-2.4.0-1.4.0x\Projects\zstack\Samples\CC2530-Serial(IAP)\CC2530DB\..\..\..\Tools\CC2530DB\f8wConfig.cfg"
//        (-DZIGBEEPRO -DSECURE=0 -DZG_SECURE_DYNAMIC=0 -DREFLECTOR
//        -DDEFAULT_CHANLIST=0x00000800 -DZDAPP_CONFIG_PAN_ID=8448
//        -DNWK_START_DELAY=100 -DEXTENDED_JOINING_RANDOM_MASK=0x007F
//        -DBEACON_REQUEST_DELAY=100 -DBEACON_REQ_DELAY_MASK=0x00FF
//        -DLINK_STATUS_JITTER_MASK=0x007F -DROUTE_EXPIRY_TIME=30
//        -DAPSC_ACK_WAIT_DURATION_POLLED=3000 -DNWK_INDIRECT_MSG_TIMEOUT=7
//        -DMAX_RREQ_ENTRIES=8 -DAPSC_MAX_FRAME_RETRIES=3
//        -DNWK_MAX_DATA_RETRIES=2 -DMAX_POLL_FAILURE_RETRIES=2 -DMAX_BCAST=9
//        -DAPS_MAX_GROUPS=16 -DMAX_RTG_ENTRIES=40 -DNWK_MAX_BINDING_ENTRIES=4
//        -DMAX_BINDING_CLUSTER_IDS=4 "-DDEFAULT_KEY={0x01, 0x03, 0x05, 0x07,
//        0x09, 0x0B, 0x0D, 0x0F, 0x00, 0x02, 0x04, 0x06, 0x08, 0x0A, 0x0C,
//        0x0D}" -DMAC_MAX_FRAME_SIZE=116 -DZDNWKMGR_MIN_TRANSMISSIONS=20
//        "-DCONST=const __code" -DGENERIC=__generic -DRFD_RCVC_ALWAYS_ON=TRUE
//        -DPOLL_RATE=1000 -DQUEUED_POLL_RATE=100 -DRESPONSE_POLL_RATE=100)
//        -DREJOIN_POLL_RATE=440 "I:\1_git_code\EPnode_OTA\CC2530
//        IAP\CC2530_stack\zstack-2.4.0-1.4.0x\Projects\zstack\Samples\common\at-uart.c"
//        -D HOLD_AUTO_START -D BUILD_ALL_DEVICES -D REFLECTOR -D NV_INIT -D
//        XLAB -D CC2530_Serial -D MAKE_CRC_SHDW -D CC2530_USE_IAP -lC
//        "I:\1_git_code\EPnode_OTA\CC2530
//        IAP\CC2530_stack\zstack-2.4.0-1.4.0x\Projects\zstack\Samples\CC2530-Serial(IAP)\CC2530DB\CC2530-Serial\List\"
//        -lA "I:\1_git_code\EPnode_OTA\CC2530
//        IAP\CC2530_stack\zstack-2.4.0-1.4.0x\Projects\zstack\Samples\CC2530-Serial(IAP)\CC2530DB\CC2530-Serial\List\"
//        --diag_suppress Pe001,Pa010 -o "I:\1_git_code\EPnode_OTA\CC2530
//        IAP\CC2530_stack\zstack-2.4.0-1.4.0x\Projects\zstack\Samples\CC2530-Serial(IAP)\CC2530DB\CC2530-Serial\Obj\"
//        -e --no_cse --no_unroll --no_inline --no_code_motion --no_tbaa
//        --debug --core=plain --dptr=16,1 --data_model=large
//        --code_model=banked --calling_convention=xdata_reentrant
//        --place_constants=data_rom --nr_virtual_regs 8 -I
//        "I:\1_git_code\EPnode_OTA\CC2530
//        IAP\CC2530_stack\zstack-2.4.0-1.4.0x\Projects\zstack\Samples\CC2530-Serial(IAP)\CC2530DB\"
//        -I "I:\1_git_code\EPnode_OTA\CC2530
//        IAP\CC2530_stack\zstack-2.4.0-1.4.0x\Projects\zstack\Samples\CC2530-Serial(IAP)\CC2530DB\..\Source\"
//        -I "I:\1_git_code\EPnode_OTA\CC2530
//        IAP\CC2530_stack\zstack-2.4.0-1.4.0x\Projects\zstack\Samples\CC2530-Serial(IAP)\CC2530DB\..\..\common\"
//        -I "I:\1_git_code\EPnode_OTA\CC2530
//        IAP\CC2530_stack\zstack-2.4.0-1.4.0x\Projects\zstack\Samples\CC2530-Serial(IAP)\CC2530DB\..\..\..\ZMain\TI2530DB\"
//        -I "I:\1_git_code\EPnode_OTA\CC2530
//        IAP\CC2530_stack\zstack-2.4.0-1.4.0x\Projects\zstack\Samples\CC2530-Serial(IAP)\CC2530DB\..\..\..\..\..\Components\hal\include\"
//        -I "I:\1_git_code\EPnode_OTA\CC2530
//        IAP\CC2530_stack\zstack-2.4.0-1.4.0x\Projects\zstack\Samples\CC2530-Serial(IAP)\CC2530DB\..\..\..\..\..\Components\hal\target\CC2530EB\"
//        -I "I:\1_git_code\EPnode_OTA\CC2530
//        IAP\CC2530_stack\zstack-2.4.0-1.4.0x\Projects\zstack\Samples\CC2530-Serial(IAP)\CC2530DB\..\..\..\..\..\Components\mac\include\"
//        -I "I:\1_git_code\EPnode_OTA\CC2530
//        IAP\CC2530_stack\zstack-2.4.0-1.4.0x\Projects\zstack\Samples\CC2530-Serial(IAP)\CC2530DB\..\..\..\..\..\Components\mac\high_level\"
//        -I "I:\1_git_code\EPnode_OTA\CC2530
//        IAP\CC2530_stack\zstack-2.4.0-1.4.0x\Projects\zstack\Samples\CC2530-Serial(IAP)\CC2530DB\..\..\..\..\..\Components\mac\low_level\srf04\"
//        -I "I:\1_git_code\EPnode_OTA\CC2530
//        IAP\CC2530_stack\zstack-2.4.0-1.4.0x\Projects\zstack\Samples\CC2530-Serial(IAP)\CC2530DB\..\..\..\..\..\Components\mac\low_level\srf04\single_chip\"
//        -I "I:\1_git_code\EPnode_OTA\CC2530
//        IAP\CC2530_stack\zstack-2.4.0-1.4.0x\Projects\zstack\Samples\CC2530-Serial(IAP)\CC2530DB\..\..\..\..\..\Components\mt\"
//        -I "I:\1_git_code\EPnode_OTA\CC2530
//        IAP\CC2530_stack\zstack-2.4.0-1.4.0x\Projects\zstack\Samples\CC2530-Serial(IAP)\CC2530DB\..\..\..\..\..\Components\osal\include\"
//        -I "I:\1_git_code\EPnode_OTA\CC2530
//        IAP\CC2530_stack\zstack-2.4.0-1.4.0x\Projects\zstack\Samples\CC2530-Serial(IAP)\CC2530DB\..\..\..\..\..\Components\osal\mcu\ccsoc\"
//        -I "I:\1_git_code\EPnode_OTA\CC2530
//        IAP\CC2530_stack\zstack-2.4.0-1.4.0x\Projects\zstack\Samples\CC2530-Serial(IAP)\CC2530DB\..\..\..\..\..\Components\services\saddr\"
//        -I "I:\1_git_code\EPnode_OTA\CC2530
//        IAP\CC2530_stack\zstack-2.4.0-1.4.0x\Projects\zstack\Samples\CC2530-Serial(IAP)\CC2530DB\..\..\..\..\..\Components\services\sdata\"
//        -I "I:\1_git_code\EPnode_OTA\CC2530
//        IAP\CC2530_stack\zstack-2.4.0-1.4.0x\Projects\zstack\Samples\CC2530-Serial(IAP)\CC2530DB\..\..\..\..\..\Components\stack\af\"
//        -I "I:\1_git_code\EPnode_OTA\CC2530
//        IAP\CC2530_stack\zstack-2.4.0-1.4.0x\Projects\zstack\Samples\CC2530-Serial(IAP)\CC2530DB\..\..\..\..\..\Components\stack\nwk\"
//        -I "I:\1_git_code\EPnode_OTA\CC2530
//        IAP\CC2530_stack\zstack-2.4.0-1.4.0x\Projects\zstack\Samples\CC2530-Serial(IAP)\CC2530DB\..\..\..\..\..\Components\stack\sapi\"
//        -I "I:\1_git_code\EPnode_OTA\CC2530
//        IAP\CC2530_stack\zstack-2.4.0-1.4.0x\Projects\zstack\Samples\CC2530-Serial(IAP)\CC2530DB\..\..\..\..\..\Components\stack\sec\"
//        -I "I:\1_git_code\EPnode_OTA\CC2530
//        IAP\CC2530_stack\zstack-2.4.0-1.4.0x\Projects\zstack\Samples\CC2530-Serial(IAP)\CC2530DB\..\..\..\..\..\Components\stack\sys\"
//        -I "I:\1_git_code\EPnode_OTA\CC2530
//        IAP\CC2530_stack\zstack-2.4.0-1.4.0x\Projects\zstack\Samples\CC2530-Serial(IAP)\CC2530DB\..\..\..\..\..\Components\stack\zdo\"
//        -I "I:\1_git_code\EPnode_OTA\CC2530
//        IAP\CC2530_stack\zstack-2.4.0-1.4.0x\Projects\zstack\Samples\CC2530-Serial(IAP)\CC2530DB\..\..\..\..\..\Components\zmac\"
//        -I "I:\1_git_code\EPnode_OTA\CC2530
//        IAP\CC2530_stack\zstack-2.4.0-1.4.0x\Projects\zstack\Samples\CC2530-Serial(IAP)\CC2530DB\..\..\..\..\..\Components\zmac\f8w\"
//        -On
//    List file          =  
//        I:\1_git_code\EPnode_OTA\CC2530
//        IAP\CC2530_stack\zstack-2.4.0-1.4.0x\Projects\zstack\Samples\CC2530-Serial(IAP)\CC2530DB\CC2530-Serial\List\at-uart.s51
//
///////////////////////////////////////////////////////////////////////////////

        NAME `at-uart`

        RTMODEL "__SystemLibrary", "CLib"
        RTMODEL "__calling_convention", "xdata_reentrant"
        RTMODEL "__code_model", "banked"
        RTMODEL "__core", "plain"
        RTMODEL "__data_model", "large"
        RTMODEL "__dptr_size", "16"
        RTMODEL "__extended_stack", "disabled"
        RTMODEL "__location_for_constants", "data"
        RTMODEL "__number_of_dptrs", "1"
        RTMODEL "__rt_version", "1"

        RSEG DOVERLAY:DATA:NOROOT(0)
        RSEG IOVERLAY:IDATA:NOROOT(0)
        RSEG ISTACK:IDATA:NOROOT(0)
        RSEG PSTACK:XDATA:NOROOT(0)
        RSEG XSTACK:XDATA:NOROOT(0)

        EXTERN ?V0
        EXTERN ?V1
        EXTERN ?V2
        EXTERN ?V3
        EXTERN ?V4
        EXTERN ?V5
        EXTERN ?V6
        EXTERN ?V7
        EXTERN ?ALLOC_XSTACK8
        EXTERN ?BANKED_ENTER_XDATA
        EXTERN ?BANKED_LEAVE_XDATA
        EXTERN ?BDISPATCH
        EXTERN ?BRET
        EXTERN ?CALL_IND
        EXTERN ?DEALLOC_XSTACK8
        EXTERN ?FLT_ADD
        EXTERN ?FLT_DIV
        EXTERN ?FLT_GE
        EXTERN ?FLT_LT
        EXTERN ?FLT_MUL
        EXTERN ?FLT_TO_L
        EXTERN ?FUNC_ENTER_XDATA
        EXTERN ?FUNC_LEAVE_XDATA
        EXTERN ?INTERRUPT_ENTER_XSP
        EXTERN ?INTERRUPT_LEAVE_XSP
        EXTERN ?L_MOV_X
        EXTERN ?PUSH_XSTACK8_X_FOUR
        EXTERN ?PUSH_XSTACK_I_FOUR
        EXTERN ?PUSH_XSTACK_I_TWO
        EXTERN ?UL_TO_FLT
        EXTERN ?XLOAD_R2345
        EXTERN ?XSP
        EXTERN ?XSTACK_DISP0_8
        EXTERN ?XSTACK_DISP101_8
        EXTERN ?XSTACK_DISP102_8
        EXTERN __INIT_XDATA_Z

        PUBLIC ??UART_BuadCount?relay
        FUNCTION ??UART_BuadCount?relay,0203H
        PUBLIC ??Uart0SendByte?relay
        FUNCTION ??Uart0SendByte?relay,0203H
        PUBLIC ??Uart1SendByte?relay
        FUNCTION ??Uart1SendByte?relay,0203H
        PUBLIC ??at_uart_init?relay
        FUNCTION ??at_uart_init?relay,0203H
        PUBLIC ??at_uart_set_input_call?relay
        FUNCTION ??at_uart_set_input_call?relay,0203H
        PUBLIC ??at_uart_write?relay
        FUNCTION ??at_uart_write?relay,0203H
        PUBWEAK `??halUart0TxIsr??INTVEC 19`
        PUBLIC ??uart0Init?relay
        FUNCTION ??uart0Init?relay,0203H
        PUBLIC ??uart1Init?relay
        FUNCTION ??uart1Init?relay,0203H
        PUBWEAK P0DIR
        PUBWEAK P0SEL
        PUBWEAK P1DIR
        PUBWEAK P1SEL
        PUBWEAK P2DIR
        PUBWEAK PERCFG
        PUBWEAK U0BAUD
        PUBWEAK U0CSR
        PUBWEAK U0DBUF
        PUBWEAK U0GCR
        PUBWEAK U1BAUD
        PUBWEAK U1DBUF
        PUBWEAK U1GCR
        PUBLIC UART_BuadCount
        FUNCTION UART_BuadCount,0a1203H
        ARGFRAME XSTACK, 18, STACK
        ARGFRAME IOVERLAY, 0, STATIC
        ARGFRAME DOVERLAY, 0, STATIC
        LOCFRAME ISTACK, 4, STACK
        LOCFRAME XSTACK, 26, STACK
        PUBLIC Uart0SendByte
        FUNCTION Uart0SendByte,0203H
        ARGFRAME XSTACK, 9, STACK
        ARGFRAME IOVERLAY, 0, STATIC
        ARGFRAME DOVERLAY, 0, STATIC
        PUBLIC Uart1SendByte
        FUNCTION Uart1SendByte,0203H
        ARGFRAME XSTACK, 0, STACK
        PUBWEAK _A_IEN0
        PUBWEAK _A_U1CSR
        PUBWEAK __Constant_40000000
        PUBWEAK __Constant_41e00000
        PUBWEAK __Constant_45960000
        PUBWEAK __Constant_46160000
        PUBWEAK __Constant_46960000
        PUBWEAK __Constant_47160000
        PUBWEAK __Constant_47960000
        PUBWEAK __Constant_48610000
        PUBWEAK __Constant_c3800000
        PUBLIC at_uart_init
        FUNCTION at_uart_init,021203H
        ARGFRAME XSTACK, 0, STACK
        LOCFRAME ISTACK, 2, STACK
        PUBLIC at_uart_set_input_call
        FUNCTION at_uart_set_input_call,0203H
        ARGFRAME XSTACK, 0, STACK
        LOCFRAME ISTACK, 2, STACK
        PUBLIC at_uart_write
        FUNCTION at_uart_write,021203H
        ARGFRAME XSTACK, 8, STACK
        ARGFRAME IOVERLAY, 0, STATIC
        ARGFRAME DOVERLAY, 0, STATIC
        LOCFRAME XSTACK, 9, STACK
        PUBLIC halUart0TxIsr
        FUNCTION halUart0TxIsr,0233H
        ARGFRAME XSTACK, 0, STACK
        LOCFRAME XSTACK, 14, STACK
        PUBLIC putchar
        FUNCTION putchar,021203H
        ARGFRAME XSTACK, 0, STACK
        LOCFRAME XSTACK, 8, STACK
        PUBLIC uart0Init
        FUNCTION uart0Init,0a1203H
        ARGFRAME XSTACK, 0, STACK
        ARGFRAME IOVERLAY, 0, STATIC
        ARGFRAME DOVERLAY, 0, STATIC
        LOCFRAME XSTACK, 18, STACK
        PUBLIC uart1Init
        FUNCTION uart1Init,0a1203H
        ARGFRAME XSTACK, 0, STACK
        LOCFRAME XSTACK, 18, STACK
        
          CFI Names cfiNames0
          CFI StackFrame CFA_SP SP IDATA
          CFI StackFrame CFA_PSP16 PSP16 XDATA
          CFI StackFrame CFA_XSP16 XSP16 XDATA
          CFI StaticOverlayFrame CFA_IOVERLAY IOVERLAY
          CFI StaticOverlayFrame CFA_DOVERLAY DOVERLAY
          CFI Resource `PSW.CY`:1, `B.BR0`:1, `B.BR1`:1, `B.BR2`:1, `B.BR3`:1
          CFI Resource `B.BR4`:1, `B.BR5`:1, `B.BR6`:1, `B.BR7`:1, `VB.BR8`:1
          CFI Resource `VB.BR9`:1, `VB.BR10`:1, `VB.BR11`:1, `VB.BR12`:1
          CFI Resource `VB.BR13`:1, `VB.BR14`:1, `VB.BR15`:1, VB:8, B:8, A:8
          CFI Resource PSW:8, DPL0:8, DPH0:8, R0:8, R1:8, R2:8, R3:8, R4:8, R5:8
          CFI Resource R6:8, R7:8, V0:8, V1:8, V2:8, V3:8, V4:8, V5:8, V6:8, V7:8
          CFI Resource SP:8, PSPH:8, PSPL:8, PSP16:16, XSPH:8, XSPL:8, XSP16:16
          CFI VirtualResource ?RET:24
          CFI Resource ?BRET_EXT:8
          CFI VirtualResource ?RET_HIGH:8, ?RET_LOW:8
          CFI ResourceParts PSP16 PSPH, PSPL
          CFI ResourceParts XSP16 XSPH, XSPL
          CFI ResourceParts ?RET ?BRET_EXT, ?RET_HIGH, ?RET_LOW
          CFI EndNames cfiNames0
        
          CFI Common cfiCommon0 Using cfiNames0
          CFI CodeAlign 1
          CFI DataAlign -1
          CFI ReturnAddress ?RET CODE
          CFI CFA_DOVERLAY Used
          CFI CFA_IOVERLAY Used
          CFI CFA_SP SP+-3
          CFI CFA_PSP16 PSP16+0
          CFI CFA_XSP16 XSP16+0
          CFI `PSW.CY` SameValue
          CFI `B.BR0` SameValue
          CFI `B.BR1` SameValue
          CFI `B.BR2` SameValue
          CFI `B.BR3` SameValue
          CFI `B.BR4` SameValue
          CFI `B.BR5` SameValue
          CFI `B.BR6` SameValue
          CFI `B.BR7` SameValue
          CFI `VB.BR8` SameValue
          CFI `VB.BR9` SameValue
          CFI `VB.BR10` SameValue
          CFI `VB.BR11` SameValue
          CFI `VB.BR12` SameValue
          CFI `VB.BR13` SameValue
          CFI `VB.BR14` SameValue
          CFI `VB.BR15` SameValue
          CFI VB SameValue
          CFI B Undefined
          CFI A Undefined
          CFI PSW SameValue
          CFI DPL0 SameValue
          CFI DPH0 SameValue
          CFI R0 Undefined
          CFI R1 Undefined
          CFI R2 Undefined
          CFI R3 Undefined
          CFI R4 Undefined
          CFI R5 Undefined
          CFI R6 SameValue
          CFI R7 SameValue
          CFI V0 SameValue
          CFI V1 SameValue
          CFI V2 SameValue
          CFI V3 SameValue
          CFI V4 SameValue
          CFI V5 SameValue
          CFI V6 SameValue
          CFI V7 SameValue
          CFI PSPH Undefined
          CFI PSPL Undefined
          CFI XSPH Undefined
          CFI XSPL Undefined
          CFI ?RET Concat
          CFI ?BRET_EXT Frame(CFA_SP, 3)
          CFI ?RET_HIGH Frame(CFA_SP, 2)
          CFI ?RET_LOW Frame(CFA_SP, 1)
          CFI EndCommon cfiCommon0
        
        
          CFI Common cfiCommon1 Using cfiNames0
          CFI CodeAlign 1
          CFI DataAlign -1
          CFI ReturnAddress ?RET CODE
          CFI CFA_DOVERLAY Used
          CFI CFA_IOVERLAY Used
          CFI CFA_SP SP+-2
          CFI CFA_PSP16 PSP16+0
          CFI CFA_XSP16 XSP16+0
          CFI `PSW.CY` SameValue
          CFI `B.BR0` SameValue
          CFI `B.BR1` SameValue
          CFI `B.BR2` SameValue
          CFI `B.BR3` SameValue
          CFI `B.BR4` SameValue
          CFI `B.BR5` SameValue
          CFI `B.BR6` SameValue
          CFI `B.BR7` SameValue
          CFI `VB.BR8` SameValue
          CFI `VB.BR9` SameValue
          CFI `VB.BR10` SameValue
          CFI `VB.BR11` SameValue
          CFI `VB.BR12` SameValue
          CFI `VB.BR13` SameValue
          CFI `VB.BR14` SameValue
          CFI `VB.BR15` SameValue
          CFI VB SameValue
          CFI B SameValue
          CFI A SameValue
          CFI PSW SameValue
          CFI DPL0 SameValue
          CFI DPH0 SameValue
          CFI R0 SameValue
          CFI R1 SameValue
          CFI R2 SameValue
          CFI R3 SameValue
          CFI R4 SameValue
          CFI R5 SameValue
          CFI R6 SameValue
          CFI R7 SameValue
          CFI V0 SameValue
          CFI V1 SameValue
          CFI V2 SameValue
          CFI V3 SameValue
          CFI V4 SameValue
          CFI V5 SameValue
          CFI V6 SameValue
          CFI V7 SameValue
          CFI PSPH Undefined
          CFI PSPL Undefined
          CFI XSPH Undefined
          CFI XSPL Undefined
          CFI ?RET Concat
          CFI ?BRET_EXT SameValue
          CFI ?RET_HIGH Frame(CFA_SP, 2)
          CFI ?RET_LOW Frame(CFA_SP, 1)
          CFI EndCommon cfiCommon1
        
        
          CFI Common cfiCommon2 Using cfiNames0
          CFI CodeAlign 1
          CFI DataAlign -1
          CFI ReturnAddress ?RET CODE
          CFI CFA_DOVERLAY Used
          CFI CFA_IOVERLAY Used
          CFI CFA_SP SP+-2
          CFI CFA_PSP16 PSP16+0
          CFI CFA_XSP16 XSP16+0
          CFI `PSW.CY` SameValue
          CFI `B.BR0` SameValue
          CFI `B.BR1` SameValue
          CFI `B.BR2` SameValue
          CFI `B.BR3` SameValue
          CFI `B.BR4` SameValue
          CFI `B.BR5` SameValue
          CFI `B.BR6` SameValue
          CFI `B.BR7` SameValue
          CFI `VB.BR8` SameValue
          CFI `VB.BR9` SameValue
          CFI `VB.BR10` SameValue
          CFI `VB.BR11` SameValue
          CFI `VB.BR12` SameValue
          CFI `VB.BR13` SameValue
          CFI `VB.BR14` SameValue
          CFI `VB.BR15` SameValue
          CFI VB SameValue
          CFI B Undefined
          CFI A Undefined
          CFI PSW SameValue
          CFI DPL0 SameValue
          CFI DPH0 SameValue
          CFI R0 Undefined
          CFI R1 Undefined
          CFI R2 Undefined
          CFI R3 Undefined
          CFI R4 Undefined
          CFI R5 Undefined
          CFI R6 SameValue
          CFI R7 SameValue
          CFI V0 SameValue
          CFI V1 SameValue
          CFI V2 SameValue
          CFI V3 SameValue
          CFI V4 SameValue
          CFI V5 SameValue
          CFI V6 SameValue
          CFI V7 SameValue
          CFI PSPH Undefined
          CFI PSPL Undefined
          CFI XSPH Undefined
          CFI XSPL Undefined
          CFI ?RET Concat
          CFI ?BRET_EXT SameValue
          CFI ?RET_HIGH Frame(CFA_SP, 2)
          CFI ?RET_LOW Frame(CFA_SP, 1)
          CFI EndCommon cfiCommon2
        
pow                 SYMBOL "pow"
??pow?relay         SYMBOL "?relay", pow
UART_BuadCount      SYMBOL "UART_BuadCount"
??UART_BuadCount?relay SYMBOL "?relay", UART_BuadCount
Uart0SendByte       SYMBOL "Uart0SendByte"
??Uart0SendByte?relay SYMBOL "?relay", Uart0SendByte
Uart1SendByte       SYMBOL "Uart1SendByte"
??Uart1SendByte?relay SYMBOL "?relay", Uart1SendByte
at_uart_init        SYMBOL "at_uart_init"
??at_uart_init?relay SYMBOL "?relay", at_uart_init
at_uart_set_input_call SYMBOL "at_uart_set_input_call"
??at_uart_set_input_call?relay SYMBOL "?relay", at_uart_set_input_call
at_uart_write       SYMBOL "at_uart_write"
??at_uart_write?relay SYMBOL "?relay", at_uart_write
halUart0TxIsr       SYMBOL "halUart0TxIsr"
`??halUart0TxIsr??INTVEC 19` SYMBOL "??INTVEC 19", halUart0TxIsr
uart0Init           SYMBOL "uart0Init"
??uart0Init?relay   SYMBOL "?relay", uart0Init
uart1Init           SYMBOL "uart1Init"
??uart1Init?relay   SYMBOL "?relay", uart1Init

        EXTERN ??pow?relay
        FUNCTION ??pow?relay,00H
        EXTERN pow
        FUNCTION pow,010202H
        ARGFRAME ISTACK, 4, STACK
        ARGFRAME PSTACK, 0, STACK
        ARGFRAME XSTACK, 26, STACK
        ARGFRAME IOVERLAY, 0, STATIC
        ARGFRAME DOVERLAY, 0, STATIC

// I:\1_git_code\EPnode_OTA\CC2530 IAP\CC2530_stack\zstack-2.4.0-1.4.0x\Projects\zstack\Samples\common\at-uart.c
//    1 /*********************************************************************************************
//    2 * 文件：at-uart.c
//    3 * 作者：Xuzhy 2018.5.16
//    4 * 说明：节点AT指令串口初始化
//    5 * 修改：fuyou 增加透传驱动
//    6 * 注释：
//    7 *********************************************************************************************/
//    8 
//    9 /*********************************************************************************************
//   10 * 头文件
//   11 *********************************************************************************************/
//   12 #include <iocc2530.h>

        ASEGN SFR_AN:DATA:NOROOT,086H
// unsigned char volatile __sfr U0CSR
U0CSR:
        DATA8
        DS 1

        ASEGN SFR_AN:DATA:NOROOT,0a8H
// union <unnamed> volatile __sfr _A_IEN0
_A_IEN0:
        DATA8
        DS 1

        ASEGN SFR_AN:DATA:NOROOT,0c1H
// unsigned char volatile __sfr U0DBUF
U0DBUF:
        DATA8
        DS 1

        ASEGN SFR_AN:DATA:NOROOT,0c2H
// unsigned char volatile __sfr U0BAUD
U0BAUD:
        DATA8
        DS 1

        ASEGN SFR_AN:DATA:NOROOT,0c5H
// unsigned char volatile __sfr U0GCR
U0GCR:
        DATA8
        DS 1

        ASEGN SFR_AN:DATA:NOROOT,0f1H
// unsigned char volatile __sfr PERCFG
PERCFG:
        DATA8
        DS 1

        ASEGN SFR_AN:DATA:NOROOT,0f3H
// unsigned char volatile __sfr P0SEL
P0SEL:
        DATA8
        DS 1

        ASEGN SFR_AN:DATA:NOROOT,0f4H
// unsigned char volatile __sfr P1SEL
P1SEL:
        DATA8
        DS 1

        ASEGN SFR_AN:DATA:NOROOT,0f8H
// union <unnamed> volatile __sfr _A_U1CSR
_A_U1CSR:
        DATA8
        DS 1

        ASEGN SFR_AN:DATA:NOROOT,0f9H
// unsigned char volatile __sfr U1DBUF
U1DBUF:
        DATA8
        DS 1

        ASEGN SFR_AN:DATA:NOROOT,0faH
// unsigned char volatile __sfr U1BAUD
U1BAUD:
        DATA8
        DS 1

        ASEGN SFR_AN:DATA:NOROOT,0fcH
// unsigned char volatile __sfr U1GCR
U1GCR:
        DATA8
        DS 1

        ASEGN SFR_AN:DATA:NOROOT,0fdH
// unsigned char volatile __sfr P0DIR
P0DIR:
        DATA8
        DS 1

        ASEGN SFR_AN:DATA:NOROOT,0feH
// unsigned char volatile __sfr P1DIR
P1DIR:
        DATA8
        DS 1

        ASEGN SFR_AN:DATA:NOROOT,0ffH
// unsigned char volatile __sfr P2DIR
P2DIR:
        DATA8
        DS 1
//   13 #include <stdio.h>
//   14 #include "hal_mcu.h"
//   15 #include "at-uart.h"
//   16 #include "math.h"
//   17 /*********************************************************************************************
//   18 * 宏定义
//   19 *********************************************************************************************/
//   20 #define SUPPOER_DEBUG 1
//   21 /*********************************************************************************************
//   22 * 函数原型说明
//   23 *********************************************************************************************/

        RSEG XDATA_Z:XDATA:NOROOT(0)
        DATA16
//   24 static void (*_input)(char ch);
_input:
        DS 2
        REQUIRE __INIT_XDATA_Z
//   25 /*********************************************************************************************
//   26 * 名称：UART_BuadCount
//   27 * 功能：串口波特率计算
//   28 * 参数：baud:波特率
//   29 * 返回：无
//   30 * 修改：
//   31 * 注释：根据波特率计算寄存器值
//   32 *********************************************************************************************/

        RSEG BANKED_CODE:CODE:NOROOT(0)
//   33 void UART_BuadCount(double* baud,char* baud_e,char* baud_m)
UART_BuadCount:
          CFI Block cfiBlock0 Using cfiCommon0
          CFI Function UART_BuadCount
        CODE
//   34 {
        FUNCALL UART_BuadCount, pow
        LOCFRAME ISTACK, 0, STACK
        LOCFRAME PSTACK, 0, STACK
        LOCFRAME XSTACK, 26, STACK
        LOCFRAME IOVERLAY, 0, STATIC
        LOCFRAME DOVERLAY, 0, STATIC
        ARGFRAME ISTACK, 0, STACK
        ARGFRAME PSTACK, 0, STACK
        ARGFRAME XSTACK, 26, STACK
        ARGFRAME IOVERLAY, 0, STATIC
        ARGFRAME DOVERLAY, 0, STATIC
        FUNCALL UART_BuadCount, pow
        LOCFRAME ISTACK, 4, STACK
        LOCFRAME PSTACK, 0, STACK
        LOCFRAME XSTACK, 26, STACK
        LOCFRAME IOVERLAY, 0, STATIC
        LOCFRAME DOVERLAY, 0, STATIC
        ARGFRAME ISTACK, 4, STACK
        ARGFRAME PSTACK, 0, STACK
        ARGFRAME XSTACK, 26, STACK
        ARGFRAME IOVERLAY, 0, STATIC
        ARGFRAME DOVERLAY, 0, STATIC
        REQUIRE ?V0
        REQUIRE ?V1
        REQUIRE ?V2
        REQUIRE ?V3
        REQUIRE ?V4
        REQUIRE ?V5
        REQUIRE ?V6
        REQUIRE ?V7
        MOV     A,#-0x10
        LCALL   ?BANKED_ENTER_XDATA
          CFI DPH0 load(1, XDATA, add(CFA_XSP16, literal(-1)))
          CFI DPL0 load(1, XDATA, add(CFA_XSP16, literal(-2)))
          CFI ?BRET_EXT load(1, XDATA, add(CFA_XSP16, literal(-3)))
          CFI ?RET_HIGH load(1, XDATA, add(CFA_XSP16, literal(-4)))
          CFI ?RET_LOW load(1, XDATA, add(CFA_XSP16, literal(-5)))
          CFI R7 load(1, XDATA, add(CFA_XSP16, literal(-6)))
          CFI V7 load(1, XDATA, add(CFA_XSP16, literal(-7)))
          CFI V6 load(1, XDATA, add(CFA_XSP16, literal(-8)))
          CFI V5 load(1, XDATA, add(CFA_XSP16, literal(-9)))
          CFI V4 load(1, XDATA, add(CFA_XSP16, literal(-10)))
          CFI V3 load(1, XDATA, add(CFA_XSP16, literal(-11)))
          CFI V2 load(1, XDATA, add(CFA_XSP16, literal(-12)))
          CFI V1 load(1, XDATA, add(CFA_XSP16, literal(-13)))
          CFI V0 load(1, XDATA, add(CFA_XSP16, literal(-14)))
          CFI VB load(1, XDATA, add(CFA_XSP16, literal(-15)))
          CFI R6 load(1, XDATA, add(CFA_XSP16, literal(-16)))
          CFI CFA_SP SP+0
          CFI CFA_XSP16 add(XSP16, 16)
        ; Saved register size: 16
        ; Auto size: 6
        MOV     A,#-0x6
        LCALL   ?ALLOC_XSTACK8
          CFI CFA_XSP16 add(XSP16, 22)
        MOV     DPL,?XSP + 0
        MOV     DPH,?XSP + 1
        MOV     A,R4
        MOVX    @DPTR,A
        INC     DPTR
        MOV     A,R5
        MOVX    @DPTR,A
        MOV     A,R2
        MOV     R6,A
        MOV     A,R3
        MOV     R7,A
//   35 	double sys_clk_baud = 32000000.0;							//系统时钟
        MOV     R2,#0x0
        MOV     R3,#0x24
        MOV     R4,#-0xc
        MOV     R5,#0x4b
        MOV     A,#0x2
        LCALL   ?XSTACK_DISP0_8
        MOV     A,R2
        MOVX    @DPTR,A
        INC     DPTR
        MOV     A,R3
        MOVX    @DPTR,A
        INC     DPTR
        MOV     A,R4
        MOVX    @DPTR,A
        INC     DPTR
        MOV     A,R5
        MOVX    @DPTR,A
//   36 	
//   37 	/*根据波特率选择baud_e*/
//   38 	if(*baud<4800)
        MOV     DPL,R6
        MOV     DPH,R7
        MOV     R0,#?V4
        LCALL   ?L_MOV_X
        MOV     DPTR,#__Constant_45960000
        MOV     R0,#?V0
        LCALL   ?L_MOV_X
        MOV     R0,#?V4
        MOV     R1,#?V0
        LCALL   ?FLT_LT
        JNC     ??UART_BuadCount_0
//   39 	{
//   40 		*baud_e = 6;
        MOV     DPL,?XSP + 0
        MOV     DPH,?XSP + 1
        MOVX    A,@DPTR
        MOV     R0,A
        INC     DPTR
        MOVX    A,@DPTR
        MOV     DPH,A
        MOV     DPL,R0
        MOV     A,#0x6
        MOVX    @DPTR,A
        LJMP    ??UART_BuadCount_1 & 0xFFFF
//   41 	}
//   42 	else if((*baud>=4800)&&(*baud<9600))
??UART_BuadCount_0:
        MOV     DPL,R6
        MOV     DPH,R7
        MOV     R0,#?V4
        LCALL   ?L_MOV_X
        MOV     DPTR,#__Constant_45960000
        MOV     R0,#?V0
        LCALL   ?L_MOV_X
        MOV     R0,#?V4
        MOV     R1,#?V0
        LCALL   ?FLT_GE
        JNC     ??UART_BuadCount_2
        MOV     DPL,R6
        MOV     DPH,R7
        MOV     R0,#?V4
        LCALL   ?L_MOV_X
        MOV     DPTR,#__Constant_46160000
        MOV     R0,#?V0
        LCALL   ?L_MOV_X
        MOV     R0,#?V4
        MOV     R1,#?V0
        LCALL   ?FLT_LT
        JNC     ??UART_BuadCount_2
//   43 	{
//   44 		*baud_e = 7;
        MOV     DPL,?XSP + 0
        MOV     DPH,?XSP + 1
        MOVX    A,@DPTR
        MOV     R0,A
        INC     DPTR
        MOVX    A,@DPTR
        MOV     DPH,A
        MOV     DPL,R0
        MOV     A,#0x7
        MOVX    @DPTR,A
        LJMP    ??UART_BuadCount_1 & 0xFFFF
//   45 	}
//   46 	else if((*baud>=9600)&&(*baud<19200))
??UART_BuadCount_2:
        MOV     DPL,R6
        MOV     DPH,R7
        MOV     R0,#?V4
        LCALL   ?L_MOV_X
        MOV     DPTR,#__Constant_46160000
        MOV     R0,#?V0
        LCALL   ?L_MOV_X
        MOV     R0,#?V4
        MOV     R1,#?V0
        LCALL   ?FLT_GE
        JNC     ??UART_BuadCount_3
        MOV     DPL,R6
        MOV     DPH,R7
        MOV     R0,#?V4
        LCALL   ?L_MOV_X
        MOV     DPTR,#__Constant_46960000
        MOV     R0,#?V0
        LCALL   ?L_MOV_X
        MOV     R0,#?V4
        MOV     R1,#?V0
        LCALL   ?FLT_LT
        JNC     ??UART_BuadCount_3
//   47 	{
//   48 		*baud_e = 8;
        MOV     DPL,?XSP + 0
        MOV     DPH,?XSP + 1
        MOVX    A,@DPTR
        MOV     R0,A
        INC     DPTR
        MOVX    A,@DPTR
        MOV     DPH,A
        MOV     DPL,R0
        MOV     A,#0x8
        MOVX    @DPTR,A
        LJMP    ??UART_BuadCount_1 & 0xFFFF
//   49 	}
//   50 	else if((*baud>=19200)&&(*baud<38400))
??UART_BuadCount_3:
        MOV     DPL,R6
        MOV     DPH,R7
        MOV     R0,#?V4
        LCALL   ?L_MOV_X
        MOV     DPTR,#__Constant_46960000
        MOV     R0,#?V0
        LCALL   ?L_MOV_X
        MOV     R0,#?V4
        MOV     R1,#?V0
        LCALL   ?FLT_GE
        JNC     ??UART_BuadCount_4
        MOV     DPL,R6
        MOV     DPH,R7
        MOV     R0,#?V4
        LCALL   ?L_MOV_X
        MOV     DPTR,#__Constant_47160000
        MOV     R0,#?V0
        LCALL   ?L_MOV_X
        MOV     R0,#?V4
        MOV     R1,#?V0
        LCALL   ?FLT_LT
        JNC     ??UART_BuadCount_4
//   51 	{
//   52 		*baud_e = 9;
        MOV     DPL,?XSP + 0
        MOV     DPH,?XSP + 1
        MOVX    A,@DPTR
        MOV     R0,A
        INC     DPTR
        MOVX    A,@DPTR
        MOV     DPH,A
        MOV     DPL,R0
        MOV     A,#0x9
        MOVX    @DPTR,A
        LJMP    ??UART_BuadCount_1 & 0xFFFF
//   53 	}
//   54 	else if((*baud>=38400)&&(*baud<76800))
??UART_BuadCount_4:
        MOV     DPL,R6
        MOV     DPH,R7
        MOV     R0,#?V4
        LCALL   ?L_MOV_X
        MOV     DPTR,#__Constant_47160000
        MOV     R0,#?V0
        LCALL   ?L_MOV_X
        MOV     R0,#?V4
        MOV     R1,#?V0
        LCALL   ?FLT_GE
        JNC     ??UART_BuadCount_5
        MOV     DPL,R6
        MOV     DPH,R7
        MOV     R0,#?V4
        LCALL   ?L_MOV_X
        MOV     DPTR,#__Constant_47960000
        MOV     R0,#?V0
        LCALL   ?L_MOV_X
        MOV     R0,#?V4
        MOV     R1,#?V0
        LCALL   ?FLT_LT
        JNC     ??UART_BuadCount_5
//   55 	{
//   56 		*baud_e = 10;
        MOV     DPL,?XSP + 0
        MOV     DPH,?XSP + 1
        MOVX    A,@DPTR
        MOV     R0,A
        INC     DPTR
        MOVX    A,@DPTR
        MOV     DPH,A
        MOV     DPL,R0
        MOV     A,#0xa
        MOVX    @DPTR,A
        SJMP    ??UART_BuadCount_1
//   57 	}
//   58 	else if((*baud>=76800)&&(*baud<230400))
??UART_BuadCount_5:
        MOV     DPL,R6
        MOV     DPH,R7
        MOV     R0,#?V4
        LCALL   ?L_MOV_X
        MOV     DPTR,#__Constant_47960000
        MOV     R0,#?V0
        LCALL   ?L_MOV_X
        MOV     R0,#?V4
        MOV     R1,#?V0
        LCALL   ?FLT_GE
        JNC     ??UART_BuadCount_6
        MOV     DPL,R6
        MOV     DPH,R7
        MOV     R0,#?V4
        LCALL   ?L_MOV_X
        MOV     DPTR,#__Constant_48610000
        MOV     R0,#?V0
        LCALL   ?L_MOV_X
        MOV     R0,#?V4
        MOV     R1,#?V0
        LCALL   ?FLT_LT
        JNC     ??UART_BuadCount_6
//   59 	{
//   60 		*baud_e = 11;
        MOV     DPL,?XSP + 0
        MOV     DPH,?XSP + 1
        MOVX    A,@DPTR
        MOV     R0,A
        INC     DPTR
        MOVX    A,@DPTR
        MOV     DPH,A
        MOV     DPL,R0
        MOV     A,#0xb
        MOVX    @DPTR,A
        SJMP    ??UART_BuadCount_1
//   61 	}
//   62 	else
//   63 	{
//   64 		*baud_e = 12;
??UART_BuadCount_6:
        MOV     DPL,?XSP + 0
        MOV     DPH,?XSP + 1
        MOVX    A,@DPTR
        MOV     R0,A
        INC     DPTR
        MOVX    A,@DPTR
        MOV     DPH,A
        MOV     DPL,R0
        MOV     A,#0xc
        MOVX    @DPTR,A
//   65 	}
//   66 	
//   67 	/*计算baud_m*/
//   68 	*baud_m = (char)((((*baud)*pow(2,28))/(sys_clk_baud*pow(2,*baud_e)))-256.0);
??UART_BuadCount_1:
        ; Setup parameters for call to function pow
        MOV     DPTR,#__Constant_41e00000
        LCALL   ?PUSH_XSTACK8_X_FOUR
          CFI CFA_XSP16 add(XSP16, 26)
        MOV     DPTR,#__Constant_40000000
        LCALL   ?XLOAD_R2345
        LCALL   ??pow?relay          ; Banked call to: pow
        MOV     A,#0x4
        LCALL   ?DEALLOC_XSTACK8
          CFI CFA_XSP16 add(XSP16, 22)
        MOV     ?V4,R2
        MOV     ?V5,R3
        MOV     ?V6,R4
        MOV     ?V7,R5
        MOV     DPL,R6
        MOV     DPH,R7
        MOV     R0,#?V0
        LCALL   ?L_MOV_X
        MOV     R0,#?V0
        MOV     R1,#?V4
        LCALL   ?FLT_MUL
        PUSH    ?V0
          CFI CFA_SP SP+-1
        PUSH    ?V1
          CFI CFA_SP SP+-2
        PUSH    ?V2
          CFI CFA_SP SP+-3
        PUSH    ?V3
          CFI CFA_SP SP+-4
        MOV     A,#0x2
        LCALL   ?XSTACK_DISP0_8
        MOV     R0,#?V4
        LCALL   ?L_MOV_X
        ; Setup parameters for call to function pow
        MOV     DPL,?XSP + 0
        MOV     DPH,?XSP + 1
        MOVX    A,@DPTR
        MOV     R0,A
        INC     DPTR
        MOVX    A,@DPTR
        MOV     DPH,A
        MOV     DPL,R0
        MOVX    A,@DPTR
        MOV     ?V0,A
        CLR     A
        MOV     ?V1,A
        MOV     ?V2,A
        MOV     ?V3,A
        MOV     R0,#?V0
        LCALL   ?UL_TO_FLT
        MOV     R0,#?V0
        LCALL   ?PUSH_XSTACK_I_FOUR
          CFI CFA_XSP16 add(XSP16, 26)
        MOV     DPTR,#__Constant_40000000
        LCALL   ?XLOAD_R2345
        LCALL   ??pow?relay          ; Banked call to: pow
        MOV     A,#0x4
        LCALL   ?DEALLOC_XSTACK8
          CFI CFA_XSP16 add(XSP16, 22)
        MOV     ?V0,R2
        MOV     ?V1,R3
        MOV     ?V2,R4
        MOV     ?V3,R5
        MOV     R0,#?V4
        MOV     R1,#?V0
        LCALL   ?FLT_MUL
        POP     ?V3
          CFI CFA_SP SP+-3
        POP     ?V2
          CFI CFA_SP SP+-2
        POP     ?V1
          CFI CFA_SP SP+-1
        POP     ?V0
          CFI CFA_SP SP+0
        MOV     R0,#?V0
        MOV     R1,#?V4
        LCALL   ?FLT_DIV
        MOV     DPTR,#__Constant_c3800000
        MOV     R0,#?V4
        LCALL   ?L_MOV_X
        MOV     R0,#?V0
        MOV     R1,#?V4
        LCALL   ?FLT_ADD
        MOV     R0,#?V0
        LCALL   ?FLT_TO_L
        MOV     A,?V0
        PUSH    A
          CFI CFA_SP SP+-1
        MOV     A,#0x16
        LCALL   ?XSTACK_DISP0_8
        MOVX    A,@DPTR
        MOV     R0,A
        INC     DPTR
        MOVX    A,@DPTR
        MOV     DPH,A
        MOV     DPL,R0
        POP     A
          CFI CFA_SP SP+0
        MOVX    @DPTR,A
//   69 }
        MOV     A,#0x6
        LCALL   ?DEALLOC_XSTACK8
          CFI CFA_XSP16 add(XSP16, 16)
        MOV     R7,#0x8
        LJMP    ?BANKED_LEAVE_XDATA
          CFI EndBlock cfiBlock0
//   70 /*********************************************************************************************
//   71 * 名称：uart0Init
//   72 * 功能：uart0初始化，复用到位置1
//   73 * 参数：baud:波特率
//   74 * 返回：无
//   75 * 修改：
//   76 * 注释：
//   77 *********************************************************************************************/

        RSEG BANKED_CODE:CODE:NOROOT(0)
//   78 void uart0Init(double baud)
uart0Init:
          CFI Block cfiBlock1 Using cfiCommon0
          CFI Function uart0Init
        CODE
//   79 {
        FUNCALL uart0Init, UART_BuadCount
        LOCFRAME ISTACK, 0, STACK
        LOCFRAME PSTACK, 0, STACK
        LOCFRAME XSTACK, 18, STACK
        LOCFRAME IOVERLAY, 0, STATIC
        LOCFRAME DOVERLAY, 0, STATIC
        ARGFRAME ISTACK, 0, STACK
        ARGFRAME PSTACK, 0, STACK
        ARGFRAME XSTACK, 18, STACK
        ARGFRAME IOVERLAY, 0, STATIC
        ARGFRAME DOVERLAY, 0, STATIC
        REQUIRE ?V0
        REQUIRE ?V1
        MOV     A,#-0xa
        LCALL   ?BANKED_ENTER_XDATA
          CFI DPH0 load(1, XDATA, add(CFA_XSP16, literal(-1)))
          CFI DPL0 load(1, XDATA, add(CFA_XSP16, literal(-2)))
          CFI ?BRET_EXT load(1, XDATA, add(CFA_XSP16, literal(-3)))
          CFI ?RET_HIGH load(1, XDATA, add(CFA_XSP16, literal(-4)))
          CFI ?RET_LOW load(1, XDATA, add(CFA_XSP16, literal(-5)))
          CFI R7 load(1, XDATA, add(CFA_XSP16, literal(-6)))
          CFI V1 load(1, XDATA, add(CFA_XSP16, literal(-7)))
          CFI V0 load(1, XDATA, add(CFA_XSP16, literal(-8)))
          CFI VB load(1, XDATA, add(CFA_XSP16, literal(-9)))
          CFI R6 load(1, XDATA, add(CFA_XSP16, literal(-10)))
          CFI CFA_SP SP+0
          CFI CFA_XSP16 add(XSP16, 10)
        ; Saved register size: 10
        ; Auto size: 6
        MOV     A,#-0x6
        LCALL   ?ALLOC_XSTACK8
          CFI CFA_XSP16 add(XSP16, 16)
        MOV     A,#0x2
        LCALL   ?XSTACK_DISP0_8
        MOV     A,R2
        MOVX    @DPTR,A
        INC     DPTR
        MOV     A,R3
        MOVX    @DPTR,A
        INC     DPTR
        MOV     A,R4
        MOVX    @DPTR,A
        INC     DPTR
        MOV     A,R5
        MOVX    @DPTR,A
//   80 	char baud_e,baud_m;
//   81 	
//   82 	P0SEL |=  0x0C;                 							//初始化UART0端口
        ORL     0xf3,#0xc
//   83 	PERCFG&= ~0x01;                 							//选择UART0为可选位置一
        ANL     0xf1,#0xfe
//   84 	P0DIR &= ~(1<<2);                 							//P02,IN
        ANL     0xfd,#0xfb
//   85 	P0DIR |= (1<<3);                 							//PO3,OUT
        ORL     0xfd,#0x8
//   86 	P2DIR &= ~0xC0;                 							//P0优先作为串口0
        ANL     0xff,#0x3f
//   87 	
//   88 	U0CSR = 0xC0;                   							//设置为UART模式,而且使能接受器
        MOV     0x86,#-0x40
//   89 	UART_BuadCount(&baud,&baud_e,&baud_m);						//计算波特率
        ; Setup parameters for call to function UART_BuadCount
        MOV     R0,?XSP + 0
        MOV     R1,?XSP + 1
        MOV     ?V0,R0
        MOV     ?V1,R1
        MOV     R0,#?V0
        LCALL   ?PUSH_XSTACK_I_TWO
          CFI CFA_XSP16 add(XSP16, 18)
        MOV     A,#0x3
        LCALL   ?XSTACK_DISP102_8
        MOV     A,#0x4
        LCALL   ?XSTACK_DISP101_8
        LCALL   ??UART_BuadCount?relay; Banked call to: UART_BuadCount
        MOV     A,#0x2
        LCALL   ?DEALLOC_XSTACK8
          CFI CFA_XSP16 add(XSP16, 16)
//   90 	U0GCR = baud_e;                  
        MOV     A,#0x1
        LCALL   ?XSTACK_DISP0_8
        MOVX    A,@DPTR
        MOV     0xc5,A
//   91 	U0BAUD = baud_m;                  							//设置波特率
        MOV     DPL,?XSP + 0
        MOV     DPH,?XSP + 1
        MOVX    A,@DPTR
        MOV     0xc2,A
//   92     
//   93     //设置中断优先级最高
//   94     //IP0 |= (1<<2);
//   95     //IP1 |= (1<<2);
//   96     
//   97 	URX0IE = 1;													//串口接收中断使能
        SETB    0xa8.2
//   98 	//EA = 1;														//开总中断
//   99 }
        MOV     A,#0x6
        LCALL   ?DEALLOC_XSTACK8
          CFI CFA_XSP16 add(XSP16, 10)
        MOV     R7,#0x2
        LJMP    ?BANKED_LEAVE_XDATA
          CFI EndBlock cfiBlock1
        REQUIRE P0SEL
        REQUIRE PERCFG
        REQUIRE P0DIR
        REQUIRE P2DIR
        REQUIRE U0CSR
        REQUIRE U0GCR
        REQUIRE U0BAUD
        REQUIRE _A_IEN0
//  100 /*********************************************************************************************
//  101 * 名称：uart1Init
//  102 * 功能：uart1初始化，复用到位置2
//  103 * 参数：baud:波特率
//  104 * 返回：无
//  105 * 修改：
//  106 * 注释：
//  107 *********************************************************************************************/

        RSEG BANKED_CODE:CODE:NOROOT(0)
//  108 void uart1Init(double baud)
uart1Init:
          CFI Block cfiBlock2 Using cfiCommon0
          CFI Function uart1Init
        CODE
//  109 {
        FUNCALL uart1Init, UART_BuadCount
        LOCFRAME ISTACK, 0, STACK
        LOCFRAME PSTACK, 0, STACK
        LOCFRAME XSTACK, 18, STACK
        LOCFRAME IOVERLAY, 0, STATIC
        LOCFRAME DOVERLAY, 0, STATIC
        ARGFRAME ISTACK, 0, STACK
        ARGFRAME PSTACK, 0, STACK
        ARGFRAME XSTACK, 18, STACK
        ARGFRAME IOVERLAY, 0, STATIC
        ARGFRAME DOVERLAY, 0, STATIC
        REQUIRE ?V0
        REQUIRE ?V1
        MOV     A,#-0xa
        LCALL   ?BANKED_ENTER_XDATA
          CFI DPH0 load(1, XDATA, add(CFA_XSP16, literal(-1)))
          CFI DPL0 load(1, XDATA, add(CFA_XSP16, literal(-2)))
          CFI ?BRET_EXT load(1, XDATA, add(CFA_XSP16, literal(-3)))
          CFI ?RET_HIGH load(1, XDATA, add(CFA_XSP16, literal(-4)))
          CFI ?RET_LOW load(1, XDATA, add(CFA_XSP16, literal(-5)))
          CFI R7 load(1, XDATA, add(CFA_XSP16, literal(-6)))
          CFI V1 load(1, XDATA, add(CFA_XSP16, literal(-7)))
          CFI V0 load(1, XDATA, add(CFA_XSP16, literal(-8)))
          CFI VB load(1, XDATA, add(CFA_XSP16, literal(-9)))
          CFI R6 load(1, XDATA, add(CFA_XSP16, literal(-10)))
          CFI CFA_SP SP+0
          CFI CFA_XSP16 add(XSP16, 10)
        ; Saved register size: 10
        ; Auto size: 6
        MOV     A,#-0x6
        LCALL   ?ALLOC_XSTACK8
          CFI CFA_XSP16 add(XSP16, 16)
        MOV     A,#0x2
        LCALL   ?XSTACK_DISP0_8
        MOV     A,R2
        MOVX    @DPTR,A
        INC     DPTR
        MOV     A,R3
        MOVX    @DPTR,A
        INC     DPTR
        MOV     A,R4
        MOVX    @DPTR,A
        INC     DPTR
        MOV     A,R5
        MOVX    @DPTR,A
//  110 	char baud_e,baud_m;
//  111 	
//  112 	/*UART1，IO初始化,P16,P17*/
//  113 	P1SEL |= ((1<<6)|(1<<7));									//选择IO功能为外设
        ORL     0xf4,#0xc0
//  114 	PERCFG |= (1<<1);											//选择复用到位置2
        ORL     0xf1,#0x2
//  115 	P1DIR &= ~(1<<7);											//设置P17为输入
        ANL     0xfe,#0x7f
//  116 	P1DIR |= (1<<6);											//设置P16为输出
        ORL     0xfe,#0x40
//  117     
//  118 	/*UART初始化*/
//  119 	U1CSR = ((1<<7)|(1<<6));									//设置为UART模式,使能接收
        MOV     0xf8,#-0x40
//  120 	UART_BuadCount(&baud,&baud_e,&baud_m);						//计算波特率
        ; Setup parameters for call to function UART_BuadCount
        MOV     R0,?XSP + 0
        MOV     R1,?XSP + 1
        MOV     ?V0,R0
        MOV     ?V1,R1
        MOV     R0,#?V0
        LCALL   ?PUSH_XSTACK_I_TWO
          CFI CFA_XSP16 add(XSP16, 18)
        MOV     A,#0x3
        LCALL   ?XSTACK_DISP102_8
        MOV     A,#0x4
        LCALL   ?XSTACK_DISP101_8
        LCALL   ??UART_BuadCount?relay; Banked call to: UART_BuadCount
        MOV     A,#0x2
        LCALL   ?DEALLOC_XSTACK8
          CFI CFA_XSP16 add(XSP16, 16)
//  121 	U1GCR = baud_e;
        MOV     A,#0x1
        LCALL   ?XSTACK_DISP0_8
        MOVX    A,@DPTR
        MOV     0xfc,A
//  122 	U1BAUD = baud_m;											//设置波特率
        MOV     DPL,?XSP + 0
        MOV     DPH,?XSP + 1
        MOVX    A,@DPTR
        MOV     0xfa,A
//  123     
//  124     //设置中断优先级最高
//  125     //IP0 |= (1<<3);
//  126     //IP1 |= (1<<3);
//  127     
//  128 	URX1IE = 1;													//串口接收中断使能
        SETB    0xa8.3
//  129 	//EA = 1;														//开总中断
//  130 }
        MOV     A,#0x6
        LCALL   ?DEALLOC_XSTACK8
          CFI CFA_XSP16 add(XSP16, 10)
        MOV     R7,#0x2
        LJMP    ?BANKED_LEAVE_XDATA
          CFI EndBlock cfiBlock2
        REQUIRE P1SEL
        REQUIRE PERCFG
        REQUIRE P1DIR
        REQUIRE _A_U1CSR
        REQUIRE U1GCR
        REQUIRE U1BAUD
        REQUIRE _A_IEN0
//  131 /*********************************************************************************************
//  132 * 名称：Uart0SendByte
//  133 * 功能：串口0发送字节函数
//  134 * 参数：ch:要发送的字节
//  135 * 返回：无
//  136 * 修改：
//  137 * 注释：
//  138 *********************************************************************************************/

        RSEG BANKED_CODE:CODE:NOROOT(0)
//  139 void Uart0SendByte(unsigned char ch)
Uart0SendByte:
          CFI Block cfiBlock3 Using cfiCommon0
          CFI Function Uart0SendByte
        CODE
//  140 {
        ; Saved register size: 0
        ; Auto size: 0
//  141   /*
//  142 	U0DBUF = ch;
//  143 	while(UTX0IF == 0);
//  144 	UTX0IF = 0;
//  145   */
//  146        U0DBUF = ch;
        MOV     0xc1,R1
//  147      while((U0CSR&0x02) == 0);
??Uart0SendByte_0:
        MOV     A,0x86
        MOV     C,0xE0 /* A   */.1
        JNC     ??Uart0SendByte_0
//  148      U0CSR = U0CSR&~0x02;
        ANL     0x86,#0xfd
//  149 }
        LJMP    ?BRET
          CFI EndBlock cfiBlock3
        REQUIRE U0DBUF
        REQUIRE U0CSR
//  150 /*********************************************************************************************
//  151 * 名称：Uart1SendByte
//  152 * 功能：串口1发送字节函数
//  153 * 参数：ch:要发送的字节
//  154 * 返回：无
//  155 * 修改：
//  156 * 注释：
//  157 *********************************************************************************************/

        RSEG BANKED_CODE:CODE:NOROOT(0)
//  158 void Uart1SendByte(unsigned char ch)
Uart1SendByte:
          CFI Block cfiBlock4 Using cfiCommon0
          CFI Function Uart1SendByte
        CODE
//  159 {
        ; Saved register size: 0
        ; Auto size: 0
//  160 	/*U1DBUF = ch;
//  161 	while(UTX1IF == 0);
//  162 	UTX1IF = 0;*/
//  163      U1DBUF = ch;
        MOV     0xf9,R1
//  164      while(U1TX_BYTE == 0);
??Uart1SendByte_0:
        MOV     C,0xf8.1
        JNC     ??Uart1SendByte_0
//  165      U1TX_BYTE = 0;
        CLR     0xf8.1
//  166 }
        LJMP    ?BRET
          CFI EndBlock cfiBlock4
        REQUIRE U1DBUF
        REQUIRE _A_U1CSR
//  167 /*********************************************************************************************
//  168 * 名称：at_uart_init()
//  169 * 功能：节点AT指令串口初始化
//  170 * 参数：
//  171 * 返回：
//  172 * 修改：
//  173 * 注释：
//  174 *********************************************************************************************/

        RSEG BANKED_CODE:CODE:NOROOT(0)
//  175 void at_uart_init(void)
at_uart_init:
          CFI Block cfiBlock5 Using cfiCommon0
          CFI Function at_uart_init
        CODE
//  176 {
        FUNCALL at_uart_init, uart0Init
        LOCFRAME ISTACK, 2, STACK
        LOCFRAME PSTACK, 0, STACK
        LOCFRAME XSTACK, 0, STACK
        LOCFRAME IOVERLAY, 0, STATIC
        LOCFRAME DOVERLAY, 0, STATIC
        ARGFRAME ISTACK, 2, STACK
        ARGFRAME PSTACK, 0, STACK
        ARGFRAME XSTACK, 0, STACK
        ARGFRAME IOVERLAY, 0, STATIC
        ARGFRAME DOVERLAY, 0, STATIC
        PUSH    DPL
          CFI DPL0 Frame(CFA_SP, 4)
          CFI CFA_SP SP+-4
        PUSH    DPH
          CFI DPH0 Frame(CFA_SP, 5)
          CFI CFA_SP SP+-5
        ; Saved register size: 2
        ; Auto size: 0
//  177 #if defined(CC2530_Serial)
//  178     uart0Init(38400);
        ; Setup parameters for call to function uart0Init
        MOV     DPTR,#__Constant_47160000
        LCALL   ?XLOAD_R2345
        LCALL   ??uart0Init?relay    ; Banked call to: uart0Init
//  179 #else
//  180     uart1Init(38400);
//  181 #endif
//  182 }
        POP     DPH
          CFI DPH0 SameValue
          CFI CFA_SP SP+-4
        POP     DPL
          CFI DPL0 SameValue
          CFI CFA_SP SP+-3
        LJMP    ?BRET
          CFI EndBlock cfiBlock5
//  183 /*********************************************************************************************
//  184 * 名称：at_uart_write()
//  185 * 功能：节点AT指令串口写数据
//  186 * 参数：
//  187 * 返回：
//  188 * 修改：
//  189 * 注释：
//  190 *********************************************************************************************/

        RSEG BANKED_CODE:CODE:NOROOT(0)
//  191 void at_uart_write(char ch)
at_uart_write:
          CFI Block cfiBlock6 Using cfiCommon0
          CFI Function at_uart_write
        CODE
//  192 {
        FUNCALL at_uart_write, Uart0SendByte
        LOCFRAME ISTACK, 0, STACK
        LOCFRAME PSTACK, 0, STACK
        LOCFRAME XSTACK, 9, STACK
        LOCFRAME IOVERLAY, 0, STATIC
        LOCFRAME DOVERLAY, 0, STATIC
        ARGFRAME ISTACK, 0, STACK
        ARGFRAME PSTACK, 0, STACK
        ARGFRAME XSTACK, 9, STACK
        ARGFRAME IOVERLAY, 0, STATIC
        ARGFRAME DOVERLAY, 0, STATIC
        MOV     A,#-0x9
        LCALL   ?BANKED_ENTER_XDATA
          CFI DPH0 load(1, XDATA, add(CFA_XSP16, literal(-1)))
          CFI DPL0 load(1, XDATA, add(CFA_XSP16, literal(-2)))
          CFI ?BRET_EXT load(1, XDATA, add(CFA_XSP16, literal(-3)))
          CFI ?RET_HIGH load(1, XDATA, add(CFA_XSP16, literal(-4)))
          CFI ?RET_LOW load(1, XDATA, add(CFA_XSP16, literal(-5)))
          CFI R7 load(1, XDATA, add(CFA_XSP16, literal(-6)))
          CFI V0 load(1, XDATA, add(CFA_XSP16, literal(-7)))
          CFI VB load(1, XDATA, add(CFA_XSP16, literal(-8)))
          CFI R6 load(1, XDATA, add(CFA_XSP16, literal(-9)))
          CFI CFA_SP SP+0
          CFI CFA_XSP16 add(XSP16, 9)
        ; Saved register size: 9
        ; Auto size: 0
        MOV     A,R1
        MOV     R6,A
//  193 #if defined(CC2530_Serial)
//  194     Uart0SendByte(ch);
        ; Setup parameters for call to function Uart0SendByte
        MOV     A,R6
        MOV     R1,A
        LCALL   ??Uart0SendByte?relay; Banked call to: Uart0SendByte
//  195 #else
//  196     Uart1SendByte(ch);
//  197 #endif
//  198 }
        MOV     R7,#0x1
        LJMP    ?BANKED_LEAVE_XDATA
          CFI EndBlock cfiBlock6
//  199 /*********************************************************************************************
//  200 * 名称：at_uart_set_input_call()
//  201 * 功能：节点AT指令串口读数据
//  202 * 参数：
//  203 * 返回：
//  204 * 修改：
//  205 * 注释：
//  206 *********************************************************************************************/

        RSEG BANKED_CODE:CODE:NOROOT(0)
//  207 void at_uart_set_input_call(void (*c)(char ch))
at_uart_set_input_call:
          CFI Block cfiBlock7 Using cfiCommon0
          CFI Function at_uart_set_input_call
        CODE
//  208 {
        PUSH    DPL
          CFI DPL0 Frame(CFA_SP, 4)
          CFI CFA_SP SP+-4
        PUSH    DPH
          CFI DPH0 Frame(CFA_SP, 5)
          CFI CFA_SP SP+-5
        ; Saved register size: 2
        ; Auto size: 0
//  209   _input = c;
        MOV     DPTR,#_input
        MOV     A,R2
        MOVX    @DPTR,A
        INC     DPTR
        MOV     A,R3
        MOVX    @DPTR,A
//  210 }
        POP     DPH
          CFI DPH0 SameValue
          CFI CFA_SP SP+-4
        POP     DPL
          CFI DPL0 SameValue
          CFI CFA_SP SP+-3
        LJMP    ?BRET
          CFI EndBlock cfiBlock7
//  211 /*********************************************************************************************
//  212 * 名称：HAL_ISR_FUNCTION()
//  213 * 功能：节点AT指令串口中断处理
//  214 * 参数：
//  215 * 返回：
//  216 * 修改：
//  217 * 注释：
//  218 *********************************************************************************************/
//  219 #if defined(CC2530_Serial)

        RSEG NEAR_CODE:CODE:NOROOT(0)
//  220 HAL_ISR_FUNCTION(halUart0TxIsr, URX0_VECTOR)
halUart0TxIsr:
          CFI Block cfiBlock8 Using cfiCommon1
          CFI Function halUart0TxIsr
        CODE
//  221 {
        PUSH    A
          CFI A Frame(CFA_SP, 3)
          CFI CFA_SP SP+-3
        MOV     A,#-0xe
        LCALL   ?INTERRUPT_ENTER_XSP
          CFI B load(1, XDATA, add(CFA_XSP16, literal(-1)))
          CFI VB load(1, XDATA, add(CFA_XSP16, literal(-2)))
          CFI PSW load(1, XDATA, add(CFA_XSP16, literal(-3)))
          CFI DPL0 load(1, XDATA, add(CFA_XSP16, literal(-4)))
          CFI DPH0 load(1, XDATA, add(CFA_XSP16, literal(-5)))
          CFI R7 load(1, XDATA, add(CFA_XSP16, literal(-6)))
          CFI R6 load(1, XDATA, add(CFA_XSP16, literal(-7)))
          CFI R5 load(1, XDATA, add(CFA_XSP16, literal(-8)))
          CFI R4 load(1, XDATA, add(CFA_XSP16, literal(-9)))
          CFI V0 load(1, XDATA, add(CFA_XSP16, literal(-10)))
          CFI R3 load(1, XDATA, add(CFA_XSP16, literal(-11)))
          CFI R2 load(1, XDATA, add(CFA_XSP16, literal(-12)))
          CFI R1 load(1, XDATA, add(CFA_XSP16, literal(-13)))
          CFI R0 load(1, XDATA, add(CFA_XSP16, literal(-14)))
          CFI CFA_XSP16 add(XSP16, 14)
        ; Saved register size: 14
        ; Auto size: 0
//  222     char ch;
//  223     ch = U0DBUF;
        MOV     R6,0xc1+0x0
//  224     if (_input != NULL) {
        MOV     DPTR,#_input
        MOVX    A,@DPTR
        MOV     R0,A
        INC     DPTR
        MOVX    A,@DPTR
        MOV     R1,A
        MOV     A,R0
        ORL     A,R1
        JZ      ??halUart0TxIsr_0
//  225       _input(ch);
        ; Setup parameters for indirect call
        MOV     A,R6
        MOV     R1,A
        MOV     DPTR,#_input
        MOVX    A,@DPTR
        MOV     R0,A
        INC     DPTR
        MOVX    A,@DPTR
        MOV     DPH,A
        MOV     DPL,R0
        LCALL   ?CALL_IND
//  226     }
//  227 }
??halUart0TxIsr_0:
        MOV     R7,#0x1
        LJMP    ?INTERRUPT_LEAVE_XSP
          CFI EndBlock cfiBlock8
        REQUIRE U0DBUF
//  228 #else
//  229 HAL_ISR_FUNCTION(halUart1TxIsr, URX1_VECTOR)
//  230 {
//  231   char ch;
//  232     ch = U1DBUF;
//  233     if (_input != NULL) {
//  234       _input(ch);
//  235     }
//  236 }
//  237 #endif
//  238 /*********************************************************************************************
//  239 * 名称：putchar()
//  240 * 功能：printf iar 调试接口
//  241 * 参数：
//  242 * 返回：
//  243 * 修改：
//  244 * 注释：
//  245 *********************************************************************************************/
//  246 #if  SUPPOER_DEBUG

        RSEG NEAR_CODE:CODE:NOROOT(0)
//  247 __near_func int  putchar(int ch) 
putchar:
          CFI Block cfiBlock9 Using cfiCommon2
          CFI Function putchar
        CODE
//  248 {
        FUNCALL putchar, at_uart_write
        LOCFRAME ISTACK, 0, STACK
        LOCFRAME PSTACK, 0, STACK
        LOCFRAME XSTACK, 8, STACK
        LOCFRAME IOVERLAY, 0, STATIC
        LOCFRAME DOVERLAY, 0, STATIC
        ARGFRAME ISTACK, 0, STACK
        ARGFRAME PSTACK, 0, STACK
        ARGFRAME XSTACK, 8, STACK
        ARGFRAME IOVERLAY, 0, STATIC
        ARGFRAME DOVERLAY, 0, STATIC
        MOV     A,#-0x8
        LCALL   ?FUNC_ENTER_XDATA
          CFI DPH0 load(1, XDATA, add(CFA_XSP16, literal(-1)))
          CFI DPL0 load(1, XDATA, add(CFA_XSP16, literal(-2)))
          CFI ?RET_HIGH load(1, XDATA, add(CFA_XSP16, literal(-3)))
          CFI ?RET_LOW load(1, XDATA, add(CFA_XSP16, literal(-4)))
          CFI R7 load(1, XDATA, add(CFA_XSP16, literal(-5)))
          CFI V0 load(1, XDATA, add(CFA_XSP16, literal(-6)))
          CFI VB load(1, XDATA, add(CFA_XSP16, literal(-7)))
          CFI R6 load(1, XDATA, add(CFA_XSP16, literal(-8)))
          CFI CFA_SP SP+0
          CFI CFA_XSP16 add(XSP16, 8)
        ; Saved register size: 8
        ; Auto size: 0
        MOV     A,R2
        MOV     R6,A
        MOV     A,R3
        MOV     R7,A
//  249   at_uart_write(ch);
        ; Setup parameters for call to function at_uart_write
        MOV     A,R6
        MOV     R1,A
        LCALL   ??at_uart_write?relay; Banked call to: at_uart_write
//  250   return ch;
        MOV     A,R6
        MOV     R2,A
        MOV     A,R7
        MOV     R3,A
        MOV     R7,#0x1
        LJMP    ?FUNC_LEAVE_XDATA
          CFI EndBlock cfiBlock9
//  251 }

        COMMON INTVEC:CODE:ROOT(0)
        ORG 19
`??halUart0TxIsr??INTVEC 19`:
        LJMP       (halUart0TxIsr)

        RSEG XDATA_ROM_C:CONST:REORDER:NOROOT(0)
        DATA32
__Constant_45960000:
        DD 45960000H

        RSEG XDATA_ROM_C:CONST:REORDER:NOROOT(0)
        DATA32
__Constant_46160000:
        DD 46160000H

        RSEG XDATA_ROM_C:CONST:REORDER:NOROOT(0)
        DATA32
__Constant_46960000:
        DD 46960000H

        RSEG XDATA_ROM_C:CONST:REORDER:NOROOT(0)
        DATA32
__Constant_47160000:
        DD 47160000H

        RSEG XDATA_ROM_C:CONST:REORDER:NOROOT(0)
        DATA32
__Constant_47960000:
        DD 47960000H

        RSEG XDATA_ROM_C:CONST:REORDER:NOROOT(0)
        DATA32
__Constant_48610000:
        DD 48610000H

        RSEG XDATA_ROM_C:CONST:REORDER:NOROOT(0)
        DATA32
__Constant_41e00000:
        DD 41E00000H

        RSEG XDATA_ROM_C:CONST:REORDER:NOROOT(0)
        DATA32
__Constant_40000000:
        DD 40000000H

        RSEG XDATA_ROM_C:CONST:REORDER:NOROOT(0)
        DATA32
__Constant_c3800000:
        DD 0C3800000H

        RSEG BANK_RELAYS:CODE:REORDER:NOROOT(0)
??UART_BuadCount?relay:
        CODE
        LCALL   ?BDISPATCH
        DATA24
        DC24    UART_BuadCount

        RSEG BANK_RELAYS:CODE:REORDER:NOROOT(0)
??uart0Init?relay:
        CODE
        LCALL   ?BDISPATCH
        DATA24
        DC24    uart0Init

        RSEG BANK_RELAYS:CODE:REORDER:NOROOT(0)
??uart1Init?relay:
        CODE
        LCALL   ?BDISPATCH
        DATA24
        DC24    uart1Init

        RSEG BANK_RELAYS:CODE:REORDER:NOROOT(0)
??Uart0SendByte?relay:
        CODE
        LCALL   ?BDISPATCH
        DATA24
        DC24    Uart0SendByte

        RSEG BANK_RELAYS:CODE:REORDER:NOROOT(0)
??Uart1SendByte?relay:
        CODE
        LCALL   ?BDISPATCH
        DATA24
        DC24    Uart1SendByte

        RSEG BANK_RELAYS:CODE:REORDER:NOROOT(0)
??at_uart_init?relay:
        CODE
        LCALL   ?BDISPATCH
        DATA24
        DC24    at_uart_init

        RSEG BANK_RELAYS:CODE:REORDER:NOROOT(0)
??at_uart_write?relay:
        CODE
        LCALL   ?BDISPATCH
        DATA24
        DC24    at_uart_write

        RSEG BANK_RELAYS:CODE:REORDER:NOROOT(0)
??at_uart_set_input_call?relay:
        CODE
        LCALL   ?BDISPATCH
        DATA24
        DC24    at_uart_set_input_call

        END
//  252 #endif
// 
// 946 bytes in segment BANKED_CODE
//  48 bytes in segment BANK_RELAYS
//   3 bytes in segment INTVEC
//  65 bytes in segment NEAR_CODE
//  15 bytes in segment SFR_AN
//  36 bytes in segment XDATA_ROM_C
//   2 bytes in segment XDATA_Z
// 
// 1 059 bytes of CODE  memory (+  3 bytes shared)
//     0 bytes of CONST memory (+ 36 bytes shared)
//     0 bytes of DATA  memory (+ 15 bytes shared)
//     2 bytes of XDATA memory
//
//Errors: none
//Warnings: none
