///////////////////////////////////////////////////////////////////////////////
//
// IAR C/C++ Compiler V9.10.1.2146 for 8051               07/Jul/2023  16:40:36
// Copyright 2004-2014 IAR Systems AB.
// Standalone license - IAR Embedded Workbench for 8051
//
//    Core               =  plain
//    Code model         =  banked
//    Data model         =  large
//    Calling convention =  xdata reentrant
//    Constant location  =  data_rom
//    Dptr setup         =  1,16
//                          
//    Source file        =  
//        I:\1_git_code\EPnode_OTA\CC2530
//        IAP\CC2530_stack\zstack-2.4.0-1.4.0x\Projects\zstack\Samples\common\at.c
//    Command line       =  
//        -f "I:\1_git_code\EPnode_OTA\CC2530
//        IAP\CC2530_stack\zstack-2.4.0-1.4.0x\Projects\zstack\Samples\CC2530-Serial(IAP)\CC2530DB\..\..\..\Tools\CC2530DB\f8wRouter.cfg"
//        (-DCPU32MHZ -DROOT=__near_func -DMAC_CFG_APP_PENDING_QUEUE=TRUE
//        -DMAC_CFG_TX_DATA_MAX=5 -DMAC_CFG_TX_MAX=8 -DMAC_CFG_RX_MAX=5
//        -DRTR_NWK) -f "I:\1_git_code\EPnode_OTA\CC2530
//        IAP\CC2530_stack\zstack-2.4.0-1.4.0x\Projects\zstack\Samples\CC2530-Serial(IAP)\CC2530DB\..\..\..\Tools\CC2530DB\f8wConfig.cfg"
//        (-DZIGBEEPRO -DSECURE=0 -DZG_SECURE_DYNAMIC=0 -DREFLECTOR
//        -DDEFAULT_CHANLIST=0x00000800 -DZDAPP_CONFIG_PAN_ID=8448
//        -DNWK_START_DELAY=100 -DEXTENDED_JOINING_RANDOM_MASK=0x007F
//        -DBEACON_REQUEST_DELAY=100 -DBEACON_REQ_DELAY_MASK=0x00FF
//        -DLINK_STATUS_JITTER_MASK=0x007F -DROUTE_EXPIRY_TIME=30
//        -DAPSC_ACK_WAIT_DURATION_POLLED=3000 -DNWK_INDIRECT_MSG_TIMEOUT=7
//        -DMAX_RREQ_ENTRIES=8 -DAPSC_MAX_FRAME_RETRIES=3
//        -DNWK_MAX_DATA_RETRIES=2 -DMAX_POLL_FAILURE_RETRIES=2 -DMAX_BCAST=9
//        -DAPS_MAX_GROUPS=16 -DMAX_RTG_ENTRIES=40 -DNWK_MAX_BINDING_ENTRIES=4
//        -DMAX_BINDING_CLUSTER_IDS=4 "-DDEFAULT_KEY={0x01, 0x03, 0x05, 0x07,
//        0x09, 0x0B, 0x0D, 0x0F, 0x00, 0x02, 0x04, 0x06, 0x08, 0x0A, 0x0C,
//        0x0D}" -DMAC_MAX_FRAME_SIZE=116 -DZDNWKMGR_MIN_TRANSMISSIONS=20
//        "-DCONST=const __code" -DGENERIC=__generic -DRFD_RCVC_ALWAYS_ON=TRUE
//        -DPOLL_RATE=1000 -DQUEUED_POLL_RATE=100 -DRESPONSE_POLL_RATE=100)
//        -DREJOIN_POLL_RATE=440 "I:\1_git_code\EPnode_OTA\CC2530
//        IAP\CC2530_stack\zstack-2.4.0-1.4.0x\Projects\zstack\Samples\common\at.c"
//        -D HOLD_AUTO_START -D BUILD_ALL_DEVICES -D REFLECTOR -D NV_INIT -D
//        XLAB -D CC2530_Serial -D MAKE_CRC_SHDW -D CC2530_USE_IAP -lC
//        "I:\1_git_code\EPnode_OTA\CC2530
//        IAP\CC2530_stack\zstack-2.4.0-1.4.0x\Projects\zstack\Samples\CC2530-Serial(IAP)\CC2530DB\CC2530-Serial\List\"
//        -lA "I:\1_git_code\EPnode_OTA\CC2530
//        IAP\CC2530_stack\zstack-2.4.0-1.4.0x\Projects\zstack\Samples\CC2530-Serial(IAP)\CC2530DB\CC2530-Serial\List\"
//        --diag_suppress Pe001,Pa010 -o "I:\1_git_code\EPnode_OTA\CC2530
//        IAP\CC2530_stack\zstack-2.4.0-1.4.0x\Projects\zstack\Samples\CC2530-Serial(IAP)\CC2530DB\CC2530-Serial\Obj\"
//        -e --no_cse --no_unroll --no_inline --no_code_motion --no_tbaa
//        --debug --core=plain --dptr=16,1 --data_model=large
//        --code_model=banked --calling_convention=xdata_reentrant
//        --place_constants=data_rom --nr_virtual_regs 8 -I
//        "I:\1_git_code\EPnode_OTA\CC2530
//        IAP\CC2530_stack\zstack-2.4.0-1.4.0x\Projects\zstack\Samples\CC2530-Serial(IAP)\CC2530DB\"
//        -I "I:\1_git_code\EPnode_OTA\CC2530
//        IAP\CC2530_stack\zstack-2.4.0-1.4.0x\Projects\zstack\Samples\CC2530-Serial(IAP)\CC2530DB\..\Source\"
//        -I "I:\1_git_code\EPnode_OTA\CC2530
//        IAP\CC2530_stack\zstack-2.4.0-1.4.0x\Projects\zstack\Samples\CC2530-Serial(IAP)\CC2530DB\..\..\common\"
//        -I "I:\1_git_code\EPnode_OTA\CC2530
//        IAP\CC2530_stack\zstack-2.4.0-1.4.0x\Projects\zstack\Samples\CC2530-Serial(IAP)\CC2530DB\..\..\..\ZMain\TI2530DB\"
//        -I "I:\1_git_code\EPnode_OTA\CC2530
//        IAP\CC2530_stack\zstack-2.4.0-1.4.0x\Projects\zstack\Samples\CC2530-Serial(IAP)\CC2530DB\..\..\..\..\..\Components\hal\include\"
//        -I "I:\1_git_code\EPnode_OTA\CC2530
//        IAP\CC2530_stack\zstack-2.4.0-1.4.0x\Projects\zstack\Samples\CC2530-Serial(IAP)\CC2530DB\..\..\..\..\..\Components\hal\target\CC2530EB\"
//        -I "I:\1_git_code\EPnode_OTA\CC2530
//        IAP\CC2530_stack\zstack-2.4.0-1.4.0x\Projects\zstack\Samples\CC2530-Serial(IAP)\CC2530DB\..\..\..\..\..\Components\mac\include\"
//        -I "I:\1_git_code\EPnode_OTA\CC2530
//        IAP\CC2530_stack\zstack-2.4.0-1.4.0x\Projects\zstack\Samples\CC2530-Serial(IAP)\CC2530DB\..\..\..\..\..\Components\mac\high_level\"
//        -I "I:\1_git_code\EPnode_OTA\CC2530
//        IAP\CC2530_stack\zstack-2.4.0-1.4.0x\Projects\zstack\Samples\CC2530-Serial(IAP)\CC2530DB\..\..\..\..\..\Components\mac\low_level\srf04\"
//        -I "I:\1_git_code\EPnode_OTA\CC2530
//        IAP\CC2530_stack\zstack-2.4.0-1.4.0x\Projects\zstack\Samples\CC2530-Serial(IAP)\CC2530DB\..\..\..\..\..\Components\mac\low_level\srf04\single_chip\"
//        -I "I:\1_git_code\EPnode_OTA\CC2530
//        IAP\CC2530_stack\zstack-2.4.0-1.4.0x\Projects\zstack\Samples\CC2530-Serial(IAP)\CC2530DB\..\..\..\..\..\Components\mt\"
//        -I "I:\1_git_code\EPnode_OTA\CC2530
//        IAP\CC2530_stack\zstack-2.4.0-1.4.0x\Projects\zstack\Samples\CC2530-Serial(IAP)\CC2530DB\..\..\..\..\..\Components\osal\include\"
//        -I "I:\1_git_code\EPnode_OTA\CC2530
//        IAP\CC2530_stack\zstack-2.4.0-1.4.0x\Projects\zstack\Samples\CC2530-Serial(IAP)\CC2530DB\..\..\..\..\..\Components\osal\mcu\ccsoc\"
//        -I "I:\1_git_code\EPnode_OTA\CC2530
//        IAP\CC2530_stack\zstack-2.4.0-1.4.0x\Projects\zstack\Samples\CC2530-Serial(IAP)\CC2530DB\..\..\..\..\..\Components\services\saddr\"
//        -I "I:\1_git_code\EPnode_OTA\CC2530
//        IAP\CC2530_stack\zstack-2.4.0-1.4.0x\Projects\zstack\Samples\CC2530-Serial(IAP)\CC2530DB\..\..\..\..\..\Components\services\sdata\"
//        -I "I:\1_git_code\EPnode_OTA\CC2530
//        IAP\CC2530_stack\zstack-2.4.0-1.4.0x\Projects\zstack\Samples\CC2530-Serial(IAP)\CC2530DB\..\..\..\..\..\Components\stack\af\"
//        -I "I:\1_git_code\EPnode_OTA\CC2530
//        IAP\CC2530_stack\zstack-2.4.0-1.4.0x\Projects\zstack\Samples\CC2530-Serial(IAP)\CC2530DB\..\..\..\..\..\Components\stack\nwk\"
//        -I "I:\1_git_code\EPnode_OTA\CC2530
//        IAP\CC2530_stack\zstack-2.4.0-1.4.0x\Projects\zstack\Samples\CC2530-Serial(IAP)\CC2530DB\..\..\..\..\..\Components\stack\sapi\"
//        -I "I:\1_git_code\EPnode_OTA\CC2530
//        IAP\CC2530_stack\zstack-2.4.0-1.4.0x\Projects\zstack\Samples\CC2530-Serial(IAP)\CC2530DB\..\..\..\..\..\Components\stack\sec\"
//        -I "I:\1_git_code\EPnode_OTA\CC2530
//        IAP\CC2530_stack\zstack-2.4.0-1.4.0x\Projects\zstack\Samples\CC2530-Serial(IAP)\CC2530DB\..\..\..\..\..\Components\stack\sys\"
//        -I "I:\1_git_code\EPnode_OTA\CC2530
//        IAP\CC2530_stack\zstack-2.4.0-1.4.0x\Projects\zstack\Samples\CC2530-Serial(IAP)\CC2530DB\..\..\..\..\..\Components\stack\zdo\"
//        -I "I:\1_git_code\EPnode_OTA\CC2530
//        IAP\CC2530_stack\zstack-2.4.0-1.4.0x\Projects\zstack\Samples\CC2530-Serial(IAP)\CC2530DB\..\..\..\..\..\Components\zmac\"
//        -I "I:\1_git_code\EPnode_OTA\CC2530
//        IAP\CC2530_stack\zstack-2.4.0-1.4.0x\Projects\zstack\Samples\CC2530-Serial(IAP)\CC2530DB\..\..\..\..\..\Components\zmac\f8w\"
//        -On
//    List file          =  
//        I:\1_git_code\EPnode_OTA\CC2530
//        IAP\CC2530_stack\zstack-2.4.0-1.4.0x\Projects\zstack\Samples\CC2530-Serial(IAP)\CC2530DB\CC2530-Serial\List\at.s51
//
///////////////////////////////////////////////////////////////////////////////

        NAME at

        RTMODEL "__SystemLibrary", "CLib"
        RTMODEL "__calling_convention", "xdata_reentrant"
        RTMODEL "__code_model", "banked"
        RTMODEL "__core", "plain"
        RTMODEL "__data_model", "large"
        RTMODEL "__dptr_size", "16"
        RTMODEL "__extended_stack", "disabled"
        RTMODEL "__iar_require _formatted_write", "flags,int_specials,widths"
        RTMODEL "__location_for_constants", "data"
        RTMODEL "__number_of_dptrs", "1"
        RTMODEL "__rt_version", "1"

        RSEG DOVERLAY:DATA:NOROOT(0)
        RSEG IOVERLAY:IDATA:NOROOT(0)
        RSEG ISTACK:IDATA:NOROOT(0)
        RSEG PSTACK:XDATA:NOROOT(0)
        RSEG XSTACK:XDATA:NOROOT(0)

        EXTERN ?V0
        EXTERN ?V1
        EXTERN ?V2
        EXTERN ?V3
        EXTERN ?V4
        EXTERN ?V5
        EXTERN ?ALLOC_XSTACK8
        EXTERN ?BANKED_ENTER_XDATA
        EXTERN ?BANKED_LEAVE_XDATA
        EXTERN ?BDISPATCH
        EXTERN ?BRET
        EXTERN ?DEALLOC_XSTACK8
        EXTERN ?MOVE_LONG8_XDATA_XDATA
        EXTERN ?PUSH_XSTACK8_X_TWO
        EXTERN ?PUSH_XSTACK_I_ONE
        EXTERN ?PUSH_XSTACK_I_TWO
        EXTERN ?SS_SHR
        EXTERN ?S_SHL
        EXTERN ?XSP
        EXTERN ?XSTACK_DISP101_8
        EXTERN __INIT_XDATA_Z

        PUBLIC ??AT_reportedLinkStatus?relay
        FUNCTION ??AT_reportedLinkStatus?relay,0203H
        FUNCTION ??_at_get_ch?relay,0203H
        FUNCTION ??_at_put_ch?relay,0203H
        PUBLIC ??at_init?relay
        FUNCTION ??at_init?relay,0203H
        PUBLIC ??at_notify_data?relay
        FUNCTION ??at_notify_data?relay,0203H
        PUBLIC ??at_proc?relay
        FUNCTION ??at_proc?relay,0203H
        FUNCTION ??at_quebuffer_get?relay,0203H
        FUNCTION ??at_quebuffer_put?relay,0203H
        PUBLIC ??at_recv_ch?relay
        FUNCTION ??at_recv_ch?relay,0203H
        PUBLIC ??at_response?relay
        FUNCTION ??at_response?relay,0203H
        PUBLIC ??at_response_buf?relay
        FUNCTION ??at_response_buf?relay,0203H
        PUBLIC AT_reportedLinkStatus
        FUNCTION AT_reportedLinkStatus,0a1203H
        ARGFRAME XSTACK, 0, STACK
        LOCFRAME XSTACK, 28, STACK
        PUBWEAK WDCTL
        PUBWEAK _A_IEN0
        FUNCTION _at_get_ch,021203H
        ARGFRAME XSTACK, 9, STACK
        ARGFRAME IOVERLAY, 0, STATIC
        ARGFRAME DOVERLAY, 0, STATIC
        LOCFRAME ISTACK, 1, STACK
        LOCFRAME XSTACK, 9, STACK
        FUNCTION _at_put_ch,021203H
        ARGFRAME XSTACK, 12, STACK
        ARGFRAME IOVERLAY, 0, STATIC
        ARGFRAME DOVERLAY, 0, STATIC
        LOCFRAME XSTACK, 9, STACK
        PUBLIC at_init
        FUNCTION at_init,021203H
        ARGFRAME XSTACK, 0, STACK
        LOCFRAME ISTACK, 2, STACK
        PUBLIC at_notify_data
        FUNCTION at_notify_data,0a1203H
        ARGFRAME XSTACK, 0, STACK
        LOCFRAME XSTACK, 32, STACK
        PUBLIC at_proc
        FUNCTION at_proc,0a1203H
        ARGFRAME XSTACK, 0, STACK
        LOCFRAME ISTACK, 1, STACK
        LOCFRAME XSTACK, 62, STACK
        FUNCTION at_quebuffer_get,080203H
        ARGFRAME XSTACK, 9, STACK
        ARGFRAME IOVERLAY, 0, STATIC
        ARGFRAME DOVERLAY, 0, STATIC
        LOCFRAME XSTACK, 10, STACK
        FUNCTION at_quebuffer_put,080203H
        ARGFRAME XSTACK, 46, STACK
        ARGFRAME IOVERLAY, 0, STATIC
        ARGFRAME DOVERLAY, 0, STATIC
        LOCFRAME XSTACK, 10, STACK
        PUBLIC at_recv_ch
        FUNCTION at_recv_ch,021603H
        ARGFRAME XSTACK, 0, STACK
        LOCFRAME XSTACK, 9, STACK
        PUBLIC at_response
        FUNCTION at_response,021203H
        ARGFRAME XSTACK, 46, STACK
        ARGFRAME IOVERLAY, 0, STATIC
        ARGFRAME DOVERLAY, 0, STATIC
        LOCFRAME XSTACK, 9, STACK
        PUBLIC at_response_buf
        FUNCTION at_response_buf,0a1203H
        ARGFRAME XSTACK, 28, STACK
        ARGFRAME IOVERLAY, 0, STATIC
        ARGFRAME DOVERLAY, 0, STATIC
        LOCFRAME XSTACK, 12, STACK
        PUBLIC sys_parameter
        
          CFI Names cfiNames0
          CFI StackFrame CFA_SP SP IDATA
          CFI StackFrame CFA_PSP16 PSP16 XDATA
          CFI StackFrame CFA_XSP16 XSP16 XDATA
          CFI StaticOverlayFrame CFA_IOVERLAY IOVERLAY
          CFI StaticOverlayFrame CFA_DOVERLAY DOVERLAY
          CFI Resource `PSW.CY`:1, `B.BR0`:1, `B.BR1`:1, `B.BR2`:1, `B.BR3`:1
          CFI Resource `B.BR4`:1, `B.BR5`:1, `B.BR6`:1, `B.BR7`:1, `VB.BR8`:1
          CFI Resource `VB.BR9`:1, `VB.BR10`:1, `VB.BR11`:1, `VB.BR12`:1
          CFI Resource `VB.BR13`:1, `VB.BR14`:1, `VB.BR15`:1, VB:8, B:8, A:8
          CFI Resource PSW:8, DPL0:8, DPH0:8, R0:8, R1:8, R2:8, R3:8, R4:8, R5:8
          CFI Resource R6:8, R7:8, V0:8, V1:8, V2:8, V3:8, V4:8, V5:8, V6:8, V7:8
          CFI Resource SP:8, PSPH:8, PSPL:8, PSP16:16, XSPH:8, XSPL:8, XSP16:16
          CFI VirtualResource ?RET:24
          CFI Resource ?BRET_EXT:8
          CFI VirtualResource ?RET_HIGH:8, ?RET_LOW:8
          CFI ResourceParts PSP16 PSPH, PSPL
          CFI ResourceParts XSP16 XSPH, XSPL
          CFI ResourceParts ?RET ?BRET_EXT, ?RET_HIGH, ?RET_LOW
          CFI EndNames cfiNames0
        
          CFI Common cfiCommon0 Using cfiNames0
          CFI CodeAlign 1
          CFI DataAlign -1
          CFI ReturnAddress ?RET CODE
          CFI CFA_DOVERLAY Used
          CFI CFA_IOVERLAY Used
          CFI CFA_SP SP+-3
          CFI CFA_PSP16 PSP16+0
          CFI CFA_XSP16 XSP16+0
          CFI `PSW.CY` SameValue
          CFI `B.BR0` SameValue
          CFI `B.BR1` SameValue
          CFI `B.BR2` SameValue
          CFI `B.BR3` SameValue
          CFI `B.BR4` SameValue
          CFI `B.BR5` SameValue
          CFI `B.BR6` SameValue
          CFI `B.BR7` SameValue
          CFI `VB.BR8` SameValue
          CFI `VB.BR9` SameValue
          CFI `VB.BR10` SameValue
          CFI `VB.BR11` SameValue
          CFI `VB.BR12` SameValue
          CFI `VB.BR13` SameValue
          CFI `VB.BR14` SameValue
          CFI `VB.BR15` SameValue
          CFI VB SameValue
          CFI B Undefined
          CFI A Undefined
          CFI PSW SameValue
          CFI DPL0 SameValue
          CFI DPH0 SameValue
          CFI R0 Undefined
          CFI R1 Undefined
          CFI R2 Undefined
          CFI R3 Undefined
          CFI R4 Undefined
          CFI R5 Undefined
          CFI R6 SameValue
          CFI R7 SameValue
          CFI V0 SameValue
          CFI V1 SameValue
          CFI V2 SameValue
          CFI V3 SameValue
          CFI V4 SameValue
          CFI V5 SameValue
          CFI V6 SameValue
          CFI V7 SameValue
          CFI PSPH Undefined
          CFI PSPL Undefined
          CFI XSPH Undefined
          CFI XSPL Undefined
          CFI ?RET Concat
          CFI ?BRET_EXT Frame(CFA_SP, 3)
          CFI ?RET_HIGH Frame(CFA_SP, 2)
          CFI ?RET_LOW Frame(CFA_SP, 1)
          CFI EndCommon cfiCommon0
        
GetChannel          SYMBOL "GetChannel"
??GetChannel?relay  SYMBOL "?relay", GetChannel
GetLinkStatus       SYMBOL "GetLinkStatus"
??GetLinkStatus?relay SYMBOL "?relay", GetLinkStatus
GetLogicalType      SYMBOL "GetLogicalType"
??GetLogicalType?relay SYMBOL "?relay", GetLogicalType
GetPanId            SYMBOL "GetPanId"
??GetPanId?relay    SYMBOL "?relay", GetPanId
HalFlashErase       SYMBOL "HalFlashErase"
??HalFlashErase?relay SYMBOL "?relay", HalFlashErase
HalFlashRead        SYMBOL "HalFlashRead"
??HalFlashRead?relay SYMBOL "?relay", HalFlashRead
HalFlashWrite       SYMBOL "HalFlashWrite"
??HalFlashWrite?relay SYMBOL "?relay", HalFlashWrite
HalLedSet           SYMBOL "HalLedSet"
??HalLedSet?relay   SYMBOL "?relay", HalLedSet
SetChannel          SYMBOL "SetChannel"
??SetChannel?relay  SYMBOL "?relay", SetChannel
SetLogicalType      SYMBOL "SetLogicalType"
??SetLogicalType?relay SYMBOL "?relay", SetLogicalType
SetPanId            SYMBOL "SetPanId"
??SetPanId?relay    SYMBOL "?relay", SetPanId
_get_at_event       SYMBOL "_get_at_event"
??_get_at_event?relay SYMBOL "?relay", _get_at_event
at_uart_init        SYMBOL "at_uart_init"
??at_uart_init?relay SYMBOL "?relay", at_uart_init
at_uart_set_input_call SYMBOL "at_uart_set_input_call"
??at_uart_set_input_call?relay SYMBOL "?relay", at_uart_set_input_call
at_uart_write       SYMBOL "at_uart_write"
??at_uart_write?relay SYMBOL "?relay", at_uart_write
atoi                SYMBOL "atoi"
??atoi?relay        SYMBOL "?relay", atoi
getLastPkgLQI       SYMBOL "getLastPkgLQI"
??getLastPkgLQI?relay SYMBOL "?relay", getLastPkgLQI
getLastPkgRssi      SYMBOL "getLastPkgRssi"
??getLastPkgRssi?relay SYMBOL "?relay", getLastPkgRssi
memcmp              SYMBOL "memcmp"
??memcmp?relay      SYMBOL "?relay", memcmp
osal_set_event      SYMBOL "osal_set_event"
??osal_set_event?relay SYMBOL "?relay", osal_set_event
sprintf             SYMBOL "sprintf"
??sprintf?relay     SYMBOL "?relay", sprintf
strcmp              SYMBOL "strcmp"
??strcmp?relay      SYMBOL "?relay", strcmp
strlen              SYMBOL "strlen"
??strlen?relay      SYMBOL "?relay", strlen
strstr              SYMBOL "strstr"
??strstr?relay      SYMBOL "?relay", strstr
user_at_proc        SYMBOL "user_at_proc"
??user_at_proc?relay SYMBOL "?relay", user_at_proc
zb_SendDataRequest  SYMBOL "zb_SendDataRequest"
??zb_SendDataRequest?relay SYMBOL "?relay", zb_SendDataRequest
zb_SystemReset      SYMBOL "zb_SystemReset"
??zb_SystemReset?relay SYMBOL "?relay", zb_SystemReset
AT_reportedLinkStatus SYMBOL "AT_reportedLinkStatus"
??AT_reportedLinkStatus?relay SYMBOL "?relay", AT_reportedLinkStatus
at_init             SYMBOL "at_init"
??at_init?relay     SYMBOL "?relay", at_init
at_notify_data      SYMBOL "at_notify_data"
??at_notify_data?relay SYMBOL "?relay", at_notify_data
at_proc             SYMBOL "at_proc"
??at_proc?relay     SYMBOL "?relay", at_proc
at_recv_ch          SYMBOL "at_recv_ch"
??at_recv_ch?relay  SYMBOL "?relay", at_recv_ch
at_response         SYMBOL "at_response"
??at_response?relay SYMBOL "?relay", at_response
at_response_buf     SYMBOL "at_response_buf"
??at_response_buf?relay SYMBOL "?relay", at_response_buf

        EXTERN ??GetChannel?relay
        FUNCTION ??GetChannel?relay,00H
        EXTERN ??GetLinkStatus?relay
        FUNCTION ??GetLinkStatus?relay,00H
        EXTERN ??GetLogicalType?relay
        FUNCTION ??GetLogicalType?relay,00H
        EXTERN ??GetPanId?relay
        FUNCTION ??GetPanId?relay,00H
        EXTERN ??HalFlashErase?relay
        FUNCTION ??HalFlashErase?relay,00H
        EXTERN ??HalFlashRead?relay
        FUNCTION ??HalFlashRead?relay,00H
        EXTERN ??HalFlashWrite?relay
        FUNCTION ??HalFlashWrite?relay,00H
        EXTERN ??HalLedSet?relay
        FUNCTION ??HalLedSet?relay,00H
        EXTERN ??SetChannel?relay
        FUNCTION ??SetChannel?relay,00H
        EXTERN ??SetLogicalType?relay
        FUNCTION ??SetLogicalType?relay,00H
        EXTERN ??SetPanId?relay
        FUNCTION ??SetPanId?relay,00H
        EXTERN ??_get_at_event?relay
        FUNCTION ??_get_at_event?relay,00H
        EXTERN ??at_uart_init?relay
        FUNCTION ??at_uart_init?relay,00H
        EXTERN ??at_uart_set_input_call?relay
        FUNCTION ??at_uart_set_input_call?relay,00H
        EXTERN ??at_uart_write?relay
        FUNCTION ??at_uart_write?relay,00H
        EXTERN ??atoi?relay
        FUNCTION ??atoi?relay,00H
        EXTERN ??getLastPkgLQI?relay
        FUNCTION ??getLastPkgLQI?relay,00H
        EXTERN ??getLastPkgRssi?relay
        FUNCTION ??getLastPkgRssi?relay,00H
        EXTERN ??memcmp?relay
        FUNCTION ??memcmp?relay,00H
        EXTERN ??osal_set_event?relay
        FUNCTION ??osal_set_event?relay,00H
        EXTERN ??sprintf?relay
        FUNCTION ??sprintf?relay,00H
        EXTERN ??strcmp?relay
        FUNCTION ??strcmp?relay,00H
        EXTERN ??strlen?relay
        FUNCTION ??strlen?relay,00H
        EXTERN ??strstr?relay
        FUNCTION ??strstr?relay,00H
        EXTERN ??user_at_proc?relay
        FUNCTION ??user_at_proc?relay,00H
        EXTERN ??zb_SendDataRequest?relay
        FUNCTION ??zb_SendDataRequest?relay,00H
        EXTERN ??zb_SystemReset?relay
        FUNCTION ??zb_SystemReset?relay,00H
        EXTERN GetChannel
        FUNCTION GetChannel,0202H
        ARGFRAME ISTACK, 0, STACK
        ARGFRAME PSTACK, 0, STACK
        ARGFRAME XSTACK, 46, STACK
        ARGFRAME IOVERLAY, 0, STATIC
        ARGFRAME DOVERLAY, 0, STATIC
        EXTERN GetLinkStatus
        FUNCTION GetLinkStatus,0202H
        ARGFRAME ISTACK, 0, STACK
        ARGFRAME PSTACK, 0, STACK
        ARGFRAME XSTACK, 46, STACK
        ARGFRAME IOVERLAY, 0, STATIC
        ARGFRAME DOVERLAY, 0, STATIC
        EXTERN GetLogicalType
        FUNCTION GetLogicalType,0202H
        ARGFRAME ISTACK, 0, STACK
        ARGFRAME PSTACK, 0, STACK
        ARGFRAME XSTACK, 46, STACK
        ARGFRAME IOVERLAY, 0, STATIC
        ARGFRAME DOVERLAY, 0, STATIC
        EXTERN GetPanId
        FUNCTION GetPanId,0202H
        ARGFRAME ISTACK, 0, STACK
        ARGFRAME PSTACK, 0, STACK
        ARGFRAME XSTACK, 46, STACK
        ARGFRAME IOVERLAY, 0, STATIC
        ARGFRAME DOVERLAY, 0, STATIC
        EXTERN HalFlashErase
        FUNCTION HalFlashErase,0202H
        ARGFRAME ISTACK, 0, STACK
        ARGFRAME PSTACK, 0, STACK
        ARGFRAME XSTACK, 46, STACK
        ARGFRAME IOVERLAY, 0, STATIC
        ARGFRAME DOVERLAY, 0, STATIC
        EXTERN HalFlashRead
        FUNCTION HalFlashRead,0202H
        ARGFRAME ISTACK, 0, STACK
        ARGFRAME PSTACK, 0, STACK
        ARGFRAME XSTACK, 48, STACK
        ARGFRAME IOVERLAY, 0, STATIC
        ARGFRAME DOVERLAY, 0, STATIC
        EXTERN HalFlashWrite
        FUNCTION HalFlashWrite,0202H
        ARGFRAME ISTACK, 0, STACK
        ARGFRAME PSTACK, 0, STACK
        ARGFRAME XSTACK, 48, STACK
        ARGFRAME IOVERLAY, 0, STATIC
        ARGFRAME DOVERLAY, 0, STATIC
        EXTERN HalLedSet
        FUNCTION HalLedSet,0202H
        ARGFRAME ISTACK, 0, STACK
        ARGFRAME PSTACK, 0, STACK
        ARGFRAME XSTACK, 46, STACK
        ARGFRAME IOVERLAY, 0, STATIC
        ARGFRAME DOVERLAY, 0, STATIC
        EXTERN SetChannel
        FUNCTION SetChannel,0202H
        ARGFRAME ISTACK, 0, STACK
        ARGFRAME PSTACK, 0, STACK
        ARGFRAME XSTACK, 46, STACK
        ARGFRAME IOVERLAY, 0, STATIC
        ARGFRAME DOVERLAY, 0, STATIC
        EXTERN SetLogicalType
        FUNCTION SetLogicalType,0202H
        ARGFRAME ISTACK, 0, STACK
        ARGFRAME PSTACK, 0, STACK
        ARGFRAME XSTACK, 46, STACK
        ARGFRAME IOVERLAY, 0, STATIC
        ARGFRAME DOVERLAY, 0, STATIC
        EXTERN SetPanId
        FUNCTION SetPanId,0202H
        ARGFRAME ISTACK, 0, STACK
        ARGFRAME PSTACK, 0, STACK
        ARGFRAME XSTACK, 46, STACK
        ARGFRAME IOVERLAY, 0, STATIC
        ARGFRAME DOVERLAY, 0, STATIC
        EXTERN _Small_Ctype
        EXTERN _get_at_event
        FUNCTION _get_at_event,0202H
        ARGFRAME ISTACK, 2, STACK
        ARGFRAME PSTACK, 0, STACK
        ARGFRAME XSTACK, 0, STACK
        ARGFRAME IOVERLAY, 0, STATIC
        ARGFRAME DOVERLAY, 0, STATIC
        EXTERN at_uart_init
        FUNCTION at_uart_init,0202H
        ARGFRAME ISTACK, 2, STACK
        ARGFRAME PSTACK, 0, STACK
        ARGFRAME XSTACK, 0, STACK
        ARGFRAME IOVERLAY, 0, STATIC
        ARGFRAME DOVERLAY, 0, STATIC
        EXTERN at_uart_set_input_call
        FUNCTION at_uart_set_input_call,0202H
        ARGFRAME ISTACK, 2, STACK
        ARGFRAME PSTACK, 0, STACK
        ARGFRAME XSTACK, 0, STACK
        ARGFRAME IOVERLAY, 0, STATIC
        ARGFRAME DOVERLAY, 0, STATIC
        EXTERN at_uart_write
        FUNCTION at_uart_write,0202H
        ARGFRAME ISTACK, 0, STACK
        ARGFRAME PSTACK, 0, STACK
        ARGFRAME XSTACK, 9, STACK
        ARGFRAME IOVERLAY, 0, STATIC
        ARGFRAME DOVERLAY, 0, STATIC
        EXTERN atoi
        FUNCTION atoi,010202H
        ARGFRAME ISTACK, 0, STACK
        ARGFRAME PSTACK, 0, STACK
        ARGFRAME XSTACK, 46, STACK
        ARGFRAME IOVERLAY, 0, STATIC
        ARGFRAME DOVERLAY, 0, STATIC
        EXTERN getLastPkgLQI
        FUNCTION getLastPkgLQI,0202H
        ARGFRAME ISTACK, 0, STACK
        ARGFRAME PSTACK, 0, STACK
        ARGFRAME XSTACK, 46, STACK
        ARGFRAME IOVERLAY, 0, STATIC
        ARGFRAME DOVERLAY, 0, STATIC
        EXTERN getLastPkgRssi
        FUNCTION getLastPkgRssi,0202H
        ARGFRAME ISTACK, 0, STACK
        ARGFRAME PSTACK, 0, STACK
        ARGFRAME XSTACK, 46, STACK
        ARGFRAME IOVERLAY, 0, STATIC
        ARGFRAME DOVERLAY, 0, STATIC
        EXTERN memcmp
        FUNCTION memcmp,010202H
        ARGFRAME ISTACK, 0, STACK
        ARGFRAME PSTACK, 0, STACK
        ARGFRAME XSTACK, 48, STACK
        ARGFRAME IOVERLAY, 0, STATIC
        ARGFRAME DOVERLAY, 0, STATIC
        EXTERN osal_set_event
        FUNCTION osal_set_event,0202H
        ARGFRAME ISTACK, 0, STACK
        ARGFRAME PSTACK, 0, STACK
        ARGFRAME XSTACK, 9, STACK
        ARGFRAME IOVERLAY, 0, STATIC
        ARGFRAME DOVERLAY, 0, STATIC
        EXTERN sapi_TaskID
        EXTERN sprintf
        FUNCTION sprintf,0202H
        ARGFRAME ISTACK, 0, STACK
        ARGFRAME PSTACK, 0, STACK
        ARGFRAME XSTACK, 62, STACK
        ARGFRAME IOVERLAY, 0, STATIC
        ARGFRAME DOVERLAY, 0, STATIC
        EXTERN strcmp
        FUNCTION strcmp,010202H
        ARGFRAME ISTACK, 0, STACK
        ARGFRAME PSTACK, 0, STACK
        ARGFRAME XSTACK, 46, STACK
        ARGFRAME IOVERLAY, 0, STATIC
        ARGFRAME DOVERLAY, 0, STATIC
        EXTERN strlen
        FUNCTION strlen,010202H
        ARGFRAME ISTACK, 0, STACK
        ARGFRAME PSTACK, 0, STACK
        ARGFRAME XSTACK, 46, STACK
        ARGFRAME IOVERLAY, 0, STATIC
        ARGFRAME DOVERLAY, 0, STATIC
        EXTERN strstr
        FUNCTION strstr,010202H
        ARGFRAME ISTACK, 0, STACK
        ARGFRAME PSTACK, 0, STACK
        ARGFRAME XSTACK, 46, STACK
        ARGFRAME IOVERLAY, 0, STATIC
        ARGFRAME DOVERLAY, 0, STATIC
        EXTERN user_at_proc
        FUNCTION user_at_proc,0202H
        ARGFRAME ISTACK, 0, STACK
        ARGFRAME PSTACK, 0, STACK
        ARGFRAME XSTACK, 46, STACK
        ARGFRAME IOVERLAY, 0, STATIC
        ARGFRAME DOVERLAY, 0, STATIC
        EXTERN zb_SendDataRequest
        FUNCTION zb_SendDataRequest,0202H
        ARGFRAME ISTACK, 0, STACK
        ARGFRAME PSTACK, 0, STACK
        ARGFRAME XSTACK, 51, STACK
        ARGFRAME IOVERLAY, 0, STATIC
        ARGFRAME DOVERLAY, 0, STATIC
        EXTERN zb_SystemReset
        FUNCTION zb_SystemReset,0202H
        ARGFRAME ISTACK, 0, STACK
        ARGFRAME PSTACK, 0, STACK
        ARGFRAME XSTACK, 46, STACK
        ARGFRAME IOVERLAY, 0, STATIC
        ARGFRAME DOVERLAY, 0, STATIC

// I:\1_git_code\EPnode_OTA\CC2530 IAP\CC2530_stack\zstack-2.4.0-1.4.0x\Projects\zstack\Samples\common\at.c
//    1 /*********************************************************************************************
//    2 * 文件：at.c
//    3 * 作者：Xuzhy 2018.5.16
//    4 * 说明：节点串口at指令
//    5 * 修改：fuyou 增加透传驱动
//    6 * 注释：
//    7 *********************************************************************************************/
//    8 
//    9 /*********************************************************************************************
//   10 * 头文件
//   11 *********************************************************************************************/
//   12 #include <stdlib.h>
//   13 #include <ctype.h>
//   14 #include <stdio.h>
//   15 #include <string.h>
//   16 #include "ZComDef.h"
//   17 #include "sapi.h"
//   18 #include "hal_uart.h"

        ASEGN SFR_AN:DATA:NOROOT,0a8H
// union <unnamed> volatile __sfr _A_IEN0
_A_IEN0:
        DATA8
        DS 1

        ASEGN SFR_AN:DATA:NOROOT,0c9H
// unsigned char volatile __sfr WDCTL
WDCTL:
        DATA8
        DS 1
//   19 #include "hal_led.h"
//   20 #include "at.h"
//   21 #include "AppCommon.h"
//   22 #include "at-uart.h"
//   23 #include "hal_flash.h"
//   24 #include "iap_config.h"
//   25 #include "hal_types.h"
//   26 #include "hal_mcu.h"
//   27 
//   28 /*********************************************************************************************
//   29 * 宏定义
//   30 *********************************************************************************************/
//   31 #define AT_BUFF_SIZE    96                                      //AT缓存长度
//   32 #define AT_BUFF_NUM     2                                       //AT缓存个数
//   33 /*********************************************************************************************
//   34 * 全局变量
//   35 *********************************************************************************************/

        RSEG XDATA_Z:XDATA:NOROOT(0)
        DATA8
//   36 static uint8 __AT_EVT;                                          //AT接口事件
__AT_EVT:
        DS 1
        REQUIRE __INIT_XDATA_Z

        RSEG XDATA_Z:XDATA:NOROOT(0)
        DATA8
//   37 static char at_echo = 0;
at_echo:
        DS 1
        REQUIRE __INIT_XDATA_Z

        RSEG XDATA_Z:XDATA:NOROOT(0)
        DATA16
//   38 static int at_datalen = 0;                                     // 指示用于接收发送的数据长度
at_datalen:
        DS 2
        REQUIRE __INIT_XDATA_Z

        RSEG XDATA_Z:XDATA:NOROOT(0)
        DATA16
//   39 static int at_recvdata = 0;
at_recvdata:
        DS 2
        REQUIRE __INIT_XDATA_Z

        RSEG XDATA_Z:XDATA:NOROOT(0)
        DATA8
//   40 static char atbuff[AT_BUFF_NUM][AT_BUFF_SIZE];                  //AT指令接收缓存
atbuff:
        DS 192
        REQUIRE __INIT_XDATA_Z

        RSEG XDATA_Z:XDATA:NOROOT(0)
        DATA8
//   41 static char bufferbit = 0;
bufferbit:
        DS 1
        REQUIRE __INIT_XDATA_Z

        RSEG XDATA_Z:XDATA:NOROOT(0)
        DATA16
//   42 static char *pAtCommand = NULL;                                 // 存放接收到的at指令或数据
pAtCommand:
        DS 2
        REQUIRE __INIT_XDATA_Z

        RSEG XDATA_Z:XDATA:NOROOT(0)
        DATA16
//   43 sys_parameter_t sys_parameter;
sys_parameter:
        DS 2
        REQUIRE __INIT_XDATA_Z
//   44 /*********************************************************************************************
//   45 * 函数原型说明
//   46 *********************************************************************************************/
//   47 static char* at_quebuffer_get(void);
//   48 static void at_quebuffer_put(char *buf);
//   49 static int _at_get_ch(char ch); 
//   50 uint8 _get_at_event(void);                                      // at 事件标识
//   51 void at_recv_ch(char ch);
//   52 int8 getLastPkgRssi(void);
//   53 /*********************************************************************************************
//   54 * 名称：at_quebuffer_put()
//   55 * 功能：at缓存释放
//   56 * 参数：
//   57 * 返回：
//   58 * 修改：
//   59 * 注释：
//   60 *********************************************************************************************/

        RSEG BANKED_CODE:CODE:NOROOT(0)
//   61 void at_quebuffer_put(char *buf)
at_quebuffer_put:
          CFI Block cfiBlock0 Using cfiCommon0
          CFI Function at_quebuffer_put
        CODE
//   62 {
        REQUIRE ?V0
        REQUIRE ?V1
        MOV     A,#-0xa
        LCALL   ?BANKED_ENTER_XDATA
          CFI DPH0 load(1, XDATA, add(CFA_XSP16, literal(-1)))
          CFI DPL0 load(1, XDATA, add(CFA_XSP16, literal(-2)))
          CFI ?BRET_EXT load(1, XDATA, add(CFA_XSP16, literal(-3)))
          CFI ?RET_HIGH load(1, XDATA, add(CFA_XSP16, literal(-4)))
          CFI ?RET_LOW load(1, XDATA, add(CFA_XSP16, literal(-5)))
          CFI R7 load(1, XDATA, add(CFA_XSP16, literal(-6)))
          CFI V1 load(1, XDATA, add(CFA_XSP16, literal(-7)))
          CFI V0 load(1, XDATA, add(CFA_XSP16, literal(-8)))
          CFI VB load(1, XDATA, add(CFA_XSP16, literal(-9)))
          CFI R6 load(1, XDATA, add(CFA_XSP16, literal(-10)))
          CFI CFA_SP SP+0
          CFI CFA_XSP16 add(XSP16, 10)
        ; Saved register size: 10
        ; Auto size: 0
//   63   for (int i=0; i<AT_BUFF_NUM; i++) {
        MOV     R0,#0x0
        MOV     R1,#0x0
??at_quebuffer_put_0:
        CLR     C
        MOV     A,R0
        SUBB    A,#0x2
        MOV     A,R1
        SUBB    A,#0x0
        MOV     C,0xD0 /* PSW */.2
        XRL     A,PSW
        RLC     A
        JNC     ??at_quebuffer_put_1
//   64     if (atbuff[i] == buf){
        MOV     A,R0
        MOV     R4,A
        MOV     A,R1
        MOV     R5,A
        MOV     A,R4
        MOV     B,#0x60
        MUL     AB
        XCH     A,R4
        MOV     R6,B
        MOV     B,#0x0
        MUL     AB
        ADD     A,R6
        MOV     R6,A
        MOV     B,#0x60
        MOV     A,R5
        MUL     AB
        ADD     A,R6
        MOV     R5,A
        MOV     A,#atbuff & 0xff
        ADD     A,R4
        MOV     R4,A
        MOV     A,#(atbuff >> 8) & 0xff
        ADDC    A,R5
        MOV     R5,A
        MOV     A,R2
        XRL     A,R4
        JNZ     ??at_quebuffer_put_2
        MOV     A,R3
        XRL     A,R5
??at_quebuffer_put_2:
        JNZ     ??at_quebuffer_put_3
//   65       bufferbit &= ~(1<<i);
        MOV     ?V0,#0x1
        MOV     ?V1,#0x0
        MOV     A,R0
        MOV     R0,#?V0
        LCALL   ?S_SHL
        MOV     A,?V0
        CPL     A
        MOV     R0,A
        MOV     DPTR,#bufferbit
        MOVX    A,@DPTR
        ANL     A,R0
        MOVX    @DPTR,A
//   66       return;
        SJMP    ??at_quebuffer_put_1
//   67     }
//   68   }
??at_quebuffer_put_3:
        INC     R0
        MOV     A,R0
        JNZ     ??at_quebuffer_put_0
        INC     R1
        SJMP    ??at_quebuffer_put_0
//   69 }
??at_quebuffer_put_1:
        MOV     R7,#0x2
        LJMP    ?BANKED_LEAVE_XDATA
          CFI EndBlock cfiBlock0
//   70 /*********************************************************************************************
//   71 * 名称：at_quebuffer_get()
//   72 * 功能：缓存获取
//   73 * 参数：
//   74 * 返回：
//   75 * 修改：
//   76 * 注释：
//   77 *********************************************************************************************/

        RSEG BANKED_CODE:CODE:NOROOT(0)
//   78 char* at_quebuffer_get(void)
at_quebuffer_get:
          CFI Block cfiBlock1 Using cfiCommon0
          CFI Function at_quebuffer_get
        CODE
//   79 {
        REQUIRE ?V0
        REQUIRE ?V1
        MOV     A,#-0xa
        LCALL   ?BANKED_ENTER_XDATA
          CFI DPH0 load(1, XDATA, add(CFA_XSP16, literal(-1)))
          CFI DPL0 load(1, XDATA, add(CFA_XSP16, literal(-2)))
          CFI ?BRET_EXT load(1, XDATA, add(CFA_XSP16, literal(-3)))
          CFI ?RET_HIGH load(1, XDATA, add(CFA_XSP16, literal(-4)))
          CFI ?RET_LOW load(1, XDATA, add(CFA_XSP16, literal(-5)))
          CFI R7 load(1, XDATA, add(CFA_XSP16, literal(-6)))
          CFI V1 load(1, XDATA, add(CFA_XSP16, literal(-7)))
          CFI V0 load(1, XDATA, add(CFA_XSP16, literal(-8)))
          CFI VB load(1, XDATA, add(CFA_XSP16, literal(-9)))
          CFI R6 load(1, XDATA, add(CFA_XSP16, literal(-10)))
          CFI CFA_SP SP+0
          CFI CFA_XSP16 add(XSP16, 10)
        ; Saved register size: 10
        ; Auto size: 0
//   80   for (int i=0; i<AT_BUFF_NUM; i++) {
        MOV     R2,#0x0
        MOV     R3,#0x0
??at_quebuffer_get_0:
        CLR     C
        MOV     A,R2
        SUBB    A,#0x2
        MOV     A,R3
        SUBB    A,#0x0
        MOV     C,0xD0 /* PSW */.2
        XRL     A,PSW
        RLC     A
        JNC     ??at_quebuffer_get_1
//   81     if (((bufferbit>>i) & 1) == 0) {
        MOV     DPTR,#bufferbit
        MOVX    A,@DPTR
        MOV     ?V0,A
        MOV     ?V1,#0x0
        MOV     A,R2
        MOV     R0,#?V0
        LCALL   ?SS_SHR
        MOV     A,?V0
        MOV     C,0xE0 /* A   */.0
        JC      ??at_quebuffer_get_2
//   82       bufferbit |= 1<<i;
        MOV     ?V0,#0x1
        MOV     ?V1,#0x0
        MOV     A,R2
        MOV     R0,#?V0
        LCALL   ?S_SHL
        MOV     DPTR,#bufferbit
        MOVX    A,@DPTR
        ORL     A,?V0
        MOVX    @DPTR,A
//   83         return atbuff[i];
        MOV     A,R2
        MOV     B,#0x60
        MUL     AB
        XCH     A,R2
        MOV     R0,B
        MOV     B,#0x0
        MUL     AB
        ADD     A,R0
        MOV     R0,A
        MOV     B,#0x60
        MOV     A,R3
        MUL     AB
        ADD     A,R0
        MOV     R3,A
        MOV     A,#atbuff & 0xff
        ADD     A,R2
        MOV     R2,A
        MOV     A,#(atbuff >> 8) & 0xff
        ADDC    A,R3
        MOV     R3,A
        SJMP    ??at_quebuffer_get_3
//   84     }
//   85   }
??at_quebuffer_get_2:
        INC     R2
        MOV     A,R2
        JNZ     ??at_quebuffer_get_0
        INC     R3
        SJMP    ??at_quebuffer_get_0
//   86   return NULL;
??at_quebuffer_get_1:
        MOV     R2,#0x0
        MOV     R3,#0x0
??at_quebuffer_get_3:
        MOV     R7,#0x2
        LJMP    ?BANKED_LEAVE_XDATA
          CFI EndBlock cfiBlock1
//   87 }
//   88 /*********************************************************************************************
//   89 * 名称：at_put_ch()
//   90 * 功能：通过at端口发送一个字符
//   91 * 参数：ch: 待发送的字符
//   92 * 返回：无
//   93 * 修改：
//   94 * 注释：
//   95 *********************************************************************************************/

        RSEG BANKED_CODE:CODE:NOROOT(0)
//   96 static void _at_put_ch(uint8 ch)
_at_put_ch:
          CFI Block cfiBlock2 Using cfiCommon0
          CFI Function _at_put_ch
        CODE
//   97 {
        FUNCALL _at_put_ch, at_uart_write
        LOCFRAME ISTACK, 0, STACK
        LOCFRAME PSTACK, 0, STACK
        LOCFRAME XSTACK, 9, STACK
        LOCFRAME IOVERLAY, 0, STATIC
        LOCFRAME DOVERLAY, 0, STATIC
        ARGFRAME ISTACK, 0, STACK
        ARGFRAME PSTACK, 0, STACK
        ARGFRAME XSTACK, 9, STACK
        ARGFRAME IOVERLAY, 0, STATIC
        ARGFRAME DOVERLAY, 0, STATIC
        MOV     A,#-0x9
        LCALL   ?BANKED_ENTER_XDATA
          CFI DPH0 load(1, XDATA, add(CFA_XSP16, literal(-1)))
          CFI DPL0 load(1, XDATA, add(CFA_XSP16, literal(-2)))
          CFI ?BRET_EXT load(1, XDATA, add(CFA_XSP16, literal(-3)))
          CFI ?RET_HIGH load(1, XDATA, add(CFA_XSP16, literal(-4)))
          CFI ?RET_LOW load(1, XDATA, add(CFA_XSP16, literal(-5)))
          CFI R7 load(1, XDATA, add(CFA_XSP16, literal(-6)))
          CFI V0 load(1, XDATA, add(CFA_XSP16, literal(-7)))
          CFI VB load(1, XDATA, add(CFA_XSP16, literal(-8)))
          CFI R6 load(1, XDATA, add(CFA_XSP16, literal(-9)))
          CFI CFA_SP SP+0
          CFI CFA_XSP16 add(XSP16, 9)
        ; Saved register size: 9
        ; Auto size: 0
        MOV     A,R1
        MOV     R6,A
//   98   at_uart_write(ch);
        ; Setup parameters for call to function at_uart_write
        MOV     A,R6
        MOV     R1,A
        LCALL   ??at_uart_write?relay; Banked call to: at_uart_write
//   99 }
        MOV     R7,#0x1
        LJMP    ?BANKED_LEAVE_XDATA
          CFI EndBlock cfiBlock2
//  100 /*********************************************************************************************
//  101 * 名称：_at_get_ch()
//  102 * 功能：处理at接口接收到的数据
//  103 * 参数：
//  104 * 返回：
//  105 * 修改：
//  106 * 注释：
//  107 *********************************************************************************************/

        RSEG BANKED_CODE:CODE:NOROOT(0)
//  108 static int _at_get_ch(char ch)
_at_get_ch:
          CFI Block cfiBlock3 Using cfiCommon0
          CFI Function _at_get_ch
        CODE
//  109 {
        FUNCALL _at_get_ch, at_quebuffer_get
        LOCFRAME ISTACK, 0, STACK
        LOCFRAME PSTACK, 0, STACK
        LOCFRAME XSTACK, 9, STACK
        LOCFRAME IOVERLAY, 0, STATIC
        LOCFRAME DOVERLAY, 0, STATIC
        ARGFRAME ISTACK, 0, STACK
        ARGFRAME PSTACK, 0, STACK
        ARGFRAME XSTACK, 9, STACK
        ARGFRAME IOVERLAY, 0, STATIC
        ARGFRAME DOVERLAY, 0, STATIC
        FUNCALL _at_get_ch, _at_put_ch
        LOCFRAME ISTACK, 0, STACK
        LOCFRAME PSTACK, 0, STACK
        LOCFRAME XSTACK, 9, STACK
        LOCFRAME IOVERLAY, 0, STATIC
        LOCFRAME DOVERLAY, 0, STATIC
        ARGFRAME ISTACK, 0, STACK
        ARGFRAME PSTACK, 0, STACK
        ARGFRAME XSTACK, 9, STACK
        ARGFRAME IOVERLAY, 0, STATIC
        ARGFRAME DOVERLAY, 0, STATIC
        FUNCALL _at_get_ch, osal_set_event
        LOCFRAME ISTACK, 0, STACK
        LOCFRAME PSTACK, 0, STACK
        LOCFRAME XSTACK, 9, STACK
        LOCFRAME IOVERLAY, 0, STATIC
        LOCFRAME DOVERLAY, 0, STATIC
        ARGFRAME ISTACK, 0, STACK
        ARGFRAME PSTACK, 0, STACK
        ARGFRAME XSTACK, 9, STACK
        ARGFRAME IOVERLAY, 0, STATIC
        ARGFRAME DOVERLAY, 0, STATIC
        FUNCALL _at_get_ch, at_quebuffer_put
        LOCFRAME ISTACK, 0, STACK
        LOCFRAME PSTACK, 0, STACK
        LOCFRAME XSTACK, 9, STACK
        LOCFRAME IOVERLAY, 0, STATIC
        LOCFRAME DOVERLAY, 0, STATIC
        ARGFRAME ISTACK, 0, STACK
        ARGFRAME PSTACK, 0, STACK
        ARGFRAME XSTACK, 9, STACK
        ARGFRAME IOVERLAY, 0, STATIC
        ARGFRAME DOVERLAY, 0, STATIC
        FUNCALL _at_get_ch, osal_set_event
        LOCFRAME ISTACK, 0, STACK
        LOCFRAME PSTACK, 0, STACK
        LOCFRAME XSTACK, 9, STACK
        LOCFRAME IOVERLAY, 0, STATIC
        LOCFRAME DOVERLAY, 0, STATIC
        ARGFRAME ISTACK, 0, STACK
        ARGFRAME PSTACK, 0, STACK
        ARGFRAME XSTACK, 9, STACK
        ARGFRAME IOVERLAY, 0, STATIC
        ARGFRAME DOVERLAY, 0, STATIC
        FUNCALL _at_get_ch, at_quebuffer_put
        LOCFRAME ISTACK, 0, STACK
        LOCFRAME PSTACK, 0, STACK
        LOCFRAME XSTACK, 9, STACK
        LOCFRAME IOVERLAY, 0, STATIC
        LOCFRAME DOVERLAY, 0, STATIC
        ARGFRAME ISTACK, 0, STACK
        ARGFRAME PSTACK, 0, STACK
        ARGFRAME XSTACK, 9, STACK
        ARGFRAME IOVERLAY, 0, STATIC
        ARGFRAME DOVERLAY, 0, STATIC
        MOV     A,#-0x9
        LCALL   ?BANKED_ENTER_XDATA
          CFI DPH0 load(1, XDATA, add(CFA_XSP16, literal(-1)))
          CFI DPL0 load(1, XDATA, add(CFA_XSP16, literal(-2)))
          CFI ?BRET_EXT load(1, XDATA, add(CFA_XSP16, literal(-3)))
          CFI ?RET_HIGH load(1, XDATA, add(CFA_XSP16, literal(-4)))
          CFI ?RET_LOW load(1, XDATA, add(CFA_XSP16, literal(-5)))
          CFI R7 load(1, XDATA, add(CFA_XSP16, literal(-6)))
          CFI V0 load(1, XDATA, add(CFA_XSP16, literal(-7)))
          CFI VB load(1, XDATA, add(CFA_XSP16, literal(-8)))
          CFI R6 load(1, XDATA, add(CFA_XSP16, literal(-9)))
          CFI CFA_SP SP+0
          CFI CFA_XSP16 add(XSP16, 9)
        ; Saved register size: 9
        ; Auto size: 0
        MOV     A,R1
        MOV     R6,A
//  110   static char idx = 0;
//  111   static char *pbuf = NULL;
//  112   if (pbuf == NULL) {
        MOV     DPTR,#??pbuf
        MOVX    A,@DPTR
        MOV     R0,A
        INC     DPTR
        MOVX    A,@DPTR
        MOV     R1,A
        MOV     A,R0
        ORL     A,R1
        JNZ     ??_at_get_ch_0
//  113     pbuf = at_quebuffer_get();
        ; Setup parameters for call to function at_quebuffer_get
        LCALL   ??at_quebuffer_get?relay; Banked call to: at_quebuffer_get
        MOV     DPTR,#??pbuf
        MOV     A,R2
        MOVX    @DPTR,A
        INC     DPTR
        MOV     A,R3
        MOVX    @DPTR,A
//  114     if (pbuf == NULL) { 
        MOV     DPTR,#??pbuf
        MOVX    A,@DPTR
        MOV     R0,A
        INC     DPTR
        MOVX    A,@DPTR
        MOV     R1,A
        MOV     A,R0
        ORL     A,R1
        JNZ     ??_at_get_ch_0
//  115       return -1;
        MOV     R2,#-0x1
        MOV     R3,#-0x1
        LJMP    ??_at_get_ch_1 & 0xFFFF
//  116     }
//  117   }
//  118   if (at_datalen == 0) {
??_at_get_ch_0:
        MOV     DPTR,#at_datalen
        MOVX    A,@DPTR
        MOV     R0,A
        INC     DPTR
        MOVX    A,@DPTR
        MOV     R1,A
        MOV     A,R0
        ORL     A,R1
        JZ      $+5
        LJMP    ??_at_get_ch_2 & 0xFFFF
//  119     if (at_echo) {
        MOV     DPTR,#at_echo
        MOVX    A,@DPTR
        JZ      ??_at_get_ch_3
//  120       _at_put_ch(ch);
        ; Setup parameters for call to function _at_put_ch
        MOV     A,R6
        MOV     R1,A
        LCALL   ??_at_put_ch?relay   ; Banked call to: _at_put_ch
//  121     }
//  122     if (idx < AT_BUFF_SIZE-1) {
??_at_get_ch_3:
        MOV     DPTR,#??idx
        MOVX    A,@DPTR
        CLR     C
        SUBB    A,#0x5f
        JC      $+5
        LJMP    ??_at_get_ch_4 & 0xFFFF
//  123       pbuf[idx++] = ch;
        MOV     A,R6
        PUSH    A
          CFI CFA_SP SP+-1
        MOV     DPTR,#??idx
        MOVX    A,@DPTR
        MOV     R0,A
        MOV     R1,#0x0
        MOV     DPTR,#??pbuf
        MOVX    A,@DPTR
        ADD     A,R0
        MOV     R2,A
        INC     DPTR
        MOVX    A,@DPTR
        ADDC    A,R1
        MOV     DPL,R2
        MOV     DPH,A
        POP     A
          CFI CFA_SP SP+0
        MOVX    @DPTR,A
        MOV     DPTR,#??idx
        MOVX    A,@DPTR
        ADD     A,#0x1
        MOVX    @DPTR,A
//  124       if (idx >= 2 && pbuf[idx-2]=='\r' && pbuf[idx-1]=='\n'){
        MOV     DPTR,#??idx
        MOVX    A,@DPTR
        CLR     C
        SUBB    A,#0x2
        JNC     $+5
        LJMP    ??_at_get_ch_5 & 0xFFFF
        MOV     DPTR,#??idx
        MOVX    A,@DPTR
        MOV     R0,A
        MOV     R1,#0x0
        MOV     DPTR,#??pbuf
        MOVX    A,@DPTR
        ADD     A,R0
        MOV     R0,A
        INC     DPTR
        MOVX    A,@DPTR
        ADDC    A,R1
        MOV     R1,A
        MOV     A,R0
        ADD     A,#-0x2
        MOV     DPL,A
        MOV     A,R1
        ADDC    A,#-0x1
        MOV     DPH,A
        MOVX    A,@DPTR
        XRL     A,#0xd
        JZ      $+5
        LJMP    ??_at_get_ch_5 & 0xFFFF
        MOV     DPTR,#??idx
        MOVX    A,@DPTR
        MOV     R0,A
        MOV     R1,#0x0
        MOV     DPTR,#??pbuf
        MOVX    A,@DPTR
        ADD     A,R0
        MOV     R0,A
        INC     DPTR
        MOVX    A,@DPTR
        ADDC    A,R1
        MOV     R1,A
        MOV     A,R0
        ADD     A,#-0x1
        MOV     DPL,A
        MOV     A,R1
        ADDC    A,#-0x1
        MOV     DPH,A
        MOVX    A,@DPTR
        XRL     A,#0xa
        JZ      $+5
        LJMP    ??_at_get_ch_5 & 0xFFFF
//  125         idx -= 2;
        MOV     DPTR,#??idx
        MOVX    A,@DPTR
        ADD     A,#-0x2
        MOVX    @DPTR,A
//  126         pbuf[idx] = '\0';
        MOV     DPTR,#??idx
        MOVX    A,@DPTR
        MOV     R0,A
        MOV     R1,#0x0
        MOV     DPTR,#??pbuf
        MOVX    A,@DPTR
        ADD     A,R0
        MOV     R2,A
        INC     DPTR
        MOVX    A,@DPTR
        ADDC    A,R1
        MOV     DPL,R2
        MOV     DPH,A
        MOV     A,#0x0
        MOVX    @DPTR,A
//  127         if (idx > 0) {
        MOV     DPTR,#??idx
        MOVX    A,@DPTR
        JZ      ??_at_get_ch_6
//  128           /* at指令接收完成 */
//  129           if (pAtCommand == NULL) {
        MOV     DPTR,#pAtCommand
        MOVX    A,@DPTR
        MOV     R0,A
        INC     DPTR
        MOVX    A,@DPTR
        MOV     R1,A
        MOV     A,R0
        ORL     A,R1
        JNZ     ??_at_get_ch_7
//  130             pAtCommand = pbuf;
        MOV     DPTR,#??pbuf
        MOVX    A,@DPTR
        MOV     R0,A
        INC     DPTR
        MOVX    A,@DPTR
        MOV     R1,A
        MOV     DPTR,#pAtCommand
        MOV     A,R0
        MOVX    @DPTR,A
        INC     DPTR
        MOV     A,R1
        MOVX    @DPTR,A
//  131             osal_set_event(sapi_TaskID, __AT_EVT);
        ; Setup parameters for call to function osal_set_event
        MOV     DPTR,#__AT_EVT
        MOVX    A,@DPTR
        MOV     R2,A
        MOV     R3,#0x0
        MOV     DPTR,#sapi_TaskID
        MOVX    A,@DPTR
        MOV     R1,A
        LCALL   ??osal_set_event?relay; Banked call to: osal_set_event
        MOV     A,R1
        SJMP    ??_at_get_ch_8
//  132           } else {
//  133             at_quebuffer_put(pbuf); //丢弃数据
??_at_get_ch_7:
        ; Setup parameters for call to function at_quebuffer_put
        MOV     DPTR,#??pbuf
        MOVX    A,@DPTR
        MOV     R2,A
        INC     DPTR
        MOVX    A,@DPTR
        MOV     R3,A
        LCALL   ??at_quebuffer_put?relay; Banked call to: at_quebuffer_put
//  134           }
//  135            
//  136           pbuf = NULL;
??_at_get_ch_8:
        MOV     DPTR,#??pbuf
        MOV     A,#0x0
        MOVX    @DPTR,A
        INC     DPTR
        MOV     A,#0x0
        MOVX    @DPTR,A
//  137           idx = 0;
        MOV     DPTR,#??idx
        MOV     A,#0x0
        MOVX    @DPTR,A
        LJMP    ??_at_get_ch_5 & 0xFFFF
//  138         } else {
//  139            //丢弃数据
//  140           idx = 0;
??_at_get_ch_6:
        MOV     DPTR,#??idx
        MOV     A,#0x0
        MOVX    @DPTR,A
        LJMP    ??_at_get_ch_5 & 0xFFFF
//  141         }
//  142       }
//  143     } else {
//  144       /*缓存溢出丢弃所有数据*/
//  145       idx = 0;
??_at_get_ch_4:
        MOV     DPTR,#??idx
        MOV     A,#0x0
        MOVX    @DPTR,A
        LJMP    ??_at_get_ch_5 & 0xFFFF
//  146     }
//  147   } else {
//  148     pbuf[at_recvdata++] = ch;
??_at_get_ch_2:
        MOV     A,R6
        PUSH    A
          CFI CFA_SP SP+-1
        MOV     DPTR,#at_recvdata
        MOVX    A,@DPTR
        MOV     R0,A
        INC     DPTR
        MOVX    A,@DPTR
        MOV     R1,A
        MOV     DPTR,#??pbuf
        MOVX    A,@DPTR
        ADD     A,R0
        MOV     R2,A
        INC     DPTR
        MOVX    A,@DPTR
        ADDC    A,R1
        MOV     DPL,R2
        MOV     DPH,A
        POP     A
          CFI CFA_SP SP+0
        MOVX    @DPTR,A
        MOV     DPTR,#at_recvdata
        MOVX    A,@DPTR
        ADD     A,#0x1
        MOVX    @DPTR,A
        INC     DPTR
        MOVX    A,@DPTR
        ADDC    A,#0x0
        MOVX    @DPTR,A
//  149     if (at_recvdata == at_datalen) {
        MOV     DPTR,#at_recvdata
        MOVX    A,@DPTR
        MOV     R0,A
        INC     DPTR
        MOVX    A,@DPTR
        MOV     R1,A
        MOV     DPTR,#at_datalen
        MOVX    A,@DPTR
        XRL     A,R0
        JNZ     ??_at_get_ch_9
        INC     DPTR
        MOVX    A,@DPTR
        XRL     A,R1
??_at_get_ch_9:
        JNZ     ??_at_get_ch_5
//  150       /*数据接收完成*/
//  151       if (pAtCommand == NULL) {
        MOV     DPTR,#pAtCommand
        MOVX    A,@DPTR
        MOV     R0,A
        INC     DPTR
        MOVX    A,@DPTR
        MOV     R1,A
        MOV     A,R0
        ORL     A,R1
        JNZ     ??_at_get_ch_10
//  152         pAtCommand = pbuf;
        MOV     DPTR,#??pbuf
        MOVX    A,@DPTR
        MOV     R0,A
        INC     DPTR
        MOVX    A,@DPTR
        MOV     R1,A
        MOV     DPTR,#pAtCommand
        MOV     A,R0
        MOVX    @DPTR,A
        INC     DPTR
        MOV     A,R1
        MOVX    @DPTR,A
//  153         osal_set_event(sapi_TaskID, __AT_EVT);
        ; Setup parameters for call to function osal_set_event
        MOV     DPTR,#__AT_EVT
        MOVX    A,@DPTR
        MOV     R2,A
        MOV     R3,#0x0
        MOV     DPTR,#sapi_TaskID
        MOVX    A,@DPTR
        MOV     R1,A
        LCALL   ??osal_set_event?relay; Banked call to: osal_set_event
        MOV     A,R1
        SJMP    ??_at_get_ch_11
//  154       }else {
//  155          at_quebuffer_put(pbuf); //丢弃数据
??_at_get_ch_10:
        ; Setup parameters for call to function at_quebuffer_put
        MOV     DPTR,#??pbuf
        MOVX    A,@DPTR
        MOV     R2,A
        INC     DPTR
        MOVX    A,@DPTR
        MOV     R3,A
        LCALL   ??at_quebuffer_put?relay; Banked call to: at_quebuffer_put
//  156          at_recvdata = 0;
        MOV     DPTR,#at_recvdata
        MOV     A,#0x0
        MOVX    @DPTR,A
        INC     DPTR
        MOV     A,#0x0
        MOVX    @DPTR,A
//  157       }
//  158       at_datalen = 0;
??_at_get_ch_11:
        MOV     DPTR,#at_datalen
        MOV     A,#0x0
        MOVX    @DPTR,A
        INC     DPTR
        MOV     A,#0x0
        MOVX    @DPTR,A
//  159       pbuf = NULL;
        MOV     DPTR,#??pbuf
        MOV     A,#0x0
        MOVX    @DPTR,A
        INC     DPTR
        MOV     A,#0x0
        MOVX    @DPTR,A
//  160     }
//  161   }
//  162   return idx;
??_at_get_ch_5:
        MOV     DPTR,#??idx
        MOVX    A,@DPTR
        MOV     R2,A
        MOV     R3,#0x0
??_at_get_ch_1:
        MOV     R7,#0x1
        LJMP    ?BANKED_LEAVE_XDATA
          CFI EndBlock cfiBlock3
//  163 }

        RSEG XDATA_Z:XDATA:NOROOT(0)
        DATA8
??idx:
        DS 1
        REQUIRE __INIT_XDATA_Z

        RSEG XDATA_Z:XDATA:NOROOT(0)
        DATA16
??pbuf:
        DS 2
        REQUIRE __INIT_XDATA_Z
//  164 /*********************************************************************************************
//  165 * 名称：at_response_buf()
//  166 * 功能：通过at接口发送一段数据
//  167 * 参数：s:数据开始地址
//  168 *       len：数据长度
//  169 * 返回：
//  170 * 修改：
//  171 * 注释：
//  172 *********************************************************************************************/

        RSEG BANKED_CODE:CODE:NOROOT(0)
//  173 void at_response_buf(char *s, int len)
at_response_buf:
          CFI Block cfiBlock4 Using cfiCommon0
          CFI Function at_response_buf
        CODE
//  174 {
        FUNCALL at_response_buf, _at_put_ch
        LOCFRAME ISTACK, 0, STACK
        LOCFRAME PSTACK, 0, STACK
        LOCFRAME XSTACK, 12, STACK
        LOCFRAME IOVERLAY, 0, STATIC
        LOCFRAME DOVERLAY, 0, STATIC
        ARGFRAME ISTACK, 0, STACK
        ARGFRAME PSTACK, 0, STACK
        ARGFRAME XSTACK, 12, STACK
        ARGFRAME IOVERLAY, 0, STATIC
        ARGFRAME DOVERLAY, 0, STATIC
        REQUIRE ?V0
        REQUIRE ?V1
        REQUIRE ?V2
        REQUIRE ?V3
        MOV     A,#-0xc
        LCALL   ?BANKED_ENTER_XDATA
          CFI DPH0 load(1, XDATA, add(CFA_XSP16, literal(-1)))
          CFI DPL0 load(1, XDATA, add(CFA_XSP16, literal(-2)))
          CFI ?BRET_EXT load(1, XDATA, add(CFA_XSP16, literal(-3)))
          CFI ?RET_HIGH load(1, XDATA, add(CFA_XSP16, literal(-4)))
          CFI ?RET_LOW load(1, XDATA, add(CFA_XSP16, literal(-5)))
          CFI R7 load(1, XDATA, add(CFA_XSP16, literal(-6)))
          CFI V3 load(1, XDATA, add(CFA_XSP16, literal(-7)))
          CFI V2 load(1, XDATA, add(CFA_XSP16, literal(-8)))
          CFI V1 load(1, XDATA, add(CFA_XSP16, literal(-9)))
          CFI V0 load(1, XDATA, add(CFA_XSP16, literal(-10)))
          CFI VB load(1, XDATA, add(CFA_XSP16, literal(-11)))
          CFI R6 load(1, XDATA, add(CFA_XSP16, literal(-12)))
          CFI CFA_SP SP+0
          CFI CFA_XSP16 add(XSP16, 12)
        ; Saved register size: 12
        ; Auto size: 0
        MOV     ?V2,R2
        MOV     ?V3,R3
        MOV     A,R4
        MOV     R6,A
        MOV     A,R5
        MOV     R7,A
//  175   for (int i=0; i<len; i++) {
        MOV     ?V0,#0x0
        MOV     ?V1,#0x0
??at_response_buf_0:
        CLR     C
        MOV     A,?V0
        SUBB    A,R6
        MOV     A,?V1
        SUBB    A,R7
        MOV     C,0xD0 /* PSW */.2
        XRL     A,PSW
        RLC     A
        JNC     ??at_response_buf_1
//  176     _at_put_ch(s[i]);
        ; Setup parameters for call to function _at_put_ch
        MOV     A,?V2
        ADD     A,?V0
        MOV     DPL,A
        MOV     A,?V3
        ADDC    A,?V1
        MOV     DPH,A
        MOVX    A,@DPTR
        MOV     R1,A
        LCALL   ??_at_put_ch?relay   ; Banked call to: _at_put_ch
//  177   }
        INC     ?V0
        MOV     A,?V0
        JNZ     ??at_response_buf_0
        INC     ?V1
        SJMP    ??at_response_buf_0
//  178 }
??at_response_buf_1:
        MOV     R7,#0x4
        LJMP    ?BANKED_LEAVE_XDATA
          CFI EndBlock cfiBlock4
//  179 /*********************************************************************************************
//  180 * 名称：at_response()
//  181 * 功能：通过at接口发送字符串
//  182 * 参数：s:待发送的字符串
//  183 * 返回：
//  184 * 修改：
//  185 * 注释：
//  186 *********************************************************************************************/

        RSEG BANKED_CODE:CODE:NOROOT(0)
//  187 void at_response(char *s)
at_response:
          CFI Block cfiBlock5 Using cfiCommon0
          CFI Function at_response
        CODE
//  188 {
        FUNCALL at_response, strlen
        LOCFRAME ISTACK, 0, STACK
        LOCFRAME PSTACK, 0, STACK
        LOCFRAME XSTACK, 9, STACK
        LOCFRAME IOVERLAY, 0, STATIC
        LOCFRAME DOVERLAY, 0, STATIC
        ARGFRAME ISTACK, 0, STACK
        ARGFRAME PSTACK, 0, STACK
        ARGFRAME XSTACK, 9, STACK
        ARGFRAME IOVERLAY, 0, STATIC
        ARGFRAME DOVERLAY, 0, STATIC
        FUNCALL at_response, at_response_buf
        LOCFRAME ISTACK, 0, STACK
        LOCFRAME PSTACK, 0, STACK
        LOCFRAME XSTACK, 9, STACK
        LOCFRAME IOVERLAY, 0, STATIC
        LOCFRAME DOVERLAY, 0, STATIC
        ARGFRAME ISTACK, 0, STACK
        ARGFRAME PSTACK, 0, STACK
        ARGFRAME XSTACK, 9, STACK
        ARGFRAME IOVERLAY, 0, STATIC
        ARGFRAME DOVERLAY, 0, STATIC
        MOV     A,#-0x9
        LCALL   ?BANKED_ENTER_XDATA
          CFI DPH0 load(1, XDATA, add(CFA_XSP16, literal(-1)))
          CFI DPL0 load(1, XDATA, add(CFA_XSP16, literal(-2)))
          CFI ?BRET_EXT load(1, XDATA, add(CFA_XSP16, literal(-3)))
          CFI ?RET_HIGH load(1, XDATA, add(CFA_XSP16, literal(-4)))
          CFI ?RET_LOW load(1, XDATA, add(CFA_XSP16, literal(-5)))
          CFI R7 load(1, XDATA, add(CFA_XSP16, literal(-6)))
          CFI V0 load(1, XDATA, add(CFA_XSP16, literal(-7)))
          CFI VB load(1, XDATA, add(CFA_XSP16, literal(-8)))
          CFI R6 load(1, XDATA, add(CFA_XSP16, literal(-9)))
          CFI CFA_SP SP+0
          CFI CFA_XSP16 add(XSP16, 9)
        ; Saved register size: 9
        ; Auto size: 0
        MOV     A,R2
        MOV     R6,A
        MOV     A,R3
        MOV     R7,A
//  189   at_response_buf(s, strlen(s));
        ; Setup parameters for call to function at_response_buf
        ; Setup parameters for call to function strlen
        MOV     A,R6
        MOV     R2,A
        MOV     A,R7
        MOV     R3,A
        LCALL   ??strlen?relay       ; Banked call to: strlen
        MOV     A,R2
        MOV     R4,A
        MOV     A,R3
        MOV     R5,A
        MOV     A,R6
        MOV     R2,A
        MOV     A,R7
        MOV     R3,A
        LCALL   ??at_response_buf?relay; Banked call to: at_response_buf
//  190 }
        MOV     R7,#0x1
        LJMP    ?BANKED_LEAVE_XDATA
          CFI EndBlock cfiBlock5
//  191 /*********************************************************************************************
//  192 * 名称：at_notify_data()
//  193 * 功能：at接口接收到数据通知
//  194 * 参数：buf:接收到的数据
//  195 *       len:接收到数据长度
//  196 * 返回：
//  197 * 修改：
//  198 * 注释：
//  199 *********************************************************************************************/

        RSEG BANKED_CODE:CODE:NOROOT(0)
//  200 void at_notify_data(char *buf, int len)
at_notify_data:
          CFI Block cfiBlock6 Using cfiCommon0
          CFI Function at_notify_data
        CODE
//  201 {
        FUNCALL at_notify_data, getLastPkgRssi
        LOCFRAME ISTACK, 0, STACK
        LOCFRAME PSTACK, 0, STACK
        LOCFRAME XSTACK, 28, STACK
        LOCFRAME IOVERLAY, 0, STATIC
        LOCFRAME DOVERLAY, 0, STATIC
        ARGFRAME ISTACK, 0, STACK
        ARGFRAME PSTACK, 0, STACK
        ARGFRAME XSTACK, 28, STACK
        ARGFRAME IOVERLAY, 0, STATIC
        ARGFRAME DOVERLAY, 0, STATIC
        FUNCALL at_notify_data, sprintf
        LOCFRAME ISTACK, 0, STACK
        LOCFRAME PSTACK, 0, STACK
        LOCFRAME XSTACK, 32, STACK
        LOCFRAME IOVERLAY, 0, STATIC
        LOCFRAME DOVERLAY, 0, STATIC
        ARGFRAME ISTACK, 0, STACK
        ARGFRAME PSTACK, 0, STACK
        ARGFRAME XSTACK, 32, STACK
        ARGFRAME IOVERLAY, 0, STATIC
        ARGFRAME DOVERLAY, 0, STATIC
        FUNCALL at_notify_data, at_response
        LOCFRAME ISTACK, 0, STACK
        LOCFRAME PSTACK, 0, STACK
        LOCFRAME XSTACK, 28, STACK
        LOCFRAME IOVERLAY, 0, STATIC
        LOCFRAME DOVERLAY, 0, STATIC
        ARGFRAME ISTACK, 0, STACK
        ARGFRAME PSTACK, 0, STACK
        ARGFRAME XSTACK, 28, STACK
        ARGFRAME IOVERLAY, 0, STATIC
        ARGFRAME DOVERLAY, 0, STATIC
        FUNCALL at_notify_data, at_response_buf
        LOCFRAME ISTACK, 0, STACK
        LOCFRAME PSTACK, 0, STACK
        LOCFRAME XSTACK, 28, STACK
        LOCFRAME IOVERLAY, 0, STATIC
        LOCFRAME DOVERLAY, 0, STATIC
        ARGFRAME ISTACK, 0, STACK
        ARGFRAME PSTACK, 0, STACK
        ARGFRAME XSTACK, 28, STACK
        ARGFRAME IOVERLAY, 0, STATIC
        ARGFRAME DOVERLAY, 0, STATIC
        REQUIRE ?V0
        REQUIRE ?V1
        REQUIRE ?V2
        REQUIRE ?V3
        MOV     A,#-0xc
        LCALL   ?BANKED_ENTER_XDATA
          CFI DPH0 load(1, XDATA, add(CFA_XSP16, literal(-1)))
          CFI DPL0 load(1, XDATA, add(CFA_XSP16, literal(-2)))
          CFI ?BRET_EXT load(1, XDATA, add(CFA_XSP16, literal(-3)))
          CFI ?RET_HIGH load(1, XDATA, add(CFA_XSP16, literal(-4)))
          CFI ?RET_LOW load(1, XDATA, add(CFA_XSP16, literal(-5)))
          CFI R7 load(1, XDATA, add(CFA_XSP16, literal(-6)))
          CFI V3 load(1, XDATA, add(CFA_XSP16, literal(-7)))
          CFI V2 load(1, XDATA, add(CFA_XSP16, literal(-8)))
          CFI V1 load(1, XDATA, add(CFA_XSP16, literal(-9)))
          CFI V0 load(1, XDATA, add(CFA_XSP16, literal(-10)))
          CFI VB load(1, XDATA, add(CFA_XSP16, literal(-11)))
          CFI R6 load(1, XDATA, add(CFA_XSP16, literal(-12)))
          CFI CFA_SP SP+0
          CFI CFA_XSP16 add(XSP16, 12)
        ; Saved register size: 12
        ; Auto size: 16
        MOV     A,#-0x10
        LCALL   ?ALLOC_XSTACK8
          CFI CFA_XSP16 add(XSP16, 28)
        MOV     A,R2
        MOV     R6,A
        MOV     A,R3
        MOV     R7,A
        MOV     ?V0,R4
        MOV     ?V1,R5
//  202   char sc[16];
//  203 #ifdef CC2530_Serial
//  204   sprintf(sc, "+RECV:%u,%d\r\n", len, getLastPkgRssi());
        ; Setup parameters for call to function getLastPkgRssi
        LCALL   ??getLastPkgRssi?relay; Banked call to: getLastPkgRssi
        MOV     A,R1
        ; Setup parameters for call to function sprintf
        MOV     ?V2,A
        RLC     A
        SUBB    A,0xE0 /* A   */
        MOV     ?V3,A
        MOV     R0,#?V2
        LCALL   ?PUSH_XSTACK_I_TWO
          CFI CFA_XSP16 add(XSP16, 30)
        MOV     R0,#?V0
        LCALL   ?PUSH_XSTACK_I_TWO
          CFI CFA_XSP16 add(XSP16, 32)
        MOV     R4,#`?<Constant "+RECV:%u,%d\\r\\n">` & 0xff
        MOV     R5,#(`?<Constant "+RECV:%u,%d\\r\\n">` >> 8) & 0xff
        MOV     A,#0x4
        LCALL   ?XSTACK_DISP101_8
        LCALL   ??sprintf?relay      ; Banked call to: sprintf
        MOV     A,#0x4
        LCALL   ?DEALLOC_XSTACK8
          CFI CFA_XSP16 add(XSP16, 28)
//  205 #else
//  206   sprintf(sc, "+RECV:%u\r\n", len);
//  207 #endif
//  208   at_response(sc);
        ; Setup parameters for call to function at_response
        MOV     R2,?XSP + 0
        MOV     R3,?XSP + 1
        LCALL   ??at_response?relay  ; Banked call to: at_response
//  209   at_response_buf(buf, len);
        ; Setup parameters for call to function at_response_buf
        MOV     R4,?V0
        MOV     R5,?V1
        MOV     A,R6
        MOV     R2,A
        MOV     A,R7
        MOV     R3,A
        LCALL   ??at_response_buf?relay; Banked call to: at_response_buf
//  210 }
        MOV     A,#0x10
        LCALL   ?DEALLOC_XSTACK8
          CFI CFA_XSP16 add(XSP16, 12)
        MOV     R7,#0x4
        LJMP    ?BANKED_LEAVE_XDATA
          CFI EndBlock cfiBlock6
//  211 /*********************************************************************************************
//  212 * 名称：at_proc()
//  213 * 功能：处理at指令
//  214 * 参数：
//  215 * 返回：
//  216 * 修改：
//  217 * 注释：
//  218 *********************************************************************************************/

        RSEG BANKED_CODE:CODE:NOROOT(0)
//  219 void at_proc(void)
at_proc:
          CFI Block cfiBlock7 Using cfiCommon0
          CFI Function at_proc
        CODE
//  220 {
        FUNCALL at_proc, at_response
        LOCFRAME ISTACK, 0, STACK
        LOCFRAME PSTACK, 0, STACK
        LOCFRAME XSTACK, 46, STACK
        LOCFRAME IOVERLAY, 0, STATIC
        LOCFRAME DOVERLAY, 0, STATIC
        ARGFRAME ISTACK, 0, STACK
        ARGFRAME PSTACK, 0, STACK
        ARGFRAME XSTACK, 46, STACK
        ARGFRAME IOVERLAY, 0, STATIC
        ARGFRAME DOVERLAY, 0, STATIC
        FUNCALL at_proc, zb_SendDataRequest
        LOCFRAME ISTACK, 0, STACK
        LOCFRAME PSTACK, 0, STACK
        LOCFRAME XSTACK, 51, STACK
        LOCFRAME IOVERLAY, 0, STATIC
        LOCFRAME DOVERLAY, 0, STATIC
        ARGFRAME ISTACK, 0, STACK
        ARGFRAME PSTACK, 0, STACK
        ARGFRAME XSTACK, 51, STACK
        ARGFRAME IOVERLAY, 0, STATIC
        ARGFRAME DOVERLAY, 0, STATIC
        FUNCALL at_proc, HalLedSet
        LOCFRAME ISTACK, 0, STACK
        LOCFRAME PSTACK, 0, STACK
        LOCFRAME XSTACK, 46, STACK
        LOCFRAME IOVERLAY, 0, STATIC
        LOCFRAME DOVERLAY, 0, STATIC
        ARGFRAME ISTACK, 0, STACK
        ARGFRAME PSTACK, 0, STACK
        ARGFRAME XSTACK, 46, STACK
        ARGFRAME IOVERLAY, 0, STATIC
        ARGFRAME DOVERLAY, 0, STATIC
        FUNCALL at_proc, HalLedSet
        LOCFRAME ISTACK, 0, STACK
        LOCFRAME PSTACK, 0, STACK
        LOCFRAME XSTACK, 46, STACK
        LOCFRAME IOVERLAY, 0, STATIC
        LOCFRAME DOVERLAY, 0, STATIC
        ARGFRAME ISTACK, 0, STACK
        ARGFRAME PSTACK, 0, STACK
        ARGFRAME XSTACK, 46, STACK
        ARGFRAME IOVERLAY, 0, STATIC
        ARGFRAME DOVERLAY, 0, STATIC
        FUNCALL at_proc, sprintf
        LOCFRAME ISTACK, 0, STACK
        LOCFRAME PSTACK, 0, STACK
        LOCFRAME XSTACK, 48, STACK
        LOCFRAME IOVERLAY, 0, STATIC
        LOCFRAME DOVERLAY, 0, STATIC
        ARGFRAME ISTACK, 0, STACK
        ARGFRAME PSTACK, 0, STACK
        ARGFRAME XSTACK, 48, STACK
        ARGFRAME IOVERLAY, 0, STATIC
        ARGFRAME DOVERLAY, 0, STATIC
        FUNCALL at_proc, at_response
        LOCFRAME ISTACK, 0, STACK
        LOCFRAME PSTACK, 0, STACK
        LOCFRAME XSTACK, 46, STACK
        LOCFRAME IOVERLAY, 0, STATIC
        LOCFRAME DOVERLAY, 0, STATIC
        ARGFRAME ISTACK, 0, STACK
        ARGFRAME PSTACK, 0, STACK
        ARGFRAME XSTACK, 46, STACK
        ARGFRAME IOVERLAY, 0, STATIC
        ARGFRAME DOVERLAY, 0, STATIC
        FUNCALL at_proc, strlen
        LOCFRAME ISTACK, 0, STACK
        LOCFRAME PSTACK, 0, STACK
        LOCFRAME XSTACK, 46, STACK
        LOCFRAME IOVERLAY, 0, STATIC
        LOCFRAME DOVERLAY, 0, STATIC
        ARGFRAME ISTACK, 0, STACK
        ARGFRAME PSTACK, 0, STACK
        ARGFRAME XSTACK, 46, STACK
        ARGFRAME IOVERLAY, 0, STATIC
        ARGFRAME DOVERLAY, 0, STATIC
        FUNCALL at_proc, strcmp
        LOCFRAME ISTACK, 0, STACK
        LOCFRAME PSTACK, 0, STACK
        LOCFRAME XSTACK, 46, STACK
        LOCFRAME IOVERLAY, 0, STATIC
        LOCFRAME DOVERLAY, 0, STATIC
        ARGFRAME ISTACK, 0, STACK
        ARGFRAME PSTACK, 0, STACK
        ARGFRAME XSTACK, 46, STACK
        ARGFRAME IOVERLAY, 0, STATIC
        ARGFRAME DOVERLAY, 0, STATIC
        FUNCALL at_proc, at_response
        LOCFRAME ISTACK, 0, STACK
        LOCFRAME PSTACK, 0, STACK
        LOCFRAME XSTACK, 46, STACK
        LOCFRAME IOVERLAY, 0, STATIC
        LOCFRAME DOVERLAY, 0, STATIC
        ARGFRAME ISTACK, 0, STACK
        ARGFRAME PSTACK, 0, STACK
        ARGFRAME XSTACK, 46, STACK
        ARGFRAME IOVERLAY, 0, STATIC
        ARGFRAME DOVERLAY, 0, STATIC
        FUNCALL at_proc, strcmp
        LOCFRAME ISTACK, 0, STACK
        LOCFRAME PSTACK, 0, STACK
        LOCFRAME XSTACK, 46, STACK
        LOCFRAME IOVERLAY, 0, STATIC
        LOCFRAME DOVERLAY, 0, STATIC
        ARGFRAME ISTACK, 0, STACK
        ARGFRAME PSTACK, 0, STACK
        ARGFRAME XSTACK, 46, STACK
        ARGFRAME IOVERLAY, 0, STATIC
        ARGFRAME DOVERLAY, 0, STATIC
        FUNCALL at_proc, at_response
        LOCFRAME ISTACK, 0, STACK
        LOCFRAME PSTACK, 0, STACK
        LOCFRAME XSTACK, 46, STACK
        LOCFRAME IOVERLAY, 0, STATIC
        LOCFRAME DOVERLAY, 0, STATIC
        ARGFRAME ISTACK, 0, STACK
        ARGFRAME PSTACK, 0, STACK
        ARGFRAME XSTACK, 46, STACK
        ARGFRAME IOVERLAY, 0, STATIC
        ARGFRAME DOVERLAY, 0, STATIC
        FUNCALL at_proc, strcmp
        LOCFRAME ISTACK, 0, STACK
        LOCFRAME PSTACK, 0, STACK
        LOCFRAME XSTACK, 46, STACK
        LOCFRAME IOVERLAY, 0, STATIC
        LOCFRAME DOVERLAY, 0, STATIC
        ARGFRAME ISTACK, 0, STACK
        ARGFRAME PSTACK, 0, STACK
        ARGFRAME XSTACK, 46, STACK
        ARGFRAME IOVERLAY, 0, STATIC
        ARGFRAME DOVERLAY, 0, STATIC
        FUNCALL at_proc, at_response
        LOCFRAME ISTACK, 0, STACK
        LOCFRAME PSTACK, 0, STACK
        LOCFRAME XSTACK, 46, STACK
        LOCFRAME IOVERLAY, 0, STATIC
        LOCFRAME DOVERLAY, 0, STATIC
        ARGFRAME ISTACK, 0, STACK
        ARGFRAME PSTACK, 0, STACK
        ARGFRAME XSTACK, 46, STACK
        ARGFRAME IOVERLAY, 0, STATIC
        ARGFRAME DOVERLAY, 0, STATIC
        FUNCALL at_proc, memcmp
        LOCFRAME ISTACK, 0, STACK
        LOCFRAME PSTACK, 0, STACK
        LOCFRAME XSTACK, 48, STACK
        LOCFRAME IOVERLAY, 0, STATIC
        LOCFRAME DOVERLAY, 0, STATIC
        ARGFRAME ISTACK, 0, STACK
        ARGFRAME PSTACK, 0, STACK
        ARGFRAME XSTACK, 48, STACK
        ARGFRAME IOVERLAY, 0, STATIC
        ARGFRAME DOVERLAY, 0, STATIC
        FUNCALL at_proc, at_response
        LOCFRAME ISTACK, 0, STACK
        LOCFRAME PSTACK, 0, STACK
        LOCFRAME XSTACK, 46, STACK
        LOCFRAME IOVERLAY, 0, STATIC
        LOCFRAME DOVERLAY, 0, STATIC
        ARGFRAME ISTACK, 0, STACK
        ARGFRAME PSTACK, 0, STACK
        ARGFRAME XSTACK, 46, STACK
        ARGFRAME IOVERLAY, 0, STATIC
        ARGFRAME DOVERLAY, 0, STATIC
        FUNCALL at_proc, at_response
        LOCFRAME ISTACK, 0, STACK
        LOCFRAME PSTACK, 0, STACK
        LOCFRAME XSTACK, 46, STACK
        LOCFRAME IOVERLAY, 0, STATIC
        LOCFRAME DOVERLAY, 0, STATIC
        ARGFRAME ISTACK, 0, STACK
        ARGFRAME PSTACK, 0, STACK
        ARGFRAME XSTACK, 46, STACK
        ARGFRAME IOVERLAY, 0, STATIC
        ARGFRAME DOVERLAY, 0, STATIC
        FUNCALL at_proc, memcmp
        LOCFRAME ISTACK, 0, STACK
        LOCFRAME PSTACK, 0, STACK
        LOCFRAME XSTACK, 48, STACK
        LOCFRAME IOVERLAY, 0, STATIC
        LOCFRAME DOVERLAY, 0, STATIC
        ARGFRAME ISTACK, 0, STACK
        ARGFRAME PSTACK, 0, STACK
        ARGFRAME XSTACK, 48, STACK
        ARGFRAME IOVERLAY, 0, STATIC
        ARGFRAME DOVERLAY, 0, STATIC
        FUNCALL at_proc, sprintf
        LOCFRAME ISTACK, 0, STACK
        LOCFRAME PSTACK, 0, STACK
        LOCFRAME XSTACK, 62, STACK
        LOCFRAME IOVERLAY, 0, STATIC
        LOCFRAME DOVERLAY, 0, STATIC
        ARGFRAME ISTACK, 0, STACK
        ARGFRAME PSTACK, 0, STACK
        ARGFRAME XSTACK, 62, STACK
        ARGFRAME IOVERLAY, 0, STATIC
        ARGFRAME DOVERLAY, 0, STATIC
        FUNCALL at_proc, at_response
        LOCFRAME ISTACK, 0, STACK
        LOCFRAME PSTACK, 0, STACK
        LOCFRAME XSTACK, 46, STACK
        LOCFRAME IOVERLAY, 0, STATIC
        LOCFRAME DOVERLAY, 0, STATIC
        ARGFRAME ISTACK, 0, STACK
        ARGFRAME PSTACK, 0, STACK
        ARGFRAME XSTACK, 46, STACK
        ARGFRAME IOVERLAY, 0, STATIC
        ARGFRAME DOVERLAY, 0, STATIC
        FUNCALL at_proc, at_response
        LOCFRAME ISTACK, 0, STACK
        LOCFRAME PSTACK, 0, STACK
        LOCFRAME XSTACK, 46, STACK
        LOCFRAME IOVERLAY, 0, STATIC
        LOCFRAME DOVERLAY, 0, STATIC
        ARGFRAME ISTACK, 0, STACK
        ARGFRAME PSTACK, 0, STACK
        ARGFRAME XSTACK, 46, STACK
        ARGFRAME IOVERLAY, 0, STATIC
        ARGFRAME DOVERLAY, 0, STATIC
        FUNCALL at_proc, memcmp
        LOCFRAME ISTACK, 0, STACK
        LOCFRAME PSTACK, 0, STACK
        LOCFRAME XSTACK, 48, STACK
        LOCFRAME IOVERLAY, 0, STATIC
        LOCFRAME DOVERLAY, 0, STATIC
        ARGFRAME ISTACK, 0, STACK
        ARGFRAME PSTACK, 0, STACK
        ARGFRAME XSTACK, 48, STACK
        ARGFRAME IOVERLAY, 0, STATIC
        ARGFRAME DOVERLAY, 0, STATIC
        FUNCALL at_proc, GetPanId
        LOCFRAME ISTACK, 0, STACK
        LOCFRAME PSTACK, 0, STACK
        LOCFRAME XSTACK, 46, STACK
        LOCFRAME IOVERLAY, 0, STATIC
        LOCFRAME DOVERLAY, 0, STATIC
        ARGFRAME ISTACK, 0, STACK
        ARGFRAME PSTACK, 0, STACK
        ARGFRAME XSTACK, 46, STACK
        ARGFRAME IOVERLAY, 0, STATIC
        ARGFRAME DOVERLAY, 0, STATIC
        FUNCALL at_proc, sprintf
        LOCFRAME ISTACK, 0, STACK
        LOCFRAME PSTACK, 0, STACK
        LOCFRAME XSTACK, 48, STACK
        LOCFRAME IOVERLAY, 0, STATIC
        LOCFRAME DOVERLAY, 0, STATIC
        ARGFRAME ISTACK, 0, STACK
        ARGFRAME PSTACK, 0, STACK
        ARGFRAME XSTACK, 48, STACK
        ARGFRAME IOVERLAY, 0, STATIC
        ARGFRAME DOVERLAY, 0, STATIC
        FUNCALL at_proc, at_response
        LOCFRAME ISTACK, 0, STACK
        LOCFRAME PSTACK, 0, STACK
        LOCFRAME XSTACK, 46, STACK
        LOCFRAME IOVERLAY, 0, STATIC
        LOCFRAME DOVERLAY, 0, STATIC
        ARGFRAME ISTACK, 0, STACK
        ARGFRAME PSTACK, 0, STACK
        ARGFRAME XSTACK, 46, STACK
        ARGFRAME IOVERLAY, 0, STATIC
        ARGFRAME DOVERLAY, 0, STATIC
        FUNCALL at_proc, at_response
        LOCFRAME ISTACK, 0, STACK
        LOCFRAME PSTACK, 0, STACK
        LOCFRAME XSTACK, 46, STACK
        LOCFRAME IOVERLAY, 0, STATIC
        LOCFRAME DOVERLAY, 0, STATIC
        ARGFRAME ISTACK, 0, STACK
        ARGFRAME PSTACK, 0, STACK
        ARGFRAME XSTACK, 46, STACK
        ARGFRAME IOVERLAY, 0, STATIC
        ARGFRAME DOVERLAY, 0, STATIC
        FUNCALL at_proc, atoi
        LOCFRAME ISTACK, 0, STACK
        LOCFRAME PSTACK, 0, STACK
        LOCFRAME XSTACK, 46, STACK
        LOCFRAME IOVERLAY, 0, STATIC
        LOCFRAME DOVERLAY, 0, STATIC
        ARGFRAME ISTACK, 0, STACK
        ARGFRAME PSTACK, 0, STACK
        ARGFRAME XSTACK, 46, STACK
        ARGFRAME IOVERLAY, 0, STATIC
        ARGFRAME DOVERLAY, 0, STATIC
        FUNCALL at_proc, SetPanId
        LOCFRAME ISTACK, 0, STACK
        LOCFRAME PSTACK, 0, STACK
        LOCFRAME XSTACK, 46, STACK
        LOCFRAME IOVERLAY, 0, STATIC
        LOCFRAME DOVERLAY, 0, STATIC
        ARGFRAME ISTACK, 0, STACK
        ARGFRAME PSTACK, 0, STACK
        ARGFRAME XSTACK, 46, STACK
        ARGFRAME IOVERLAY, 0, STATIC
        ARGFRAME DOVERLAY, 0, STATIC
        FUNCALL at_proc, at_response
        LOCFRAME ISTACK, 0, STACK
        LOCFRAME PSTACK, 0, STACK
        LOCFRAME XSTACK, 46, STACK
        LOCFRAME IOVERLAY, 0, STATIC
        LOCFRAME DOVERLAY, 0, STATIC
        ARGFRAME ISTACK, 0, STACK
        ARGFRAME PSTACK, 0, STACK
        ARGFRAME XSTACK, 46, STACK
        ARGFRAME IOVERLAY, 0, STATIC
        ARGFRAME DOVERLAY, 0, STATIC
        FUNCALL at_proc, at_response
        LOCFRAME ISTACK, 0, STACK
        LOCFRAME PSTACK, 0, STACK
        LOCFRAME XSTACK, 46, STACK
        LOCFRAME IOVERLAY, 0, STATIC
        LOCFRAME DOVERLAY, 0, STATIC
        ARGFRAME ISTACK, 0, STACK
        ARGFRAME PSTACK, 0, STACK
        ARGFRAME XSTACK, 46, STACK
        ARGFRAME IOVERLAY, 0, STATIC
        ARGFRAME DOVERLAY, 0, STATIC
        FUNCALL at_proc, memcmp
        LOCFRAME ISTACK, 0, STACK
        LOCFRAME PSTACK, 0, STACK
        LOCFRAME XSTACK, 48, STACK
        LOCFRAME IOVERLAY, 0, STATIC
        LOCFRAME DOVERLAY, 0, STATIC
        ARGFRAME ISTACK, 0, STACK
        ARGFRAME PSTACK, 0, STACK
        ARGFRAME XSTACK, 48, STACK
        ARGFRAME IOVERLAY, 0, STATIC
        ARGFRAME DOVERLAY, 0, STATIC
        FUNCALL at_proc, GetChannel
        LOCFRAME ISTACK, 0, STACK
        LOCFRAME PSTACK, 0, STACK
        LOCFRAME XSTACK, 46, STACK
        LOCFRAME IOVERLAY, 0, STATIC
        LOCFRAME DOVERLAY, 0, STATIC
        ARGFRAME ISTACK, 0, STACK
        ARGFRAME PSTACK, 0, STACK
        ARGFRAME XSTACK, 46, STACK
        ARGFRAME IOVERLAY, 0, STATIC
        ARGFRAME DOVERLAY, 0, STATIC
        FUNCALL at_proc, sprintf
        LOCFRAME ISTACK, 0, STACK
        LOCFRAME PSTACK, 0, STACK
        LOCFRAME XSTACK, 48, STACK
        LOCFRAME IOVERLAY, 0, STATIC
        LOCFRAME DOVERLAY, 0, STATIC
        ARGFRAME ISTACK, 0, STACK
        ARGFRAME PSTACK, 0, STACK
        ARGFRAME XSTACK, 48, STACK
        ARGFRAME IOVERLAY, 0, STATIC
        ARGFRAME DOVERLAY, 0, STATIC
        FUNCALL at_proc, at_response
        LOCFRAME ISTACK, 0, STACK
        LOCFRAME PSTACK, 0, STACK
        LOCFRAME XSTACK, 46, STACK
        LOCFRAME IOVERLAY, 0, STATIC
        LOCFRAME DOVERLAY, 0, STATIC
        ARGFRAME ISTACK, 0, STACK
        ARGFRAME PSTACK, 0, STACK
        ARGFRAME XSTACK, 46, STACK
        ARGFRAME IOVERLAY, 0, STATIC
        ARGFRAME DOVERLAY, 0, STATIC
        FUNCALL at_proc, at_response
        LOCFRAME ISTACK, 0, STACK
        LOCFRAME PSTACK, 0, STACK
        LOCFRAME XSTACK, 46, STACK
        LOCFRAME IOVERLAY, 0, STATIC
        LOCFRAME DOVERLAY, 0, STATIC
        ARGFRAME ISTACK, 0, STACK
        ARGFRAME PSTACK, 0, STACK
        ARGFRAME XSTACK, 46, STACK
        ARGFRAME IOVERLAY, 0, STATIC
        ARGFRAME DOVERLAY, 0, STATIC
        FUNCALL at_proc, atoi
        LOCFRAME ISTACK, 0, STACK
        LOCFRAME PSTACK, 0, STACK
        LOCFRAME XSTACK, 46, STACK
        LOCFRAME IOVERLAY, 0, STATIC
        LOCFRAME DOVERLAY, 0, STATIC
        ARGFRAME ISTACK, 0, STACK
        ARGFRAME PSTACK, 0, STACK
        ARGFRAME XSTACK, 46, STACK
        ARGFRAME IOVERLAY, 0, STATIC
        ARGFRAME DOVERLAY, 0, STATIC
        FUNCALL at_proc, SetChannel
        LOCFRAME ISTACK, 0, STACK
        LOCFRAME PSTACK, 0, STACK
        LOCFRAME XSTACK, 46, STACK
        LOCFRAME IOVERLAY, 0, STATIC
        LOCFRAME DOVERLAY, 0, STATIC
        ARGFRAME ISTACK, 0, STACK
        ARGFRAME PSTACK, 0, STACK
        ARGFRAME XSTACK, 46, STACK
        ARGFRAME IOVERLAY, 0, STATIC
        ARGFRAME DOVERLAY, 0, STATIC
        FUNCALL at_proc, at_response
        LOCFRAME ISTACK, 0, STACK
        LOCFRAME PSTACK, 0, STACK
        LOCFRAME XSTACK, 46, STACK
        LOCFRAME IOVERLAY, 0, STATIC
        LOCFRAME DOVERLAY, 0, STATIC
        ARGFRAME ISTACK, 0, STACK
        ARGFRAME PSTACK, 0, STACK
        ARGFRAME XSTACK, 46, STACK
        ARGFRAME IOVERLAY, 0, STATIC
        ARGFRAME DOVERLAY, 0, STATIC
        FUNCALL at_proc, at_response
        LOCFRAME ISTACK, 0, STACK
        LOCFRAME PSTACK, 0, STACK
        LOCFRAME XSTACK, 46, STACK
        LOCFRAME IOVERLAY, 0, STATIC
        LOCFRAME DOVERLAY, 0, STATIC
        ARGFRAME ISTACK, 0, STACK
        ARGFRAME PSTACK, 0, STACK
        ARGFRAME XSTACK, 46, STACK
        ARGFRAME IOVERLAY, 0, STATIC
        ARGFRAME DOVERLAY, 0, STATIC
        FUNCALL at_proc, memcmp
        LOCFRAME ISTACK, 0, STACK
        LOCFRAME PSTACK, 0, STACK
        LOCFRAME XSTACK, 48, STACK
        LOCFRAME IOVERLAY, 0, STATIC
        LOCFRAME DOVERLAY, 0, STATIC
        ARGFRAME ISTACK, 0, STACK
        ARGFRAME PSTACK, 0, STACK
        ARGFRAME XSTACK, 48, STACK
        ARGFRAME IOVERLAY, 0, STATIC
        ARGFRAME DOVERLAY, 0, STATIC
        FUNCALL at_proc, GetLogicalType
        LOCFRAME ISTACK, 0, STACK
        LOCFRAME PSTACK, 0, STACK
        LOCFRAME XSTACK, 46, STACK
        LOCFRAME IOVERLAY, 0, STATIC
        LOCFRAME DOVERLAY, 0, STATIC
        ARGFRAME ISTACK, 0, STACK
        ARGFRAME PSTACK, 0, STACK
        ARGFRAME XSTACK, 46, STACK
        ARGFRAME IOVERLAY, 0, STATIC
        ARGFRAME DOVERLAY, 0, STATIC
        FUNCALL at_proc, sprintf
        LOCFRAME ISTACK, 0, STACK
        LOCFRAME PSTACK, 0, STACK
        LOCFRAME XSTACK, 48, STACK
        LOCFRAME IOVERLAY, 0, STATIC
        LOCFRAME DOVERLAY, 0, STATIC
        ARGFRAME ISTACK, 0, STACK
        ARGFRAME PSTACK, 0, STACK
        ARGFRAME XSTACK, 48, STACK
        ARGFRAME IOVERLAY, 0, STATIC
        ARGFRAME DOVERLAY, 0, STATIC
        FUNCALL at_proc, at_response
        LOCFRAME ISTACK, 0, STACK
        LOCFRAME PSTACK, 0, STACK
        LOCFRAME XSTACK, 46, STACK
        LOCFRAME IOVERLAY, 0, STATIC
        LOCFRAME DOVERLAY, 0, STATIC
        ARGFRAME ISTACK, 0, STACK
        ARGFRAME PSTACK, 0, STACK
        ARGFRAME XSTACK, 46, STACK
        ARGFRAME IOVERLAY, 0, STATIC
        ARGFRAME DOVERLAY, 0, STATIC
        FUNCALL at_proc, at_response
        LOCFRAME ISTACK, 0, STACK
        LOCFRAME PSTACK, 0, STACK
        LOCFRAME XSTACK, 46, STACK
        LOCFRAME IOVERLAY, 0, STATIC
        LOCFRAME DOVERLAY, 0, STATIC
        ARGFRAME ISTACK, 0, STACK
        ARGFRAME PSTACK, 0, STACK
        ARGFRAME XSTACK, 46, STACK
        ARGFRAME IOVERLAY, 0, STATIC
        ARGFRAME DOVERLAY, 0, STATIC
        FUNCALL at_proc, atoi
        LOCFRAME ISTACK, 0, STACK
        LOCFRAME PSTACK, 0, STACK
        LOCFRAME XSTACK, 46, STACK
        LOCFRAME IOVERLAY, 0, STATIC
        LOCFRAME DOVERLAY, 0, STATIC
        ARGFRAME ISTACK, 0, STACK
        ARGFRAME PSTACK, 0, STACK
        ARGFRAME XSTACK, 46, STACK
        ARGFRAME IOVERLAY, 0, STATIC
        ARGFRAME DOVERLAY, 0, STATIC
        FUNCALL at_proc, SetLogicalType
        LOCFRAME ISTACK, 0, STACK
        LOCFRAME PSTACK, 0, STACK
        LOCFRAME XSTACK, 46, STACK
        LOCFRAME IOVERLAY, 0, STATIC
        LOCFRAME DOVERLAY, 0, STATIC
        ARGFRAME ISTACK, 0, STACK
        ARGFRAME PSTACK, 0, STACK
        ARGFRAME XSTACK, 46, STACK
        ARGFRAME IOVERLAY, 0, STATIC
        ARGFRAME DOVERLAY, 0, STATIC
        FUNCALL at_proc, at_response
        LOCFRAME ISTACK, 0, STACK
        LOCFRAME PSTACK, 0, STACK
        LOCFRAME XSTACK, 46, STACK
        LOCFRAME IOVERLAY, 0, STATIC
        LOCFRAME DOVERLAY, 0, STATIC
        ARGFRAME ISTACK, 0, STACK
        ARGFRAME PSTACK, 0, STACK
        ARGFRAME XSTACK, 46, STACK
        ARGFRAME IOVERLAY, 0, STATIC
        ARGFRAME DOVERLAY, 0, STATIC
        FUNCALL at_proc, at_response
        LOCFRAME ISTACK, 0, STACK
        LOCFRAME PSTACK, 0, STACK
        LOCFRAME XSTACK, 46, STACK
        LOCFRAME IOVERLAY, 0, STATIC
        LOCFRAME DOVERLAY, 0, STATIC
        ARGFRAME ISTACK, 0, STACK
        ARGFRAME PSTACK, 0, STACK
        ARGFRAME XSTACK, 46, STACK
        ARGFRAME IOVERLAY, 0, STATIC
        ARGFRAME DOVERLAY, 0, STATIC
        FUNCALL at_proc, memcmp
        LOCFRAME ISTACK, 0, STACK
        LOCFRAME PSTACK, 0, STACK
        LOCFRAME XSTACK, 48, STACK
        LOCFRAME IOVERLAY, 0, STATIC
        LOCFRAME DOVERLAY, 0, STATIC
        ARGFRAME ISTACK, 0, STACK
        ARGFRAME PSTACK, 0, STACK
        ARGFRAME XSTACK, 48, STACK
        ARGFRAME IOVERLAY, 0, STATIC
        ARGFRAME DOVERLAY, 0, STATIC
        FUNCALL at_proc, GetLinkStatus
        LOCFRAME ISTACK, 0, STACK
        LOCFRAME PSTACK, 0, STACK
        LOCFRAME XSTACK, 46, STACK
        LOCFRAME IOVERLAY, 0, STATIC
        LOCFRAME DOVERLAY, 0, STATIC
        ARGFRAME ISTACK, 0, STACK
        ARGFRAME PSTACK, 0, STACK
        ARGFRAME XSTACK, 46, STACK
        ARGFRAME IOVERLAY, 0, STATIC
        ARGFRAME DOVERLAY, 0, STATIC
        FUNCALL at_proc, sprintf
        LOCFRAME ISTACK, 0, STACK
        LOCFRAME PSTACK, 0, STACK
        LOCFRAME XSTACK, 48, STACK
        LOCFRAME IOVERLAY, 0, STATIC
        LOCFRAME DOVERLAY, 0, STATIC
        ARGFRAME ISTACK, 0, STACK
        ARGFRAME PSTACK, 0, STACK
        ARGFRAME XSTACK, 48, STACK
        ARGFRAME IOVERLAY, 0, STATIC
        ARGFRAME DOVERLAY, 0, STATIC
        FUNCALL at_proc, at_response
        LOCFRAME ISTACK, 0, STACK
        LOCFRAME PSTACK, 0, STACK
        LOCFRAME XSTACK, 46, STACK
        LOCFRAME IOVERLAY, 0, STATIC
        LOCFRAME DOVERLAY, 0, STATIC
        ARGFRAME ISTACK, 0, STACK
        ARGFRAME PSTACK, 0, STACK
        ARGFRAME XSTACK, 46, STACK
        ARGFRAME IOVERLAY, 0, STATIC
        ARGFRAME DOVERLAY, 0, STATIC
        FUNCALL at_proc, at_response
        LOCFRAME ISTACK, 0, STACK
        LOCFRAME PSTACK, 0, STACK
        LOCFRAME XSTACK, 46, STACK
        LOCFRAME IOVERLAY, 0, STATIC
        LOCFRAME DOVERLAY, 0, STATIC
        ARGFRAME ISTACK, 0, STACK
        ARGFRAME PSTACK, 0, STACK
        ARGFRAME XSTACK, 46, STACK
        ARGFRAME IOVERLAY, 0, STATIC
        ARGFRAME DOVERLAY, 0, STATIC
        FUNCALL at_proc, memcmp
        LOCFRAME ISTACK, 0, STACK
        LOCFRAME PSTACK, 0, STACK
        LOCFRAME XSTACK, 48, STACK
        LOCFRAME IOVERLAY, 0, STATIC
        LOCFRAME DOVERLAY, 0, STATIC
        ARGFRAME ISTACK, 0, STACK
        ARGFRAME PSTACK, 0, STACK
        ARGFRAME XSTACK, 48, STACK
        ARGFRAME IOVERLAY, 0, STATIC
        ARGFRAME DOVERLAY, 0, STATIC
        FUNCALL at_proc, getLastPkgRssi
        LOCFRAME ISTACK, 0, STACK
        LOCFRAME PSTACK, 0, STACK
        LOCFRAME XSTACK, 46, STACK
        LOCFRAME IOVERLAY, 0, STATIC
        LOCFRAME DOVERLAY, 0, STATIC
        ARGFRAME ISTACK, 0, STACK
        ARGFRAME PSTACK, 0, STACK
        ARGFRAME XSTACK, 46, STACK
        ARGFRAME IOVERLAY, 0, STATIC
        ARGFRAME DOVERLAY, 0, STATIC
        FUNCALL at_proc, sprintf
        LOCFRAME ISTACK, 0, STACK
        LOCFRAME PSTACK, 0, STACK
        LOCFRAME XSTACK, 48, STACK
        LOCFRAME IOVERLAY, 0, STATIC
        LOCFRAME DOVERLAY, 0, STATIC
        ARGFRAME ISTACK, 0, STACK
        ARGFRAME PSTACK, 0, STACK
        ARGFRAME XSTACK, 48, STACK
        ARGFRAME IOVERLAY, 0, STATIC
        ARGFRAME DOVERLAY, 0, STATIC
        FUNCALL at_proc, at_response
        LOCFRAME ISTACK, 0, STACK
        LOCFRAME PSTACK, 0, STACK
        LOCFRAME XSTACK, 46, STACK
        LOCFRAME IOVERLAY, 0, STATIC
        LOCFRAME DOVERLAY, 0, STATIC
        ARGFRAME ISTACK, 0, STACK
        ARGFRAME PSTACK, 0, STACK
        ARGFRAME XSTACK, 46, STACK
        ARGFRAME IOVERLAY, 0, STATIC
        ARGFRAME DOVERLAY, 0, STATIC
        FUNCALL at_proc, at_response
        LOCFRAME ISTACK, 0, STACK
        LOCFRAME PSTACK, 0, STACK
        LOCFRAME XSTACK, 46, STACK
        LOCFRAME IOVERLAY, 0, STATIC
        LOCFRAME DOVERLAY, 0, STATIC
        ARGFRAME ISTACK, 0, STACK
        ARGFRAME PSTACK, 0, STACK
        ARGFRAME XSTACK, 46, STACK
        ARGFRAME IOVERLAY, 0, STATIC
        ARGFRAME DOVERLAY, 0, STATIC
        FUNCALL at_proc, memcmp
        LOCFRAME ISTACK, 0, STACK
        LOCFRAME PSTACK, 0, STACK
        LOCFRAME XSTACK, 48, STACK
        LOCFRAME IOVERLAY, 0, STATIC
        LOCFRAME DOVERLAY, 0, STATIC
        ARGFRAME ISTACK, 0, STACK
        ARGFRAME PSTACK, 0, STACK
        ARGFRAME XSTACK, 48, STACK
        ARGFRAME IOVERLAY, 0, STATIC
        ARGFRAME DOVERLAY, 0, STATIC
        FUNCALL at_proc, getLastPkgLQI
        LOCFRAME ISTACK, 0, STACK
        LOCFRAME PSTACK, 0, STACK
        LOCFRAME XSTACK, 46, STACK
        LOCFRAME IOVERLAY, 0, STATIC
        LOCFRAME DOVERLAY, 0, STATIC
        ARGFRAME ISTACK, 0, STACK
        ARGFRAME PSTACK, 0, STACK
        ARGFRAME XSTACK, 46, STACK
        ARGFRAME IOVERLAY, 0, STATIC
        ARGFRAME DOVERLAY, 0, STATIC
        FUNCALL at_proc, sprintf
        LOCFRAME ISTACK, 0, STACK
        LOCFRAME PSTACK, 0, STACK
        LOCFRAME XSTACK, 48, STACK
        LOCFRAME IOVERLAY, 0, STATIC
        LOCFRAME DOVERLAY, 0, STATIC
        ARGFRAME ISTACK, 0, STACK
        ARGFRAME PSTACK, 0, STACK
        ARGFRAME XSTACK, 48, STACK
        ARGFRAME IOVERLAY, 0, STATIC
        ARGFRAME DOVERLAY, 0, STATIC
        FUNCALL at_proc, at_response
        LOCFRAME ISTACK, 0, STACK
        LOCFRAME PSTACK, 0, STACK
        LOCFRAME XSTACK, 46, STACK
        LOCFRAME IOVERLAY, 0, STATIC
        LOCFRAME DOVERLAY, 0, STATIC
        ARGFRAME ISTACK, 0, STACK
        ARGFRAME PSTACK, 0, STACK
        ARGFRAME XSTACK, 46, STACK
        ARGFRAME IOVERLAY, 0, STATIC
        ARGFRAME DOVERLAY, 0, STATIC
        FUNCALL at_proc, at_response
        LOCFRAME ISTACK, 0, STACK
        LOCFRAME PSTACK, 0, STACK
        LOCFRAME XSTACK, 46, STACK
        LOCFRAME IOVERLAY, 0, STATIC
        LOCFRAME DOVERLAY, 0, STATIC
        ARGFRAME ISTACK, 0, STACK
        ARGFRAME PSTACK, 0, STACK
        ARGFRAME XSTACK, 46, STACK
        ARGFRAME IOVERLAY, 0, STATIC
        ARGFRAME DOVERLAY, 0, STATIC
        FUNCALL at_proc, memcmp
        LOCFRAME ISTACK, 0, STACK
        LOCFRAME PSTACK, 0, STACK
        LOCFRAME XSTACK, 48, STACK
        LOCFRAME IOVERLAY, 0, STATIC
        LOCFRAME DOVERLAY, 0, STATIC
        ARGFRAME ISTACK, 0, STACK
        ARGFRAME PSTACK, 0, STACK
        ARGFRAME XSTACK, 48, STACK
        ARGFRAME IOVERLAY, 0, STATIC
        ARGFRAME DOVERLAY, 0, STATIC
        FUNCALL at_proc, at_response
        LOCFRAME ISTACK, 0, STACK
        LOCFRAME PSTACK, 0, STACK
        LOCFRAME XSTACK, 46, STACK
        LOCFRAME IOVERLAY, 0, STATIC
        LOCFRAME DOVERLAY, 0, STATIC
        ARGFRAME ISTACK, 0, STACK
        ARGFRAME PSTACK, 0, STACK
        ARGFRAME XSTACK, 46, STACK
        ARGFRAME IOVERLAY, 0, STATIC
        ARGFRAME DOVERLAY, 0, STATIC
        FUNCALL at_proc, zb_SystemReset
        LOCFRAME ISTACK, 0, STACK
        LOCFRAME PSTACK, 0, STACK
        LOCFRAME XSTACK, 46, STACK
        LOCFRAME IOVERLAY, 0, STATIC
        LOCFRAME DOVERLAY, 0, STATIC
        ARGFRAME ISTACK, 0, STACK
        ARGFRAME PSTACK, 0, STACK
        ARGFRAME XSTACK, 46, STACK
        ARGFRAME IOVERLAY, 0, STATIC
        ARGFRAME DOVERLAY, 0, STATIC
        FUNCALL at_proc, memcmp
        LOCFRAME ISTACK, 0, STACK
        LOCFRAME PSTACK, 0, STACK
        LOCFRAME XSTACK, 48, STACK
        LOCFRAME IOVERLAY, 0, STATIC
        LOCFRAME DOVERLAY, 0, STATIC
        ARGFRAME ISTACK, 0, STACK
        ARGFRAME PSTACK, 0, STACK
        ARGFRAME XSTACK, 48, STACK
        ARGFRAME IOVERLAY, 0, STATIC
        ARGFRAME DOVERLAY, 0, STATIC
        FUNCALL at_proc, atoi
        LOCFRAME ISTACK, 0, STACK
        LOCFRAME PSTACK, 0, STACK
        LOCFRAME XSTACK, 46, STACK
        LOCFRAME IOVERLAY, 0, STATIC
        LOCFRAME DOVERLAY, 0, STATIC
        ARGFRAME ISTACK, 0, STACK
        ARGFRAME PSTACK, 0, STACK
        ARGFRAME XSTACK, 46, STACK
        ARGFRAME IOVERLAY, 0, STATIC
        ARGFRAME DOVERLAY, 0, STATIC
        FUNCALL at_proc, at_response
        LOCFRAME ISTACK, 0, STACK
        LOCFRAME PSTACK, 0, STACK
        LOCFRAME XSTACK, 46, STACK
        LOCFRAME IOVERLAY, 0, STATIC
        LOCFRAME DOVERLAY, 0, STATIC
        ARGFRAME ISTACK, 0, STACK
        ARGFRAME PSTACK, 0, STACK
        ARGFRAME XSTACK, 46, STACK
        ARGFRAME IOVERLAY, 0, STATIC
        ARGFRAME DOVERLAY, 0, STATIC
        FUNCALL at_proc, at_response
        LOCFRAME ISTACK, 0, STACK
        LOCFRAME PSTACK, 0, STACK
        LOCFRAME XSTACK, 46, STACK
        LOCFRAME IOVERLAY, 0, STATIC
        LOCFRAME DOVERLAY, 0, STATIC
        ARGFRAME ISTACK, 0, STACK
        ARGFRAME PSTACK, 0, STACK
        ARGFRAME XSTACK, 46, STACK
        ARGFRAME IOVERLAY, 0, STATIC
        ARGFRAME DOVERLAY, 0, STATIC
        FUNCALL at_proc, memcmp
        LOCFRAME ISTACK, 0, STACK
        LOCFRAME PSTACK, 0, STACK
        LOCFRAME XSTACK, 48, STACK
        LOCFRAME IOVERLAY, 0, STATIC
        LOCFRAME DOVERLAY, 0, STATIC
        ARGFRAME ISTACK, 0, STACK
        ARGFRAME PSTACK, 0, STACK
        ARGFRAME XSTACK, 48, STACK
        ARGFRAME IOVERLAY, 0, STATIC
        ARGFRAME DOVERLAY, 0, STATIC
        FUNCALL at_proc, strstr
        LOCFRAME ISTACK, 0, STACK
        LOCFRAME PSTACK, 0, STACK
        LOCFRAME XSTACK, 46, STACK
        LOCFRAME IOVERLAY, 0, STATIC
        LOCFRAME DOVERLAY, 0, STATIC
        ARGFRAME ISTACK, 0, STACK
        ARGFRAME PSTACK, 0, STACK
        ARGFRAME XSTACK, 46, STACK
        ARGFRAME IOVERLAY, 0, STATIC
        ARGFRAME DOVERLAY, 0, STATIC
        FUNCALL at_proc, HalFlashRead
        LOCFRAME ISTACK, 0, STACK
        LOCFRAME PSTACK, 0, STACK
        LOCFRAME XSTACK, 48, STACK
        LOCFRAME IOVERLAY, 0, STATIC
        LOCFRAME DOVERLAY, 0, STATIC
        ARGFRAME ISTACK, 0, STACK
        ARGFRAME PSTACK, 0, STACK
        ARGFRAME XSTACK, 48, STACK
        ARGFRAME IOVERLAY, 0, STATIC
        ARGFRAME DOVERLAY, 0, STATIC
        FUNCALL at_proc, HalFlashErase
        LOCFRAME ISTACK, 0, STACK
        LOCFRAME PSTACK, 0, STACK
        LOCFRAME XSTACK, 46, STACK
        LOCFRAME IOVERLAY, 0, STATIC
        LOCFRAME DOVERLAY, 0, STATIC
        ARGFRAME ISTACK, 0, STACK
        ARGFRAME PSTACK, 0, STACK
        ARGFRAME XSTACK, 46, STACK
        ARGFRAME IOVERLAY, 0, STATIC
        ARGFRAME DOVERLAY, 0, STATIC
        FUNCALL at_proc, HalFlashWrite
        LOCFRAME ISTACK, 0, STACK
        LOCFRAME PSTACK, 0, STACK
        LOCFRAME XSTACK, 48, STACK
        LOCFRAME IOVERLAY, 0, STATIC
        LOCFRAME DOVERLAY, 0, STATIC
        ARGFRAME ISTACK, 0, STACK
        ARGFRAME PSTACK, 0, STACK
        ARGFRAME XSTACK, 48, STACK
        ARGFRAME IOVERLAY, 0, STATIC
        ARGFRAME DOVERLAY, 0, STATIC
        FUNCALL at_proc, at_response
        LOCFRAME ISTACK, 0, STACK
        LOCFRAME PSTACK, 0, STACK
        LOCFRAME XSTACK, 46, STACK
        LOCFRAME IOVERLAY, 0, STATIC
        LOCFRAME DOVERLAY, 0, STATIC
        ARGFRAME ISTACK, 0, STACK
        ARGFRAME PSTACK, 0, STACK
        ARGFRAME XSTACK, 46, STACK
        ARGFRAME IOVERLAY, 0, STATIC
        ARGFRAME DOVERLAY, 0, STATIC
        FUNCALL at_proc, strstr
        LOCFRAME ISTACK, 0, STACK
        LOCFRAME PSTACK, 0, STACK
        LOCFRAME XSTACK, 46, STACK
        LOCFRAME IOVERLAY, 0, STATIC
        LOCFRAME DOVERLAY, 0, STATIC
        ARGFRAME ISTACK, 0, STACK
        ARGFRAME PSTACK, 0, STACK
        ARGFRAME XSTACK, 46, STACK
        ARGFRAME IOVERLAY, 0, STATIC
        ARGFRAME DOVERLAY, 0, STATIC
        FUNCALL at_proc, HalFlashRead
        LOCFRAME ISTACK, 0, STACK
        LOCFRAME PSTACK, 0, STACK
        LOCFRAME XSTACK, 48, STACK
        LOCFRAME IOVERLAY, 0, STATIC
        LOCFRAME DOVERLAY, 0, STATIC
        ARGFRAME ISTACK, 0, STACK
        ARGFRAME PSTACK, 0, STACK
        ARGFRAME XSTACK, 48, STACK
        ARGFRAME IOVERLAY, 0, STATIC
        ARGFRAME DOVERLAY, 0, STATIC
        FUNCALL at_proc, HalFlashErase
        LOCFRAME ISTACK, 0, STACK
        LOCFRAME PSTACK, 0, STACK
        LOCFRAME XSTACK, 46, STACK
        LOCFRAME IOVERLAY, 0, STATIC
        LOCFRAME DOVERLAY, 0, STATIC
        ARGFRAME ISTACK, 0, STACK
        ARGFRAME PSTACK, 0, STACK
        ARGFRAME XSTACK, 46, STACK
        ARGFRAME IOVERLAY, 0, STATIC
        ARGFRAME DOVERLAY, 0, STATIC
        FUNCALL at_proc, HalFlashWrite
        LOCFRAME ISTACK, 0, STACK
        LOCFRAME PSTACK, 0, STACK
        LOCFRAME XSTACK, 48, STACK
        LOCFRAME IOVERLAY, 0, STATIC
        LOCFRAME DOVERLAY, 0, STATIC
        ARGFRAME ISTACK, 0, STACK
        ARGFRAME PSTACK, 0, STACK
        ARGFRAME XSTACK, 48, STACK
        ARGFRAME IOVERLAY, 0, STATIC
        ARGFRAME DOVERLAY, 0, STATIC
        FUNCALL at_proc, at_response
        LOCFRAME ISTACK, 0, STACK
        LOCFRAME PSTACK, 0, STACK
        LOCFRAME XSTACK, 46, STACK
        LOCFRAME IOVERLAY, 0, STATIC
        LOCFRAME DOVERLAY, 0, STATIC
        ARGFRAME ISTACK, 0, STACK
        ARGFRAME PSTACK, 0, STACK
        ARGFRAME XSTACK, 46, STACK
        ARGFRAME IOVERLAY, 0, STATIC
        ARGFRAME DOVERLAY, 0, STATIC
        FUNCALL at_proc, at_response
        LOCFRAME ISTACK, 0, STACK
        LOCFRAME PSTACK, 0, STACK
        LOCFRAME XSTACK, 46, STACK
        LOCFRAME IOVERLAY, 0, STATIC
        LOCFRAME DOVERLAY, 0, STATIC
        ARGFRAME ISTACK, 0, STACK
        ARGFRAME PSTACK, 0, STACK
        ARGFRAME XSTACK, 46, STACK
        ARGFRAME IOVERLAY, 0, STATIC
        ARGFRAME DOVERLAY, 0, STATIC
        FUNCALL at_proc, user_at_proc
        LOCFRAME ISTACK, 0, STACK
        LOCFRAME PSTACK, 0, STACK
        LOCFRAME XSTACK, 46, STACK
        LOCFRAME IOVERLAY, 0, STATIC
        LOCFRAME DOVERLAY, 0, STATIC
        ARGFRAME ISTACK, 0, STACK
        ARGFRAME PSTACK, 0, STACK
        ARGFRAME XSTACK, 46, STACK
        ARGFRAME IOVERLAY, 0, STATIC
        ARGFRAME DOVERLAY, 0, STATIC
        FUNCALL at_proc, at_response
        LOCFRAME ISTACK, 0, STACK
        LOCFRAME PSTACK, 0, STACK
        LOCFRAME XSTACK, 46, STACK
        LOCFRAME IOVERLAY, 0, STATIC
        LOCFRAME DOVERLAY, 0, STATIC
        ARGFRAME ISTACK, 0, STACK
        ARGFRAME PSTACK, 0, STACK
        ARGFRAME XSTACK, 46, STACK
        ARGFRAME IOVERLAY, 0, STATIC
        ARGFRAME DOVERLAY, 0, STATIC
        FUNCALL at_proc, at_quebuffer_put
        LOCFRAME ISTACK, 0, STACK
        LOCFRAME PSTACK, 0, STACK
        LOCFRAME XSTACK, 46, STACK
        LOCFRAME IOVERLAY, 0, STATIC
        LOCFRAME DOVERLAY, 0, STATIC
        ARGFRAME ISTACK, 0, STACK
        ARGFRAME PSTACK, 0, STACK
        ARGFRAME XSTACK, 46, STACK
        ARGFRAME IOVERLAY, 0, STATIC
        ARGFRAME DOVERLAY, 0, STATIC
        REQUIRE ?V0
        REQUIRE ?V1
        REQUIRE ?V2
        REQUIRE ?V3
        REQUIRE ?V4
        REQUIRE ?V5
        MOV     A,#-0xe
        LCALL   ?BANKED_ENTER_XDATA
          CFI DPH0 load(1, XDATA, add(CFA_XSP16, literal(-1)))
          CFI DPL0 load(1, XDATA, add(CFA_XSP16, literal(-2)))
          CFI ?BRET_EXT load(1, XDATA, add(CFA_XSP16, literal(-3)))
          CFI ?RET_HIGH load(1, XDATA, add(CFA_XSP16, literal(-4)))
          CFI ?RET_LOW load(1, XDATA, add(CFA_XSP16, literal(-5)))
          CFI R7 load(1, XDATA, add(CFA_XSP16, literal(-6)))
          CFI V5 load(1, XDATA, add(CFA_XSP16, literal(-7)))
          CFI V4 load(1, XDATA, add(CFA_XSP16, literal(-8)))
          CFI V3 load(1, XDATA, add(CFA_XSP16, literal(-9)))
          CFI V2 load(1, XDATA, add(CFA_XSP16, literal(-10)))
          CFI V1 load(1, XDATA, add(CFA_XSP16, literal(-11)))
          CFI V0 load(1, XDATA, add(CFA_XSP16, literal(-12)))
          CFI VB load(1, XDATA, add(CFA_XSP16, literal(-13)))
          CFI R6 load(1, XDATA, add(CFA_XSP16, literal(-14)))
          CFI CFA_SP SP+0
          CFI CFA_XSP16 add(XSP16, 14)
        ; Saved register size: 14
        ; Auto size: 32
        MOV     A,#-0x20
        LCALL   ?ALLOC_XSTACK8
          CFI CFA_XSP16 add(XSP16, 46)
//  221   char buf[32];
//  222   if (pAtCommand == NULL) 
        MOV     DPTR,#pAtCommand
        MOVX    A,@DPTR
        MOV     R0,A
        INC     DPTR
        MOVX    A,@DPTR
        MOV     R1,A
        MOV     A,R0
        ORL     A,R1
        JNZ     $+5
        LJMP    ??at_proc_0 & 0xFFFF
//  223     return;
//  224   char *p_msg = pAtCommand;
        MOV     DPTR,#pAtCommand
        MOVX    A,@DPTR
        MOV     R6,A
        INC     DPTR
        MOVX    A,@DPTR
        MOV     R7,A
//  225   
//  226   if (at_recvdata != 0) {
        MOV     DPTR,#at_recvdata
        MOVX    A,@DPTR
        MOV     R0,A
        INC     DPTR
        MOVX    A,@DPTR
        MOV     R1,A
        MOV     A,R0
        ORL     A,R1
        JZ      ??at_proc_1
//  227     /*处理发送数据*/
//  228     at_response(ATOK);
        ; Setup parameters for call to function at_response
        MOV     R2,#`?<Constant "OK\\r\\n">` & 0xff
        MOV     R3,#(`?<Constant "OK\\r\\n">` >> 8) & 0xff
        LCALL   ??at_response?relay  ; Banked call to: at_response
//  229    
//  230     zb_SendDataRequest( 0, 0/*cmd*/, at_recvdata, (uint8*)p_msg, 0xaa, AF_ACK_REQUEST, AF_DEFAULT_RADIUS );
        ; Setup parameters for call to function zb_SendDataRequest
        MOV     ?V0,#0x1e
        MOV     R0,#?V0
        LCALL   ?PUSH_XSTACK_I_ONE
          CFI CFA_XSP16 add(XSP16, 47)
        MOV     ?V0,#0x10
        MOV     R0,#?V0
        LCALL   ?PUSH_XSTACK_I_ONE
          CFI CFA_XSP16 add(XSP16, 48)
        MOV     ?V0,#-0x56
        MOV     R0,#?V0
        LCALL   ?PUSH_XSTACK_I_ONE
          CFI CFA_XSP16 add(XSP16, 49)
        MOV     ?V0,R6
        MOV     ?V1,R7
        MOV     R0,#?V0
        LCALL   ?PUSH_XSTACK_I_TWO
          CFI CFA_XSP16 add(XSP16, 51)
        MOV     DPTR,#at_recvdata
        MOVX    A,@DPTR
        MOV     R0,A
        INC     DPTR
        MOVX    A,@DPTR
        MOV     R1,A
        MOV     A,R0
        MOV     R1,A
        MOV     R4,#0x0
        MOV     R5,#0x0
        MOV     R2,#0x0
        MOV     R3,#0x0
        LCALL   ??zb_SendDataRequest?relay; Banked call to: zb_SendDataRequest
        MOV     A,#0x5
        LCALL   ?DEALLOC_XSTACK8
          CFI CFA_XSP16 add(XSP16, 46)
//  231     HalLedSet( HAL_LED_1, HAL_LED_MODE_OFF );
        ; Setup parameters for call to function HalLedSet
        MOV     R2,#0x0
        MOV     R1,#0x1
        LCALL   ??HalLedSet?relay    ; Banked call to: HalLedSet
        MOV     A,R1
//  232     HalLedSet( HAL_LED_1, HAL_LED_MODE_BLINK );
        ; Setup parameters for call to function HalLedSet
        MOV     R2,#0x2
        MOV     R1,#0x1
        LCALL   ??HalLedSet?relay    ; Banked call to: HalLedSet
        MOV     A,R1
//  233     
//  234     sprintf(buf, "+SEND:%u\r\n", at_recvdata);
        ; Setup parameters for call to function sprintf
        MOV     DPTR,#at_recvdata
        LCALL   ?PUSH_XSTACK8_X_TWO
          CFI CFA_XSP16 add(XSP16, 48)
        MOV     R4,#`?<Constant "+SEND:%u\\r\\n">` & 0xff
        MOV     R5,#(`?<Constant "+SEND:%u\\r\\n">` >> 8) & 0xff
        MOV     A,#0x2
        LCALL   ?XSTACK_DISP101_8
        LCALL   ??sprintf?relay      ; Banked call to: sprintf
        MOV     A,#0x2
        LCALL   ?DEALLOC_XSTACK8
          CFI CFA_XSP16 add(XSP16, 46)
//  235     at_response(buf);
        ; Setup parameters for call to function at_response
        MOV     R2,?XSP + 0
        MOV     R3,?XSP + 1
        LCALL   ??at_response?relay  ; Banked call to: at_response
//  236     at_recvdata = 0;
        MOV     DPTR,#at_recvdata
        MOV     A,#0x0
        MOVX    @DPTR,A
        INC     DPTR
        MOV     A,#0x0
        MOVX    @DPTR,A
        LJMP    ??at_proc_2 & 0xFFFF
//  237   } else {
//  238     int msg_size = strlen(p_msg);
??at_proc_1:
        ; Setup parameters for call to function strlen
        MOV     A,R6
        MOV     R2,A
        MOV     A,R7
        MOV     R3,A
        LCALL   ??strlen?relay       ; Banked call to: strlen
        MOV     ?V0,R2
        MOV     ?V1,R3
        MOV     ?V2,?V0
        MOV     ?V3,?V1
//  239     for (int i=0; i<msg_size; i++){
        MOV     R0,#0x0
        MOV     R1,#0x0
??at_proc_3:
        CLR     C
        MOV     A,R0
        SUBB    A,?V2
        MOV     A,R1
        SUBB    A,?V3
        MOV     C,0xD0 /* PSW */.2
        XRL     A,PSW
        RLC     A
        JNC     ??at_proc_4
//  240       if (p_msg[i] == '?' || p_msg[i] == '=') break;
        MOV     A,R6
        ADD     A,R0
        MOV     DPL,A
        MOV     A,R7
        ADDC    A,R1
        MOV     DPH,A
        MOVX    A,@DPTR
        XRL     A,#0x3f
        JZ      ??at_proc_4
        MOV     A,R6
        ADD     A,R0
        MOV     DPL,A
        MOV     A,R7
        ADDC    A,R1
        MOV     DPH,A
        MOVX    A,@DPTR
        XRL     A,#0x3d
        JZ      ??at_proc_4
//  241       p_msg[i] = toupper(p_msg[i]);
        MOV     A,R6
        ADD     A,R0
        MOV     DPL,A
        MOV     A,R7
        ADDC    A,R1
        MOV     DPH,A
        MOVX    A,@DPTR
        MOV     R2,A
        MOV     R3,#0x0
        MOV     A,#(_Small_Ctype + 1) & 0xff
        ADD     A,R2
        MOV     DPL,A
        MOV     A,#((_Small_Ctype + 1) >> 8) & 0xff
        ADDC    A,R3
        MOV     DPH,A
        CLR     A
        MOVC    A,@A+DPTR
        MOV     C,0xE0 /* A   */.1
        JNC     ??at_proc_5
        MOV     A,R6
        ADD     A,R0
        MOV     DPL,A
        MOV     A,R7
        ADDC    A,R1
        MOV     DPH,A
        MOVX    A,@DPTR
        ANL     A,#0x5f
        SJMP    ??at_proc_6
??at_proc_5:
        MOV     A,R6
        ADD     A,R0
        MOV     DPL,A
        MOV     A,R7
        ADDC    A,R1
        MOV     DPH,A
        MOVX    A,@DPTR
??at_proc_6:
        PUSH    A
          CFI CFA_SP SP+-1
        MOV     A,R6
        ADD     A,R0
        MOV     DPL,A
        MOV     A,R7
        ADDC    A,R1
        MOV     DPH,A
        POP     A
          CFI CFA_SP SP+0
        MOVX    @DPTR,A
//  242     }
        INC     R0
        MOV     A,R0
        JNZ     ??at_proc_3
        INC     R1
        SJMP    ??at_proc_3
//  243     
//  244     if (strcmp(p_msg, "AT") == 0) {
??at_proc_4:
        ; Setup parameters for call to function strcmp
        MOV     R4,#`?<Constant "AT">` & 0xff
        MOV     R5,#(`?<Constant "AT">` >> 8) & 0xff
        MOV     A,R6
        MOV     R2,A
        MOV     A,R7
        MOV     R3,A
        LCALL   ??strcmp?relay       ; Banked call to: strcmp
        MOV     ?V0,R2
        MOV     ?V1,R3
        MOV     A,?V0
        ORL     A,?V1
        JNZ     ??at_proc_7
//  245       at_response(ATOK);
        ; Setup parameters for call to function at_response
        MOV     R2,#`?<Constant "OK\\r\\n">` & 0xff
        MOV     R3,#(`?<Constant "OK\\r\\n">` >> 8) & 0xff
        LCALL   ??at_response?relay  ; Banked call to: at_response
        LJMP    ??at_proc_2 & 0xFFFF
//  246     }
//  247     else if (strcmp(p_msg, "ATE1") == 0) {
??at_proc_7:
        ; Setup parameters for call to function strcmp
        MOV     R4,#`?<Constant "ATE1">` & 0xff
        MOV     R5,#(`?<Constant "ATE1">` >> 8) & 0xff
        MOV     A,R6
        MOV     R2,A
        MOV     A,R7
        MOV     R3,A
        LCALL   ??strcmp?relay       ; Banked call to: strcmp
        MOV     ?V0,R2
        MOV     ?V1,R3
        MOV     A,?V0
        ORL     A,?V1
        JNZ     ??at_proc_8
//  248       at_echo = 1;
        MOV     DPTR,#at_echo
        MOV     A,#0x1
        MOVX    @DPTR,A
//  249       at_response(ATOK);
        ; Setup parameters for call to function at_response
        MOV     R2,#`?<Constant "OK\\r\\n">` & 0xff
        MOV     R3,#(`?<Constant "OK\\r\\n">` >> 8) & 0xff
        LCALL   ??at_response?relay  ; Banked call to: at_response
        LJMP    ??at_proc_2 & 0xFFFF
//  250     }
//  251     else if (strcmp(p_msg, "ATE0") == 0) {
??at_proc_8:
        ; Setup parameters for call to function strcmp
        MOV     R4,#`?<Constant "ATE0">` & 0xff
        MOV     R5,#(`?<Constant "ATE0">` >> 8) & 0xff
        MOV     A,R6
        MOV     R2,A
        MOV     A,R7
        MOV     R3,A
        LCALL   ??strcmp?relay       ; Banked call to: strcmp
        MOV     ?V0,R2
        MOV     ?V1,R3
        MOV     A,?V0
        ORL     A,?V1
        JNZ     ??at_proc_9
//  252       at_echo = 0;
        MOV     DPTR,#at_echo
        MOV     A,#0x0
        MOVX    @DPTR,A
//  253       at_response(ATOK);
        ; Setup parameters for call to function at_response
        MOV     R2,#`?<Constant "OK\\r\\n">` & 0xff
        MOV     R3,#(`?<Constant "OK\\r\\n">` >> 8) & 0xff
        LCALL   ??at_response?relay  ; Banked call to: at_response
        LJMP    ??at_proc_2 & 0xFFFF
//  254     }  
//  255     else if (memcmp(p_msg, "AT+HW?", 7) == 0) {
??at_proc_9:
        ; Setup parameters for call to function memcmp
        MOV     ?V0,#0x7
        MOV     ?V1,#0x0
        MOV     R0,#?V0
        LCALL   ?PUSH_XSTACK_I_TWO
          CFI CFA_XSP16 add(XSP16, 48)
        MOV     R4,#`?<Constant "AT+HW?">` & 0xff
        MOV     R5,#(`?<Constant "AT+HW?">` >> 8) & 0xff
        MOV     A,R6
        MOV     R2,A
        MOV     A,R7
        MOV     R3,A
        LCALL   ??memcmp?relay       ; Banked call to: memcmp
        MOV     A,#0x2
        LCALL   ?DEALLOC_XSTACK8
          CFI CFA_XSP16 add(XSP16, 46)
        MOV     ?V0,R2
        MOV     ?V1,R3
        MOV     A,?V0
        ORL     A,?V1
        JNZ     ??at_proc_10
//  256       at_response("+HW:CC2530\r\n");
        ; Setup parameters for call to function at_response
        MOV     R2,#`?<Constant "+HW:CC2530\\r\\n">` & 0xff
        MOV     R3,#(`?<Constant "+HW:CC2530\\r\\n">` >> 8) & 0xff
        LCALL   ??at_response?relay  ; Banked call to: at_response
//  257       at_response(ATOK);
        ; Setup parameters for call to function at_response
        MOV     R2,#`?<Constant "OK\\r\\n">` & 0xff
        MOV     R3,#(`?<Constant "OK\\r\\n">` >> 8) & 0xff
        LCALL   ??at_response?relay  ; Banked call to: at_response
        LJMP    ??at_proc_2 & 0xFFFF
//  258     }
//  259     else if (memcmp(p_msg, "AT+MAC?", 7) == 0) {
??at_proc_10:
        ; Setup parameters for call to function memcmp
        MOV     ?V0,#0x7
        MOV     ?V1,#0x0
        MOV     R0,#?V0
        LCALL   ?PUSH_XSTACK_I_TWO
          CFI CFA_XSP16 add(XSP16, 48)
        MOV     R4,#`?<Constant "AT+MAC?">` & 0xff
        MOV     R5,#(`?<Constant "AT+MAC?">` >> 8) & 0xff
        MOV     A,R6
        MOV     R2,A
        MOV     A,R7
        MOV     R3,A
        LCALL   ??memcmp?relay       ; Banked call to: memcmp
        MOV     A,#0x2
        LCALL   ?DEALLOC_XSTACK8
          CFI CFA_XSP16 add(XSP16, 46)
        MOV     ?V0,R2
        MOV     ?V1,R3
        MOV     A,?V0
        ORL     A,?V1
        JZ      $+5
        LJMP    ??at_proc_11 & 0xFFFF
//  260       uint8 *mac = (uint8 *)(P_INFOPAGE+HAL_INFOP_IEEE_OSET);
        MOV     ?V0,#0xc
        MOV     ?V1,#0x78
//  261       sprintf(buf, "+MAC:%02X:%02X:%02X:%02X:%02X:%02X:%02X:%02X\r\n",
//  262               mac[7],mac[6],mac[5],mac[4],mac[3],mac[2],mac[1],mac[0]); 
        ; Setup parameters for call to function sprintf
        MOV     DPL,?V0
        MOV     DPH,?V1
        MOVX    A,@DPTR
        MOV     ?V4,A
        MOV     ?V5,#0x0
        MOV     R0,#?V4
        LCALL   ?PUSH_XSTACK_I_TWO
          CFI CFA_XSP16 add(XSP16, 48)
        MOV     DPL,?V0
        MOV     DPH,?V1
        INC     DPTR
        MOVX    A,@DPTR
        MOV     ?V4,A
        MOV     ?V5,#0x0
        MOV     R0,#?V4
        LCALL   ?PUSH_XSTACK_I_TWO
          CFI CFA_XSP16 add(XSP16, 50)
        MOV     DPL,?V0
        MOV     DPH,?V1
        INC     DPTR
        INC     DPTR
        MOVX    A,@DPTR
        MOV     ?V4,A
        MOV     ?V5,#0x0
        MOV     R0,#?V4
        LCALL   ?PUSH_XSTACK_I_TWO
          CFI CFA_XSP16 add(XSP16, 52)
        MOV     DPL,?V0
        MOV     DPH,?V1
        INC     DPTR
        INC     DPTR
        INC     DPTR
        MOVX    A,@DPTR
        MOV     ?V4,A
        MOV     ?V5,#0x0
        MOV     R0,#?V4
        LCALL   ?PUSH_XSTACK_I_TWO
          CFI CFA_XSP16 add(XSP16, 54)
        MOV     DPL,?V0
        MOV     DPH,?V1
        INC     DPTR
        INC     DPTR
        INC     DPTR
        INC     DPTR
        MOVX    A,@DPTR
        MOV     ?V4,A
        MOV     ?V5,#0x0
        MOV     R0,#?V4
        LCALL   ?PUSH_XSTACK_I_TWO
          CFI CFA_XSP16 add(XSP16, 56)
        MOV     DPL,?V0
        MOV     DPH,?V1
        INC     DPTR
        INC     DPTR
        INC     DPTR
        INC     DPTR
        INC     DPTR
        MOVX    A,@DPTR
        MOV     ?V4,A
        MOV     ?V5,#0x0
        MOV     R0,#?V4
        LCALL   ?PUSH_XSTACK_I_TWO
          CFI CFA_XSP16 add(XSP16, 58)
        MOV     DPL,?V0
        MOV     DPH,?V1
        INC     DPTR
        INC     DPTR
        INC     DPTR
        INC     DPTR
        INC     DPTR
        INC     DPTR
        MOVX    A,@DPTR
        MOV     ?V4,A
        MOV     ?V5,#0x0
        MOV     R0,#?V4
        LCALL   ?PUSH_XSTACK_I_TWO
          CFI CFA_XSP16 add(XSP16, 60)
        MOV     DPL,?V0
        MOV     DPH,?V1
        INC     DPTR
        INC     DPTR
        INC     DPTR
        INC     DPTR
        INC     DPTR
        INC     DPTR
        INC     DPTR
        MOVX    A,@DPTR
        MOV     ?V4,A
        MOV     ?V5,#0x0
        MOV     R0,#?V4
        LCALL   ?PUSH_XSTACK_I_TWO
          CFI CFA_XSP16 add(XSP16, 62)
        MOV     R4,#`?<Constant "+MAC:%02X:%02X:%02X:%...">` & 0xff
        MOV     R5,#(`?<Constant "+MAC:%02X:%02X:%02X:%...">` >> 8) & 0xff
        MOV     A,#0x10
        LCALL   ?XSTACK_DISP101_8
        LCALL   ??sprintf?relay      ; Banked call to: sprintf
        MOV     A,#0x10
        LCALL   ?DEALLOC_XSTACK8
          CFI CFA_XSP16 add(XSP16, 46)
//  263       at_response(buf);
        ; Setup parameters for call to function at_response
        MOV     R2,?XSP + 0
        MOV     R3,?XSP + 1
        LCALL   ??at_response?relay  ; Banked call to: at_response
//  264       at_response(ATOK);
        ; Setup parameters for call to function at_response
        MOV     R2,#`?<Constant "OK\\r\\n">` & 0xff
        MOV     R3,#(`?<Constant "OK\\r\\n">` >> 8) & 0xff
        LCALL   ??at_response?relay  ; Banked call to: at_response
        LJMP    ??at_proc_2 & 0xFFFF
//  265     } 
//  266     else if (memcmp(p_msg, "AT+PANID", 8) == 0) {
??at_proc_11:
        ; Setup parameters for call to function memcmp
        MOV     ?V0,#0x8
        MOV     ?V1,#0x0
        MOV     R0,#?V0
        LCALL   ?PUSH_XSTACK_I_TWO
          CFI CFA_XSP16 add(XSP16, 48)
        MOV     R4,#`?<Constant "AT+PANID">` & 0xff
        MOV     R5,#(`?<Constant "AT+PANID">` >> 8) & 0xff
        MOV     A,R6
        MOV     R2,A
        MOV     A,R7
        MOV     R3,A
        LCALL   ??memcmp?relay       ; Banked call to: memcmp
        MOV     A,#0x2
        LCALL   ?DEALLOC_XSTACK8
          CFI CFA_XSP16 add(XSP16, 46)
        MOV     ?V0,R2
        MOV     ?V1,R3
        MOV     A,?V0
        ORL     A,?V1
        JZ      $+5
        LJMP    ??at_proc_12 & 0xFFFF
//  267       if (p_msg[8] == '?') {
        MOV     DPL,R6
        MOV     DPH,R7
        INC     DPTR
        INC     DPTR
        INC     DPTR
        INC     DPTR
        INC     DPTR
        INC     DPTR
        INC     DPTR
        INC     DPTR
        MOVX    A,@DPTR
        XRL     A,#0x3f
        JNZ     ??at_proc_13
//  268         sprintf(buf, "+PANID:%u\r\n", GetPanId());
        ; Setup parameters for call to function GetPanId
        LCALL   ??GetPanId?relay     ; Banked call to: GetPanId
        MOV     ?V4,R2
        MOV     ?V5,R3
        MOV     ?V0,?V4
        MOV     ?V1,?V5
        ; Setup parameters for call to function sprintf
        MOV     R0,#?V0
        LCALL   ?PUSH_XSTACK_I_TWO
          CFI CFA_XSP16 add(XSP16, 48)
        MOV     R4,#`?<Constant "+PANID:%u\\r\\n">` & 0xff
        MOV     R5,#(`?<Constant "+PANID:%u\\r\\n">` >> 8) & 0xff
        MOV     A,#0x2
        LCALL   ?XSTACK_DISP101_8
        LCALL   ??sprintf?relay      ; Banked call to: sprintf
        MOV     A,#0x2
        LCALL   ?DEALLOC_XSTACK8
          CFI CFA_XSP16 add(XSP16, 46)
//  269         at_response(buf);
        ; Setup parameters for call to function at_response
        MOV     R2,?XSP + 0
        MOV     R3,?XSP + 1
        LCALL   ??at_response?relay  ; Banked call to: at_response
//  270         at_response(ATOK);
        ; Setup parameters for call to function at_response
        MOV     R2,#`?<Constant "OK\\r\\n">` & 0xff
        MOV     R3,#(`?<Constant "OK\\r\\n">` >> 8) & 0xff
        LCALL   ??at_response?relay  ; Banked call to: at_response
        LJMP    ??at_proc_2 & 0xFFFF
//  271       } else if (p_msg[8] == '=') {
??at_proc_13:
        MOV     DPL,R6
        MOV     DPH,R7
        INC     DPTR
        INC     DPTR
        INC     DPTR
        INC     DPTR
        INC     DPTR
        INC     DPTR
        INC     DPTR
        INC     DPTR
        MOVX    A,@DPTR
        XRL     A,#0x3d
        JNZ     ??at_proc_14
//  272         uint16 id = atoi(&p_msg[9]);
        ; Setup parameters for call to function atoi
        MOV     A,R6
        ADD     A,#0x9
        MOV     R2,A
        CLR     A
        ADDC    A,R7
        MOV     R3,A
        LCALL   ??atoi?relay         ; Banked call to: atoi
        MOV     ?V4,R2
        MOV     ?V5,R3
        MOV     ?V0,?V4
        MOV     ?V1,?V5
//  273         SetPanId(id);
        ; Setup parameters for call to function SetPanId
        MOV     R2,?V0
        MOV     R3,?V1
        LCALL   ??SetPanId?relay     ; Banked call to: SetPanId
//  274         at_response(ATOK);
        ; Setup parameters for call to function at_response
        MOV     R2,#`?<Constant "OK\\r\\n">` & 0xff
        MOV     R3,#(`?<Constant "OK\\r\\n">` >> 8) & 0xff
        LCALL   ??at_response?relay  ; Banked call to: at_response
        LJMP    ??at_proc_2 & 0xFFFF
//  275       } else {
//  276         at_response(ATERROR);
??at_proc_14:
        ; Setup parameters for call to function at_response
        MOV     R2,#`?<Constant "ERR: Bad command\\r\\n">` & 0xff
        MOV     R3,#(`?<Constant "ERR: Bad command\\r\\n">` >> 8) & 0xff
        LCALL   ??at_response?relay  ; Banked call to: at_response
        LJMP    ??at_proc_2 & 0xFFFF
//  277       }
//  278     }
//  279     else if (memcmp(p_msg, "AT+CHANNEL", 10) == 0) {
??at_proc_12:
        ; Setup parameters for call to function memcmp
        MOV     ?V0,#0xa
        MOV     ?V1,#0x0
        MOV     R0,#?V0
        LCALL   ?PUSH_XSTACK_I_TWO
          CFI CFA_XSP16 add(XSP16, 48)
        MOV     R4,#`?<Constant "AT+CHANNEL">` & 0xff
        MOV     R5,#(`?<Constant "AT+CHANNEL">` >> 8) & 0xff
        MOV     A,R6
        MOV     R2,A
        MOV     A,R7
        MOV     R3,A
        LCALL   ??memcmp?relay       ; Banked call to: memcmp
        MOV     A,#0x2
        LCALL   ?DEALLOC_XSTACK8
          CFI CFA_XSP16 add(XSP16, 46)
        MOV     ?V0,R2
        MOV     ?V1,R3
        MOV     A,?V0
        ORL     A,?V1
        JZ      $+5
        LJMP    ??at_proc_15 & 0xFFFF
//  280       if (p_msg[10] == '?') {
        MOV     DPL,R6
        MOV     DPH,R7
        INC     DPTR
        INC     DPTR
        INC     DPTR
        INC     DPTR
        INC     DPTR
        INC     DPTR
        INC     DPTR
        INC     DPTR
        INC     DPTR
        INC     DPTR
        MOVX    A,@DPTR
        XRL     A,#0x3f
        JNZ     ??at_proc_16
//  281         sprintf(buf, "+CHANNEL:%u\r\n", GetChannel());
        ; Setup parameters for call to function GetChannel
        LCALL   ??GetChannel?relay   ; Banked call to: GetChannel
        MOV     A,R1
        MOV     ?V0,A
        ; Setup parameters for call to function sprintf
        MOV     ?V1,#0x0
        MOV     R0,#?V0
        LCALL   ?PUSH_XSTACK_I_TWO
          CFI CFA_XSP16 add(XSP16, 48)
        MOV     R4,#`?<Constant "+CHANNEL:%u\\r\\n">` & 0xff
        MOV     R5,#(`?<Constant "+CHANNEL:%u\\r\\n">` >> 8) & 0xff
        MOV     A,#0x2
        LCALL   ?XSTACK_DISP101_8
        LCALL   ??sprintf?relay      ; Banked call to: sprintf
        MOV     A,#0x2
        LCALL   ?DEALLOC_XSTACK8
          CFI CFA_XSP16 add(XSP16, 46)
//  282         at_response(buf);
        ; Setup parameters for call to function at_response
        MOV     R2,?XSP + 0
        MOV     R3,?XSP + 1
        LCALL   ??at_response?relay  ; Banked call to: at_response
//  283         at_response(ATOK);
        ; Setup parameters for call to function at_response
        MOV     R2,#`?<Constant "OK\\r\\n">` & 0xff
        MOV     R3,#(`?<Constant "OK\\r\\n">` >> 8) & 0xff
        LCALL   ??at_response?relay  ; Banked call to: at_response
        LJMP    ??at_proc_2 & 0xFFFF
//  284       } else if (p_msg[10] == '=') {
??at_proc_16:
        MOV     DPL,R6
        MOV     DPH,R7
        INC     DPTR
        INC     DPTR
        INC     DPTR
        INC     DPTR
        INC     DPTR
        INC     DPTR
        INC     DPTR
        INC     DPTR
        INC     DPTR
        INC     DPTR
        MOVX    A,@DPTR
        XRL     A,#0x3d
        JNZ     ??at_proc_17
//  285         uint16 id = atoi(&p_msg[11]);
        ; Setup parameters for call to function atoi
        MOV     A,R6
        ADD     A,#0xb
        MOV     R2,A
        CLR     A
        ADDC    A,R7
        MOV     R3,A
        LCALL   ??atoi?relay         ; Banked call to: atoi
        MOV     ?V4,R2
        MOV     ?V5,R3
        MOV     ?V0,?V4
        MOV     ?V1,?V5
//  286         SetChannel(id);
        ; Setup parameters for call to function SetChannel
        MOV     R1,?V0
        LCALL   ??SetChannel?relay   ; Banked call to: SetChannel
//  287         at_response(ATOK);
        ; Setup parameters for call to function at_response
        MOV     R2,#`?<Constant "OK\\r\\n">` & 0xff
        MOV     R3,#(`?<Constant "OK\\r\\n">` >> 8) & 0xff
        LCALL   ??at_response?relay  ; Banked call to: at_response
        LJMP    ??at_proc_2 & 0xFFFF
//  288       } else {
//  289         at_response(ATERROR);
??at_proc_17:
        ; Setup parameters for call to function at_response
        MOV     R2,#`?<Constant "ERR: Bad command\\r\\n">` & 0xff
        MOV     R3,#(`?<Constant "ERR: Bad command\\r\\n">` >> 8) & 0xff
        LCALL   ??at_response?relay  ; Banked call to: at_response
        LJMP    ??at_proc_2 & 0xFFFF
//  290       }
//  291     }
//  292     else if (memcmp(p_msg, "AT+LOGICALTYPE", 14) == 0) {
??at_proc_15:
        ; Setup parameters for call to function memcmp
        MOV     ?V0,#0xe
        MOV     ?V1,#0x0
        MOV     R0,#?V0
        LCALL   ?PUSH_XSTACK_I_TWO
          CFI CFA_XSP16 add(XSP16, 48)
        MOV     R4,#`?<Constant "AT+LOGICALTYPE">` & 0xff
        MOV     R5,#(`?<Constant "AT+LOGICALTYPE">` >> 8) & 0xff
        MOV     A,R6
        MOV     R2,A
        MOV     A,R7
        MOV     R3,A
        LCALL   ??memcmp?relay       ; Banked call to: memcmp
        MOV     A,#0x2
        LCALL   ?DEALLOC_XSTACK8
          CFI CFA_XSP16 add(XSP16, 46)
        MOV     ?V0,R2
        MOV     ?V1,R3
        MOV     A,?V0
        ORL     A,?V1
        JNZ     ??at_proc_18
//  293       if (p_msg[14] == '?') {
        MOV     A,R6
        ADD     A,#0xe
        MOV     DPL,A
        CLR     A
        ADDC    A,R7
        MOV     DPH,A
        MOVX    A,@DPTR
        XRL     A,#0x3f
        JNZ     ??at_proc_19
//  294         sprintf(buf, "+LOGICALTYPE:%u\r\n", GetLogicalType());
        ; Setup parameters for call to function GetLogicalType
        LCALL   ??GetLogicalType?relay; Banked call to: GetLogicalType
        MOV     A,R1
        MOV     ?V0,A
        ; Setup parameters for call to function sprintf
        MOV     ?V1,#0x0
        MOV     R0,#?V0
        LCALL   ?PUSH_XSTACK_I_TWO
          CFI CFA_XSP16 add(XSP16, 48)
        MOV     R4,#`?<Constant "+LOGICALTYPE:%u\\r\\n">` & 0xff
        MOV     R5,#(`?<Constant "+LOGICALTYPE:%u\\r\\n">` >> 8) & 0xff
        MOV     A,#0x2
        LCALL   ?XSTACK_DISP101_8
        LCALL   ??sprintf?relay      ; Banked call to: sprintf
        MOV     A,#0x2
        LCALL   ?DEALLOC_XSTACK8
          CFI CFA_XSP16 add(XSP16, 46)
//  295         at_response(buf);
        ; Setup parameters for call to function at_response
        MOV     R2,?XSP + 0
        MOV     R3,?XSP + 1
        LCALL   ??at_response?relay  ; Banked call to: at_response
//  296         at_response(ATOK);
        ; Setup parameters for call to function at_response
        MOV     R2,#`?<Constant "OK\\r\\n">` & 0xff
        MOV     R3,#(`?<Constant "OK\\r\\n">` >> 8) & 0xff
        LCALL   ??at_response?relay  ; Banked call to: at_response
        LJMP    ??at_proc_2 & 0xFFFF
//  297       } else if (p_msg[14] == '=') {
??at_proc_19:
        MOV     A,R6
        ADD     A,#0xe
        MOV     DPL,A
        CLR     A
        ADDC    A,R7
        MOV     DPH,A
        MOVX    A,@DPTR
        XRL     A,#0x3d
        JNZ     ??at_proc_20
//  298         uint16 id = atoi(&p_msg[15]);
        ; Setup parameters for call to function atoi
        MOV     A,R6
        ADD     A,#0xf
        MOV     R2,A
        CLR     A
        ADDC    A,R7
        MOV     R3,A
        LCALL   ??atoi?relay         ; Banked call to: atoi
        MOV     ?V4,R2
        MOV     ?V5,R3
        MOV     ?V0,?V4
        MOV     ?V1,?V5
//  299         SetLogicalType(id);
        ; Setup parameters for call to function SetLogicalType
        MOV     R1,?V0
        LCALL   ??SetLogicalType?relay; Banked call to: SetLogicalType
//  300         at_response(ATOK);
        ; Setup parameters for call to function at_response
        MOV     R2,#`?<Constant "OK\\r\\n">` & 0xff
        MOV     R3,#(`?<Constant "OK\\r\\n">` >> 8) & 0xff
        LCALL   ??at_response?relay  ; Banked call to: at_response
        LJMP    ??at_proc_2 & 0xFFFF
//  301       } else {
//  302         at_response(ATERROR);
??at_proc_20:
        ; Setup parameters for call to function at_response
        MOV     R2,#`?<Constant "ERR: Bad command\\r\\n">` & 0xff
        MOV     R3,#(`?<Constant "ERR: Bad command\\r\\n">` >> 8) & 0xff
        LCALL   ??at_response?relay  ; Banked call to: at_response
        LJMP    ??at_proc_2 & 0xFFFF
//  303       }
//  304     }
//  305     else if (memcmp(p_msg, "AT+LINK?", 8) == 0) {
??at_proc_18:
        ; Setup parameters for call to function memcmp
        MOV     ?V0,#0x8
        MOV     ?V1,#0x0
        MOV     R0,#?V0
        LCALL   ?PUSH_XSTACK_I_TWO
          CFI CFA_XSP16 add(XSP16, 48)
        MOV     R4,#`?<Constant "AT+LINK?">` & 0xff
        MOV     R5,#(`?<Constant "AT+LINK?">` >> 8) & 0xff
        MOV     A,R6
        MOV     R2,A
        MOV     A,R7
        MOV     R3,A
        LCALL   ??memcmp?relay       ; Banked call to: memcmp
        MOV     A,#0x2
        LCALL   ?DEALLOC_XSTACK8
          CFI CFA_XSP16 add(XSP16, 46)
        MOV     ?V0,R2
        MOV     ?V1,R3
        MOV     A,?V0
        ORL     A,?V1
        JNZ     ??at_proc_21
//  306       sprintf(buf, "+LINK:%u\r\n", GetLinkStatus());
        ; Setup parameters for call to function GetLinkStatus
        LCALL   ??GetLinkStatus?relay; Banked call to: GetLinkStatus
        MOV     A,R1
        MOV     ?V0,A
        ; Setup parameters for call to function sprintf
        MOV     ?V1,#0x0
        MOV     R0,#?V0
        LCALL   ?PUSH_XSTACK_I_TWO
          CFI CFA_XSP16 add(XSP16, 48)
        MOV     R4,#`?<Constant "+LINK:%u\\r\\n">` & 0xff
        MOV     R5,#(`?<Constant "+LINK:%u\\r\\n">` >> 8) & 0xff
        MOV     A,#0x2
        LCALL   ?XSTACK_DISP101_8
        LCALL   ??sprintf?relay      ; Banked call to: sprintf
        MOV     A,#0x2
        LCALL   ?DEALLOC_XSTACK8
          CFI CFA_XSP16 add(XSP16, 46)
//  307       at_response(buf);
        ; Setup parameters for call to function at_response
        MOV     R2,?XSP + 0
        MOV     R3,?XSP + 1
        LCALL   ??at_response?relay  ; Banked call to: at_response
//  308       at_response(ATOK);
        ; Setup parameters for call to function at_response
        MOV     R2,#`?<Constant "OK\\r\\n">` & 0xff
        MOV     R3,#(`?<Constant "OK\\r\\n">` >> 8) & 0xff
        LCALL   ??at_response?relay  ; Banked call to: at_response
        LJMP    ??at_proc_2 & 0xFFFF
//  309     }
//  310     /*else if (memcmp(p_msg, "AT+ENVSAVE", 10) == 0) {
//  311       //ucfg_save();
//  312       at_response(ATOK);
//  313     } */
//  314     else if (memcmp(p_msg, "AT+RSSI?", 8) == 0) {
??at_proc_21:
        ; Setup parameters for call to function memcmp
        MOV     ?V0,#0x8
        MOV     ?V1,#0x0
        MOV     R0,#?V0
        LCALL   ?PUSH_XSTACK_I_TWO
          CFI CFA_XSP16 add(XSP16, 48)
        MOV     R4,#`?<Constant "AT+RSSI?">` & 0xff
        MOV     R5,#(`?<Constant "AT+RSSI?">` >> 8) & 0xff
        MOV     A,R6
        MOV     R2,A
        MOV     A,R7
        MOV     R3,A
        LCALL   ??memcmp?relay       ; Banked call to: memcmp
        MOV     A,#0x2
        LCALL   ?DEALLOC_XSTACK8
          CFI CFA_XSP16 add(XSP16, 46)
        MOV     ?V0,R2
        MOV     ?V1,R3
        MOV     A,?V0
        ORL     A,?V1
        JNZ     ??at_proc_22
//  315       
//  316       sprintf(buf, "+RSSI:%d\r\n", getLastPkgRssi());
        ; Setup parameters for call to function getLastPkgRssi
        LCALL   ??getLastPkgRssi?relay; Banked call to: getLastPkgRssi
        MOV     A,R1
        MOV     R0,A
        ; Setup parameters for call to function sprintf
        MOV     A,R0
        MOV     ?V0,A
        RLC     A
        SUBB    A,0xE0 /* A   */
        MOV     ?V1,A
        MOV     R0,#?V0
        LCALL   ?PUSH_XSTACK_I_TWO
          CFI CFA_XSP16 add(XSP16, 48)
        MOV     R4,#`?<Constant "+RSSI:%d\\r\\n">` & 0xff
        MOV     R5,#(`?<Constant "+RSSI:%d\\r\\n">` >> 8) & 0xff
        MOV     A,#0x2
        LCALL   ?XSTACK_DISP101_8
        LCALL   ??sprintf?relay      ; Banked call to: sprintf
        MOV     A,#0x2
        LCALL   ?DEALLOC_XSTACK8
          CFI CFA_XSP16 add(XSP16, 46)
//  317       at_response(buf);
        ; Setup parameters for call to function at_response
        MOV     R2,?XSP + 0
        MOV     R3,?XSP + 1
        LCALL   ??at_response?relay  ; Banked call to: at_response
//  318       at_response(ATOK);
        ; Setup parameters for call to function at_response
        MOV     R2,#`?<Constant "OK\\r\\n">` & 0xff
        MOV     R3,#(`?<Constant "OK\\r\\n">` >> 8) & 0xff
        LCALL   ??at_response?relay  ; Banked call to: at_response
        LJMP    ??at_proc_2 & 0xFFFF
//  319     }
//  320     else if (memcmp(p_msg, "AT+LQI?", 7) == 0) {
??at_proc_22:
        ; Setup parameters for call to function memcmp
        MOV     ?V0,#0x7
        MOV     ?V1,#0x0
        MOV     R0,#?V0
        LCALL   ?PUSH_XSTACK_I_TWO
          CFI CFA_XSP16 add(XSP16, 48)
        MOV     R4,#`?<Constant "AT+LQI?">` & 0xff
        MOV     R5,#(`?<Constant "AT+LQI?">` >> 8) & 0xff
        MOV     A,R6
        MOV     R2,A
        MOV     A,R7
        MOV     R3,A
        LCALL   ??memcmp?relay       ; Banked call to: memcmp
        MOV     A,#0x2
        LCALL   ?DEALLOC_XSTACK8
          CFI CFA_XSP16 add(XSP16, 46)
        MOV     ?V0,R2
        MOV     ?V1,R3
        MOV     A,?V0
        ORL     A,?V1
        JNZ     ??at_proc_23
//  321       uint8 getLastPkgLQI(void);
//  322       sprintf(buf, "+LQI:%d\r\n", getLastPkgLQI());
        ; Setup parameters for call to function getLastPkgLQI
        LCALL   ??getLastPkgLQI?relay; Banked call to: getLastPkgLQI
        MOV     A,R1
        MOV     ?V0,A
        ; Setup parameters for call to function sprintf
        MOV     ?V1,#0x0
        MOV     R0,#?V0
        LCALL   ?PUSH_XSTACK_I_TWO
          CFI CFA_XSP16 add(XSP16, 48)
        MOV     R4,#`?<Constant "+LQI:%d\\r\\n">` & 0xff
        MOV     R5,#(`?<Constant "+LQI:%d\\r\\n">` >> 8) & 0xff
        MOV     A,#0x2
        LCALL   ?XSTACK_DISP101_8
        LCALL   ??sprintf?relay      ; Banked call to: sprintf
        MOV     A,#0x2
        LCALL   ?DEALLOC_XSTACK8
          CFI CFA_XSP16 add(XSP16, 46)
//  323       at_response(buf);
        ; Setup parameters for call to function at_response
        MOV     R2,?XSP + 0
        MOV     R3,?XSP + 1
        LCALL   ??at_response?relay  ; Banked call to: at_response
//  324       at_response(ATOK);
        ; Setup parameters for call to function at_response
        MOV     R2,#`?<Constant "OK\\r\\n">` & 0xff
        MOV     R3,#(`?<Constant "OK\\r\\n">` >> 8) & 0xff
        LCALL   ??at_response?relay  ; Banked call to: at_response
        LJMP    ??at_proc_2 & 0xFFFF
//  325     }
//  326     
//  327     else if (memcmp(p_msg, "AT+RESET", 8)==0) {
??at_proc_23:
        ; Setup parameters for call to function memcmp
        MOV     ?V0,#0x8
        MOV     ?V1,#0x0
        MOV     R0,#?V0
        LCALL   ?PUSH_XSTACK_I_TWO
          CFI CFA_XSP16 add(XSP16, 48)
        MOV     R4,#`?<Constant "AT+RESET">` & 0xff
        MOV     R5,#(`?<Constant "AT+RESET">` >> 8) & 0xff
        MOV     A,R6
        MOV     R2,A
        MOV     A,R7
        MOV     R3,A
        LCALL   ??memcmp?relay       ; Banked call to: memcmp
        MOV     A,#0x2
        LCALL   ?DEALLOC_XSTACK8
          CFI CFA_XSP16 add(XSP16, 46)
        MOV     ?V0,R2
        MOV     ?V1,R3
        MOV     A,?V0
        ORL     A,?V1
        JNZ     ??at_proc_24
//  328        at_response(ATOK);
        ; Setup parameters for call to function at_response
        MOV     R2,#`?<Constant "OK\\r\\n">` & 0xff
        MOV     R3,#(`?<Constant "OK\\r\\n">` >> 8) & 0xff
        LCALL   ??at_response?relay  ; Banked call to: at_response
//  329        zb_SystemReset();
        ; Setup parameters for call to function zb_SystemReset
        LCALL   ??zb_SystemReset?relay; Banked call to: zb_SystemReset
        LJMP    ??at_proc_2 & 0xFFFF
//  330     }
//  331     else if (memcmp(p_msg, "AT+SEND=", 8) == 0) {
??at_proc_24:
        ; Setup parameters for call to function memcmp
        MOV     ?V0,#0x8
        MOV     ?V1,#0x0
        MOV     R0,#?V0
        LCALL   ?PUSH_XSTACK_I_TWO
          CFI CFA_XSP16 add(XSP16, 48)
        MOV     R4,#`?<Constant "AT+SEND=">` & 0xff
        MOV     R5,#(`?<Constant "AT+SEND=">` >> 8) & 0xff
        MOV     A,R6
        MOV     R2,A
        MOV     A,R7
        MOV     R3,A
        LCALL   ??memcmp?relay       ; Banked call to: memcmp
        MOV     A,#0x2
        LCALL   ?DEALLOC_XSTACK8
          CFI CFA_XSP16 add(XSP16, 46)
        MOV     ?V0,R2
        MOV     ?V1,R3
        MOV     A,?V0
        ORL     A,?V1
        JNZ     ??at_proc_25
//  332       int len = atoi(&p_msg[8]);
        ; Setup parameters for call to function atoi
        MOV     A,R6
        ADD     A,#0x8
        MOV     R2,A
        CLR     A
        ADDC    A,R7
        MOV     R3,A
        LCALL   ??atoi?relay         ; Banked call to: atoi
        MOV     ?V4,R2
        MOV     ?V5,R3
        MOV     ?V0,?V4
        MOV     ?V1,?V5
//  333       if (len > 0 && len<=AT_BUFF_SIZE) {
        CLR     C
        MOV     A,?V0
        SUBB    A,#0x1
        MOV     A,?V1
        SUBB    A,#0x0
        MOV     C,0xD0 /* PSW */.2
        XRL     A,PSW
        RLC     A
        JC      ??at_proc_26
        CLR     C
        MOV     A,?V0
        SUBB    A,#0x61
        MOV     A,?V1
        SUBB    A,#0x0
        MOV     C,0xD0 /* PSW */.2
        XRL     A,PSW
        RLC     A
        JNC     ??at_proc_26
//  334         at_response(">");
        ; Setup parameters for call to function at_response
        MOV     R2,#`?<Constant ">">` & 0xff
        MOV     R3,#(`?<Constant ">">` >> 8) & 0xff
        LCALL   ??at_response?relay  ; Banked call to: at_response
//  335         at_datalen = len;
        MOV     DPTR,#at_datalen
        MOV     A,?V0
        MOVX    @DPTR,A
        INC     DPTR
        MOV     A,?V1
        MOVX    @DPTR,A
        LJMP    ??at_proc_2 & 0xFFFF
//  336       } else {
//  337         at_response(ATERROR);
??at_proc_26:
        ; Setup parameters for call to function at_response
        MOV     R2,#`?<Constant "ERR: Bad command\\r\\n">` & 0xff
        MOV     R3,#(`?<Constant "ERR: Bad command\\r\\n">` >> 8) & 0xff
        LCALL   ??at_response?relay  ; Banked call to: at_response
        LJMP    ??at_proc_2 & 0xFFFF
//  338       }
//  339     }
//  340 #ifdef CC2530_USE_IAP 
//  341     else if (memcmp(p_msg, "AT+IAP=", 7) == 0) {
??at_proc_25:
        ; Setup parameters for call to function memcmp
        MOV     ?V0,#0x7
        MOV     ?V1,#0x0
        MOV     R0,#?V0
        LCALL   ?PUSH_XSTACK_I_TWO
          CFI CFA_XSP16 add(XSP16, 48)
        MOV     R4,#`?<Constant "AT+IAP=">` & 0xff
        MOV     R5,#(`?<Constant "AT+IAP=">` >> 8) & 0xff
        MOV     A,R6
        MOV     R2,A
        MOV     A,R7
        MOV     R3,A
        LCALL   ??memcmp?relay       ; Banked call to: memcmp
        MOV     A,#0x2
        LCALL   ?DEALLOC_XSTACK8
          CFI CFA_XSP16 add(XSP16, 46)
        MOV     ?V0,R2
        MOV     ?V1,R3
        MOV     A,?V0
        ORL     A,?V1
        JZ      $+5
        LJMP    ??at_proc_27 & 0xFFFF
//  342       char* p=p_msg+7;
        MOV     A,R6
        ADD     A,#0x7
        MOV     ?V0,A
        CLR     A
        ADDC    A,R7
        MOV     ?V1,A
//  343       if(strstr(p,"IAP")){
        ; Setup parameters for call to function strstr
        MOV     R4,#`?<Constant "IAP">` & 0xff
        MOV     R5,#(`?<Constant "IAP">` >> 8) & 0xff
        MOV     R2,?V0
        MOV     R3,?V1
        LCALL   ??strstr?relay       ; Banked call to: strstr
        MOV     ?V4,R2
        MOV     ?V5,R3
        MOV     A,?V4
        ORL     A,?V5
        JZ      ??at_proc_28
//  344         SYS_PARAMETER_READ;
        ; Setup parameters for call to function HalFlashRead
        MOV     ?V4,#0x2
        MOV     ?V5,#0x0
        MOV     R0,#?V4
        LCALL   ?PUSH_XSTACK_I_TWO
          CFI CFA_XSP16 add(XSP16, 48)
        MOV     R4,#sys_parameter & 0xff
        MOV     R5,#(sys_parameter >> 8) & 0xff
        MOV     R2,#0x0
        MOV     R3,#0x0
        MOV     R1,#0x9
        LCALL   ??HalFlashRead?relay ; Banked call to: HalFlashRead
        MOV     A,#0x2
        LCALL   ?DEALLOC_XSTACK8
          CFI CFA_XSP16 add(XSP16, 46)
//  345         sys_parameter.current_part=0xff;
        MOV     DPTR,#sys_parameter
        MOV     A,#-0x1
        MOVX    @DPTR,A
//  346         HalFlashErase(PARA_PARTITION_PAGE);
        ; Setup parameters for call to function HalFlashErase
        MOV     R1,#0x9
        LCALL   ??HalFlashErase?relay; Banked call to: HalFlashErase
//  347         SYS_PARAMETER_WRITE;
        ; Setup parameters for call to function HalFlashWrite
        MOV     ?V4,#0x1
        MOV     ?V5,#0x0
        MOV     R0,#?V4
        LCALL   ?PUSH_XSTACK_I_TWO
          CFI CFA_XSP16 add(XSP16, 48)
        MOV     R4,#sys_parameter & 0xff
        MOV     R5,#(sys_parameter >> 8) & 0xff
        MOV     R2,#0x0
        MOV     R3,#0x12
        LCALL   ??HalFlashWrite?relay; Banked call to: HalFlashWrite
        MOV     A,#0x2
        LCALL   ?DEALLOC_XSTACK8
          CFI CFA_XSP16 add(XSP16, 46)
//  348         at_response(ATOK);
        ; Setup parameters for call to function at_response
        MOV     R2,#`?<Constant "OK\\r\\n">` & 0xff
        MOV     R3,#(`?<Constant "OK\\r\\n">` >> 8) & 0xff
        LCALL   ??at_response?relay  ; Banked call to: at_response
//  349         HAL_SYSTEM_RESET();
        CLR     0xa8.7
        MOV     0xc9,#-0x55
        MOV     0xc9,#0x5b
??at_proc_29:
        SJMP    ??at_proc_29
//  350       }else if(strstr(p,"APP")){
??at_proc_28:
        ; Setup parameters for call to function strstr
        MOV     R4,#`?<Constant "APP">` & 0xff
        MOV     R5,#(`?<Constant "APP">` >> 8) & 0xff
        MOV     R2,?V0
        MOV     R3,?V1
        LCALL   ??strstr?relay       ; Banked call to: strstr
        MOV     ?V4,R2
        MOV     ?V5,R3
        MOV     A,?V4
        ORL     A,?V5
        JZ      ??at_proc_30
//  351         SYS_PARAMETER_READ;
        ; Setup parameters for call to function HalFlashRead
        MOV     ?V4,#0x2
        MOV     ?V5,#0x0
        MOV     R0,#?V4
        LCALL   ?PUSH_XSTACK_I_TWO
          CFI CFA_XSP16 add(XSP16, 48)
        MOV     R4,#sys_parameter & 0xff
        MOV     R5,#(sys_parameter >> 8) & 0xff
        MOV     R2,#0x0
        MOV     R3,#0x0
        MOV     R1,#0x9
        LCALL   ??HalFlashRead?relay ; Banked call to: HalFlashRead
        MOV     A,#0x2
        LCALL   ?DEALLOC_XSTACK8
          CFI CFA_XSP16 add(XSP16, 46)
//  352         sys_parameter.current_part=0x01;
        MOV     DPTR,#sys_parameter
        MOV     A,#0x1
        MOVX    @DPTR,A
//  353         HalFlashErase(PARA_PARTITION_PAGE);
        ; Setup parameters for call to function HalFlashErase
        MOV     R1,#0x9
        LCALL   ??HalFlashErase?relay; Banked call to: HalFlashErase
//  354         SYS_PARAMETER_WRITE;
        ; Setup parameters for call to function HalFlashWrite
        MOV     ?V4,#0x1
        MOV     ?V5,#0x0
        MOV     R0,#?V4
        LCALL   ?PUSH_XSTACK_I_TWO
          CFI CFA_XSP16 add(XSP16, 48)
        MOV     R4,#sys_parameter & 0xff
        MOV     R5,#(sys_parameter >> 8) & 0xff
        MOV     R2,#0x0
        MOV     R3,#0x12
        LCALL   ??HalFlashWrite?relay; Banked call to: HalFlashWrite
        MOV     A,#0x2
        LCALL   ?DEALLOC_XSTACK8
          CFI CFA_XSP16 add(XSP16, 46)
//  355         at_response(ATOK);
        ; Setup parameters for call to function at_response
        MOV     R2,#`?<Constant "OK\\r\\n">` & 0xff
        MOV     R3,#(`?<Constant "OK\\r\\n">` >> 8) & 0xff
        LCALL   ??at_response?relay  ; Banked call to: at_response
        SJMP    ??at_proc_2
//  356       }
//  357       else {
//  358         at_response(ATERROR);
??at_proc_30:
        ; Setup parameters for call to function at_response
        MOV     R2,#`?<Constant "ERR: Bad command\\r\\n">` & 0xff
        MOV     R3,#(`?<Constant "ERR: Bad command\\r\\n">` >> 8) & 0xff
        LCALL   ??at_response?relay  ; Banked call to: at_response
        SJMP    ??at_proc_2
//  359       }
//  360     }
//  361 #endif  
//  362     else {
//  363       if (user_at_proc(p_msg)<0) {
??at_proc_27:
        ; Setup parameters for call to function user_at_proc
        MOV     A,R6
        MOV     R2,A
        MOV     A,R7
        MOV     R3,A
        LCALL   ??user_at_proc?relay ; Banked call to: user_at_proc
        MOV     A,R1
        CLR     C
        SUBB    A,#0x0
        MOV     C,0xD0 /* PSW */.2
        XRL     A,PSW
        RLC     A
        JNC     ??at_proc_2
//  364         at_response(ATERROR);
        ; Setup parameters for call to function at_response
        MOV     R2,#`?<Constant "ERR: Bad command\\r\\n">` & 0xff
        MOV     R3,#(`?<Constant "ERR: Bad command\\r\\n">` >> 8) & 0xff
        LCALL   ??at_response?relay  ; Banked call to: at_response
//  365       }
//  366     }
//  367     
//  368   }
//  369   at_quebuffer_put(p_msg);
??at_proc_2:
        ; Setup parameters for call to function at_quebuffer_put
        MOV     A,R6
        MOV     R2,A
        MOV     A,R7
        MOV     R3,A
        LCALL   ??at_quebuffer_put?relay; Banked call to: at_quebuffer_put
//  370   pAtCommand = NULL;
        MOV     DPTR,#pAtCommand
        MOV     A,#0x0
        MOVX    @DPTR,A
        INC     DPTR
        MOV     A,#0x0
        MOVX    @DPTR,A
//  371 }
??at_proc_0:
        MOV     A,#0x20
        LCALL   ?DEALLOC_XSTACK8
          CFI CFA_XSP16 add(XSP16, 14)
        MOV     R7,#0x6
        LJMP    ?BANKED_LEAVE_XDATA
          CFI EndBlock cfiBlock7
        REQUIRE _A_IEN0
        REQUIRE WDCTL
//  372 
//  373 /* 主动上报link status */

        RSEG BANKED_CODE:CODE:NOROOT(0)
//  374 void AT_reportedLinkStatus()
AT_reportedLinkStatus:
          CFI Block cfiBlock8 Using cfiCommon0
          CFI Function AT_reportedLinkStatus
        CODE
//  375 {
        FUNCALL AT_reportedLinkStatus, GetLinkStatus
        LOCFRAME ISTACK, 0, STACK
        LOCFRAME PSTACK, 0, STACK
        LOCFRAME XSTACK, 26, STACK
        LOCFRAME IOVERLAY, 0, STATIC
        LOCFRAME DOVERLAY, 0, STATIC
        ARGFRAME ISTACK, 0, STACK
        ARGFRAME PSTACK, 0, STACK
        ARGFRAME XSTACK, 26, STACK
        ARGFRAME IOVERLAY, 0, STATIC
        ARGFRAME DOVERLAY, 0, STATIC
        FUNCALL AT_reportedLinkStatus, sprintf
        LOCFRAME ISTACK, 0, STACK
        LOCFRAME PSTACK, 0, STACK
        LOCFRAME XSTACK, 28, STACK
        LOCFRAME IOVERLAY, 0, STATIC
        LOCFRAME DOVERLAY, 0, STATIC
        ARGFRAME ISTACK, 0, STACK
        ARGFRAME PSTACK, 0, STACK
        ARGFRAME XSTACK, 28, STACK
        ARGFRAME IOVERLAY, 0, STATIC
        ARGFRAME DOVERLAY, 0, STATIC
        FUNCALL AT_reportedLinkStatus, at_response
        LOCFRAME ISTACK, 0, STACK
        LOCFRAME PSTACK, 0, STACK
        LOCFRAME XSTACK, 26, STACK
        LOCFRAME IOVERLAY, 0, STATIC
        LOCFRAME DOVERLAY, 0, STATIC
        ARGFRAME ISTACK, 0, STACK
        ARGFRAME PSTACK, 0, STACK
        ARGFRAME XSTACK, 26, STACK
        ARGFRAME IOVERLAY, 0, STATIC
        ARGFRAME DOVERLAY, 0, STATIC
        REQUIRE ?V0
        REQUIRE ?V1
        MOV     A,#-0xa
        LCALL   ?BANKED_ENTER_XDATA
          CFI DPH0 load(1, XDATA, add(CFA_XSP16, literal(-1)))
          CFI DPL0 load(1, XDATA, add(CFA_XSP16, literal(-2)))
          CFI ?BRET_EXT load(1, XDATA, add(CFA_XSP16, literal(-3)))
          CFI ?RET_HIGH load(1, XDATA, add(CFA_XSP16, literal(-4)))
          CFI ?RET_LOW load(1, XDATA, add(CFA_XSP16, literal(-5)))
          CFI R7 load(1, XDATA, add(CFA_XSP16, literal(-6)))
          CFI V1 load(1, XDATA, add(CFA_XSP16, literal(-7)))
          CFI V0 load(1, XDATA, add(CFA_XSP16, literal(-8)))
          CFI VB load(1, XDATA, add(CFA_XSP16, literal(-9)))
          CFI R6 load(1, XDATA, add(CFA_XSP16, literal(-10)))
          CFI CFA_SP SP+0
          CFI CFA_XSP16 add(XSP16, 10)
        ; Saved register size: 10
        ; Auto size: 16
        MOV     A,#-0x10
        LCALL   ?ALLOC_XSTACK8
          CFI CFA_XSP16 add(XSP16, 26)
//  376     char buf[16]={0};
        MOV     DPTR,#`?<Constant {0}>`
        MOV     R4,?XSP + 0
        MOV     R5,?XSP + 1
        MOV     A,#0x10
        LCALL   ?MOVE_LONG8_XDATA_XDATA
//  377     sprintf(buf, "+LINK:%u\r\n", GetLinkStatus());
        ; Setup parameters for call to function GetLinkStatus
        LCALL   ??GetLinkStatus?relay; Banked call to: GetLinkStatus
        MOV     A,R1
        MOV     ?V0,A
        ; Setup parameters for call to function sprintf
        MOV     ?V1,#0x0
        MOV     R0,#?V0
        LCALL   ?PUSH_XSTACK_I_TWO
          CFI CFA_XSP16 add(XSP16, 28)
        MOV     R4,#`?<Constant "+LINK:%u\\r\\n">` & 0xff
        MOV     R5,#(`?<Constant "+LINK:%u\\r\\n">` >> 8) & 0xff
        MOV     A,#0x2
        LCALL   ?XSTACK_DISP101_8
        LCALL   ??sprintf?relay      ; Banked call to: sprintf
        MOV     A,#0x2
        LCALL   ?DEALLOC_XSTACK8
          CFI CFA_XSP16 add(XSP16, 26)
//  378     at_response(buf);
        ; Setup parameters for call to function at_response
        MOV     R2,?XSP + 0
        MOV     R3,?XSP + 1
        LCALL   ??at_response?relay  ; Banked call to: at_response
//  379 }
        MOV     A,#0x10
        LCALL   ?DEALLOC_XSTACK8
          CFI CFA_XSP16 add(XSP16, 10)
        MOV     R7,#0x2
        LJMP    ?BANKED_LEAVE_XDATA
          CFI EndBlock cfiBlock8
//  380 
//  381 
//  382 /*********************************************************************************************
//  383 * 名称：at_init()
//  384 * 功能：AT指令初始化
//  385 * 参数：
//  386 * 返回：
//  387 * 修改：
//  388 * 注释：
//  389 *********************************************************************************************/

        RSEG BANKED_CODE:CODE:NOROOT(0)
//  390 void at_init(void)
at_init:
          CFI Block cfiBlock9 Using cfiCommon0
          CFI Function at_init
        CODE
//  391 {
        FUNCALL at_init, _get_at_event
        LOCFRAME ISTACK, 2, STACK
        LOCFRAME PSTACK, 0, STACK
        LOCFRAME XSTACK, 0, STACK
        LOCFRAME IOVERLAY, 0, STATIC
        LOCFRAME DOVERLAY, 0, STATIC
        ARGFRAME ISTACK, 2, STACK
        ARGFRAME PSTACK, 0, STACK
        ARGFRAME XSTACK, 0, STACK
        ARGFRAME IOVERLAY, 0, STATIC
        ARGFRAME DOVERLAY, 0, STATIC
        FUNCALL at_init, at_uart_init
        LOCFRAME ISTACK, 2, STACK
        LOCFRAME PSTACK, 0, STACK
        LOCFRAME XSTACK, 0, STACK
        LOCFRAME IOVERLAY, 0, STATIC
        LOCFRAME DOVERLAY, 0, STATIC
        ARGFRAME ISTACK, 2, STACK
        ARGFRAME PSTACK, 0, STACK
        ARGFRAME XSTACK, 0, STACK
        ARGFRAME IOVERLAY, 0, STATIC
        ARGFRAME DOVERLAY, 0, STATIC
        FUNCALL at_init, at_uart_set_input_call
        LOCFRAME ISTACK, 2, STACK
        LOCFRAME PSTACK, 0, STACK
        LOCFRAME XSTACK, 0, STACK
        LOCFRAME IOVERLAY, 0, STATIC
        LOCFRAME DOVERLAY, 0, STATIC
        ARGFRAME ISTACK, 2, STACK
        ARGFRAME PSTACK, 0, STACK
        ARGFRAME XSTACK, 0, STACK
        ARGFRAME IOVERLAY, 0, STATIC
        ARGFRAME DOVERLAY, 0, STATIC
        FUNCALL at_init, at_response
        LOCFRAME ISTACK, 2, STACK
        LOCFRAME PSTACK, 0, STACK
        LOCFRAME XSTACK, 0, STACK
        LOCFRAME IOVERLAY, 0, STATIC
        LOCFRAME DOVERLAY, 0, STATIC
        ARGFRAME ISTACK, 2, STACK
        ARGFRAME PSTACK, 0, STACK
        ARGFRAME XSTACK, 0, STACK
        ARGFRAME IOVERLAY, 0, STATIC
        ARGFRAME DOVERLAY, 0, STATIC
        FUNCALL at_init, at_response
        LOCFRAME ISTACK, 2, STACK
        LOCFRAME PSTACK, 0, STACK
        LOCFRAME XSTACK, 0, STACK
        LOCFRAME IOVERLAY, 0, STATIC
        LOCFRAME DOVERLAY, 0, STATIC
        ARGFRAME ISTACK, 2, STACK
        ARGFRAME PSTACK, 0, STACK
        ARGFRAME XSTACK, 0, STACK
        ARGFRAME IOVERLAY, 0, STATIC
        ARGFRAME DOVERLAY, 0, STATIC
        PUSH    DPL
          CFI DPL0 Frame(CFA_SP, 4)
          CFI CFA_SP SP+-4
        PUSH    DPH
          CFI DPH0 Frame(CFA_SP, 5)
          CFI CFA_SP SP+-5
        ; Saved register size: 2
        ; Auto size: 0
//  392     __AT_EVT = _get_at_event();
        ; Setup parameters for call to function _get_at_event
        LCALL   ??_get_at_event?relay; Banked call to: _get_at_event
        MOV     A,R1
        MOV     DPTR,#__AT_EVT
        MOVX    @DPTR,A
//  393 
//  394     at_uart_init();
        ; Setup parameters for call to function at_uart_init
        LCALL   ??at_uart_init?relay ; Banked call to: at_uart_init
//  395     at_uart_set_input_call(at_recv_ch);
        ; Setup parameters for call to function at_uart_set_input_call
        MOV     R2,#??at_recv_ch?relay & 0xff
        MOV     R3,#(??at_recv_ch?relay >> 8) & 0xff
        LCALL   ??at_uart_set_input_call?relay; Banked call to: at_uart_set_input_call
//  396 
//  397     at_response("+HW:CC2530\r\n");
        ; Setup parameters for call to function at_response
        MOV     R2,#`?<Constant "+HW:CC2530\\r\\n">` & 0xff
        MOV     R3,#(`?<Constant "+HW:CC2530\\r\\n">` >> 8) & 0xff
        LCALL   ??at_response?relay  ; Banked call to: at_response
//  398     at_response("+RDY\r\n");
        ; Setup parameters for call to function at_response
        MOV     R2,#`?<Constant "+RDY\\r\\n">` & 0xff
        MOV     R3,#(`?<Constant "+RDY\\r\\n">` >> 8) & 0xff
        LCALL   ??at_response?relay  ; Banked call to: at_response
//  399 }
        POP     DPH
          CFI DPH0 SameValue
          CFI CFA_SP SP+-4
        POP     DPL
          CFI DPL0 SameValue
          CFI CFA_SP SP+-3
        LJMP    ?BRET
          CFI EndBlock cfiBlock9
//  400 /*********************************************************************************************
//  401 * 名称：at_recv_ch()
//  402 * 功能：at接收到字符处理
//  403 * 参数：
//  404 * 返回：
//  405 * 修改：
//  406 * 注释：
//  407 *********************************************************************************************/

        RSEG BANKED_CODE:CODE:NOROOT(0)
//  408 void at_recv_ch(char ch)
at_recv_ch:
          CFI Block cfiBlock10 Using cfiCommon0
          CFI Function at_recv_ch
        CODE
//  409 {
        FUNCALL at_recv_ch, _at_get_ch
        LOCFRAME ISTACK, 0, STACK
        LOCFRAME PSTACK, 0, STACK
        LOCFRAME XSTACK, 9, STACK
        LOCFRAME IOVERLAY, 0, STATIC
        LOCFRAME DOVERLAY, 0, STATIC
        ARGFRAME ISTACK, 0, STACK
        ARGFRAME PSTACK, 0, STACK
        ARGFRAME XSTACK, 9, STACK
        ARGFRAME IOVERLAY, 0, STATIC
        ARGFRAME DOVERLAY, 0, STATIC
        MOV     A,#-0x9
        LCALL   ?BANKED_ENTER_XDATA
          CFI DPH0 load(1, XDATA, add(CFA_XSP16, literal(-1)))
          CFI DPL0 load(1, XDATA, add(CFA_XSP16, literal(-2)))
          CFI ?BRET_EXT load(1, XDATA, add(CFA_XSP16, literal(-3)))
          CFI ?RET_HIGH load(1, XDATA, add(CFA_XSP16, literal(-4)))
          CFI ?RET_LOW load(1, XDATA, add(CFA_XSP16, literal(-5)))
          CFI R7 load(1, XDATA, add(CFA_XSP16, literal(-6)))
          CFI V0 load(1, XDATA, add(CFA_XSP16, literal(-7)))
          CFI VB load(1, XDATA, add(CFA_XSP16, literal(-8)))
          CFI R6 load(1, XDATA, add(CFA_XSP16, literal(-9)))
          CFI CFA_SP SP+0
          CFI CFA_XSP16 add(XSP16, 9)
        ; Saved register size: 9
        ; Auto size: 0
        MOV     A,R1
        MOV     R6,A
//  410   _at_get_ch(ch);
        ; Setup parameters for call to function _at_get_ch
        MOV     A,R6
        MOV     R1,A
        LCALL   ??_at_get_ch?relay   ; Banked call to: _at_get_ch
//  411 }
        MOV     R7,#0x1
        LJMP    ?BANKED_LEAVE_XDATA
          CFI EndBlock cfiBlock10

        RSEG BANK_RELAYS:CODE:REORDER:NOROOT(0)
??at_quebuffer_put?relay:
        CODE
        LCALL   ?BDISPATCH
        DATA24
        DC24    at_quebuffer_put

        RSEG BANK_RELAYS:CODE:REORDER:NOROOT(0)
??at_quebuffer_get?relay:
        CODE
        LCALL   ?BDISPATCH
        DATA24
        DC24    at_quebuffer_get

        RSEG BANK_RELAYS:CODE:REORDER:NOROOT(0)
??_at_put_ch?relay:
        CODE
        LCALL   ?BDISPATCH
        DATA24
        DC24    _at_put_ch

        RSEG BANK_RELAYS:CODE:REORDER:NOROOT(0)
??_at_get_ch?relay:
        CODE
        LCALL   ?BDISPATCH
        DATA24
        DC24    _at_get_ch

        RSEG BANK_RELAYS:CODE:REORDER:NOROOT(0)
??at_response_buf?relay:
        CODE
        LCALL   ?BDISPATCH
        DATA24
        DC24    at_response_buf

        RSEG BANK_RELAYS:CODE:REORDER:NOROOT(0)
??at_response?relay:
        CODE
        LCALL   ?BDISPATCH
        DATA24
        DC24    at_response

        RSEG BANK_RELAYS:CODE:REORDER:NOROOT(0)
??at_notify_data?relay:
        CODE
        LCALL   ?BDISPATCH
        DATA24
        DC24    at_notify_data

        RSEG BANK_RELAYS:CODE:REORDER:NOROOT(0)
??at_proc?relay:
        CODE
        LCALL   ?BDISPATCH
        DATA24
        DC24    at_proc

        RSEG BANK_RELAYS:CODE:REORDER:NOROOT(0)
??AT_reportedLinkStatus?relay:
        CODE
        LCALL   ?BDISPATCH
        DATA24
        DC24    AT_reportedLinkStatus

        RSEG BANK_RELAYS:CODE:REORDER:NOROOT(0)
??at_init?relay:
        CODE
        LCALL   ?BDISPATCH
        DATA24
        DC24    at_init

        RSEG BANK_RELAYS:CODE:REORDER:NOROOT(0)
??at_recv_ch?relay:
        CODE
        LCALL   ?BDISPATCH
        DATA24
        DC24    at_recv_ch

        RSEG XDATA_ROM_C:CONST:REORDER:NOROOT(0)
        DATA8
`?<Constant "+RECV:%u,%d\\r\\n">`:
        DB "+RECV:%u,%d\015\012"

        RSEG XDATA_ROM_C:CONST:REORDER:NOROOT(0)
        DATA8
`?<Constant "OK\\r\\n">`:
        DB "OK\015\012"

        RSEG XDATA_ROM_C:CONST:REORDER:NOROOT(0)
        DATA8
`?<Constant "+SEND:%u\\r\\n">`:
        DB "+SEND:%u\015\012"

        RSEG XDATA_ROM_C:CONST:REORDER:NOROOT(0)
        DATA8
`?<Constant "AT">`:
        DB "AT"

        RSEG XDATA_ROM_C:CONST:REORDER:NOROOT(0)
        DATA8
`?<Constant "ATE1">`:
        DB "ATE1"

        RSEG XDATA_ROM_C:CONST:REORDER:NOROOT(0)
        DATA8
`?<Constant "ATE0">`:
        DB "ATE0"

        RSEG XDATA_ROM_C:CONST:REORDER:NOROOT(0)
        DATA8
`?<Constant "AT+HW?">`:
        DB "AT+HW?"

        RSEG XDATA_ROM_C:CONST:REORDER:NOROOT(0)
        DATA8
`?<Constant "+HW:CC2530\\r\\n">`:
        DB "+HW:CC2530\015\012"

        RSEG XDATA_ROM_C:CONST:REORDER:NOROOT(0)
        DATA8
`?<Constant "AT+MAC?">`:
        DB "AT+MAC?"

        RSEG XDATA_ROM_C:CONST:REORDER:NOROOT(0)
        DATA8
`?<Constant "+MAC:%02X:%02X:%02X:%...">`:
        DB "+MAC:%02X:%02X:%02X:%02X:%02X:%02X:%02X:%02X\015\012"

        RSEG XDATA_ROM_C:CONST:REORDER:NOROOT(0)
        DATA8
`?<Constant "AT+PANID">`:
        DB "AT+PANID"

        RSEG XDATA_ROM_C:CONST:REORDER:NOROOT(0)
        DATA8
`?<Constant "+PANID:%u\\r\\n">`:
        DB "+PANID:%u\015\012"

        RSEG XDATA_ROM_C:CONST:REORDER:NOROOT(0)
        DATA8
`?<Constant "ERR: Bad command\\r\\n">`:
        DB "ERR: Bad command\015\012"

        RSEG XDATA_ROM_C:CONST:REORDER:NOROOT(0)
        DATA8
`?<Constant "AT+CHANNEL">`:
        DB "AT+CHANNEL"

        RSEG XDATA_ROM_C:CONST:REORDER:NOROOT(0)
        DATA8
`?<Constant "+CHANNEL:%u\\r\\n">`:
        DB "+CHANNEL:%u\015\012"

        RSEG XDATA_ROM_C:CONST:REORDER:NOROOT(0)
        DATA8
`?<Constant "AT+LOGICALTYPE">`:
        DB "AT+LOGICALTYPE"

        RSEG XDATA_ROM_C:CONST:REORDER:NOROOT(0)
        DATA8
`?<Constant "+LOGICALTYPE:%u\\r\\n">`:
        DB "+LOGICALTYPE:%u\015\012"

        RSEG XDATA_ROM_C:CONST:REORDER:NOROOT(0)
        DATA8
`?<Constant "AT+LINK?">`:
        DB "AT+LINK?"

        RSEG XDATA_ROM_C:CONST:REORDER:NOROOT(0)
        DATA8
`?<Constant "+LINK:%u\\r\\n">`:
        DB "+LINK:%u\015\012"

        RSEG XDATA_ROM_C:CONST:REORDER:NOROOT(0)
        DATA8
`?<Constant "AT+RSSI?">`:
        DB "AT+RSSI?"

        RSEG XDATA_ROM_C:CONST:REORDER:NOROOT(0)
        DATA8
`?<Constant "+RSSI:%d\\r\\n">`:
        DB "+RSSI:%d\015\012"

        RSEG XDATA_ROM_C:CONST:REORDER:NOROOT(0)
        DATA8
`?<Constant "AT+LQI?">`:
        DB "AT+LQI?"

        RSEG XDATA_ROM_C:CONST:REORDER:NOROOT(0)
        DATA8
`?<Constant "+LQI:%d\\r\\n">`:
        DB "+LQI:%d\015\012"

        RSEG XDATA_ROM_C:CONST:REORDER:NOROOT(0)
        DATA8
`?<Constant "AT+RESET">`:
        DB "AT+RESET"

        RSEG XDATA_ROM_C:CONST:REORDER:NOROOT(0)
        DATA8
`?<Constant "AT+SEND=">`:
        DB "AT+SEND="

        RSEG XDATA_ROM_C:CONST:REORDER:NOROOT(0)
        DATA16
`?<Constant ">">`:
        DB ">"

        RSEG XDATA_ROM_C:CONST:REORDER:NOROOT(0)
        DATA8
`?<Constant "AT+IAP=">`:
        DB "AT+IAP="

        RSEG XDATA_ROM_C:CONST:REORDER:NOROOT(0)
        DATA32
`?<Constant "IAP">`:
        DB "IAP"

        RSEG XDATA_ROM_C:CONST:REORDER:NOROOT(0)
        DATA32
`?<Constant "APP">`:
        DB "APP"

        RSEG XDATA_ROM_C:CONST:REORDER:NOROOT(0)
        DATA8
`?<Constant {0}>`:
        DB 0
        DB 0, 0, 0, 0, 0, 0, 0, 0
        DB 0, 0, 0, 0, 0, 0, 0

        RSEG XDATA_ROM_C:CONST:REORDER:NOROOT(0)
        DATA8
`?<Constant "+RDY\\r\\n">`:
        DB "+RDY\015\012"

        END
// 
// 2 974 bytes in segment BANKED_CODE
//    66 bytes in segment BANK_RELAYS
//     2 bytes in segment SFR_AN
//   333 bytes in segment XDATA_ROM_C
//   206 bytes in segment XDATA_Z
// 
// 3 040 bytes of CODE  memory
//   333 bytes of CONST memory
//     0 bytes of DATA  memory (+ 2 bytes shared)
//   206 bytes of XDATA memory
//
//Errors: none
//Warnings: 1
