///////////////////////////////////////////////////////////////////////////////
//
// IAR C/C++ Compiler V9.10.1.2146 for 8051               07/Jul/2023  16:40:37
// Copyright 2004-2014 IAR Systems AB.
// Standalone license - IAR Embedded Workbench for 8051
//
//    Core               =  plain
//    Code model         =  banked
//    Data model         =  large
//    Calling convention =  xdata reentrant
//    Constant location  =  data_rom
//    Dptr setup         =  1,16
//                          
//    Source file        =  
//        I:\1_git_code\EPnode_OTA\CC2530
//        IAP\CC2530_stack\zstack-2.4.0-1.4.0x\Components\hal\target\CC2530EB\hal_led.c
//    Command line       =  
//        -f "I:\1_git_code\EPnode_OTA\CC2530
//        IAP\CC2530_stack\zstack-2.4.0-1.4.0x\Projects\zstack\Samples\CC2530-Serial(IAP)\CC2530DB\..\..\..\Tools\CC2530DB\f8wRouter.cfg"
//        (-DCPU32MHZ -DROOT=__near_func -DMAC_CFG_APP_PENDING_QUEUE=TRUE
//        -DMAC_CFG_TX_DATA_MAX=5 -DMAC_CFG_TX_MAX=8 -DMAC_CFG_RX_MAX=5
//        -DRTR_NWK) -f "I:\1_git_code\EPnode_OTA\CC2530
//        IAP\CC2530_stack\zstack-2.4.0-1.4.0x\Projects\zstack\Samples\CC2530-Serial(IAP)\CC2530DB\..\..\..\Tools\CC2530DB\f8wConfig.cfg"
//        (-DZIGBEEPRO -DSECURE=0 -DZG_SECURE_DYNAMIC=0 -DREFLECTOR
//        -DDEFAULT_CHANLIST=0x00000800 -DZDAPP_CONFIG_PAN_ID=8448
//        -DNWK_START_DELAY=100 -DEXTENDED_JOINING_RANDOM_MASK=0x007F
//        -DBEACON_REQUEST_DELAY=100 -DBEACON_REQ_DELAY_MASK=0x00FF
//        -DLINK_STATUS_JITTER_MASK=0x007F -DROUTE_EXPIRY_TIME=30
//        -DAPSC_ACK_WAIT_DURATION_POLLED=3000 -DNWK_INDIRECT_MSG_TIMEOUT=7
//        -DMAX_RREQ_ENTRIES=8 -DAPSC_MAX_FRAME_RETRIES=3
//        -DNWK_MAX_DATA_RETRIES=2 -DMAX_POLL_FAILURE_RETRIES=2 -DMAX_BCAST=9
//        -DAPS_MAX_GROUPS=16 -DMAX_RTG_ENTRIES=40 -DNWK_MAX_BINDING_ENTRIES=4
//        -DMAX_BINDING_CLUSTER_IDS=4 "-DDEFAULT_KEY={0x01, 0x03, 0x05, 0x07,
//        0x09, 0x0B, 0x0D, 0x0F, 0x00, 0x02, 0x04, 0x06, 0x08, 0x0A, 0x0C,
//        0x0D}" -DMAC_MAX_FRAME_SIZE=116 -DZDNWKMGR_MIN_TRANSMISSIONS=20
//        "-DCONST=const __code" -DGENERIC=__generic -DRFD_RCVC_ALWAYS_ON=TRUE
//        -DPOLL_RATE=1000 -DQUEUED_POLL_RATE=100 -DRESPONSE_POLL_RATE=100)
//        -DREJOIN_POLL_RATE=440 "I:\1_git_code\EPnode_OTA\CC2530
//        IAP\CC2530_stack\zstack-2.4.0-1.4.0x\Components\hal\target\CC2530EB\hal_led.c"
//        -D HOLD_AUTO_START -D BUILD_ALL_DEVICES -D REFLECTOR -D NV_INIT -D
//        XLAB -D CC2530_Serial -D MAKE_CRC_SHDW -D CC2530_USE_IAP -lC
//        "I:\1_git_code\EPnode_OTA\CC2530
//        IAP\CC2530_stack\zstack-2.4.0-1.4.0x\Projects\zstack\Samples\CC2530-Serial(IAP)\CC2530DB\CC2530-Serial\List\"
//        -lA "I:\1_git_code\EPnode_OTA\CC2530
//        IAP\CC2530_stack\zstack-2.4.0-1.4.0x\Projects\zstack\Samples\CC2530-Serial(IAP)\CC2530DB\CC2530-Serial\List\"
//        --diag_suppress Pe001,Pa010 -o "I:\1_git_code\EPnode_OTA\CC2530
//        IAP\CC2530_stack\zstack-2.4.0-1.4.0x\Projects\zstack\Samples\CC2530-Serial(IAP)\CC2530DB\CC2530-Serial\Obj\"
//        -e --no_cse --no_unroll --no_inline --no_code_motion --no_tbaa
//        --debug --core=plain --dptr=16,1 --data_model=large
//        --code_model=banked --calling_convention=xdata_reentrant
//        --place_constants=data_rom --nr_virtual_regs 8 -I
//        "I:\1_git_code\EPnode_OTA\CC2530
//        IAP\CC2530_stack\zstack-2.4.0-1.4.0x\Projects\zstack\Samples\CC2530-Serial(IAP)\CC2530DB\"
//        -I "I:\1_git_code\EPnode_OTA\CC2530
//        IAP\CC2530_stack\zstack-2.4.0-1.4.0x\Projects\zstack\Samples\CC2530-Serial(IAP)\CC2530DB\..\Source\"
//        -I "I:\1_git_code\EPnode_OTA\CC2530
//        IAP\CC2530_stack\zstack-2.4.0-1.4.0x\Projects\zstack\Samples\CC2530-Serial(IAP)\CC2530DB\..\..\common\"
//        -I "I:\1_git_code\EPnode_OTA\CC2530
//        IAP\CC2530_stack\zstack-2.4.0-1.4.0x\Projects\zstack\Samples\CC2530-Serial(IAP)\CC2530DB\..\..\..\ZMain\TI2530DB\"
//        -I "I:\1_git_code\EPnode_OTA\CC2530
//        IAP\CC2530_stack\zstack-2.4.0-1.4.0x\Projects\zstack\Samples\CC2530-Serial(IAP)\CC2530DB\..\..\..\..\..\Components\hal\include\"
//        -I "I:\1_git_code\EPnode_OTA\CC2530
//        IAP\CC2530_stack\zstack-2.4.0-1.4.0x\Projects\zstack\Samples\CC2530-Serial(IAP)\CC2530DB\..\..\..\..\..\Components\hal\target\CC2530EB\"
//        -I "I:\1_git_code\EPnode_OTA\CC2530
//        IAP\CC2530_stack\zstack-2.4.0-1.4.0x\Projects\zstack\Samples\CC2530-Serial(IAP)\CC2530DB\..\..\..\..\..\Components\mac\include\"
//        -I "I:\1_git_code\EPnode_OTA\CC2530
//        IAP\CC2530_stack\zstack-2.4.0-1.4.0x\Projects\zstack\Samples\CC2530-Serial(IAP)\CC2530DB\..\..\..\..\..\Components\mac\high_level\"
//        -I "I:\1_git_code\EPnode_OTA\CC2530
//        IAP\CC2530_stack\zstack-2.4.0-1.4.0x\Projects\zstack\Samples\CC2530-Serial(IAP)\CC2530DB\..\..\..\..\..\Components\mac\low_level\srf04\"
//        -I "I:\1_git_code\EPnode_OTA\CC2530
//        IAP\CC2530_stack\zstack-2.4.0-1.4.0x\Projects\zstack\Samples\CC2530-Serial(IAP)\CC2530DB\..\..\..\..\..\Components\mac\low_level\srf04\single_chip\"
//        -I "I:\1_git_code\EPnode_OTA\CC2530
//        IAP\CC2530_stack\zstack-2.4.0-1.4.0x\Projects\zstack\Samples\CC2530-Serial(IAP)\CC2530DB\..\..\..\..\..\Components\mt\"
//        -I "I:\1_git_code\EPnode_OTA\CC2530
//        IAP\CC2530_stack\zstack-2.4.0-1.4.0x\Projects\zstack\Samples\CC2530-Serial(IAP)\CC2530DB\..\..\..\..\..\Components\osal\include\"
//        -I "I:\1_git_code\EPnode_OTA\CC2530
//        IAP\CC2530_stack\zstack-2.4.0-1.4.0x\Projects\zstack\Samples\CC2530-Serial(IAP)\CC2530DB\..\..\..\..\..\Components\osal\mcu\ccsoc\"
//        -I "I:\1_git_code\EPnode_OTA\CC2530
//        IAP\CC2530_stack\zstack-2.4.0-1.4.0x\Projects\zstack\Samples\CC2530-Serial(IAP)\CC2530DB\..\..\..\..\..\Components\services\saddr\"
//        -I "I:\1_git_code\EPnode_OTA\CC2530
//        IAP\CC2530_stack\zstack-2.4.0-1.4.0x\Projects\zstack\Samples\CC2530-Serial(IAP)\CC2530DB\..\..\..\..\..\Components\services\sdata\"
//        -I "I:\1_git_code\EPnode_OTA\CC2530
//        IAP\CC2530_stack\zstack-2.4.0-1.4.0x\Projects\zstack\Samples\CC2530-Serial(IAP)\CC2530DB\..\..\..\..\..\Components\stack\af\"
//        -I "I:\1_git_code\EPnode_OTA\CC2530
//        IAP\CC2530_stack\zstack-2.4.0-1.4.0x\Projects\zstack\Samples\CC2530-Serial(IAP)\CC2530DB\..\..\..\..\..\Components\stack\nwk\"
//        -I "I:\1_git_code\EPnode_OTA\CC2530
//        IAP\CC2530_stack\zstack-2.4.0-1.4.0x\Projects\zstack\Samples\CC2530-Serial(IAP)\CC2530DB\..\..\..\..\..\Components\stack\sapi\"
//        -I "I:\1_git_code\EPnode_OTA\CC2530
//        IAP\CC2530_stack\zstack-2.4.0-1.4.0x\Projects\zstack\Samples\CC2530-Serial(IAP)\CC2530DB\..\..\..\..\..\Components\stack\sec\"
//        -I "I:\1_git_code\EPnode_OTA\CC2530
//        IAP\CC2530_stack\zstack-2.4.0-1.4.0x\Projects\zstack\Samples\CC2530-Serial(IAP)\CC2530DB\..\..\..\..\..\Components\stack\sys\"
//        -I "I:\1_git_code\EPnode_OTA\CC2530
//        IAP\CC2530_stack\zstack-2.4.0-1.4.0x\Projects\zstack\Samples\CC2530-Serial(IAP)\CC2530DB\..\..\..\..\..\Components\stack\zdo\"
//        -I "I:\1_git_code\EPnode_OTA\CC2530
//        IAP\CC2530_stack\zstack-2.4.0-1.4.0x\Projects\zstack\Samples\CC2530-Serial(IAP)\CC2530DB\..\..\..\..\..\Components\zmac\"
//        -I "I:\1_git_code\EPnode_OTA\CC2530
//        IAP\CC2530_stack\zstack-2.4.0-1.4.0x\Projects\zstack\Samples\CC2530-Serial(IAP)\CC2530DB\..\..\..\..\..\Components\zmac\f8w\"
//        -On
//    List file          =  
//        I:\1_git_code\EPnode_OTA\CC2530
//        IAP\CC2530_stack\zstack-2.4.0-1.4.0x\Projects\zstack\Samples\CC2530-Serial(IAP)\CC2530DB\CC2530-Serial\List\hal_led.s51
//
///////////////////////////////////////////////////////////////////////////////

        NAME hal_led

        RTMODEL "__SystemLibrary", "CLib"
        RTMODEL "__calling_convention", "xdata_reentrant"
        RTMODEL "__code_model", "banked"
        RTMODEL "__core", "plain"
        RTMODEL "__data_model", "large"
        RTMODEL "__dptr_size", "16"
        RTMODEL "__extended_stack", "disabled"
        RTMODEL "__location_for_constants", "data"
        RTMODEL "__number_of_dptrs", "1"
        RTMODEL "__rt_version", "1"

        RSEG DOVERLAY:DATA:NOROOT(0)
        RSEG IOVERLAY:IDATA:NOROOT(0)
        RSEG ISTACK:IDATA:NOROOT(0)
        RSEG PSTACK:XDATA:NOROOT(0)
        RSEG XSTACK:XDATA:NOROOT(0)

        EXTERN ?V0
        EXTERN ?V2
        EXTERN ?V3
        EXTERN ?V1
        EXTERN ?V4
        EXTERN ?V5
        EXTERN ?V6
        EXTERN ?V7
        EXTERN ?ALLOC_XSTACK8
        EXTERN ?BANKED_ENTER_XDATA
        EXTERN ?BANKED_LEAVE_XDATA
        EXTERN ?BDISPATCH
        EXTERN ?BRET
        EXTERN ?DEALLOC_XSTACK8
        EXTERN ?L_ADD_X
        EXTERN ?L_MOV_TO_X
        EXTERN ?L_MOV_X
        EXTERN ?L_MUL
        EXTERN ?UL_DIV_MOD
        EXTERN ?UL_GT_X
        EXTERN ?XSP
        EXTERN ?XSTACK_DISP0_8
        EXTERN ?XSTORE_R0123
        EXTERN __INIT_XDATA_Z

        PUBLIC ??HalLedBlink?relay
        FUNCTION ??HalLedBlink?relay,0203H
        PUBLIC ??HalLedEnterSleep?relay
        FUNCTION ??HalLedEnterSleep?relay,0203H
        PUBLIC ??HalLedExitSleep?relay
        FUNCTION ??HalLedExitSleep?relay,0203H
        PUBLIC ??HalLedGetState?relay
        FUNCTION ??HalLedGetState?relay,0203H
        PUBLIC ??HalLedInit?relay
        FUNCTION ??HalLedInit?relay,0203H
        PUBLIC ??HalLedOnOff?relay
        FUNCTION ??HalLedOnOff?relay,0203H
        PUBLIC ??HalLedSet?relay
        FUNCTION ??HalLedSet?relay,0203H
        PUBLIC ??HalLedUpdate?relay
        FUNCTION ??HalLedUpdate?relay,0203H
        PUBLIC HalLedBlink
        FUNCTION HalLedBlink,0a1203H
        ARGFRAME XSTACK, 12, STACK
        ARGFRAME IOVERLAY, 0, STATIC
        ARGFRAME DOVERLAY, 0, STATIC
        LOCFRAME ISTACK, 1, STACK
        LOCFRAME XSTACK, 14, STACK
        PUBLIC HalLedEnterSleep
        FUNCTION HalLedEnterSleep,021203H
        ARGFRAME XSTACK, 0, STACK
        LOCFRAME ISTACK, 2, STACK
        PUBLIC HalLedExitSleep
        FUNCTION HalLedExitSleep,021203H
        ARGFRAME XSTACK, 0, STACK
        LOCFRAME ISTACK, 2, STACK
        PUBLIC HalLedGetState
        FUNCTION HalLedGetState,0203H
        ARGFRAME XSTACK, 0, STACK
        LOCFRAME ISTACK, 2, STACK
        PUBLIC HalLedInit
        FUNCTION HalLedInit,021203H
        ARGFRAME XSTACK, 0, STACK
        LOCFRAME ISTACK, 2, STACK
        PUBLIC HalLedOnOff
        FUNCTION HalLedOnOff,0203H
        ARGFRAME XSTACK, 27, STACK
        ARGFRAME IOVERLAY, 0, STATIC
        ARGFRAME DOVERLAY, 0, STATIC
        LOCFRAME ISTACK, 2, STACK
        PUBLIC HalLedSet
        FUNCTION HalLedSet,0a1203H
        ARGFRAME XSTACK, 27, STACK
        ARGFRAME IOVERLAY, 0, STATIC
        ARGFRAME DOVERLAY, 0, STATIC
        LOCFRAME ISTACK, 1, STACK
        LOCFRAME XSTACK, 12, STACK
        PUBLIC HalLedUpdate
        FUNCTION HalLedUpdate,0a1203H
        ARGFRAME XSTACK, 0, STACK
        ARGFRAME IOVERLAY, 0, STATIC
        ARGFRAME DOVERLAY, 0, STATIC
        LOCFRAME ISTACK, 2, STACK
        LOCFRAME XSTACK, 27, STACK
        PUBWEAK _A_P1
        PUBWEAK _A_P2
        PUBWEAK __Constant_64
        
          CFI Names cfiNames0
          CFI StackFrame CFA_SP SP IDATA
          CFI StackFrame CFA_PSP16 PSP16 XDATA
          CFI StackFrame CFA_XSP16 XSP16 XDATA
          CFI StaticOverlayFrame CFA_IOVERLAY IOVERLAY
          CFI StaticOverlayFrame CFA_DOVERLAY DOVERLAY
          CFI Resource `PSW.CY`:1, `B.BR0`:1, `B.BR1`:1, `B.BR2`:1, `B.BR3`:1
          CFI Resource `B.BR4`:1, `B.BR5`:1, `B.BR6`:1, `B.BR7`:1, `VB.BR8`:1
          CFI Resource `VB.BR9`:1, `VB.BR10`:1, `VB.BR11`:1, `VB.BR12`:1
          CFI Resource `VB.BR13`:1, `VB.BR14`:1, `VB.BR15`:1, VB:8, B:8, A:8
          CFI Resource PSW:8, DPL0:8, DPH0:8, R0:8, R1:8, R2:8, R3:8, R4:8, R5:8
          CFI Resource R6:8, R7:8, V0:8, V1:8, V2:8, V3:8, V4:8, V5:8, V6:8, V7:8
          CFI Resource SP:8, PSPH:8, PSPL:8, PSP16:16, XSPH:8, XSPL:8, XSP16:16
          CFI VirtualResource ?RET:24
          CFI Resource ?BRET_EXT:8
          CFI VirtualResource ?RET_HIGH:8, ?RET_LOW:8
          CFI ResourceParts PSP16 PSPH, PSPL
          CFI ResourceParts XSP16 XSPH, XSPL
          CFI ResourceParts ?RET ?BRET_EXT, ?RET_HIGH, ?RET_LOW
          CFI EndNames cfiNames0
        
          CFI Common cfiCommon0 Using cfiNames0
          CFI CodeAlign 1
          CFI DataAlign -1
          CFI ReturnAddress ?RET CODE
          CFI CFA_DOVERLAY Used
          CFI CFA_IOVERLAY Used
          CFI CFA_SP SP+-3
          CFI CFA_PSP16 PSP16+0
          CFI CFA_XSP16 XSP16+0
          CFI `PSW.CY` SameValue
          CFI `B.BR0` SameValue
          CFI `B.BR1` SameValue
          CFI `B.BR2` SameValue
          CFI `B.BR3` SameValue
          CFI `B.BR4` SameValue
          CFI `B.BR5` SameValue
          CFI `B.BR6` SameValue
          CFI `B.BR7` SameValue
          CFI `VB.BR8` SameValue
          CFI `VB.BR9` SameValue
          CFI `VB.BR10` SameValue
          CFI `VB.BR11` SameValue
          CFI `VB.BR12` SameValue
          CFI `VB.BR13` SameValue
          CFI `VB.BR14` SameValue
          CFI `VB.BR15` SameValue
          CFI VB SameValue
          CFI B Undefined
          CFI A Undefined
          CFI PSW SameValue
          CFI DPL0 SameValue
          CFI DPH0 SameValue
          CFI R0 Undefined
          CFI R1 Undefined
          CFI R2 Undefined
          CFI R3 Undefined
          CFI R4 Undefined
          CFI R5 Undefined
          CFI R6 SameValue
          CFI R7 SameValue
          CFI V0 SameValue
          CFI V1 SameValue
          CFI V2 SameValue
          CFI V3 SameValue
          CFI V4 SameValue
          CFI V5 SameValue
          CFI V6 SameValue
          CFI V7 SameValue
          CFI PSPH Undefined
          CFI PSPL Undefined
          CFI XSPH Undefined
          CFI XSPL Undefined
          CFI ?RET Concat
          CFI ?BRET_EXT Frame(CFA_SP, 3)
          CFI ?RET_HIGH Frame(CFA_SP, 2)
          CFI ?RET_LOW Frame(CFA_SP, 1)
          CFI EndCommon cfiCommon0
        
osal_GetSystemClock SYMBOL "osal_GetSystemClock"
??osal_GetSystemClock?relay SYMBOL "?relay", osal_GetSystemClock
osal_set_event      SYMBOL "osal_set_event"
??osal_set_event?relay SYMBOL "?relay", osal_set_event
osal_start_timerEx  SYMBOL "osal_start_timerEx"
??osal_start_timerEx?relay SYMBOL "?relay", osal_start_timerEx
HalLedBlink         SYMBOL "HalLedBlink"
??HalLedBlink?relay SYMBOL "?relay", HalLedBlink
HalLedEnterSleep    SYMBOL "HalLedEnterSleep"
??HalLedEnterSleep?relay SYMBOL "?relay", HalLedEnterSleep
HalLedExitSleep     SYMBOL "HalLedExitSleep"
??HalLedExitSleep?relay SYMBOL "?relay", HalLedExitSleep
HalLedGetState      SYMBOL "HalLedGetState"
??HalLedGetState?relay SYMBOL "?relay", HalLedGetState
HalLedInit          SYMBOL "HalLedInit"
??HalLedInit?relay  SYMBOL "?relay", HalLedInit
HalLedOnOff         SYMBOL "HalLedOnOff"
??HalLedOnOff?relay SYMBOL "?relay", HalLedOnOff
HalLedSet           SYMBOL "HalLedSet"
??HalLedSet?relay   SYMBOL "?relay", HalLedSet
HalLedUpdate        SYMBOL "HalLedUpdate"
??HalLedUpdate?relay SYMBOL "?relay", HalLedUpdate

        EXTERN ??osal_GetSystemClock?relay
        FUNCTION ??osal_GetSystemClock?relay,00H
        EXTERN ??osal_set_event?relay
        FUNCTION ??osal_set_event?relay,00H
        EXTERN ??osal_start_timerEx?relay
        FUNCTION ??osal_start_timerEx?relay,00H
        EXTERN Hal_TaskID
        EXTERN osal_GetSystemClock
        FUNCTION osal_GetSystemClock,0202H
        ARGFRAME ISTACK, 0, STACK
        ARGFRAME PSTACK, 0, STACK
        ARGFRAME XSTACK, 27, STACK
        ARGFRAME IOVERLAY, 0, STATIC
        ARGFRAME DOVERLAY, 0, STATIC
        EXTERN osal_set_event
        FUNCTION osal_set_event,0202H
        ARGFRAME ISTACK, 0, STACK
        ARGFRAME PSTACK, 0, STACK
        ARGFRAME XSTACK, 14, STACK
        ARGFRAME IOVERLAY, 0, STATIC
        ARGFRAME DOVERLAY, 0, STATIC
        EXTERN osal_start_timerEx
        FUNCTION osal_start_timerEx,0202H
        ARGFRAME ISTACK, 0, STACK
        ARGFRAME PSTACK, 0, STACK
        ARGFRAME XSTACK, 27, STACK
        ARGFRAME IOVERLAY, 0, STATIC
        ARGFRAME DOVERLAY, 0, STATIC

// I:\1_git_code\EPnode_OTA\CC2530 IAP\CC2530_stack\zstack-2.4.0-1.4.0x\Components\hal\target\CC2530EB\hal_led.c
//    1 /**************************************************************************************************
//    2   Filename:       hal_led.c
//    3   Revised:        $Date: 2009-03-13 05:45:44 -0700 (Fri, 13 Mar 2009) $
//    4   Revision:       $Revision: 19408 $
//    5 
//    6   Description:    This file contains the interface to the HAL LED Service.
//    7 
//    8 
//    9   Copyright 2006-2007 Texas Instruments Incorporated. All rights reserved.
//   10 
//   11   IMPORTANT: Your use of this Software is limited to those specific rights
//   12   granted under the terms of a software license agreement between the user
//   13   who downloaded the software, his/her employer (which must be your employer)
//   14   and Texas Instruments Incorporated (the "License").  You may not use this
//   15   Software unless you agree to abide by the terms of the License. The License
//   16   limits your use, and you acknowledge, that the Software may not be modified,
//   17   copied or distributed unless embedded on a Texas Instruments microcontroller
//   18   or used solely and exclusively in conjunction with a Texas Instruments radio
//   19   frequency transceiver, which is integrated into your product.  Other than for
//   20   the foregoing purpose, you may not use, reproduce, copy, prepare derivative
//   21   works of, modify, distribute, perform, display or sell this Software and/or
//   22   its documentation for any purpose.
//   23 
//   24   YOU FURTHER ACKNOWLEDGE AND AGREE THAT THE SOFTWARE AND DOCUMENTATION ARE
//   25   PROVIDED “AS IS” WITHOUT WARRANTY OF ANY KIND, EITHER EXPRESS OR IMPLIED,
//   26   INCLUDING WITHOUT LIMITATION, ANY WARRANTY OF MERCHANTABILITY, TITLE,
//   27   NON-INFRINGEMENT AND FITNESS FOR A PARTICULAR PURPOSE. IN NO EVENT SHALL
//   28   TEXAS INSTRUMENTS OR ITS LICENSORS BE LIABLE OR OBLIGATED UNDER CONTRACT,
//   29   NEGLIGENCE, STRICT LIABILITY, CONTRIBUTION, BREACH OF WARRANTY, OR OTHER
//   30   LEGAL EQUITABLE THEORY ANY DIRECT OR INDIRECT DAMAGES OR EXPENSES
//   31   INCLUDING BUT NOT LIMITED TO ANY INCIDENTAL, SPECIAL, INDIRECT, PUNITIVE
//   32   OR CONSEQUENTIAL DAMAGES, LOST PROFITS OR LOST DATA, COST OF PROCUREMENT
//   33   OF SUBSTITUTE GOODS, TECHNOLOGY, SERVICES, OR ANY CLAIMS BY THIRD PARTIES
//   34   (INCLUDING BUT NOT LIMITED TO ANY DEFENSE THEREOF), OR OTHER SIMILAR COSTS.
//   35 
//   36   Should you have any questions regarding your right to use this Software,
//   37   contact Texas Instruments Incorporated at www.TI.com.
//   38 **************************************************************************************************/
//   39 
//   40 /***************************************************************************************************
//   41  *                                             INCLUDES
//   42  ***************************************************************************************************/
//   43 #include "hal_mcu.h"

        ASEGN SFR_AN:DATA:NOROOT,090H
// union <unnamed> volatile __sfr _A_P1
_A_P1:
        DATA8
        DS 1

        ASEGN SFR_AN:DATA:NOROOT,0a0H
// union <unnamed> volatile __sfr _A_P2
_A_P2:
        DATA8
        DS 1
//   44 #include "hal_defs.h"
//   45 #include "hal_types.h"
//   46 #include "hal_drivers.h"
//   47 #include "hal_led.h"
//   48 #include "osal.h"
//   49 #include "hal_board.h"
//   50 
//   51 /***************************************************************************************************
//   52  *                                             CONSTANTS
//   53  ***************************************************************************************************/
//   54 
//   55 /***************************************************************************************************
//   56  *                                              MACROS
//   57  ***************************************************************************************************/
//   58 
//   59 /***************************************************************************************************
//   60  *                                              TYPEDEFS
//   61  ***************************************************************************************************/
//   62 /* LED control structure */
//   63 typedef struct {
//   64   uint8 mode;       /* Operation mode */
//   65   uint8 todo;       /* Blink cycles left */
//   66   uint8 onPct;      /* On cycle percentage */
//   67   uint16 time;      /* On/off cycle time (msec) */
//   68   uint32 next;      /* Time for next change */
//   69 } HalLedControl_t;
//   70 
//   71 typedef struct
//   72 {
//   73   HalLedControl_t HalLedControlTable[HAL_LED_DEFAULT_MAX_LEDS];
//   74   uint8           sleepActive;
//   75 } HalLedStatus_t;
//   76 
//   77 
//   78 /***************************************************************************************************
//   79  *                                           GLOBAL VARIABLES
//   80  ***************************************************************************************************/
//   81 
//   82 

        RSEG XDATA_Z:XDATA:NOROOT(0)
        DATA8
//   83 static uint8 HalLedState;              // LED state at last set/clr/blink update
HalLedState:
        DS 1
        REQUIRE __INIT_XDATA_Z
//   84 
//   85 #if HAL_LED == TRUE

        RSEG XDATA_Z:XDATA:NOROOT(0)
        DATA8
//   86 static uint8 HalSleepLedState;         // LED state at last set/clr/blink update
HalSleepLedState:
        DS 1
        REQUIRE __INIT_XDATA_Z

        RSEG XDATA_Z:XDATA:NOROOT(0)
        DATA8
//   87 static uint8 preBlinkState;            // Original State before going to blink mode
preBlinkState:
        DS 1
        REQUIRE __INIT_XDATA_Z
//   88                                        // bit 0, 1, 2, 3 represent led 0, 1, 2, 3
//   89 #endif
//   90 
//   91 #ifdef BLINK_LEDS

        RSEG XDATA_Z:XDATA:NOROOT(0)
        DATA8
//   92   static HalLedStatus_t HalLedStatusControl;
HalLedStatusControl:
        DS 37
        REQUIRE __INIT_XDATA_Z
//   93 #endif
//   94 
//   95 /***************************************************************************************************
//   96  *                                            LOCAL FUNCTION
//   97  ***************************************************************************************************/
//   98 #if (HAL_LED == TRUE)
//   99 void HalLedUpdate (void);
//  100 void HalLedOnOff (uint8 leds, uint8 mode);
//  101 #endif /* HAL_LED */
//  102 
//  103 /***************************************************************************************************
//  104  *                                            FUNCTIONS - API
//  105  ***************************************************************************************************/
//  106 
//  107 /***************************************************************************************************
//  108  * @fn      HalLedInit
//  109  *
//  110  * @brief   Initialize LED Service
//  111  *
//  112  * @param   init - pointer to void that contains the initialized value
//  113  *
//  114  * @return  None
//  115  ***************************************************************************************************/

        RSEG BANKED_CODE:CODE:NOROOT(0)
//  116 void HalLedInit (void)
HalLedInit:
          CFI Block cfiBlock0 Using cfiCommon0
          CFI Function HalLedInit
        CODE
//  117 {
        FUNCALL HalLedInit, HalLedSet
        LOCFRAME ISTACK, 2, STACK
        LOCFRAME PSTACK, 0, STACK
        LOCFRAME XSTACK, 0, STACK
        LOCFRAME IOVERLAY, 0, STATIC
        LOCFRAME DOVERLAY, 0, STATIC
        ARGFRAME ISTACK, 2, STACK
        ARGFRAME PSTACK, 0, STACK
        ARGFRAME XSTACK, 0, STACK
        ARGFRAME IOVERLAY, 0, STATIC
        ARGFRAME DOVERLAY, 0, STATIC
        PUSH    DPL
          CFI DPL0 Frame(CFA_SP, 4)
          CFI CFA_SP SP+-4
        PUSH    DPH
          CFI DPH0 Frame(CFA_SP, 5)
          CFI CFA_SP SP+-5
        ; Saved register size: 2
        ; Auto size: 0
//  118 #if (HAL_LED == TRUE)
//  119   /* Initialize all LEDs to OFF */
//  120   HalLedSet (HAL_LED_ALL, HAL_LED_MODE_OFF);
        ; Setup parameters for call to function HalLedSet
        MOV     R2,#0x0
        MOV     R1,#0xf
        LCALL   ??HalLedSet?relay    ; Banked call to: HalLedSet
        MOV     A,R1
//  121 #endif /* HAL_LED */
//  122 #ifdef BLINK_LEDS
//  123   /* Initialize sleepActive to FALSE */
//  124   HalLedStatusControl.sleepActive = FALSE;
        MOV     DPTR,#HalLedStatusControl + 36
        MOV     A,#0x0
        MOVX    @DPTR,A
//  125 #endif
//  126 }
        POP     DPH
          CFI DPH0 SameValue
          CFI CFA_SP SP+-4
        POP     DPL
          CFI DPL0 SameValue
          CFI CFA_SP SP+-3
        LJMP    ?BRET
          CFI EndBlock cfiBlock0
//  127 
//  128 /***************************************************************************************************
//  129  * @fn      HalLedSet
//  130  *
//  131  * @brief   Tun ON/OFF/TOGGLE given LEDs
//  132  *
//  133  * @param   led - bit mask value of leds to be turned ON/OFF/TOGGLE
//  134  *          mode - BLINK, FLASH, TOGGLE, ON, OFF
//  135  * @return  None
//  136  ***************************************************************************************************/

        RSEG BANKED_CODE:CODE:NOROOT(0)
//  137 uint8 HalLedSet (uint8 leds, uint8 mode)
HalLedSet:
          CFI Block cfiBlock1 Using cfiCommon0
          CFI Function HalLedSet
        CODE
//  138 {
        FUNCALL HalLedSet, HalLedBlink
        LOCFRAME ISTACK, 0, STACK
        LOCFRAME PSTACK, 0, STACK
        LOCFRAME XSTACK, 12, STACK
        LOCFRAME IOVERLAY, 0, STATIC
        LOCFRAME DOVERLAY, 0, STATIC
        ARGFRAME ISTACK, 0, STACK
        ARGFRAME PSTACK, 0, STACK
        ARGFRAME XSTACK, 12, STACK
        ARGFRAME IOVERLAY, 0, STATIC
        ARGFRAME DOVERLAY, 0, STATIC
        FUNCALL HalLedSet, HalLedBlink
        LOCFRAME ISTACK, 0, STACK
        LOCFRAME PSTACK, 0, STACK
        LOCFRAME XSTACK, 12, STACK
        LOCFRAME IOVERLAY, 0, STATIC
        LOCFRAME DOVERLAY, 0, STATIC
        ARGFRAME ISTACK, 0, STACK
        ARGFRAME PSTACK, 0, STACK
        ARGFRAME XSTACK, 12, STACK
        ARGFRAME IOVERLAY, 0, STATIC
        ARGFRAME DOVERLAY, 0, STATIC
        FUNCALL HalLedSet, HalLedOnOff
        LOCFRAME ISTACK, 0, STACK
        LOCFRAME PSTACK, 0, STACK
        LOCFRAME XSTACK, 12, STACK
        LOCFRAME IOVERLAY, 0, STATIC
        LOCFRAME DOVERLAY, 0, STATIC
        ARGFRAME ISTACK, 0, STACK
        ARGFRAME PSTACK, 0, STACK
        ARGFRAME XSTACK, 12, STACK
        ARGFRAME IOVERLAY, 0, STATIC
        ARGFRAME DOVERLAY, 0, STATIC
        REQUIRE ?V0
        REQUIRE ?V2
        REQUIRE ?V3
        MOV     A,#-0xc
        LCALL   ?BANKED_ENTER_XDATA
          CFI DPH0 load(1, XDATA, add(CFA_XSP16, literal(-1)))
          CFI DPL0 load(1, XDATA, add(CFA_XSP16, literal(-2)))
          CFI ?BRET_EXT load(1, XDATA, add(CFA_XSP16, literal(-3)))
          CFI ?RET_HIGH load(1, XDATA, add(CFA_XSP16, literal(-4)))
          CFI ?RET_LOW load(1, XDATA, add(CFA_XSP16, literal(-5)))
          CFI R7 load(1, XDATA, add(CFA_XSP16, literal(-6)))
          CFI V3 load(1, XDATA, add(CFA_XSP16, literal(-7)))
          CFI V2 load(1, XDATA, add(CFA_XSP16, literal(-8)))
          CFI V1 load(1, XDATA, add(CFA_XSP16, literal(-9)))
          CFI V0 load(1, XDATA, add(CFA_XSP16, literal(-10)))
          CFI VB load(1, XDATA, add(CFA_XSP16, literal(-11)))
          CFI R6 load(1, XDATA, add(CFA_XSP16, literal(-12)))
          CFI CFA_SP SP+0
          CFI CFA_XSP16 add(XSP16, 12)
        ; Saved register size: 12
        ; Auto size: 0
        MOV     ?V0,R1
        MOV     A,R2
        MOV     R7,A
//  139 
//  140 #if (defined (BLINK_LEDS)) && (HAL_LED == TRUE)
//  141   uint8 led;
//  142   HalLedControl_t *sts;
//  143 
//  144   switch (mode)
        MOV     A,R7
        JZ      ??HalLedSet_0
        DEC     A
        JZ      ??HalLedSet_0
        DEC     A
        JZ      ??HalLedSet_1
        ADD     A,#-0x2
        JZ      ??HalLedSet_2
        ADD     A,#-0x4
        JZ      ??HalLedSet_0
        SJMP    ??HalLedSet_3
//  145   {
//  146     case HAL_LED_MODE_BLINK:
//  147       /* Default blink, 1 time, D% duty cycle */
//  148       HalLedBlink (leds, 1, HAL_LED_DEFAULT_DUTY_CYCLE, HAL_LED_DEFAULT_FLASH_TIME);
??HalLedSet_1:
        ; Setup parameters for call to function HalLedBlink
        MOV     R4,#-0x18
        MOV     R5,#0x3
        MOV     R3,#0x5
        MOV     R2,#0x1
        MOV     R1,?V0
        LCALL   ??HalLedBlink?relay  ; Banked call to: HalLedBlink
//  149       break;
        SJMP    ??HalLedSet_3
//  150 
//  151     case HAL_LED_MODE_FLASH:
//  152       /* Default flash, N times, D% duty cycle */
//  153       HalLedBlink (leds, HAL_LED_DEFAULT_FLASH_COUNT, HAL_LED_DEFAULT_DUTY_CYCLE, HAL_LED_DEFAULT_FLASH_TIME);
??HalLedSet_2:
        ; Setup parameters for call to function HalLedBlink
        MOV     R4,#-0x18
        MOV     R5,#0x3
        MOV     R3,#0x5
        MOV     R2,#0x32
        MOV     R1,?V0
        LCALL   ??HalLedBlink?relay  ; Banked call to: HalLedBlink
//  154       break;
        SJMP    ??HalLedSet_3
//  155 
//  156     case HAL_LED_MODE_ON:
//  157     case HAL_LED_MODE_OFF:
//  158     case HAL_LED_MODE_TOGGLE:
//  159 
//  160       led = HAL_LED_1;
??HalLedSet_0:
        MOV     R6,#0x1
//  161       leds &= HAL_LED_ALL;
        ANL     ?V0,#0xf
//  162       sts = HalLedStatusControl.HalLedControlTable;
        MOV     ?V2,#HalLedStatusControl & 0xff
        MOV     ?V3,#(HalLedStatusControl >> 8) & 0xff
//  163 
//  164       while (leds)
??HalLedSet_4:
        MOV     A,?V0
        JZ      ??HalLedSet_3
//  165       {
//  166         if (leds & led)
        MOV     A,?V0
        ANL     A,R6
        JZ      ??HalLedSet_5
//  167         {
//  168           if (mode != HAL_LED_MODE_TOGGLE)
        MOV     A,#0x8
        XRL     A,R7
        JZ      ??HalLedSet_6
//  169           {
//  170             sts->mode = mode;  /* ON or OFF */
        MOV     A,R7
        PUSH    A
          CFI CFA_SP SP+-1
        MOV     DPL,?V2
        MOV     DPH,?V3
        POP     A
          CFI CFA_SP SP+0
        MOVX    @DPTR,A
        SJMP    ??HalLedSet_7
//  171           }
//  172           else
//  173           {
//  174             sts->mode ^= HAL_LED_MODE_ON;  /* Toggle */
??HalLedSet_6:
        MOV     DPL,?V2
        MOV     DPH,?V3
        MOVX    A,@DPTR
        XRL     A,#0x1
        MOVX    @DPTR,A
//  175           }
//  176           HalLedOnOff (led, sts->mode);
??HalLedSet_7:
        ; Setup parameters for call to function HalLedOnOff
        MOV     DPL,?V2
        MOV     DPH,?V3
        MOVX    A,@DPTR
        MOV     R2,A
        MOV     A,R6
        MOV     R1,A
        LCALL   ??HalLedOnOff?relay  ; Banked call to: HalLedOnOff
//  177           leds ^= led;
        MOV     A,R6
        XRL     ?V0,A
//  178         }
//  179         led <<= 1;
??HalLedSet_5:
        MOV     A,R6
        CLR     C
        RLC     A
        MOV     R6,A
//  180         sts++;
        MOV     A,?V2
        ADD     A,#0x9
        MOV     ?V2,A
        JNC     ??HalLedSet_4
        INC     ?V3
        SJMP    ??HalLedSet_4
//  181       }
//  182       break;
//  183 
//  184     default:
//  185       break;
//  186   }
//  187 
//  188 #elif (HAL_LED == TRUE)
//  189   LedOnOff(leds, mode);
//  190 #else
//  191   // HAL LED is disabled, suppress unused argument warnings
//  192   (void) leds;
//  193   (void) mode;
//  194 #endif /* BLINK_LEDS && HAL_LED   */
//  195 
//  196   return ( HalLedState );
??HalLedSet_3:
        MOV     DPTR,#HalLedState
        MOVX    A,@DPTR
        MOV     R1,A
        MOV     R7,#0x4
        LJMP    ?BANKED_LEAVE_XDATA
          CFI EndBlock cfiBlock1
//  197 
//  198 }
//  199 
//  200 /***************************************************************************************************
//  201  * @fn      HalLedBlink
//  202  *
//  203  * @brief   Blink the leds
//  204  *
//  205  * @param   leds       - bit mask value of leds to be blinked
//  206  *          numBlinks  - number of blinks
//  207  *          percent    - the percentage in each period where the led
//  208  *                       will be on
//  209  *          period     - length of each cycle in milliseconds
//  210  *
//  211  * @return  None
//  212  ***************************************************************************************************/

        RSEG BANKED_CODE:CODE:NOROOT(0)
//  213 void HalLedBlink (uint8 leds, uint8 numBlinks, uint8 percent, uint16 period)
HalLedBlink:
          CFI Block cfiBlock2 Using cfiCommon0
          CFI Function HalLedBlink
        CODE
//  214 {
        FUNCALL HalLedBlink, osal_GetSystemClock
        LOCFRAME ISTACK, 0, STACK
        LOCFRAME PSTACK, 0, STACK
        LOCFRAME XSTACK, 14, STACK
        LOCFRAME IOVERLAY, 0, STATIC
        LOCFRAME DOVERLAY, 0, STATIC
        ARGFRAME ISTACK, 0, STACK
        ARGFRAME PSTACK, 0, STACK
        ARGFRAME XSTACK, 14, STACK
        ARGFRAME IOVERLAY, 0, STATIC
        ARGFRAME DOVERLAY, 0, STATIC
        FUNCALL HalLedBlink, osal_set_event
        LOCFRAME ISTACK, 0, STACK
        LOCFRAME PSTACK, 0, STACK
        LOCFRAME XSTACK, 14, STACK
        LOCFRAME IOVERLAY, 0, STATIC
        LOCFRAME DOVERLAY, 0, STATIC
        ARGFRAME ISTACK, 0, STACK
        ARGFRAME PSTACK, 0, STACK
        ARGFRAME XSTACK, 14, STACK
        ARGFRAME IOVERLAY, 0, STATIC
        ARGFRAME DOVERLAY, 0, STATIC
        FUNCALL HalLedBlink, HalLedSet
        LOCFRAME ISTACK, 0, STACK
        LOCFRAME PSTACK, 0, STACK
        LOCFRAME XSTACK, 14, STACK
        LOCFRAME IOVERLAY, 0, STATIC
        LOCFRAME DOVERLAY, 0, STATIC
        ARGFRAME ISTACK, 0, STACK
        ARGFRAME PSTACK, 0, STACK
        ARGFRAME XSTACK, 14, STACK
        ARGFRAME IOVERLAY, 0, STATIC
        ARGFRAME DOVERLAY, 0, STATIC
        FUNCALL HalLedBlink, HalLedSet
        LOCFRAME ISTACK, 0, STACK
        LOCFRAME PSTACK, 0, STACK
        LOCFRAME XSTACK, 14, STACK
        LOCFRAME IOVERLAY, 0, STATIC
        LOCFRAME DOVERLAY, 0, STATIC
        ARGFRAME ISTACK, 0, STACK
        ARGFRAME PSTACK, 0, STACK
        ARGFRAME XSTACK, 14, STACK
        ARGFRAME IOVERLAY, 0, STATIC
        ARGFRAME DOVERLAY, 0, STATIC
        REQUIRE ?V0
        REQUIRE ?V1
        REQUIRE ?V2
        REQUIRE ?V3
        REQUIRE ?V4
        REQUIRE ?V5
        MOV     A,#-0xe
        LCALL   ?BANKED_ENTER_XDATA
          CFI DPH0 load(1, XDATA, add(CFA_XSP16, literal(-1)))
          CFI DPL0 load(1, XDATA, add(CFA_XSP16, literal(-2)))
          CFI ?BRET_EXT load(1, XDATA, add(CFA_XSP16, literal(-3)))
          CFI ?RET_HIGH load(1, XDATA, add(CFA_XSP16, literal(-4)))
          CFI ?RET_LOW load(1, XDATA, add(CFA_XSP16, literal(-5)))
          CFI R7 load(1, XDATA, add(CFA_XSP16, literal(-6)))
          CFI V5 load(1, XDATA, add(CFA_XSP16, literal(-7)))
          CFI V4 load(1, XDATA, add(CFA_XSP16, literal(-8)))
          CFI V3 load(1, XDATA, add(CFA_XSP16, literal(-9)))
          CFI V2 load(1, XDATA, add(CFA_XSP16, literal(-10)))
          CFI V1 load(1, XDATA, add(CFA_XSP16, literal(-11)))
          CFI V0 load(1, XDATA, add(CFA_XSP16, literal(-12)))
          CFI VB load(1, XDATA, add(CFA_XSP16, literal(-13)))
          CFI R6 load(1, XDATA, add(CFA_XSP16, literal(-14)))
          CFI CFA_SP SP+0
          CFI CFA_XSP16 add(XSP16, 14)
        ; Saved register size: 14
        ; Auto size: 0
        MOV     ?V0,R1
        MOV     ?V3,R2
        MOV     ?V2,R3
        MOV     ?V4,R4
        MOV     ?V5,R5
//  215 #if (defined (BLINK_LEDS)) && (HAL_LED == TRUE)
//  216   uint8 led;
//  217   HalLedControl_t *sts;
//  218 
//  219   if (leds && percent && period)
        MOV     A,?V0
        JNZ     $+5
        LJMP    ??HalLedBlink_0 & 0xFFFF
        MOV     A,?V2
        JNZ     $+5
        LJMP    ??HalLedBlink_0 & 0xFFFF
        MOV     A,?V4
        ORL     A,?V5
        JNZ     $+5
        LJMP    ??HalLedBlink_0 & 0xFFFF
//  220   {
//  221     if (percent < 100)
        MOV     A,?V2
        CLR     C
        SUBB    A,#0x64
        JC      $+5
        LJMP    ??HalLedBlink_1 & 0xFFFF
//  222     {
//  223       led = HAL_LED_1;
        MOV     ?V1,#0x1
//  224       leds &= HAL_LED_ALL;
        ANL     ?V0,#0xf
//  225       sts = HalLedStatusControl.HalLedControlTable;
        MOV     R6,#HalLedStatusControl & 0xff
        MOV     R7,#(HalLedStatusControl >> 8) & 0xff
//  226 
//  227       while (leds)
??HalLedBlink_2:
        MOV     A,?V0
        JNZ     $+5
        LJMP    ??HalLedBlink_3 & 0xFFFF
//  228       {
//  229         if (leds & led)
        MOV     A,?V0
        ANL     A,?V1
        JZ      ??HalLedBlink_4
//  230         {
//  231           /* Store the current state of the led before going to blinking */
//  232           preBlinkState |= (led & HalLedState);
        MOV     DPTR,#HalLedState
        MOVX    A,@DPTR
        ANL     A,?V1
        MOV     R0,A
        MOV     DPTR,#preBlinkState
        MOVX    A,@DPTR
        ORL     A,R0
        MOVX    @DPTR,A
//  233 
//  234           sts->mode  = HAL_LED_MODE_OFF;                    /* Stop previous blink */
        MOV     DPL,R6
        MOV     DPH,R7
        MOV     A,#0x0
        MOVX    @DPTR,A
//  235           sts->time  = period;                              /* Time for one on/off cycle */
        MOV     DPL,R6
        MOV     DPH,R7
        INC     DPTR
        INC     DPTR
        INC     DPTR
        MOV     A,?V4
        MOVX    @DPTR,A
        INC     DPTR
        MOV     A,?V5
        MOVX    @DPTR,A
//  236           sts->onPct = percent;                             /* % of cycle LED is on */
        MOV     A,?V2
        PUSH    A
          CFI CFA_SP SP+-1
        MOV     DPL,R6
        MOV     DPH,R7
        INC     DPTR
        INC     DPTR
        POP     A
          CFI CFA_SP SP+0
        MOVX    @DPTR,A
//  237           sts->todo  = numBlinks;                           /* Number of blink cycles */
        MOV     A,?V3
        PUSH    A
          CFI CFA_SP SP+-1
        MOV     DPL,R6
        MOV     DPH,R7
        INC     DPTR
        POP     A
          CFI CFA_SP SP+0
        MOVX    @DPTR,A
//  238           if (!numBlinks) sts->mode |= HAL_LED_MODE_FLASH;  /* Continuous */
        MOV     A,?V3
        JNZ     ??HalLedBlink_5
        MOV     DPL,R6
        MOV     DPH,R7
        MOVX    A,@DPTR
        SETB    0xE0 /* A   */.2
        MOVX    @DPTR,A
//  239           sts->next = osal_GetSystemClock();                /* Start now */
??HalLedBlink_5:
        ; Setup parameters for call to function osal_GetSystemClock
        LCALL   ??osal_GetSystemClock?relay; Banked call to: osal_GetSystemClock
        MOV     A,R2
        MOV     R0,A
        MOV     A,R3
        MOV     R1,A
        MOV     A,R4
        MOV     R2,A
        MOV     A,R5
        MOV     R3,A
        MOV     DPL,R6
        MOV     DPH,R7
        INC     DPTR
        INC     DPTR
        INC     DPTR
        INC     DPTR
        INC     DPTR
        LCALL   ?XSTORE_R0123
//  240           sts->mode |= HAL_LED_MODE_BLINK;                  /* Enable blinking */
        MOV     DPL,R6
        MOV     DPH,R7
        MOVX    A,@DPTR
        SETB    0xE0 /* A   */.1
        MOVX    @DPTR,A
//  241           leds ^= led;
        MOV     A,?V1
        XRL     ?V0,A
//  242         }
//  243         led <<= 1;
??HalLedBlink_4:
        MOV     A,?V1
        CLR     C
        RLC     A
        MOV     ?V1,A
//  244         sts++;
        MOV     A,R6
        ADD     A,#0x9
        MOV     R6,A
        JC      $+5
        LJMP    ??HalLedBlink_2 & 0xFFFF
        INC     R7
        LJMP    ??HalLedBlink_2 & 0xFFFF
//  245       }
//  246       osal_set_event (Hal_TaskID, HAL_LED_BLINK_EVENT);
??HalLedBlink_3:
        ; Setup parameters for call to function osal_set_event
        MOV     R2,#0x2
        MOV     R3,#0x0
        MOV     DPTR,#Hal_TaskID
        MOVX    A,@DPTR
        MOV     R1,A
        LCALL   ??osal_set_event?relay; Banked call to: osal_set_event
        MOV     A,R1
        SJMP    ??HalLedBlink_6
//  247     }
//  248     else
//  249     {
//  250       HalLedSet (leds, HAL_LED_MODE_ON);                    /* >= 100%, turn on */
??HalLedBlink_1:
        ; Setup parameters for call to function HalLedSet
        MOV     R2,#0x1
        MOV     R1,?V0
        LCALL   ??HalLedSet?relay    ; Banked call to: HalLedSet
        MOV     A,R1
        SJMP    ??HalLedBlink_6
//  251     }
//  252   }
//  253   else
//  254   {
//  255     HalLedSet (leds, HAL_LED_MODE_OFF);                     /* No on time, turn off */
??HalLedBlink_0:
        ; Setup parameters for call to function HalLedSet
        MOV     R2,#0x0
        MOV     R1,?V0
        LCALL   ??HalLedSet?relay    ; Banked call to: HalLedSet
        MOV     A,R1
//  256   }
//  257 #elif (HAL_LED == TRUE)
//  258   percent = (leds & HalLedState) ? HAL_LED_MODE_OFF : HAL_LED_MODE_ON;
//  259   HalLedOnOff (leds, percent);                              /* Toggle */
//  260 #else
//  261   // HAL LED is disabled, suppress unused argument warnings
//  262   (void) leds;
//  263   (void) numBlinks;
//  264   (void) percent;
//  265   (void) period;
//  266 #endif /* BLINK_LEDS && HAL_LED */
//  267 }
??HalLedBlink_6:
        MOV     R7,#0x6
        LJMP    ?BANKED_LEAVE_XDATA
          CFI EndBlock cfiBlock2
//  268 
//  269 #if (HAL_LED == TRUE)
//  270 /***************************************************************************************************
//  271  * @fn      HalLedUpdate
//  272  *
//  273  * @brief   Update leds to work with blink
//  274  *
//  275  * @param   none
//  276  *
//  277  * @return  none
//  278  ***************************************************************************************************/

        RSEG BANKED_CODE:CODE:NOROOT(0)
//  279 void HalLedUpdate (void)
HalLedUpdate:
          CFI Block cfiBlock3 Using cfiCommon0
          CFI Function HalLedUpdate
        CODE
//  280 {
        FUNCALL HalLedUpdate, osal_GetSystemClock
        LOCFRAME ISTACK, 0, STACK
        LOCFRAME PSTACK, 0, STACK
        LOCFRAME XSTACK, 27, STACK
        LOCFRAME IOVERLAY, 0, STATIC
        LOCFRAME DOVERLAY, 0, STATIC
        ARGFRAME ISTACK, 0, STACK
        ARGFRAME PSTACK, 0, STACK
        ARGFRAME XSTACK, 27, STACK
        ARGFRAME IOVERLAY, 0, STATIC
        ARGFRAME DOVERLAY, 0, STATIC
        FUNCALL HalLedUpdate, HalLedOnOff
        LOCFRAME ISTACK, 0, STACK
        LOCFRAME PSTACK, 0, STACK
        LOCFRAME XSTACK, 27, STACK
        LOCFRAME IOVERLAY, 0, STATIC
        LOCFRAME DOVERLAY, 0, STATIC
        ARGFRAME ISTACK, 0, STACK
        ARGFRAME PSTACK, 0, STACK
        ARGFRAME XSTACK, 27, STACK
        ARGFRAME IOVERLAY, 0, STATIC
        ARGFRAME DOVERLAY, 0, STATIC
        FUNCALL HalLedUpdate, HalLedOnOff
        LOCFRAME ISTACK, 0, STACK
        LOCFRAME PSTACK, 0, STACK
        LOCFRAME XSTACK, 27, STACK
        LOCFRAME IOVERLAY, 0, STATIC
        LOCFRAME DOVERLAY, 0, STATIC
        ARGFRAME ISTACK, 0, STACK
        ARGFRAME PSTACK, 0, STACK
        ARGFRAME XSTACK, 27, STACK
        ARGFRAME IOVERLAY, 0, STATIC
        ARGFRAME DOVERLAY, 0, STATIC
        FUNCALL HalLedUpdate, HalLedSet
        LOCFRAME ISTACK, 0, STACK
        LOCFRAME PSTACK, 0, STACK
        LOCFRAME XSTACK, 27, STACK
        LOCFRAME IOVERLAY, 0, STATIC
        LOCFRAME DOVERLAY, 0, STATIC
        ARGFRAME ISTACK, 0, STACK
        ARGFRAME PSTACK, 0, STACK
        ARGFRAME XSTACK, 27, STACK
        ARGFRAME IOVERLAY, 0, STATIC
        ARGFRAME DOVERLAY, 0, STATIC
        FUNCALL HalLedUpdate, osal_start_timerEx
        LOCFRAME ISTACK, 0, STACK
        LOCFRAME PSTACK, 0, STACK
        LOCFRAME XSTACK, 27, STACK
        LOCFRAME IOVERLAY, 0, STATIC
        LOCFRAME DOVERLAY, 0, STATIC
        ARGFRAME ISTACK, 0, STACK
        ARGFRAME PSTACK, 0, STACK
        ARGFRAME XSTACK, 27, STACK
        ARGFRAME IOVERLAY, 0, STATIC
        ARGFRAME DOVERLAY, 0, STATIC
        REQUIRE ?V0
        REQUIRE ?V1
        REQUIRE ?V2
        REQUIRE ?V3
        REQUIRE ?V4
        REQUIRE ?V5
        REQUIRE ?V6
        REQUIRE ?V7
        MOV     A,#-0x10
        LCALL   ?BANKED_ENTER_XDATA
          CFI DPH0 load(1, XDATA, add(CFA_XSP16, literal(-1)))
          CFI DPL0 load(1, XDATA, add(CFA_XSP16, literal(-2)))
          CFI ?BRET_EXT load(1, XDATA, add(CFA_XSP16, literal(-3)))
          CFI ?RET_HIGH load(1, XDATA, add(CFA_XSP16, literal(-4)))
          CFI ?RET_LOW load(1, XDATA, add(CFA_XSP16, literal(-5)))
          CFI R7 load(1, XDATA, add(CFA_XSP16, literal(-6)))
          CFI V7 load(1, XDATA, add(CFA_XSP16, literal(-7)))
          CFI V6 load(1, XDATA, add(CFA_XSP16, literal(-8)))
          CFI V5 load(1, XDATA, add(CFA_XSP16, literal(-9)))
          CFI V4 load(1, XDATA, add(CFA_XSP16, literal(-10)))
          CFI V3 load(1, XDATA, add(CFA_XSP16, literal(-11)))
          CFI V2 load(1, XDATA, add(CFA_XSP16, literal(-12)))
          CFI V1 load(1, XDATA, add(CFA_XSP16, literal(-13)))
          CFI V0 load(1, XDATA, add(CFA_XSP16, literal(-14)))
          CFI VB load(1, XDATA, add(CFA_XSP16, literal(-15)))
          CFI R6 load(1, XDATA, add(CFA_XSP16, literal(-16)))
          CFI CFA_SP SP+0
          CFI CFA_XSP16 add(XSP16, 16)
        ; Saved register size: 16
        ; Auto size: 11
        MOV     A,#-0xb
        LCALL   ?ALLOC_XSTACK8
          CFI CFA_XSP16 add(XSP16, 27)
//  281   uint8 led;
//  282   uint8 pct;
//  283   uint8 leds;
//  284   HalLedControl_t *sts;
//  285   uint32 time;
//  286   uint16 next;
//  287   uint16 wait;
//  288 
//  289   next = 0;
        MOV     A,#0x5
        LCALL   ?XSTACK_DISP0_8
        MOV     A,#0x0
        MOVX    @DPTR,A
        INC     DPTR
        MOV     A,#0x0
        MOVX    @DPTR,A
//  290   led  = HAL_LED_1;
        MOV     DPL,?XSP + 0
        MOV     DPH,?XSP + 1
        MOV     A,#0x1
        MOVX    @DPTR,A
//  291   leds = HAL_LED_ALL;
        MOV     A,#0x1
        LCALL   ?XSTACK_DISP0_8
        MOV     A,#0xf
        MOVX    @DPTR,A
//  292   sts = HalLedStatusControl.HalLedControlTable;
        MOV     R6,#HalLedStatusControl & 0xff
        MOV     R7,#(HalLedStatusControl >> 8) & 0xff
//  293 
//  294   /* Check if sleep is active or not */
//  295   if (!HalLedStatusControl.sleepActive)
        MOV     DPTR,#HalLedStatusControl + 36
        MOVX    A,@DPTR
        JZ      $+5
        LJMP    ??HalLedUpdate_0 & 0xFFFF
//  296   {
//  297     while (leds)
??HalLedUpdate_1:
        MOV     A,#0x1
        LCALL   ?XSTACK_DISP0_8
        MOVX    A,@DPTR
        JNZ     $+5
        LJMP    ??HalLedUpdate_2 & 0xFFFF
//  298     {
//  299       if (leds & led)
        MOV     DPL,?XSP + 0
        MOV     DPH,?XSP + 1
        MOVX    A,@DPTR
        MOV     R0,A
        MOV     A,#0x1
        LCALL   ?XSTACK_DISP0_8
        MOVX    A,@DPTR
        ANL     A,R0
        JNZ     $+5
        LJMP    ??HalLedUpdate_3 & 0xFFFF
//  300       {
//  301         if (sts->mode & HAL_LED_MODE_BLINK)
        MOV     DPL,R6
        MOV     DPH,R7
        MOVX    A,@DPTR
        MOV     C,0xE0 /* A   */.1
        JC      $+5
        LJMP    ??HalLedUpdate_4 & 0xFFFF
//  302         {
//  303           time = osal_GetSystemClock();
        ; Setup parameters for call to function osal_GetSystemClock
        LCALL   ??osal_GetSystemClock?relay; Banked call to: osal_GetSystemClock
        MOV     A,R2
        MOV     R0,A
        MOV     A,R3
        MOV     R1,A
        MOV     A,R4
        MOV     R2,A
        MOV     A,R5
        MOV     R3,A
        MOV     A,#0x7
        LCALL   ?XSTACK_DISP0_8
        LCALL   ?XSTORE_R0123
//  304           if (time >= sts->next)
        MOV     DPL,R6
        MOV     DPH,R7
        INC     DPTR
        INC     DPTR
        INC     DPTR
        INC     DPTR
        INC     DPTR
        MOV     R0,#?V0
        LCALL   ?L_MOV_X
        MOV     A,#0x7
        LCALL   ?XSTACK_DISP0_8
        MOV     R0,#?V0
        LCALL   ?UL_GT_X
        JNC     $+5
        LJMP    ??HalLedUpdate_5 & 0xFFFF
//  305           {
//  306             if (sts->mode & HAL_LED_MODE_ON)
        MOV     DPL,R6
        MOV     DPH,R7
        MOVX    A,@DPTR
        MOV     C,0xE0 /* A   */.0
        JNC     ??HalLedUpdate_6
//  307             {
//  308               pct = 100 - sts->onPct;               /* Percentage of cycle for off */
        MOV     DPL,R6
        MOV     DPH,R7
        INC     DPTR
        INC     DPTR
        MOVX    A,@DPTR
        MOV     R0,A
        MOV     A,#0x64
        CLR     C
        SUBB    A,R0
        PUSH    A
          CFI CFA_SP SP+-1
        MOV     A,#0x4
        LCALL   ?XSTACK_DISP0_8
        POP     A
          CFI CFA_SP SP+0
        MOVX    @DPTR,A
//  309               sts->mode &= ~HAL_LED_MODE_ON;        /* Say it's not on */
        MOV     DPL,R6
        MOV     DPH,R7
        MOVX    A,@DPTR
        CLR     0xE0 /* A   */.0
        MOVX    @DPTR,A
//  310               HalLedOnOff (led, HAL_LED_MODE_OFF);  /* Turn it off */
        ; Setup parameters for call to function HalLedOnOff
        MOV     R2,#0x0
        MOV     DPL,?XSP + 0
        MOV     DPH,?XSP + 1
        MOVX    A,@DPTR
        MOV     R1,A
        LCALL   ??HalLedOnOff?relay  ; Banked call to: HalLedOnOff
//  311 
//  312               if (!(sts->mode & HAL_LED_MODE_FLASH))
        MOV     DPL,R6
        MOV     DPH,R7
        MOVX    A,@DPTR
        MOV     C,0xE0 /* A   */.2
        JC      ??HalLedUpdate_7
//  313               {
//  314                 sts->todo--;                        /* Not continuous, reduce count */
        MOV     DPL,R6
        MOV     DPH,R7
        INC     DPTR
        MOVX    A,@DPTR
        ADD     A,#-0x1
        MOVX    @DPTR,A
//  315                 if (!sts->todo)
        MOV     DPL,R6
        MOV     DPH,R7
        INC     DPTR
        MOVX    A,@DPTR
        JNZ     ??HalLedUpdate_7
//  316                 {
//  317                   sts->mode ^= HAL_LED_MODE_BLINK;  /* No more blinks */
        MOV     DPL,R6
        MOV     DPH,R7
        MOVX    A,@DPTR
        XRL     A,#0x2
        MOVX    @DPTR,A
        SJMP    ??HalLedUpdate_7
//  318                 }
//  319               }
//  320             }
//  321             else
//  322             {
//  323               pct = sts->onPct;                     /* Percentage of cycle for on */
??HalLedUpdate_6:
        MOV     DPL,R6
        MOV     DPH,R7
        INC     DPTR
        INC     DPTR
        MOVX    A,@DPTR
        PUSH    A
          CFI CFA_SP SP+-1
        MOV     A,#0x4
        LCALL   ?XSTACK_DISP0_8
        POP     A
          CFI CFA_SP SP+0
        MOVX    @DPTR,A
//  324               sts->mode |= HAL_LED_MODE_ON;         /* Say it's on */
        MOV     DPL,R6
        MOV     DPH,R7
        MOVX    A,@DPTR
        SETB    0xE0 /* A   */.0
        MOVX    @DPTR,A
//  325               HalLedOnOff (led, HAL_LED_MODE_ON);   /* Turn it on */
        ; Setup parameters for call to function HalLedOnOff
        MOV     R2,#0x1
        MOV     DPL,?XSP + 0
        MOV     DPH,?XSP + 1
        MOVX    A,@DPTR
        MOV     R1,A
        LCALL   ??HalLedOnOff?relay  ; Banked call to: HalLedOnOff
//  326             }
//  327 
//  328             if (sts->mode & HAL_LED_MODE_BLINK)
??HalLedUpdate_7:
        MOV     DPL,R6
        MOV     DPH,R7
        MOVX    A,@DPTR
        MOV     C,0xE0 /* A   */.1
        JNC     ??HalLedUpdate_8
//  329             {
//  330               wait = (((uint32)pct * (uint32)sts->time) / 100);
        MOV     A,#0x4
        LCALL   ?XSTACK_DISP0_8
        MOVX    A,@DPTR
        MOV     ?V0,A
        CLR     A
        MOV     ?V1,A
        MOV     ?V2,A
        MOV     ?V3,A
        MOV     DPL,R6
        MOV     DPH,R7
        INC     DPTR
        INC     DPTR
        INC     DPTR
        MOVX    A,@DPTR
        MOV     ?V4,A
        INC     DPTR
        MOVX    A,@DPTR
        MOV     ?V5,A
        CLR     A
        MOV     ?V6,A
        MOV     ?V7,A
        MOV     R0,#?V0
        MOV     R1,#?V4
        LCALL   ?L_MUL
        MOV     DPTR,#__Constant_64
        MOV     R0,#?V4
        LCALL   ?L_MOV_X
        MOV     R0,#?V0
        MOV     R1,#?V4
        LCALL   ?UL_DIV_MOD
        MOV     A,#0x2
        LCALL   ?XSTACK_DISP0_8
        MOV     A,?V0
        MOVX    @DPTR,A
        INC     DPTR
        MOV     A,?V1
        MOVX    @DPTR,A
//  331               sts->next = time + wait;
        MOV     A,#0x7
        LCALL   ?XSTACK_DISP0_8
        PUSH    DPL
          CFI CFA_SP SP+-1
        PUSH    DPH
          CFI CFA_SP SP+-2
        MOV     A,#0x2
        LCALL   ?XSTACK_DISP0_8
        MOVX    A,@DPTR
        MOV     ?V0,A
        INC     DPTR
        MOVX    A,@DPTR
        MOV     ?V1,A
        CLR     A
        MOV     ?V2,A
        MOV     ?V3,A
        POP     DPH
          CFI CFA_SP SP+-1
        POP     DPL
          CFI CFA_SP SP+0
        MOV     R0,#?V0
        LCALL   ?L_ADD_X
        MOV     DPL,R6
        MOV     DPH,R7
        INC     DPTR
        INC     DPTR
        INC     DPTR
        INC     DPTR
        INC     DPTR
        MOV     R0,#?V0
        LCALL   ?L_MOV_TO_X
        SJMP    ??HalLedUpdate_9
//  332             }
//  333             else
//  334             {
//  335               /* no more blink, no more wait */
//  336               wait = 0;
??HalLedUpdate_8:
        MOV     A,#0x2
        LCALL   ?XSTACK_DISP0_8
        MOV     A,#0x0
        MOVX    @DPTR,A
        INC     DPTR
        MOV     A,#0x0
        MOVX    @DPTR,A
//  337               /* After blinking, set the LED back to the state before it blinks */
//  338               HalLedSet (led, ((preBlinkState & led)!=0)?HAL_LED_MODE_ON:HAL_LED_MODE_OFF);
        MOV     DPL,?XSP + 0
        MOV     DPH,?XSP + 1
        MOVX    A,@DPTR
        MOV     R0,A
        MOV     DPTR,#preBlinkState
        MOVX    A,@DPTR
        ANL     A,R0
        JZ      ??HalLedUpdate_10
        MOV     R2,#0x1
        SJMP    ??HalLedUpdate_11
??HalLedUpdate_10:
        MOV     R2,#0x0
??HalLedUpdate_11:
        ; Setup parameters for call to function HalLedSet
        MOV     DPL,?XSP + 0
        MOV     DPH,?XSP + 1
        MOVX    A,@DPTR
        MOV     R1,A
        LCALL   ??HalLedSet?relay    ; Banked call to: HalLedSet
        MOV     A,R1
//  339               /* Clear the saved bit */
//  340               preBlinkState &= (led ^ 0xFF);
        MOV     DPL,?XSP + 0
        MOV     DPH,?XSP + 1
        MOVX    A,@DPTR
        XRL     A,#0xff
        MOV     R0,A
        MOV     DPTR,#preBlinkState
        MOVX    A,@DPTR
        ANL     A,R0
        MOVX    @DPTR,A
        SJMP    ??HalLedUpdate_9
//  341             }
//  342           }
//  343           else
//  344           {
//  345             wait = sts->next - time;  /* Time left */
??HalLedUpdate_5:
        MOV     DPL,R6
        MOV     DPH,R7
        INC     DPTR
        INC     DPTR
        INC     DPTR
        INC     DPTR
        INC     DPTR
        MOV     R0,#?V4
        LCALL   ?L_MOV_X
        MOV     A,#0x7
        LCALL   ?XSTACK_DISP0_8
        MOV     R0,#?V0
        LCALL   ?L_MOV_X
        MOV     A,?V4
        CLR     C
        SUBB    A,?V0
        MOV     R0,A
        MOV     A,?V5
        SUBB    A,?V1
        MOV     R1,A
        MOV     A,#0x2
        LCALL   ?XSTACK_DISP0_8
        MOV     A,R0
        MOVX    @DPTR,A
        INC     DPTR
        MOV     A,R1
        MOVX    @DPTR,A
//  346           }
//  347 
//  348           if (!next || ( wait && (wait < next) ))
??HalLedUpdate_9:
        MOV     A,#0x5
        LCALL   ?XSTACK_DISP0_8
        MOVX    A,@DPTR
        MOV     R0,A
        INC     DPTR
        MOVX    A,@DPTR
        MOV     R1,A
        MOV     A,R0
        ORL     A,R1
        JZ      ??HalLedUpdate_12
        MOV     A,#0x2
        LCALL   ?XSTACK_DISP0_8
        MOVX    A,@DPTR
        MOV     R0,A
        INC     DPTR
        MOVX    A,@DPTR
        MOV     R1,A
        MOV     A,R0
        ORL     A,R1
        JZ      ??HalLedUpdate_4
        MOV     A,#0x2
        LCALL   ?XSTACK_DISP0_8
        PUSH    DPL
          CFI CFA_SP SP+-1
        PUSH    DPH
          CFI CFA_SP SP+-2
        MOV     A,#0x5
        LCALL   ?XSTACK_DISP0_8
        MOVX    A,@DPTR
        MOV     R0,A
        INC     DPTR
        MOVX    A,@DPTR
        MOV     R1,A
        POP     DPH
          CFI CFA_SP SP+-1
        POP     DPL
          CFI CFA_SP SP+0
        CLR     C
        MOVX    A,@DPTR
        SUBB    A,R0
        INC     DPTR
        MOVX    A,@DPTR
        SUBB    A,R1
        JNC     ??HalLedUpdate_4
//  349           {
//  350             next = wait;
??HalLedUpdate_12:
        MOV     A,#0x2
        LCALL   ?XSTACK_DISP0_8
        MOVX    A,@DPTR
        MOV     R0,A
        INC     DPTR
        MOVX    A,@DPTR
        MOV     R1,A
        MOV     A,#0x5
        LCALL   ?XSTACK_DISP0_8
        MOV     A,R0
        MOVX    @DPTR,A
        INC     DPTR
        MOV     A,R1
        MOVX    @DPTR,A
//  351           }
//  352         }
//  353         leds ^= led;
??HalLedUpdate_4:
        MOV     DPL,?XSP + 0
        MOV     DPH,?XSP + 1
        MOVX    A,@DPTR
        MOV     R0,A
        MOV     A,#0x1
        LCALL   ?XSTACK_DISP0_8
        MOVX    A,@DPTR
        XRL     A,R0
        MOVX    @DPTR,A
//  354       }
//  355       led <<= 1;
??HalLedUpdate_3:
        MOV     DPL,?XSP + 0
        MOV     DPH,?XSP + 1
        MOVX    A,@DPTR
        CLR     C
        RLC     A
        PUSH    A
          CFI CFA_SP SP+-1
        MOV     DPL,?XSP + 0
        MOV     DPH,?XSP + 1
        POP     A
          CFI CFA_SP SP+0
        MOVX    @DPTR,A
//  356       sts++;
        MOV     A,R6
        ADD     A,#0x9
        MOV     R6,A
        JNC     ??HalLedUpdate_13
        INC     R7
??HalLedUpdate_13:
        LJMP    ??HalLedUpdate_1 & 0xFFFF
//  357     }
//  358 
//  359     if (next)
??HalLedUpdate_2:
        MOV     A,#0x5
        LCALL   ?XSTACK_DISP0_8
        MOVX    A,@DPTR
        MOV     R0,A
        INC     DPTR
        MOVX    A,@DPTR
        MOV     R1,A
        MOV     A,R0
        ORL     A,R1
        JZ      ??HalLedUpdate_0
//  360     {
//  361       osal_start_timerEx(Hal_TaskID, HAL_LED_BLINK_EVENT, next);   /* Schedule event */
        ; Setup parameters for call to function osal_start_timerEx
        MOV     A,#0x5
        LCALL   ?XSTACK_DISP0_8
        MOVX    A,@DPTR
        MOV     R4,A
        INC     DPTR
        MOVX    A,@DPTR
        MOV     R5,A
        MOV     R2,#0x2
        MOV     R3,#0x0
        MOV     DPTR,#Hal_TaskID
        MOVX    A,@DPTR
        MOV     R1,A
        LCALL   ??osal_start_timerEx?relay; Banked call to: osal_start_timerEx
        MOV     A,R1
//  362     }
//  363   }
//  364 }
??HalLedUpdate_0:
        MOV     A,#0xb
        LCALL   ?DEALLOC_XSTACK8
          CFI CFA_XSP16 add(XSP16, 16)
        MOV     R7,#0x8
        LJMP    ?BANKED_LEAVE_XDATA
          CFI EndBlock cfiBlock3
//  365 
//  366 /***************************************************************************************************
//  367  * @fn      HalLedOnOff
//  368  *
//  369  * @brief   Turns specified LED ON or OFF
//  370  *
//  371  * @param   leds - LED bit mask
//  372  *          mode - LED_ON,LED_OFF,
//  373  *
//  374  * @return  none
//  375  ***************************************************************************************************/

        RSEG BANKED_CODE:CODE:NOROOT(0)
//  376 void HalLedOnOff (uint8 leds, uint8 mode)
HalLedOnOff:
          CFI Block cfiBlock4 Using cfiCommon0
          CFI Function HalLedOnOff
        CODE
//  377 {
        PUSH    DPL
          CFI DPL0 Frame(CFA_SP, 4)
          CFI CFA_SP SP+-4
        PUSH    DPH
          CFI DPH0 Frame(CFA_SP, 5)
          CFI CFA_SP SP+-5
        ; Saved register size: 2
        ; Auto size: 0
//  378   if (leds & HAL_LED_1)
        MOV     A,R1
        MOV     C,0xE0 /* A   */.0
        JNC     ??HalLedOnOff_0
//  379   {
//  380     if (mode == HAL_LED_MODE_ON)
        MOV     A,#0x1
        XRL     A,R2
        JNZ     ??HalLedOnOff_1
//  381     {
//  382       HAL_TURN_ON_LED1();
        CLR     0x90.0
        SJMP    ??HalLedOnOff_0
//  383     }
//  384     else
//  385     {
//  386       HAL_TURN_OFF_LED1();
??HalLedOnOff_1:
        SETB    0x90.0
//  387     }
//  388   }
//  389 
//  390   if (leds & HAL_LED_2)
??HalLedOnOff_0:
        MOV     A,R1
        MOV     C,0xE0 /* A   */.1
        JNC     ??HalLedOnOff_2
//  391   {
//  392     if (mode == HAL_LED_MODE_ON)
        MOV     A,#0x1
        XRL     A,R2
        JNZ     ??HalLedOnOff_3
//  393     {
//  394       HAL_TURN_ON_LED2();
        CLR     0x90.1
        SJMP    ??HalLedOnOff_2
//  395     }
//  396     else
//  397     {
//  398       HAL_TURN_OFF_LED2();
??HalLedOnOff_3:
        SETB    0x90.1
//  399     }
//  400   }
//  401 
//  402   if (leds & HAL_LED_3)
??HalLedOnOff_2:
        MOV     A,R1
        MOV     C,0xE0 /* A   */.2
        JNC     ??HalLedOnOff_4
//  403   {
//  404 #ifndef GreenHouse
//  405     if (mode == HAL_LED_MODE_ON)
        MOV     A,#0x1
        XRL     A,R2
        JNZ     ??HalLedOnOff_5
//  406     {
//  407       HAL_TURN_ON_LED3();
        CLR     0x90.2
        SJMP    ??HalLedOnOff_4
//  408     }
//  409     else
//  410     {
//  411       HAL_TURN_OFF_LED3();
??HalLedOnOff_5:
        SETB    0x90.2
//  412     }
//  413 #endif
//  414   }
//  415 
//  416   if (leds & HAL_LED_4)
??HalLedOnOff_4:
        MOV     A,R1
        MOV     C,0xE0 /* A   */.3
        JNC     ??HalLedOnOff_6
//  417   {
//  418     if (mode == HAL_LED_MODE_ON)
        MOV     A,#0x1
        XRL     A,R2
        JNZ     ??HalLedOnOff_7
//  419     {
//  420       HAL_TURN_ON_LED4();
        CLR     0xa0.0
        SJMP    ??HalLedOnOff_6
//  421     }
//  422     else
//  423     {
//  424       HAL_TURN_OFF_LED4();
??HalLedOnOff_7:
        SETB    0xa0.0
//  425     }
//  426   }
//  427 
//  428   /* Remember current state */
//  429   if (mode)
??HalLedOnOff_6:
        MOV     A,R2
        JZ      ??HalLedOnOff_8
//  430   {
//  431     HalLedState |= leds;
        MOV     DPTR,#HalLedState
        MOVX    A,@DPTR
        ORL     A,R1
        MOVX    @DPTR,A
        SJMP    ??HalLedOnOff_9
//  432   }
//  433   else
//  434   {
//  435     HalLedState &= (leds ^ 0xFF);
??HalLedOnOff_8:
        MOV     A,#-0x1
        XRL     A,R1
        MOV     R0,A
        MOV     DPTR,#HalLedState
        MOVX    A,@DPTR
        ANL     A,R0
        MOVX    @DPTR,A
//  436   }
//  437 }
??HalLedOnOff_9:
        POP     DPH
          CFI DPH0 SameValue
          CFI CFA_SP SP+-4
        POP     DPL
          CFI DPL0 SameValue
          CFI CFA_SP SP+-3
        LJMP    ?BRET
          CFI EndBlock cfiBlock4
        REQUIRE _A_P1
        REQUIRE _A_P2
//  438 #endif /* HAL_LED */
//  439 
//  440 /***************************************************************************************************
//  441  * @fn      HalGetLedState
//  442  *
//  443  * @brief   Dim LED2 - Dim (set level) of LED2
//  444  *
//  445  * @param   none
//  446  *
//  447  * @return  led state
//  448  ***************************************************************************************************/

        RSEG BANKED_CODE:CODE:NOROOT(0)
//  449 uint8 HalLedGetState ()
HalLedGetState:
          CFI Block cfiBlock5 Using cfiCommon0
          CFI Function HalLedGetState
        CODE
//  450 {
        PUSH    DPL
          CFI DPL0 Frame(CFA_SP, 4)
          CFI CFA_SP SP+-4
        PUSH    DPH
          CFI DPH0 Frame(CFA_SP, 5)
          CFI CFA_SP SP+-5
        ; Saved register size: 2
        ; Auto size: 0
//  451 #if (HAL_LED == TRUE)
//  452   return HalLedState;
        MOV     DPTR,#HalLedState
        MOVX    A,@DPTR
        MOV     R1,A
        POP     DPH
          CFI DPH0 SameValue
          CFI CFA_SP SP+-4
        POP     DPL
          CFI DPL0 SameValue
          CFI CFA_SP SP+-3
        LJMP    ?BRET
          CFI EndBlock cfiBlock5
//  453 #else
//  454   return 0;
//  455 #endif
//  456 }
//  457 
//  458 /***************************************************************************************************
//  459  * @fn      HalLedEnterSleep
//  460  *
//  461  * @brief   Store current LEDs state before sleep
//  462  *
//  463  * @param   none
//  464  *
//  465  * @return  none
//  466  ***************************************************************************************************/

        RSEG BANKED_CODE:CODE:NOROOT(0)
//  467 void HalLedEnterSleep( void )
HalLedEnterSleep:
          CFI Block cfiBlock6 Using cfiCommon0
          CFI Function HalLedEnterSleep
        CODE
//  468 {
        FUNCALL HalLedEnterSleep, HalLedOnOff
        LOCFRAME ISTACK, 2, STACK
        LOCFRAME PSTACK, 0, STACK
        LOCFRAME XSTACK, 0, STACK
        LOCFRAME IOVERLAY, 0, STATIC
        LOCFRAME DOVERLAY, 0, STATIC
        ARGFRAME ISTACK, 2, STACK
        ARGFRAME PSTACK, 0, STACK
        ARGFRAME XSTACK, 0, STACK
        ARGFRAME IOVERLAY, 0, STATIC
        ARGFRAME DOVERLAY, 0, STATIC
        PUSH    DPL
          CFI DPL0 Frame(CFA_SP, 4)
          CFI CFA_SP SP+-4
        PUSH    DPH
          CFI DPH0 Frame(CFA_SP, 5)
          CFI CFA_SP SP+-5
        ; Saved register size: 2
        ; Auto size: 0
//  469 #ifdef BLINK_LEDS
//  470   /* Sleep ON */
//  471   HalLedStatusControl.sleepActive = TRUE;
        MOV     DPTR,#HalLedStatusControl + 36
        MOV     A,#0x1
        MOVX    @DPTR,A
//  472 #endif /* BLINK_LEDS */
//  473 
//  474 #if (HAL_LED == TRUE)
//  475   /* Save the state of each led */
//  476   HalSleepLedState = 0;
        MOV     DPTR,#HalSleepLedState
        MOV     A,#0x0
        MOVX    @DPTR,A
//  477   HalSleepLedState |= HAL_STATE_LED1();
        SETB    B.0
        MOV     C,0x90.0
        JNB     B.0,??HalLedEnterSleep_0
        CPL     C
??HalLedEnterSleep_0:
        CLR     A
        RLC     A
        MOV     R0,A
        MOV     DPTR,#HalSleepLedState
        MOVX    A,@DPTR
        ORL     A,R0
        MOVX    @DPTR,A
//  478   HalSleepLedState |= HAL_STATE_LED2() << 1;
        SETB    B.0
        MOV     C,0x90.1
        JNB     B.0,??HalLedEnterSleep_1
        CPL     C
??HalLedEnterSleep_1:
        CLR     A
        RLC     A
        CLR     C
        RLC     A
        MOV     R0,A
        MOV     DPTR,#HalSleepLedState
        MOVX    A,@DPTR
        ORL     A,R0
        MOVX    @DPTR,A
//  479   HalSleepLedState |= HAL_STATE_LED3() << 2;
        SETB    B.0
        MOV     C,0x90.2
        JNB     B.0,??HalLedEnterSleep_2
        CPL     C
??HalLedEnterSleep_2:
        CLR     A
        RLC     A
        RLC     A
        RLC     A
        ANL     A,#0xfc
        MOV     R0,A
        MOV     DPTR,#HalSleepLedState
        MOVX    A,@DPTR
        ORL     A,R0
        MOVX    @DPTR,A
//  480   HalSleepLedState |= HAL_STATE_LED4() << 3;
        SETB    B.0
        MOV     C,0xa0.0
        JNB     B.0,??HalLedEnterSleep_3
        CPL     C
??HalLedEnterSleep_3:
        CLR     A
        RLC     A
        RLC     A
        RLC     A
        RLC     A
        ANL     A,#0xf8
        MOV     R0,A
        MOV     DPTR,#HalSleepLedState
        MOVX    A,@DPTR
        ORL     A,R0
        MOVX    @DPTR,A
//  481 
//  482   /* TURN OFF all LEDs to save power */
//  483   HalLedOnOff (HAL_LED_ALL, HAL_LED_MODE_OFF);
        ; Setup parameters for call to function HalLedOnOff
        MOV     R2,#0x0
        MOV     R1,#0xf
        LCALL   ??HalLedOnOff?relay  ; Banked call to: HalLedOnOff
//  484 #endif /* HAL_LED */
//  485 
//  486 }
        POP     DPH
          CFI DPH0 SameValue
          CFI CFA_SP SP+-4
        POP     DPL
          CFI DPL0 SameValue
          CFI CFA_SP SP+-3
        LJMP    ?BRET
          CFI EndBlock cfiBlock6
        REQUIRE _A_P1
        REQUIRE _A_P2
//  487 
//  488 /***************************************************************************************************
//  489  * @fn      HalLedExitSleep
//  490  *
//  491  * @brief   Restore current LEDs state after sleep
//  492  *
//  493  * @param   none
//  494  *
//  495  * @return  none
//  496  ***************************************************************************************************/

        RSEG BANKED_CODE:CODE:NOROOT(0)
//  497 void HalLedExitSleep( void )
HalLedExitSleep:
          CFI Block cfiBlock7 Using cfiCommon0
          CFI Function HalLedExitSleep
        CODE
//  498 {
        FUNCALL HalLedExitSleep, HalLedOnOff
        LOCFRAME ISTACK, 2, STACK
        LOCFRAME PSTACK, 0, STACK
        LOCFRAME XSTACK, 0, STACK
        LOCFRAME IOVERLAY, 0, STATIC
        LOCFRAME DOVERLAY, 0, STATIC
        ARGFRAME ISTACK, 2, STACK
        ARGFRAME PSTACK, 0, STACK
        ARGFRAME XSTACK, 0, STACK
        ARGFRAME IOVERLAY, 0, STATIC
        ARGFRAME DOVERLAY, 0, STATIC
        FUNCALL HalLedExitSleep, HalLedUpdate
        LOCFRAME ISTACK, 2, STACK
        LOCFRAME PSTACK, 0, STACK
        LOCFRAME XSTACK, 0, STACK
        LOCFRAME IOVERLAY, 0, STATIC
        LOCFRAME DOVERLAY, 0, STATIC
        ARGFRAME ISTACK, 2, STACK
        ARGFRAME PSTACK, 0, STACK
        ARGFRAME XSTACK, 0, STACK
        ARGFRAME IOVERLAY, 0, STATIC
        ARGFRAME DOVERLAY, 0, STATIC
        PUSH    DPL
          CFI DPL0 Frame(CFA_SP, 4)
          CFI CFA_SP SP+-4
        PUSH    DPH
          CFI DPH0 Frame(CFA_SP, 5)
          CFI CFA_SP SP+-5
        ; Saved register size: 2
        ; Auto size: 0
//  499 #if (HAL_LED == TRUE)
//  500   /* Load back the saved state */
//  501   HalLedOnOff(HalSleepLedState, HAL_LED_MODE_ON);
        ; Setup parameters for call to function HalLedOnOff
        MOV     R2,#0x1
        MOV     DPTR,#HalSleepLedState
        MOVX    A,@DPTR
        MOV     R1,A
        LCALL   ??HalLedOnOff?relay  ; Banked call to: HalLedOnOff
//  502 
//  503   /* Restart - This takes care BLINKING LEDS */
//  504   HalLedUpdate();
        ; Setup parameters for call to function HalLedUpdate
        LCALL   ??HalLedUpdate?relay ; Banked call to: HalLedUpdate
//  505 #endif /* HAL_LED */
//  506 
//  507 #ifdef BLINK_LEDS
//  508   /* Sleep OFF */
//  509   HalLedStatusControl.sleepActive = FALSE;
        MOV     DPTR,#HalLedStatusControl + 36
        MOV     A,#0x0
        MOVX    @DPTR,A
//  510 #endif /* BLINK_LEDS */
//  511 }
        POP     DPH
          CFI DPH0 SameValue
          CFI CFA_SP SP+-4
        POP     DPL
          CFI DPL0 SameValue
          CFI CFA_SP SP+-3
        LJMP    ?BRET
          CFI EndBlock cfiBlock7

        RSEG XDATA_ROM_C:CONST:REORDER:NOROOT(0)
        DATA32
__Constant_64:
        DD 100

        RSEG BANK_RELAYS:CODE:REORDER:NOROOT(0)
??HalLedInit?relay:
        CODE
        LCALL   ?BDISPATCH
        DATA24
        DC24    HalLedInit

        RSEG BANK_RELAYS:CODE:REORDER:NOROOT(0)
??HalLedSet?relay:
        CODE
        LCALL   ?BDISPATCH
        DATA24
        DC24    HalLedSet

        RSEG BANK_RELAYS:CODE:REORDER:NOROOT(0)
??HalLedBlink?relay:
        CODE
        LCALL   ?BDISPATCH
        DATA24
        DC24    HalLedBlink

        RSEG BANK_RELAYS:CODE:REORDER:NOROOT(0)
??HalLedUpdate?relay:
        CODE
        LCALL   ?BDISPATCH
        DATA24
        DC24    HalLedUpdate

        RSEG BANK_RELAYS:CODE:REORDER:NOROOT(0)
??HalLedOnOff?relay:
        CODE
        LCALL   ?BDISPATCH
        DATA24
        DC24    HalLedOnOff

        RSEG BANK_RELAYS:CODE:REORDER:NOROOT(0)
??HalLedGetState?relay:
        CODE
        LCALL   ?BDISPATCH
        DATA24
        DC24    HalLedGetState

        RSEG BANK_RELAYS:CODE:REORDER:NOROOT(0)
??HalLedEnterSleep?relay:
        CODE
        LCALL   ?BDISPATCH
        DATA24
        DC24    HalLedEnterSleep

        RSEG BANK_RELAYS:CODE:REORDER:NOROOT(0)
??HalLedExitSleep?relay:
        CODE
        LCALL   ?BDISPATCH
        DATA24
        DC24    HalLedExitSleep

        END
//  512 
//  513 /***************************************************************************************************
//  514 ***************************************************************************************************/
//  515 
//  516 
//  517 
//  518 
// 
// 1 336 bytes in segment BANKED_CODE
//    48 bytes in segment BANK_RELAYS
//     2 bytes in segment SFR_AN
//     4 bytes in segment XDATA_ROM_C
//    40 bytes in segment XDATA_Z
// 
// 1 384 bytes of CODE  memory
//     0 bytes of CONST memory (+ 4 bytes shared)
//     0 bytes of DATA  memory (+ 2 bytes shared)
//    40 bytes of XDATA memory
//
//Errors: none
//Warnings: none
