///////////////////////////////////////////////////////////////////////////////
//
// IAR C/C++ Compiler V9.10.1.2146 for 8051               07/Jul/2023  16:40:39
// Copyright 2004-2014 IAR Systems AB.
// Standalone license - IAR Embedded Workbench for 8051
//
//    Core               =  plain
//    Code model         =  banked
//    Data model         =  large
//    Calling convention =  xdata reentrant
//    Constant location  =  data_rom
//    Dptr setup         =  1,16
//                          
//    Source file        =  
//        I:\1_git_code\EPnode_OTA\CC2530
//        IAP\CC2530_stack\zstack-2.4.0-1.4.0x\Components\mac\low_level\srf04\mac_rx.c
//    Command line       =  
//        -f "I:\1_git_code\EPnode_OTA\CC2530
//        IAP\CC2530_stack\zstack-2.4.0-1.4.0x\Projects\zstack\Samples\CC2530-Serial(IAP)\CC2530DB\..\..\..\Tools\CC2530DB\f8wRouter.cfg"
//        (-DCPU32MHZ -DROOT=__near_func -DMAC_CFG_APP_PENDING_QUEUE=TRUE
//        -DMAC_CFG_TX_DATA_MAX=5 -DMAC_CFG_TX_MAX=8 -DMAC_CFG_RX_MAX=5
//        -DRTR_NWK) -f "I:\1_git_code\EPnode_OTA\CC2530
//        IAP\CC2530_stack\zstack-2.4.0-1.4.0x\Projects\zstack\Samples\CC2530-Serial(IAP)\CC2530DB\..\..\..\Tools\CC2530DB\f8wConfig.cfg"
//        (-DZIGBEEPRO -DSECURE=0 -DZG_SECURE_DYNAMIC=0 -DREFLECTOR
//        -DDEFAULT_CHANLIST=0x00000800 -DZDAPP_CONFIG_PAN_ID=8448
//        -DNWK_START_DELAY=100 -DEXTENDED_JOINING_RANDOM_MASK=0x007F
//        -DBEACON_REQUEST_DELAY=100 -DBEACON_REQ_DELAY_MASK=0x00FF
//        -DLINK_STATUS_JITTER_MASK=0x007F -DROUTE_EXPIRY_TIME=30
//        -DAPSC_ACK_WAIT_DURATION_POLLED=3000 -DNWK_INDIRECT_MSG_TIMEOUT=7
//        -DMAX_RREQ_ENTRIES=8 -DAPSC_MAX_FRAME_RETRIES=3
//        -DNWK_MAX_DATA_RETRIES=2 -DMAX_POLL_FAILURE_RETRIES=2 -DMAX_BCAST=9
//        -DAPS_MAX_GROUPS=16 -DMAX_RTG_ENTRIES=40 -DNWK_MAX_BINDING_ENTRIES=4
//        -DMAX_BINDING_CLUSTER_IDS=4 "-DDEFAULT_KEY={0x01, 0x03, 0x05, 0x07,
//        0x09, 0x0B, 0x0D, 0x0F, 0x00, 0x02, 0x04, 0x06, 0x08, 0x0A, 0x0C,
//        0x0D}" -DMAC_MAX_FRAME_SIZE=116 -DZDNWKMGR_MIN_TRANSMISSIONS=20
//        "-DCONST=const __code" -DGENERIC=__generic -DRFD_RCVC_ALWAYS_ON=TRUE
//        -DPOLL_RATE=1000 -DQUEUED_POLL_RATE=100 -DRESPONSE_POLL_RATE=100)
//        -DREJOIN_POLL_RATE=440 "I:\1_git_code\EPnode_OTA\CC2530
//        IAP\CC2530_stack\zstack-2.4.0-1.4.0x\Components\mac\low_level\srf04\mac_rx.c"
//        -D HOLD_AUTO_START -D BUILD_ALL_DEVICES -D REFLECTOR -D NV_INIT -D
//        XLAB -D CC2530_Serial -D MAKE_CRC_SHDW -D CC2530_USE_IAP -lC
//        "I:\1_git_code\EPnode_OTA\CC2530
//        IAP\CC2530_stack\zstack-2.4.0-1.4.0x\Projects\zstack\Samples\CC2530-Serial(IAP)\CC2530DB\CC2530-Serial\List\"
//        -lA "I:\1_git_code\EPnode_OTA\CC2530
//        IAP\CC2530_stack\zstack-2.4.0-1.4.0x\Projects\zstack\Samples\CC2530-Serial(IAP)\CC2530DB\CC2530-Serial\List\"
//        --diag_suppress Pe001,Pa010 -o "I:\1_git_code\EPnode_OTA\CC2530
//        IAP\CC2530_stack\zstack-2.4.0-1.4.0x\Projects\zstack\Samples\CC2530-Serial(IAP)\CC2530DB\CC2530-Serial\Obj\"
//        -e --no_cse --no_unroll --no_inline --no_code_motion --no_tbaa
//        --debug --core=plain --dptr=16,1 --data_model=large
//        --code_model=banked --calling_convention=xdata_reentrant
//        --place_constants=data_rom --nr_virtual_regs 8 -I
//        "I:\1_git_code\EPnode_OTA\CC2530
//        IAP\CC2530_stack\zstack-2.4.0-1.4.0x\Projects\zstack\Samples\CC2530-Serial(IAP)\CC2530DB\"
//        -I "I:\1_git_code\EPnode_OTA\CC2530
//        IAP\CC2530_stack\zstack-2.4.0-1.4.0x\Projects\zstack\Samples\CC2530-Serial(IAP)\CC2530DB\..\Source\"
//        -I "I:\1_git_code\EPnode_OTA\CC2530
//        IAP\CC2530_stack\zstack-2.4.0-1.4.0x\Projects\zstack\Samples\CC2530-Serial(IAP)\CC2530DB\..\..\common\"
//        -I "I:\1_git_code\EPnode_OTA\CC2530
//        IAP\CC2530_stack\zstack-2.4.0-1.4.0x\Projects\zstack\Samples\CC2530-Serial(IAP)\CC2530DB\..\..\..\ZMain\TI2530DB\"
//        -I "I:\1_git_code\EPnode_OTA\CC2530
//        IAP\CC2530_stack\zstack-2.4.0-1.4.0x\Projects\zstack\Samples\CC2530-Serial(IAP)\CC2530DB\..\..\..\..\..\Components\hal\include\"
//        -I "I:\1_git_code\EPnode_OTA\CC2530
//        IAP\CC2530_stack\zstack-2.4.0-1.4.0x\Projects\zstack\Samples\CC2530-Serial(IAP)\CC2530DB\..\..\..\..\..\Components\hal\target\CC2530EB\"
//        -I "I:\1_git_code\EPnode_OTA\CC2530
//        IAP\CC2530_stack\zstack-2.4.0-1.4.0x\Projects\zstack\Samples\CC2530-Serial(IAP)\CC2530DB\..\..\..\..\..\Components\mac\include\"
//        -I "I:\1_git_code\EPnode_OTA\CC2530
//        IAP\CC2530_stack\zstack-2.4.0-1.4.0x\Projects\zstack\Samples\CC2530-Serial(IAP)\CC2530DB\..\..\..\..\..\Components\mac\high_level\"
//        -I "I:\1_git_code\EPnode_OTA\CC2530
//        IAP\CC2530_stack\zstack-2.4.0-1.4.0x\Projects\zstack\Samples\CC2530-Serial(IAP)\CC2530DB\..\..\..\..\..\Components\mac\low_level\srf04\"
//        -I "I:\1_git_code\EPnode_OTA\CC2530
//        IAP\CC2530_stack\zstack-2.4.0-1.4.0x\Projects\zstack\Samples\CC2530-Serial(IAP)\CC2530DB\..\..\..\..\..\Components\mac\low_level\srf04\single_chip\"
//        -I "I:\1_git_code\EPnode_OTA\CC2530
//        IAP\CC2530_stack\zstack-2.4.0-1.4.0x\Projects\zstack\Samples\CC2530-Serial(IAP)\CC2530DB\..\..\..\..\..\Components\mt\"
//        -I "I:\1_git_code\EPnode_OTA\CC2530
//        IAP\CC2530_stack\zstack-2.4.0-1.4.0x\Projects\zstack\Samples\CC2530-Serial(IAP)\CC2530DB\..\..\..\..\..\Components\osal\include\"
//        -I "I:\1_git_code\EPnode_OTA\CC2530
//        IAP\CC2530_stack\zstack-2.4.0-1.4.0x\Projects\zstack\Samples\CC2530-Serial(IAP)\CC2530DB\..\..\..\..\..\Components\osal\mcu\ccsoc\"
//        -I "I:\1_git_code\EPnode_OTA\CC2530
//        IAP\CC2530_stack\zstack-2.4.0-1.4.0x\Projects\zstack\Samples\CC2530-Serial(IAP)\CC2530DB\..\..\..\..\..\Components\services\saddr\"
//        -I "I:\1_git_code\EPnode_OTA\CC2530
//        IAP\CC2530_stack\zstack-2.4.0-1.4.0x\Projects\zstack\Samples\CC2530-Serial(IAP)\CC2530DB\..\..\..\..\..\Components\services\sdata\"
//        -I "I:\1_git_code\EPnode_OTA\CC2530
//        IAP\CC2530_stack\zstack-2.4.0-1.4.0x\Projects\zstack\Samples\CC2530-Serial(IAP)\CC2530DB\..\..\..\..\..\Components\stack\af\"
//        -I "I:\1_git_code\EPnode_OTA\CC2530
//        IAP\CC2530_stack\zstack-2.4.0-1.4.0x\Projects\zstack\Samples\CC2530-Serial(IAP)\CC2530DB\..\..\..\..\..\Components\stack\nwk\"
//        -I "I:\1_git_code\EPnode_OTA\CC2530
//        IAP\CC2530_stack\zstack-2.4.0-1.4.0x\Projects\zstack\Samples\CC2530-Serial(IAP)\CC2530DB\..\..\..\..\..\Components\stack\sapi\"
//        -I "I:\1_git_code\EPnode_OTA\CC2530
//        IAP\CC2530_stack\zstack-2.4.0-1.4.0x\Projects\zstack\Samples\CC2530-Serial(IAP)\CC2530DB\..\..\..\..\..\Components\stack\sec\"
//        -I "I:\1_git_code\EPnode_OTA\CC2530
//        IAP\CC2530_stack\zstack-2.4.0-1.4.0x\Projects\zstack\Samples\CC2530-Serial(IAP)\CC2530DB\..\..\..\..\..\Components\stack\sys\"
//        -I "I:\1_git_code\EPnode_OTA\CC2530
//        IAP\CC2530_stack\zstack-2.4.0-1.4.0x\Projects\zstack\Samples\CC2530-Serial(IAP)\CC2530DB\..\..\..\..\..\Components\stack\zdo\"
//        -I "I:\1_git_code\EPnode_OTA\CC2530
//        IAP\CC2530_stack\zstack-2.4.0-1.4.0x\Projects\zstack\Samples\CC2530-Serial(IAP)\CC2530DB\..\..\..\..\..\Components\zmac\"
//        -I "I:\1_git_code\EPnode_OTA\CC2530
//        IAP\CC2530_stack\zstack-2.4.0-1.4.0x\Projects\zstack\Samples\CC2530-Serial(IAP)\CC2530DB\..\..\..\..\..\Components\zmac\f8w\"
//        -On
//    List file          =  
//        I:\1_git_code\EPnode_OTA\CC2530
//        IAP\CC2530_stack\zstack-2.4.0-1.4.0x\Projects\zstack\Samples\CC2530-Serial(IAP)\CC2530DB\CC2530-Serial\List\mac_rx.s51
//
///////////////////////////////////////////////////////////////////////////////

        NAME mac_rx

        RTMODEL "__SystemLibrary", "CLib"
        RTMODEL "__calling_convention", "xdata_reentrant"
        RTMODEL "__code_model", "banked"
        RTMODEL "__core", "plain"
        RTMODEL "__data_model", "large"
        RTMODEL "__dptr_size", "16"
        RTMODEL "__extended_stack", "disabled"
        RTMODEL "__location_for_constants", "data"
        RTMODEL "__number_of_dptrs", "1"
        RTMODEL "__rt_version", "1"

        RSEG DOVERLAY:DATA:NOROOT(0)
        RSEG IOVERLAY:IDATA:NOROOT(0)
        RSEG ISTACK:IDATA:NOROOT(0)
        RSEG PSTACK:XDATA:NOROOT(0)
        RSEG XSTACK:XDATA:NOROOT(0)

        EXTERN ?V0
        EXTERN ?V1
        EXTERN ?V2
        EXTERN ?V3
        EXTERN ?V4
        EXTERN ?V5
        EXTERN ?V6
        EXTERN ?V7
        EXTERN ?ALLOC_XSTACK8
        EXTERN ?BANKED_ENTER_XDATA
        EXTERN ?BANKED_LEAVE_XDATA
        EXTERN ?BDISPATCH
        EXTERN ?BRET
        EXTERN ?CALL_IND
        EXTERN ?DEALLOC_XSTACK8
        EXTERN ?L_MOV_TO_X
        EXTERN ?XSP
        EXTERN ?XSTACK_DISP0_8
        EXTERN __INIT_XDATA_Z

        PUBLIC ??macRxAckTxDoneCallback?relay
        FUNCTION ??macRxAckTxDoneCallback?relay,0203H
        PUBLIC ??macRxFifoOverflowIsr?relay
        FUNCTION ??macRxFifoOverflowIsr?relay,0203H
        PUBLIC ??macRxHaltCleanup?relay
        FUNCTION ??macRxHaltCleanup?relay,0203H
        PUBLIC ??macRxInit?relay
        FUNCTION ??macRxInit?relay,0203H
        PUBLIC ??macRxPromiscuousMode?relay
        FUNCTION ??macRxPromiscuousMode?relay,0203H
        PUBLIC ??macRxRadioPowerUpInit?relay
        FUNCTION ??macRxRadioPowerUpInit?relay,0203H
        PUBLIC ??macRxThresholdIsr?relay
        FUNCTION ??macRxThresholdIsr?relay,0203H
        PUBLIC ??macRxTxReset?relay
        FUNCTION ??macRxTxReset?relay,0203H
        FUNCTION ??rxAddrIsr?relay,0203H
        FUNCTION ??rxDiscardFrame?relay,0203H
        FUNCTION ??rxDiscardIsr?relay,0203H
        FUNCTION ??rxDone?relay,0203H
        FUNCTION ??rxFcsIsr?relay,0203H
        FUNCTION ??rxHaltCleanupFinalStep?relay,0203H
        FUNCTION ??rxPayloadIsr?relay,0203H
        FUNCTION ??rxPostRxUpdates?relay,0203H
        FUNCTION ??rxPrepPayload?relay,0203H
        FUNCTION ??rxStartIsr?relay,0203H
        PUBWEAK RFIRQF0
        PUBWEAK RFIRQF1
        PUBWEAK RFST
        PUBWEAK S1CON
        PUBWEAK _A_IEN0
        PUBLIC macRxAckTxDoneCallback
        FUNCTION macRxAckTxDoneCallback,021203H
        ARGFRAME XSTACK, 0, STACK
        LOCFRAME ISTACK, 2, STACK
        PUBLIC macRxActive
        PUBLIC macRxFifoOverflowIsr
        FUNCTION macRxFifoOverflowIsr,021203H
        ARGFRAME XSTACK, 0, STACK
        LOCFRAME ISTACK, 2, STACK
        PUBLIC macRxFilter
        PUBLIC macRxHaltCleanup
        FUNCTION macRxHaltCleanup,021203H
        ARGFRAME XSTACK, 0, STACK
        ARGFRAME IOVERLAY, 0, STATIC
        ARGFRAME DOVERLAY, 0, STATIC
        LOCFRAME ISTACK, 2, STACK
        PUBLIC macRxInit
        FUNCTION macRxInit,0203H
        ARGFRAME XSTACK, 0, STACK
        LOCFRAME ISTACK, 2, STACK
        PUBLIC macRxOutgoingAckFlag
        PUBLIC macRxPromiscuousMode
        FUNCTION macRxPromiscuousMode,021203H
        ARGFRAME XSTACK, 0, STACK
        ARGFRAME IOVERLAY, 0, STATIC
        ARGFRAME DOVERLAY, 0, STATIC
        LOCFRAME XSTACK, 9, STACK
        PUBLIC macRxRadioPowerUpInit
        FUNCTION macRxRadioPowerUpInit,0203H
        ARGFRAME XSTACK, 0, STACK
        LOCFRAME ISTACK, 2, STACK
        PUBLIC macRxThresholdIsr
        FUNCTION macRxThresholdIsr,021203H
        ARGFRAME XSTACK, 0, STACK
        LOCFRAME ISTACK, 2, STACK
        PUBLIC macRxTxReset
        FUNCTION macRxTxReset,021203H
        ARGFRAME XSTACK, 0, STACK
        LOCFRAME ISTACK, 2, STACK
        FUNCTION rxAddrIsr,0a1603H
        ARGFRAME XSTACK, 0, STACK
        LOCFRAME XSTACK, 32, STACK
        FUNCTION rxDiscardFrame,021203H
        ARGFRAME XSTACK, 19, STACK
        ARGFRAME IOVERLAY, 0, STATIC
        ARGFRAME DOVERLAY, 0, STATIC
        LOCFRAME ISTACK, 2, STACK
        FUNCTION rxDiscardIsr,021603H
        ARGFRAME XSTACK, 0, STACK
        LOCFRAME ISTACK, 2, STACK
        LOCFRAME XSTACK, 16, STACK
        FUNCTION rxDone,021203H
        ARGFRAME XSTACK, 19, STACK
        ARGFRAME IOVERLAY, 0, STATIC
        ARGFRAME DOVERLAY, 0, STATIC
        LOCFRAME ISTACK, 2, STACK
        FUNCTION rxFcsIsr,0a1603H
        ARGFRAME XSTACK, 0, STACK
        LOCFRAME ISTACK, 1, STACK
        LOCFRAME XSTACK, 10, STACK
        FUNCTION rxHaltCleanupFinalStep,021203H
        ARGFRAME XSTACK, 0, STACK
        ARGFRAME IOVERLAY, 0, STATIC
        ARGFRAME DOVERLAY, 0, STATIC
        LOCFRAME XSTACK, 9, STACK
        FUNCTION rxPayloadIsr,021603H
        ARGFRAME XSTACK, 0, STACK
        LOCFRAME ISTACK, 2, STACK
        FUNCTION rxPostRxUpdates,021203H
        ARGFRAME XSTACK, 19, STACK
        ARGFRAME IOVERLAY, 0, STATIC
        ARGFRAME DOVERLAY, 0, STATIC
        LOCFRAME ISTACK, 2, STACK
        FUNCTION rxPrepPayload,0203H
        ARGFRAME XSTACK, 32, STACK
        ARGFRAME IOVERLAY, 0, STATIC
        ARGFRAME DOVERLAY, 0, STATIC
        LOCFRAME ISTACK, 2, STACK
        FUNCTION rxStartIsr,0a1603H
        ARGFRAME XSTACK, 0, STACK
        LOCFRAME ISTACK, 1, STACK
        LOCFRAME XSTACK, 19, STACK
        
          CFI Names cfiNames0
          CFI StackFrame CFA_SP SP IDATA
          CFI StackFrame CFA_PSP16 PSP16 XDATA
          CFI StackFrame CFA_XSP16 XSP16 XDATA
          CFI StaticOverlayFrame CFA_IOVERLAY IOVERLAY
          CFI StaticOverlayFrame CFA_DOVERLAY DOVERLAY
          CFI Resource `PSW.CY`:1, `B.BR0`:1, `B.BR1`:1, `B.BR2`:1, `B.BR3`:1
          CFI Resource `B.BR4`:1, `B.BR5`:1, `B.BR6`:1, `B.BR7`:1, `VB.BR8`:1
          CFI Resource `VB.BR9`:1, `VB.BR10`:1, `VB.BR11`:1, `VB.BR12`:1
          CFI Resource `VB.BR13`:1, `VB.BR14`:1, `VB.BR15`:1, VB:8, B:8, A:8
          CFI Resource PSW:8, DPL0:8, DPH0:8, R0:8, R1:8, R2:8, R3:8, R4:8, R5:8
          CFI Resource R6:8, R7:8, V0:8, V1:8, V2:8, V3:8, V4:8, V5:8, V6:8, V7:8
          CFI Resource SP:8, PSPH:8, PSPL:8, PSP16:16, XSPH:8, XSPL:8, XSP16:16
          CFI VirtualResource ?RET:24
          CFI Resource ?BRET_EXT:8
          CFI VirtualResource ?RET_HIGH:8, ?RET_LOW:8
          CFI ResourceParts PSP16 PSPH, PSPL
          CFI ResourceParts XSP16 XSPH, XSPL
          CFI ResourceParts ?RET ?BRET_EXT, ?RET_HIGH, ?RET_LOW
          CFI EndNames cfiNames0
        
          CFI Common cfiCommon0 Using cfiNames0
          CFI CodeAlign 1
          CFI DataAlign -1
          CFI ReturnAddress ?RET CODE
          CFI CFA_DOVERLAY Used
          CFI CFA_IOVERLAY Used
          CFI CFA_SP SP+-3
          CFI CFA_PSP16 PSP16+0
          CFI CFA_XSP16 XSP16+0
          CFI `PSW.CY` SameValue
          CFI `B.BR0` SameValue
          CFI `B.BR1` SameValue
          CFI `B.BR2` SameValue
          CFI `B.BR3` SameValue
          CFI `B.BR4` SameValue
          CFI `B.BR5` SameValue
          CFI `B.BR6` SameValue
          CFI `B.BR7` SameValue
          CFI `VB.BR8` SameValue
          CFI `VB.BR9` SameValue
          CFI `VB.BR10` SameValue
          CFI `VB.BR11` SameValue
          CFI `VB.BR12` SameValue
          CFI `VB.BR13` SameValue
          CFI `VB.BR14` SameValue
          CFI `VB.BR15` SameValue
          CFI VB SameValue
          CFI B Undefined
          CFI A Undefined
          CFI PSW SameValue
          CFI DPL0 SameValue
          CFI DPH0 SameValue
          CFI R0 Undefined
          CFI R1 Undefined
          CFI R2 Undefined
          CFI R3 Undefined
          CFI R4 Undefined
          CFI R5 Undefined
          CFI R6 SameValue
          CFI R7 SameValue
          CFI V0 SameValue
          CFI V1 SameValue
          CFI V2 SameValue
          CFI V3 SameValue
          CFI V4 SameValue
          CFI V5 SameValue
          CFI V6 SameValue
          CFI V7 SameValue
          CFI PSPH Undefined
          CFI PSPL Undefined
          CFI XSPH Undefined
          CFI XSPL Undefined
          CFI ?RET Concat
          CFI ?BRET_EXT Frame(CFA_SP, 3)
          CFI ?RET_HIGH Frame(CFA_SP, 2)
          CFI ?RET_LOW Frame(CFA_SP, 1)
          CFI EndCommon cfiCommon0
        
MAC_SrcMatchCheckAllPending SYMBOL "MAC_SrcMatchCheckAllPending"
??MAC_SrcMatchCheckAllPending?relay SYMBOL "?relay", MAC_SrcMatchCheckAllPending
MAC_SrcMatchCheckResult SYMBOL "MAC_SrcMatchCheckResult"
??MAC_SrcMatchCheckResult?relay SYMBOL "?relay", MAC_SrcMatchCheckResult
halAssertHandler    SYMBOL "halAssertHandler"
??halAssertHandler?relay SYMBOL "?relay", halAssertHandler
macCspForceTxDoneIfPending SYMBOL "macCspForceTxDoneIfPending"
??macCspForceTxDoneIfPending?relay SYMBOL "?relay", macCspForceTxDoneIfPending
macDataRxMemAlloc   SYMBOL "macDataRxMemAlloc"
??macDataRxMemAlloc?relay SYMBOL "?relay", macDataRxMemAlloc
macDataRxMemFree    SYMBOL "macDataRxMemFree"
??macDataRxMemFree?relay SYMBOL "?relay", macDataRxMemFree
macMcuOverflowCapture SYMBOL "macMcuOverflowCapture"
??macMcuOverflowCapture?relay SYMBOL "?relay", macMcuOverflowCapture
macMcuTimerCapture  SYMBOL "macMcuTimerCapture"
??macMcuTimerCapture?relay SYMBOL "?relay", macMcuTimerCapture
macMemReadRxFifo    SYMBOL "macMemReadRxFifo"
??macMemReadRxFifo?relay SYMBOL "?relay", macMemReadRxFifo
macRadioComputeLQI  SYMBOL "macRadioComputeLQI"
??macRadioComputeLQI?relay SYMBOL "?relay", macRadioComputeLQI
macRadioUpdateTxPower SYMBOL "macRadioUpdateTxPower"
??macRadioUpdateTxPower?relay SYMBOL "?relay", macRadioUpdateTxPower
macRxCheckMACPendingCallback SYMBOL "macRxCheckMACPendingCallback"
??macRxCheckMACPendingCallback?relay SYMBOL "?relay", macRxCheckMACPendingCallback
macRxCheckPendingCallback SYMBOL "macRxCheckPendingCallback"
??macRxCheckPendingCallback?relay SYMBOL "?relay", macRxCheckPendingCallback
macRxCompleteCallback SYMBOL "macRxCompleteCallback"
??macRxCompleteCallback?relay SYMBOL "?relay", macRxCompleteCallback
macRxHardDisable    SYMBOL "macRxHardDisable"
??macRxHardDisable?relay SYMBOL "?relay", macRxHardDisable
macRxOffRequest     SYMBOL "macRxOffRequest"
??macRxOffRequest?relay SYMBOL "?relay", macRxOffRequest
macTxAckNotReceivedCallback SYMBOL "macTxAckNotReceivedCallback"
??macTxAckNotReceivedCallback?relay SYMBOL "?relay", macTxAckNotReceivedCallback
macTxAckReceivedCallback SYMBOL "macTxAckReceivedCallback"
??macTxAckReceivedCallback?relay SYMBOL "?relay", macTxAckReceivedCallback
macTxStartQueuedFrame SYMBOL "macTxStartQueuedFrame"
??macTxStartQueuedFrame?relay SYMBOL "?relay", macTxStartQueuedFrame
sAddrExtCpy         SYMBOL "sAddrExtCpy"
??sAddrExtCpy?relay SYMBOL "?relay", sAddrExtCpy
macRxAckTxDoneCallback SYMBOL "macRxAckTxDoneCallback"
??macRxAckTxDoneCallback?relay SYMBOL "?relay", macRxAckTxDoneCallback
macRxFifoOverflowIsr SYMBOL "macRxFifoOverflowIsr"
??macRxFifoOverflowIsr?relay SYMBOL "?relay", macRxFifoOverflowIsr
macRxHaltCleanup    SYMBOL "macRxHaltCleanup"
??macRxHaltCleanup?relay SYMBOL "?relay", macRxHaltCleanup
macRxInit           SYMBOL "macRxInit"
??macRxInit?relay   SYMBOL "?relay", macRxInit
macRxPromiscuousMode SYMBOL "macRxPromiscuousMode"
??macRxPromiscuousMode?relay SYMBOL "?relay", macRxPromiscuousMode
macRxRadioPowerUpInit SYMBOL "macRxRadioPowerUpInit"
??macRxRadioPowerUpInit?relay SYMBOL "?relay", macRxRadioPowerUpInit
macRxThresholdIsr   SYMBOL "macRxThresholdIsr"
??macRxThresholdIsr?relay SYMBOL "?relay", macRxThresholdIsr
macRxTxReset        SYMBOL "macRxTxReset"
??macRxTxReset?relay SYMBOL "?relay", macRxTxReset

        EXTERN ??MAC_SrcMatchCheckAllPending?relay
        FUNCTION ??MAC_SrcMatchCheckAllPending?relay,00H
        EXTERN ??MAC_SrcMatchCheckResult?relay
        FUNCTION ??MAC_SrcMatchCheckResult?relay,00H
        EXTERN ??halAssertHandler?relay
        FUNCTION ??halAssertHandler?relay,00H
        EXTERN ??macCspForceTxDoneIfPending?relay
        FUNCTION ??macCspForceTxDoneIfPending?relay,00H
        EXTERN ??macDataRxMemAlloc?relay
        FUNCTION ??macDataRxMemAlloc?relay,00H
        EXTERN ??macDataRxMemFree?relay
        FUNCTION ??macDataRxMemFree?relay,00H
        EXTERN ??macMcuOverflowCapture?relay
        FUNCTION ??macMcuOverflowCapture?relay,00H
        EXTERN ??macMcuTimerCapture?relay
        FUNCTION ??macMcuTimerCapture?relay,00H
        EXTERN ??macMemReadRxFifo?relay
        FUNCTION ??macMemReadRxFifo?relay,00H
        EXTERN ??macRadioComputeLQI?relay
        FUNCTION ??macRadioComputeLQI?relay,00H
        EXTERN ??macRadioUpdateTxPower?relay
        FUNCTION ??macRadioUpdateTxPower?relay,00H
        EXTERN ??macRxCheckMACPendingCallback?relay
        FUNCTION ??macRxCheckMACPendingCallback?relay,00H
        EXTERN ??macRxCheckPendingCallback?relay
        FUNCTION ??macRxCheckPendingCallback?relay,00H
        EXTERN ??macRxCompleteCallback?relay
        FUNCTION ??macRxCompleteCallback?relay,00H
        EXTERN ??macRxHardDisable?relay
        FUNCTION ??macRxHardDisable?relay,00H
        EXTERN ??macRxOffRequest?relay
        FUNCTION ??macRxOffRequest?relay,00H
        EXTERN ??macTxAckNotReceivedCallback?relay
        FUNCTION ??macTxAckNotReceivedCallback?relay,00H
        EXTERN ??macTxAckReceivedCallback?relay
        FUNCTION ??macTxAckReceivedCallback?relay,00H
        EXTERN ??macTxStartQueuedFrame?relay
        FUNCTION ??macTxStartQueuedFrame?relay,00H
        EXTERN ??sAddrExtCpy?relay
        FUNCTION ??sAddrExtCpy?relay,00H
        EXTERN MAC_SrcMatchCheckAllPending
        FUNCTION MAC_SrcMatchCheckAllPending,0202H
        ARGFRAME ISTACK, 0, STACK
        ARGFRAME PSTACK, 0, STACK
        ARGFRAME XSTACK, 19, STACK
        ARGFRAME IOVERLAY, 0, STATIC
        ARGFRAME DOVERLAY, 0, STATIC
        EXTERN MAC_SrcMatchCheckResult
        FUNCTION MAC_SrcMatchCheckResult,0202H
        ARGFRAME ISTACK, 0, STACK
        ARGFRAME PSTACK, 0, STACK
        ARGFRAME XSTACK, 10, STACK
        ARGFRAME IOVERLAY, 0, STATIC
        ARGFRAME DOVERLAY, 0, STATIC
        EXTERN halAssertHandler
        FUNCTION halAssertHandler,0202H
        ARGFRAME ISTACK, 2, STACK
        ARGFRAME PSTACK, 0, STACK
        ARGFRAME XSTACK, 32, STACK
        ARGFRAME IOVERLAY, 0, STATIC
        ARGFRAME DOVERLAY, 0, STATIC
        EXTERN macChipVersion
        EXTERN macCspForceTxDoneIfPending
        FUNCTION macCspForceTxDoneIfPending,0202H
        ARGFRAME ISTACK, 0, STACK
        ARGFRAME PSTACK, 0, STACK
        ARGFRAME XSTACK, 19, STACK
        ARGFRAME IOVERLAY, 0, STATIC
        ARGFRAME DOVERLAY, 0, STATIC
        EXTERN macDataRxMemAlloc
        FUNCTION macDataRxMemAlloc,0202H
        ARGFRAME ISTACK, 0, STACK
        ARGFRAME PSTACK, 0, STACK
        ARGFRAME XSTACK, 19, STACK
        ARGFRAME IOVERLAY, 0, STATIC
        ARGFRAME DOVERLAY, 0, STATIC
        EXTERN macDataRxMemFree
        FUNCTION macDataRxMemFree,0202H
        ARGFRAME ISTACK, 0, STACK
        ARGFRAME PSTACK, 0, STACK
        ARGFRAME XSTACK, 10, STACK
        ARGFRAME IOVERLAY, 0, STATIC
        ARGFRAME DOVERLAY, 0, STATIC
        EXTERN macMcuOverflowCapture
        FUNCTION macMcuOverflowCapture,0202H
        ARGFRAME ISTACK, 0, STACK
        ARGFRAME PSTACK, 0, STACK
        ARGFRAME XSTACK, 19, STACK
        ARGFRAME IOVERLAY, 0, STATIC
        ARGFRAME DOVERLAY, 0, STATIC
        EXTERN macMcuTimerCapture
        FUNCTION macMcuTimerCapture,0202H
        ARGFRAME ISTACK, 0, STACK
        ARGFRAME PSTACK, 0, STACK
        ARGFRAME XSTACK, 19, STACK
        ARGFRAME IOVERLAY, 0, STATIC
        ARGFRAME DOVERLAY, 0, STATIC
        EXTERN macMemReadRxFifo
        FUNCTION macMemReadRxFifo,0202H
        ARGFRAME ISTACK, 2, STACK
        ARGFRAME PSTACK, 0, STACK
        ARGFRAME XSTACK, 32, STACK
        ARGFRAME IOVERLAY, 0, STATIC
        ARGFRAME DOVERLAY, 0, STATIC
        EXTERN macRadioComputeLQI
        FUNCTION macRadioComputeLQI,0202H
        ARGFRAME ISTACK, 0, STACK
        ARGFRAME PSTACK, 0, STACK
        ARGFRAME XSTACK, 19, STACK
        ARGFRAME IOVERLAY, 0, STATIC
        ARGFRAME DOVERLAY, 0, STATIC
        EXTERN macRadioUpdateTxPower
        FUNCTION macRadioUpdateTxPower,0202H
        ARGFRAME ISTACK, 2, STACK
        ARGFRAME PSTACK, 0, STACK
        ARGFRAME XSTACK, 0, STACK
        ARGFRAME IOVERLAY, 0, STATIC
        ARGFRAME DOVERLAY, 0, STATIC
        EXTERN macRxCheckMACPendingCallback
        FUNCTION macRxCheckMACPendingCallback,0202H
        ARGFRAME ISTACK, 0, STACK
        ARGFRAME PSTACK, 0, STACK
        ARGFRAME XSTACK, 19, STACK
        ARGFRAME IOVERLAY, 0, STATIC
        ARGFRAME DOVERLAY, 0, STATIC
        EXTERN macRxCheckPendingCallback
        FUNCTION macRxCheckPendingCallback,0202H
        ARGFRAME ISTACK, 0, STACK
        ARGFRAME PSTACK, 0, STACK
        ARGFRAME XSTACK, 19, STACK
        ARGFRAME IOVERLAY, 0, STATIC
        ARGFRAME DOVERLAY, 0, STATIC
        EXTERN macRxCompleteCallback
        FUNCTION macRxCompleteCallback,0202H
        ARGFRAME ISTACK, 0, STACK
        ARGFRAME PSTACK, 0, STACK
        ARGFRAME XSTACK, 10, STACK
        ARGFRAME IOVERLAY, 0, STATIC
        ARGFRAME DOVERLAY, 0, STATIC
        EXTERN macRxHardDisable
        FUNCTION macRxHardDisable,0202H
        ARGFRAME ISTACK, 2, STACK
        ARGFRAME PSTACK, 0, STACK
        ARGFRAME XSTACK, 0, STACK
        ARGFRAME IOVERLAY, 0, STATIC
        ARGFRAME DOVERLAY, 0, STATIC
        EXTERN macRxOffRequest
        FUNCTION macRxOffRequest,0202H
        ARGFRAME ISTACK, 2, STACK
        ARGFRAME PSTACK, 0, STACK
        ARGFRAME XSTACK, 10, STACK
        ARGFRAME IOVERLAY, 0, STATIC
        ARGFRAME DOVERLAY, 0, STATIC
        EXTERN macRxOnFlag
        EXTERN macSrcMatchIsEnabled
        EXTERN macTxAckNotReceivedCallback
        FUNCTION macTxAckNotReceivedCallback,0202H
        ARGFRAME ISTACK, 0, STACK
        ARGFRAME PSTACK, 0, STACK
        ARGFRAME XSTACK, 19, STACK
        ARGFRAME IOVERLAY, 0, STATIC
        ARGFRAME DOVERLAY, 0, STATIC
        EXTERN macTxAckReceivedCallback
        FUNCTION macTxAckReceivedCallback,0202H
        ARGFRAME ISTACK, 0, STACK
        ARGFRAME PSTACK, 0, STACK
        ARGFRAME XSTACK, 19, STACK
        ARGFRAME IOVERLAY, 0, STATIC
        ARGFRAME DOVERLAY, 0, STATIC
        EXTERN macTxActive
        EXTERN macTxStartQueuedFrame
        FUNCTION macTxStartQueuedFrame,0202H
        ARGFRAME ISTACK, 2, STACK
        ARGFRAME PSTACK, 0, STACK
        ARGFRAME XSTACK, 0, STACK
        ARGFRAME IOVERLAY, 0, STATIC
        ARGFRAME DOVERLAY, 0, STATIC
        EXTERN pMacDataTx
        EXTERN sAddrExtCpy
        FUNCTION sAddrExtCpy,0202H
        ARGFRAME ISTACK, 0, STACK
        ARGFRAME PSTACK, 0, STACK
        ARGFRAME XSTACK, 32, STACK
        ARGFRAME IOVERLAY, 0, STATIC
        ARGFRAME DOVERLAY, 0, STATIC

// I:\1_git_code\EPnode_OTA\CC2530 IAP\CC2530_stack\zstack-2.4.0-1.4.0x\Components\mac\low_level\srf04\mac_rx.c
//    1 /**************************************************************************************************
//    2   Filename:       mac_rx.c
//    3   Revised:        $Date: 2007-10-08 14:05:36 -0700 (Mon, 08 Oct 2007) $
//    4   Revision:       $Revision: 15624 $
//    5 
//    6   Description:    Describe the purpose and contents of the file.
//    7 
//    8 
//    9   Copyright 2006-2010 Texas Instruments Incorporated. All rights reserved.
//   10 
//   11   IMPORTANT: Your use of this Software is limited to those specific rights
//   12   granted under the terms of a software license agreement between the user
//   13   who downloaded the software, his/her employer (which must be your employer)
//   14   and Texas Instruments Incorporated (the "License").  You may not use this
//   15   Software unless you agree to abide by the terms of the License. The License
//   16   limits your use, and you acknowledge, that the Software may not be modified,
//   17   copied or distributed unless embedded on a Texas Instruments microcontroller
//   18   or used solely and exclusively in conjunction with a Texas Instruments radio
//   19   frequency transceiver, which is integrated into your product.  Other than for
//   20   the foregoing purpose, you may not use, reproduce, copy, prepare derivative
//   21   works of, modify, distribute, perform, display or sell this Software and/or
//   22   its documentation for any purpose.
//   23 
//   24   YOU FURTHER ACKNOWLEDGE AND AGREE THAT THE SOFTWARE AND DOCUMENTATION ARE
//   25   PROVIDED “AS IS” WITHOUT WARRANTY OF ANY KIND, EITHER EXPRESS OR IMPLIED,
//   26   INCLUDING WITHOUT LIMITATION, ANY WARRANTY OF MERCHANTABILITY, TITLE,
//   27   NON-INFRINGEMENT AND FITNESS FOR A PARTICULAR PURPOSE. IN NO EVENT SHALL
//   28   TEXAS INSTRUMENTS OR ITS LICENSORS BE LIABLE OR OBLIGATED UNDER CONTRACT,
//   29   NEGLIGENCE, STRICT LIABILITY, CONTRIBUTION, BREACH OF WARRANTY, OR OTHER
//   30   LEGAL EQUITABLE THEORY ANY DIRECT OR INDIRECT DAMAGES OR EXPENSES
//   31   INCLUDING BUT NOT LIMITED TO ANY INCIDENTAL, SPECIAL, INDIRECT, PUNITIVE
//   32   OR CONSEQUENTIAL DAMAGES, LOST PROFITS OR LOST DATA, COST OF PROCUREMENT
//   33   OF SUBSTITUTE GOODS, TECHNOLOGY, SERVICES, OR ANY CLAIMS BY THIRD PARTIES
//   34   (INCLUDING BUT NOT LIMITED TO ANY DEFENSE THEREOF), OR OTHER SIMILAR COSTS.
//   35 
//   36   Should you have any questions regarding your right to use this Software,
//   37   contact Texas Instruments Incorporated at www.TI.com.
//   38 **************************************************************************************************/
//   39 
//   40 /* ------------------------------------------------------------------------------------------------
//   41  *                                          Includes
//   42  * ------------------------------------------------------------------------------------------------
//   43  */
//   44 
//   45 /* hal */
//   46 #include "hal_defs.h"
//   47 #include "hal_types.h"
//   48 
//   49 /* high-level */
//   50 #include "mac_high_level.h"
//   51 #include "mac_spec.h"
//   52 
//   53 /* exported low-level */
//   54 #include "mac_low_level.h"
//   55 
//   56 /* low-level specific */
//   57 #include "mac_rx.h"
//   58 #include "mac_tx.h"
//   59 #include "mac_rx_onoff.h"
//   60 #include "mac_radio.h"
//   61 
//   62 /* target specific */
//   63 #include "mac_radio_defs.h"

        ASEGN SFR_AN:DATA:NOROOT,091H
// unsigned char volatile __sfr RFIRQF1
RFIRQF1:
        DATA8
        DS 1

        ASEGN SFR_AN:DATA:NOROOT,09bH
// unsigned char volatile __sfr S1CON
S1CON:
        DATA8
        DS 1

        ASEGN SFR_AN:DATA:NOROOT,0a8H
// union <unnamed> volatile __sfr _A_IEN0
_A_IEN0:
        DATA8
        DS 1

        ASEGN SFR_AN:DATA:NOROOT,0e1H
// unsigned char volatile __sfr RFST
RFST:
        DATA8
        DS 1

        ASEGN SFR_AN:DATA:NOROOT,0e9H
// unsigned char volatile __sfr RFIRQF0
RFIRQF0:
        DATA8
        DS 1
//   64 #include "mac_autopend.h"
//   65 
//   66 /* debug */
//   67 #include "mac_assert.h"
//   68 
//   69 
//   70 /* ------------------------------------------------------------------------------------------------
//   71  *                                            Defines
//   72  * ------------------------------------------------------------------------------------------------
//   73  */
//   74 #define MAX_PAYLOAD_BYTES_READ_PER_INTERRUPT   16   /* adjustable to tune performance */
//   75 
//   76 /* receive FIFO bytes needed to start a valid receive (see function rxStartIsr for details) */
//   77 #define RX_THRESHOLD_START_LEN    (MAC_PHY_PHR_LEN        +  \ 
//   78                                    MAC_FCF_FIELD_LEN      +  \ 
//   79                                    MAC_SEQ_NUM_FIELD_LEN  +  \ 
//   80                                    MAC_FCS_FIELD_LEN)
//   81 
//   82 /* maximum size of addressing fields (note: command frame identifier processed as part of address) */
//   83 #define MAX_ADDR_FIELDS_LEN  ((MAC_EXT_ADDR_FIELD_LEN + MAC_PAN_ID_FIELD_LEN) * 2)
//   84 
//   85 /* addressing mode reserved value */
//   86 #define ADDR_MODE_RESERVERED  1
//   87 
//   88 /* length of command frame identifier */
//   89 #define CMD_FRAME_ID_LEN      1
//   90 
//   91 /* packet size mask is equal to the maximum value */
//   92 #define PHY_PACKET_SIZE_MASK  0x7F
//   93 
//   94 /* value for promiscuous off, must not conflict with other mode variants from separate include files */
//   95 #define PROMISCUOUS_MODE_OFF  0x00
//   96 
//   97 /* bit of proprietary FCS format that indicates if the CRC is OK */
//   98 #define PROPRIETARY_FCS_CRC_OK_BIT  0x80
//   99 
//  100 /* dummy length value for unused entry in lookup table */
//  101 #define DUMMY_LEN   0xBE
//  102 
//  103 /* value for rxThresholdIntState */
//  104 #define RX_THRESHOLD_INT_STATE_INACTIVE   0
//  105 #define RX_THRESHOLD_INT_STATE_ACTIVE     1
//  106 #define RX_THRESHOLD_INT_STATE_RESET      2
//  107 
//  108 
//  109 /* ------------------------------------------------------------------------------------------------
//  110  *                                             Macros
//  111  * ------------------------------------------------------------------------------------------------
//  112  */
//  113 #define MEM_ALLOC(x)   macDataRxMemAlloc(x)
//  114 #define MEM_FREE(x)    macDataRxMemFree((uint8 **)x)
//  115 
//  116 /*
//  117  *  Macro for encoding frame control information into internal flags format.
//  118  *  Parameter is pointer to the frame.  NOTE!  If either the internal frame
//  119  *  format *or* the specification changes, this macro will need to be modified.
//  120  */
//  121 #define INTERNAL_FCF_FLAGS(p)  ((((p)[1] >> 4) & 0x03) | ((p)[0] & 0x78))
//  122 
//  123 /*
//  124  *  The radio replaces the actual FCS with different information.  This proprietary FCS is
//  125  *  the same length as the original and includes:
//  126  *    1) the RSSI value
//  127  *    2) the average correlation value (used for LQI)
//  128  *    3) a CRC passed bit
//  129  *
//  130  *  These macros decode the proprietary FCS.  The macro parameter is a pointer to the two byte FCS.
//  131  */
//  132 #define PROPRIETARY_FCS_RSSI(p)                 ((int8)((p)[0]))
//  133 #define PROPRIETARY_FCS_CRC_OK(p)               ((p)[1] & PROPRIETARY_FCS_CRC_OK_BIT)
//  134 #define PROPRIETARY_FCS_CORRELATION_VALUE(p)    ((p)[1] & ~PROPRIETARY_FCS_CRC_OK_BIT)
//  135 
//  136 
//  137 /* ------------------------------------------------------------------------------------------------
//  138  *                                       Global Variables
//  139  * ------------------------------------------------------------------------------------------------
//  140  */

        RSEG XDATA_Z:XDATA:NOROOT(0)
        DATA8
//  141 uint8 macRxActive;
macRxActive:
        DS 1
        REQUIRE __INIT_XDATA_Z

        RSEG XDATA_Z:XDATA:NOROOT(0)
        DATA8
//  142 uint8 macRxFilter;
macRxFilter:
        DS 1
        REQUIRE __INIT_XDATA_Z

        RSEG XDATA_Z:XDATA:NOROOT(0)
        DATA8
//  143 uint8 macRxOutgoingAckFlag;
macRxOutgoingAckFlag:
        DS 1
        REQUIRE __INIT_XDATA_Z
//  144 
//  145 
//  146 /* ------------------------------------------------------------------------------------------------
//  147  *                                       Local Constants
//  148  * ------------------------------------------------------------------------------------------------
//  149  */

        RSEG CODE_C:CODE:REORDER:NOROOT(0)
        DATA32
//  150 static const uint8 CODE macRxAddrLen[] =
macRxAddrLen:
        DATA8
        DB 0
        DB 190
        DB 4
        DB 10
//  151 {
//  152   0,                                                /* no address */
//  153   DUMMY_LEN,                                        /* reserved */
//  154   MAC_PAN_ID_FIELD_LEN + MAC_SHORT_ADDR_FIELD_LEN,  /* short address + pan id */
//  155   MAC_PAN_ID_FIELD_LEN + MAC_EXT_ADDR_FIELD_LEN     /* extended address + pan id */
//  156 };
//  157 
//  158 
//  159 /* ------------------------------------------------------------------------------------------------
//  160  *                                       Local Prototypes
//  161  * ------------------------------------------------------------------------------------------------
//  162  */
//  163 static void rxHaltCleanupFinalStep(void);
//  164 
//  165 static void rxStartIsr(void);
//  166 static void rxAddrIsr(void);
//  167 static void rxPayloadIsr(void);
//  168 static void rxDiscardIsr(void);
//  169 static void rxFcsIsr(void);
//  170 
//  171 static void rxPrepPayload(void);
//  172 static void rxDiscardFrame(void);
//  173 static void rxDone(void);
//  174 static void rxPostRxUpdates(void);
//  175 
//  176 
//  177 /* ------------------------------------------------------------------------------------------------
//  178  *                                         Local Variables
//  179  * ------------------------------------------------------------------------------------------------
//  180  */

        RSEG XDATA_Z:XDATA:NOROOT(0)
        DATA16
//  181 static void    (* pFuncRxState)(void);
pFuncRxState:
        DS 2
        REQUIRE __INIT_XDATA_Z

        RSEG XDATA_Z:XDATA:NOROOT(0)
        DATA16
//  182 static macRx_t  * pRxBuf;
pRxBuf:
        DS 2
        REQUIRE __INIT_XDATA_Z
//  183 

        RSEG XDATA_Z:XDATA:NOROOT(0)
        DATA32
//  184 static uint8  rxBuf[MAC_PHY_PHR_LEN + MAC_FCF_FIELD_LEN + MAC_SEQ_NUM_FIELD_LEN];
rxBuf:
        DS 4
        REQUIRE __INIT_XDATA_Z

        RSEG XDATA_Z:XDATA:NOROOT(0)
        DATA8
//  185 static uint8  rxUnreadLen;
rxUnreadLen:
        DS 1
        REQUIRE __INIT_XDATA_Z

        RSEG XDATA_Z:XDATA:NOROOT(0)
        DATA8
//  186 static uint8  rxNextLen;
rxNextLen:
        DS 1
        REQUIRE __INIT_XDATA_Z

        RSEG XDATA_Z:XDATA:NOROOT(0)
        DATA8
//  187 static uint8  rxPayloadLen;
rxPayloadLen:
        DS 1
        REQUIRE __INIT_XDATA_Z

        RSEG XDATA_Z:XDATA:NOROOT(0)
        DATA8
//  188 static uint8  rxFilter;
rxFilter:
        DS 1
        REQUIRE __INIT_XDATA_Z

        RSEG XDATA_Z:XDATA:NOROOT(0)
        DATA8
//  189 static uint8  rxPromiscuousMode;
rxPromiscuousMode:
        DS 1
        REQUIRE __INIT_XDATA_Z

        RSEG XDATA_Z:XDATA:NOROOT(0)
        DATA8
//  190 static uint8  rxIsrActiveFlag;
rxIsrActiveFlag:
        DS 1
        REQUIRE __INIT_XDATA_Z

        RSEG XDATA_Z:XDATA:NOROOT(0)
        DATA8
//  191 static uint8  rxResetFlag;
rxResetFlag:
        DS 1
        REQUIRE __INIT_XDATA_Z

        RSEG XDATA_Z:XDATA:NOROOT(0)
        DATA8
//  192 static uint8  rxFifoOverflowCount;
rxFifoOverflowCount:
        DS 1
        REQUIRE __INIT_XDATA_Z
//  193 
//  194 #ifdef PACKET_FILTER_STATS
//  195   uint32      rxCrcFailure = 0;
//  196   uint32      rxCrcSuccess = 0;
//  197 #endif /* PACKET_FILTER_STATS */
//  198 
//  199 #ifdef CC2591_COMPRESSION_WORKAROUND
//  200   void macRxResetRssi(void);
//  201 #endif
//  202 
//  203 /**************************************************************************************************
//  204  * @fn          macRxInit
//  205  *
//  206  * @brief       Initialize receive variable states.
//  207  *
//  208  * @param       none
//  209  *
//  210  * @return      none
//  211  **************************************************************************************************
//  212  */

        RSEG BANKED_CODE:CODE:NOROOT(0)
//  213 MAC_INTERNAL_API void macRxInit(void)
macRxInit:
          CFI Block cfiBlock0 Using cfiCommon0
          CFI Function macRxInit
        CODE
//  214 {
        PUSH    DPL
          CFI DPL0 Frame(CFA_SP, 4)
          CFI CFA_SP SP+-4
        PUSH    DPH
          CFI DPH0 Frame(CFA_SP, 5)
          CFI CFA_SP SP+-5
        ; Saved register size: 2
        ; Auto size: 0
//  215   macRxFilter          = RX_FILTER_OFF;
        MOV     DPTR,#macRxFilter
        MOV     A,#0x0
        MOVX    @DPTR,A
//  216   rxPromiscuousMode    = PROMISCUOUS_MODE_OFF;
        MOV     DPTR,#rxPromiscuousMode
        MOV     A,#0x0
        MOVX    @DPTR,A
//  217   pRxBuf               = NULL; /* required for macRxReset() to function correctly */
        MOV     DPTR,#pRxBuf
        MOV     A,#0x0
        MOVX    @DPTR,A
        INC     DPTR
        MOV     A,#0x0
        MOVX    @DPTR,A
//  218   macRxActive          = MAC_RX_ACTIVE_NO_ACTIVITY;
        MOV     DPTR,#macRxActive
        MOV     A,#0x0
        MOVX    @DPTR,A
//  219   pFuncRxState         = &rxStartIsr;
        MOV     DPTR,#pFuncRxState
        MOV     A,#??rxStartIsr?relay & 0xff
        MOVX    @DPTR,A
        INC     DPTR
        MOV     A,#(??rxStartIsr?relay >> 8) & 0xff
        MOVX    @DPTR,A
//  220   macRxOutgoingAckFlag = 0;
        MOV     DPTR,#macRxOutgoingAckFlag
        MOV     A,#0x0
        MOVX    @DPTR,A
//  221   rxIsrActiveFlag      = 0;
        MOV     DPTR,#rxIsrActiveFlag
        MOV     A,#0x0
        MOVX    @DPTR,A
//  222   rxResetFlag          = 0;
        MOV     DPTR,#rxResetFlag
        MOV     A,#0x0
        MOVX    @DPTR,A
//  223   rxFifoOverflowCount  = 0;
        MOV     DPTR,#rxFifoOverflowCount
        MOV     A,#0x0
        MOVX    @DPTR,A
//  224 }
        POP     DPH
          CFI DPH0 SameValue
          CFI CFA_SP SP+-4
        POP     DPL
          CFI DPL0 SameValue
          CFI CFA_SP SP+-3
        LJMP    ?BRET
          CFI EndBlock cfiBlock0
//  225 
//  226 
//  227 /**************************************************************************************************
//  228  * @fn          macRxRadioPowerUpInit
//  229  *
//  230  * @brief       Initialization for after radio first powers up.
//  231  *
//  232  * @param       none
//  233  *
//  234  * @return      none
//  235  **************************************************************************************************
//  236  */

        RSEG BANKED_CODE:CODE:NOROOT(0)
//  237 MAC_INTERNAL_API void macRxRadioPowerUpInit(void)
macRxRadioPowerUpInit:
          CFI Block cfiBlock1 Using cfiCommon0
          CFI Function macRxRadioPowerUpInit
        CODE
//  238 {
        PUSH    DPL
          CFI DPL0 Frame(CFA_SP, 4)
          CFI CFA_SP SP+-4
        PUSH    DPH
          CFI DPH0 Frame(CFA_SP, 5)
          CFI CFA_SP SP+-5
        ; Saved register size: 2
        ; Auto size: 0
//  239   /* set threshold at initial value */
//  240   MAC_RADIO_SET_RX_THRESHOLD(RX_THRESHOLD_START_LEN);
        MOV     DPTR,#0x6194
        MOV     A,#0x5
        MOVX    @DPTR,A
//  241 
//  242   /* clear any accidental threshold interrupt that happened as part of power up sequence */
//  243   MAC_RADIO_CLEAR_RX_THRESHOLD_INTERRUPT_FLAG();
        MOV     C,0xa8.7
        CLR     A
        RLC     A
        MOV     R0,A
        CLR     0xa8.7
        MOV     0x9b,#0x0
        MOV     0xe9,#-0x5
        MOV     A,R0
        MOV     R1,A
        MOV     A,R0
        MOV     C,0xE0 /* A   */.0
        MOV     0xa8.7,C
//  244 
//  245   /* enable threshold interrupts */
//  246   MAC_RADIO_ENABLE_RX_THRESHOLD_INTERRUPT();
        MOV     DPTR,#0x61a3
        MOVX    A,@DPTR
        SETB    0xE0 /* A   */.2
        MOVX    @DPTR,A
//  247 }
        POP     DPH
          CFI DPH0 SameValue
          CFI CFA_SP SP+-4
        POP     DPL
          CFI DPL0 SameValue
          CFI CFA_SP SP+-3
        LJMP    ?BRET
          CFI EndBlock cfiBlock1
        REQUIRE _A_IEN0
        REQUIRE S1CON
        REQUIRE RFIRQF0
//  248 
//  249 
//  250 /**************************************************************************************************
//  251  * @fn          macRxTxReset
//  252  *
//  253  * @brief       Reset the receive state.
//  254  *
//  255  * @param       none
//  256  *
//  257  * @return      none
//  258  **************************************************************************************************
//  259  */

        RSEG BANKED_CODE:CODE:NOROOT(0)
//  260 MAC_INTERNAL_API void macRxTxReset(void)
macRxTxReset:
          CFI Block cfiBlock2 Using cfiCommon0
          CFI Function macRxTxReset
        CODE
//  261 {
        FUNCALL macRxTxReset, macRxHardDisable
        LOCFRAME ISTACK, 2, STACK
        LOCFRAME PSTACK, 0, STACK
        LOCFRAME XSTACK, 0, STACK
        LOCFRAME IOVERLAY, 0, STATIC
        LOCFRAME DOVERLAY, 0, STATIC
        ARGFRAME ISTACK, 2, STACK
        ARGFRAME PSTACK, 0, STACK
        ARGFRAME XSTACK, 0, STACK
        ARGFRAME IOVERLAY, 0, STATIC
        ARGFRAME DOVERLAY, 0, STATIC
        FUNCALL macRxTxReset, macRxPromiscuousMode
        LOCFRAME ISTACK, 2, STACK
        LOCFRAME PSTACK, 0, STACK
        LOCFRAME XSTACK, 0, STACK
        LOCFRAME IOVERLAY, 0, STATIC
        LOCFRAME DOVERLAY, 0, STATIC
        ARGFRAME ISTACK, 2, STACK
        ARGFRAME PSTACK, 0, STACK
        ARGFRAME XSTACK, 0, STACK
        ARGFRAME IOVERLAY, 0, STATIC
        ARGFRAME DOVERLAY, 0, STATIC
        PUSH    DPL
          CFI DPL0 Frame(CFA_SP, 4)
          CFI CFA_SP SP+-4
        PUSH    DPH
          CFI DPH0 Frame(CFA_SP, 5)
          CFI CFA_SP SP+-5
        ; Saved register size: 2
        ; Auto size: 0
//  262   /* forces receiver off, cleans up by calling macRxHaltCleanup() and macTxHaltCleanup() */
//  263   macRxHardDisable();
        ; Setup parameters for call to function macRxHardDisable
        LCALL   ??macRxHardDisable?relay; Banked call to: macRxHardDisable
//  264 
//  265   /*
//  266    *   Note : transmit does not require any reset logic
//  267    *          beyond what macRxHardDisable() provides.
//  268    */
//  269 
//  270   /* restore deault filter mode to off */
//  271   macRxFilter = RX_FILTER_OFF;
        MOV     DPTR,#macRxFilter
        MOV     A,#0x0
        MOVX    @DPTR,A
//  272 
//  273   /* return promiscuous mode to default off state */
//  274   macRxPromiscuousMode(MAC_PROMISCUOUS_MODE_OFF);
        ; Setup parameters for call to function macRxPromiscuousMode
        MOV     R1,#0x0
        LCALL   ??macRxPromiscuousMode?relay; Banked call to: macRxPromiscuousMode
//  275 }
        POP     DPH
          CFI DPH0 SameValue
          CFI CFA_SP SP+-4
        POP     DPL
          CFI DPL0 SameValue
          CFI CFA_SP SP+-3
        LJMP    ?BRET
          CFI EndBlock cfiBlock2
//  276 
//  277 
//  278 /**************************************************************************************************
//  279  * @fn          macRxHaltCleanup
//  280  *
//  281  * @brief       Cleanup up the receive logic after receiver is forced off.
//  282  *
//  283  * @param       none
//  284  *
//  285  * @return      none
//  286  **************************************************************************************************
//  287  */

        RSEG BANKED_CODE:CODE:NOROOT(0)
//  288 MAC_INTERNAL_API void macRxHaltCleanup(void)
macRxHaltCleanup:
          CFI Block cfiBlock3 Using cfiCommon0
          CFI Function macRxHaltCleanup
        CODE
//  289 {
        FUNCALL macRxHaltCleanup, rxHaltCleanupFinalStep
        LOCFRAME ISTACK, 2, STACK
        LOCFRAME PSTACK, 0, STACK
        LOCFRAME XSTACK, 0, STACK
        LOCFRAME IOVERLAY, 0, STATIC
        LOCFRAME DOVERLAY, 0, STATIC
        ARGFRAME ISTACK, 2, STACK
        ARGFRAME PSTACK, 0, STACK
        ARGFRAME XSTACK, 0, STACK
        ARGFRAME IOVERLAY, 0, STATIC
        ARGFRAME DOVERLAY, 0, STATIC
        PUSH    DPL
          CFI DPL0 Frame(CFA_SP, 4)
          CFI CFA_SP SP+-4
        PUSH    DPH
          CFI DPH0 Frame(CFA_SP, 5)
          CFI CFA_SP SP+-5
        ; Saved register size: 2
        ; Auto size: 0
//  290   rxResetFlag = 1;
        MOV     DPTR,#rxResetFlag
        MOV     A,#0x1
        MOVX    @DPTR,A
//  291   if (!rxIsrActiveFlag)
        MOV     DPTR,#rxIsrActiveFlag
        MOVX    A,@DPTR
        JNZ     ??macRxHaltCleanup_0
//  292   {
//  293     rxHaltCleanupFinalStep();
        ; Setup parameters for call to function rxHaltCleanupFinalStep
        LCALL   ??rxHaltCleanupFinalStep?relay; Banked call to: rxHaltCleanupFinalStep
//  294     rxResetFlag = 0;
        MOV     DPTR,#rxResetFlag
        MOV     A,#0x0
        MOVX    @DPTR,A
//  295   }
//  296 }
??macRxHaltCleanup_0:
        POP     DPH
          CFI DPH0 SameValue
          CFI CFA_SP SP+-4
        POP     DPL
          CFI DPL0 SameValue
          CFI CFA_SP SP+-3
        LJMP    ?BRET
          CFI EndBlock cfiBlock3
//  297 
//  298 
//  299 /*=================================================================================================
//  300  * @fn          rxHaltCleanupFinalStep
//  301  *
//  302  * @brief       Required cleanup if receiver is halted in the middle of a receive.
//  303  *
//  304  * @param       none
//  305  *
//  306  * @return      none
//  307  *=================================================================================================
//  308  */

        RSEG BANKED_CODE:CODE:NOROOT(0)
//  309 static void rxHaltCleanupFinalStep(void)
rxHaltCleanupFinalStep:
          CFI Block cfiBlock4 Using cfiCommon0
          CFI Function rxHaltCleanupFinalStep
        CODE
//  310 {
        FUNCALL rxHaltCleanupFinalStep, macDataRxMemFree
        LOCFRAME ISTACK, 0, STACK
        LOCFRAME PSTACK, 0, STACK
        LOCFRAME XSTACK, 9, STACK
        LOCFRAME IOVERLAY, 0, STATIC
        LOCFRAME DOVERLAY, 0, STATIC
        ARGFRAME ISTACK, 0, STACK
        ARGFRAME PSTACK, 0, STACK
        ARGFRAME XSTACK, 9, STACK
        ARGFRAME IOVERLAY, 0, STATIC
        ARGFRAME DOVERLAY, 0, STATIC
        FUNCALL rxHaltCleanupFinalStep, rxPostRxUpdates
        LOCFRAME ISTACK, 0, STACK
        LOCFRAME PSTACK, 0, STACK
        LOCFRAME XSTACK, 9, STACK
        LOCFRAME IOVERLAY, 0, STATIC
        LOCFRAME DOVERLAY, 0, STATIC
        ARGFRAME ISTACK, 0, STACK
        ARGFRAME PSTACK, 0, STACK
        ARGFRAME XSTACK, 9, STACK
        ARGFRAME IOVERLAY, 0, STATIC
        ARGFRAME DOVERLAY, 0, STATIC
        MOV     A,#-0x9
        LCALL   ?BANKED_ENTER_XDATA
          CFI DPH0 load(1, XDATA, add(CFA_XSP16, literal(-1)))
          CFI DPL0 load(1, XDATA, add(CFA_XSP16, literal(-2)))
          CFI ?BRET_EXT load(1, XDATA, add(CFA_XSP16, literal(-3)))
          CFI ?RET_HIGH load(1, XDATA, add(CFA_XSP16, literal(-4)))
          CFI ?RET_LOW load(1, XDATA, add(CFA_XSP16, literal(-5)))
          CFI R7 load(1, XDATA, add(CFA_XSP16, literal(-6)))
          CFI V0 load(1, XDATA, add(CFA_XSP16, literal(-7)))
          CFI VB load(1, XDATA, add(CFA_XSP16, literal(-8)))
          CFI R6 load(1, XDATA, add(CFA_XSP16, literal(-9)))
          CFI CFA_SP SP+0
          CFI CFA_XSP16 add(XSP16, 9)
        ; Saved register size: 9
        ; Auto size: 0
//  311   /* cancel any upcoming ACK transmit complete callback */
//  312   MAC_RADIO_CANCEL_ACK_TX_DONE_CALLBACK();
        MOV     DPTR,#0x61a4
        MOVX    A,@DPTR
        CLR     0xE0 /* A   */.0
        MOVX    @DPTR,A
//  313 
//  314   /* set start of frame threshold */
//  315   MAC_RADIO_SET_RX_THRESHOLD(RX_THRESHOLD_START_LEN);
        MOV     DPTR,#0x6194
        MOV     A,#0x5
        MOVX    @DPTR,A
//  316 
//  317   /* flush the receive FIFO */
//  318   MAC_RADIO_FLUSH_RX_FIFO();
        MOV     0xe1,#-0x13
        MOV     0xe1,#-0x13
//  319 
//  320   /* clear any receive interrupt that happened to squeak through */
//  321   MAC_RADIO_CLEAR_RX_THRESHOLD_INTERRUPT_FLAG();
        MOV     C,0xa8.7
        CLR     A
        RLC     A
        MOV     R2,A
        CLR     0xa8.7
        MOV     0x9b,#0x0
        MOV     0xe9,#-0x5
        MOV     A,R2
        MOV     R6,A
        MOV     A,R2
        MOV     C,0xE0 /* A   */.0
        MOV     0xa8.7,C
//  322 
//  323   /* if data buffer has been allocated, free it */
//  324   if (pRxBuf != NULL)
        MOV     DPTR,#pRxBuf
        MOVX    A,@DPTR
        MOV     R0,A
        INC     DPTR
        MOVX    A,@DPTR
        MOV     R1,A
        MOV     A,R0
        ORL     A,R1
        JZ      ??rxHaltCleanupFinalStep_0
//  325   {
//  326     MEM_FREE((uint8 **)&pRxBuf);
        ; Setup parameters for call to function macDataRxMemFree
        MOV     R2,#pRxBuf & 0xff
        MOV     R3,#(pRxBuf >> 8) & 0xff
        LCALL   ??macDataRxMemFree?relay; Banked call to: macDataRxMemFree
        MOV     A,R1
//  327   }
//  328   pRxBuf = NULL; /* needed to indicate buffer is no longer allocated */
??rxHaltCleanupFinalStep_0:
        MOV     DPTR,#pRxBuf
        MOV     A,#0x0
        MOVX    @DPTR,A
        INC     DPTR
        MOV     A,#0x0
        MOVX    @DPTR,A
//  329 
//  330   pFuncRxState = &rxStartIsr;
        MOV     DPTR,#pFuncRxState
        MOV     A,#??rxStartIsr?relay & 0xff
        MOVX    @DPTR,A
        INC     DPTR
        MOV     A,#(??rxStartIsr?relay >> 8) & 0xff
        MOVX    @DPTR,A
//  331 
//  332   /* if receive was active, perform the post receive updates */
//  333   if (macRxActive || macRxOutgoingAckFlag)
        MOV     DPTR,#macRxActive
        MOVX    A,@DPTR
        JNZ     ??rxHaltCleanupFinalStep_1
        MOV     DPTR,#macRxOutgoingAckFlag
        MOVX    A,@DPTR
        JZ      ??rxHaltCleanupFinalStep_2
//  334   {
//  335     macRxActive = MAC_RX_ACTIVE_NO_ACTIVITY;
??rxHaltCleanupFinalStep_1:
        MOV     DPTR,#macRxActive
        MOV     A,#0x0
        MOVX    @DPTR,A
//  336     macRxOutgoingAckFlag = 0;
        MOV     DPTR,#macRxOutgoingAckFlag
        MOV     A,#0x0
        MOVX    @DPTR,A
//  337 
//  338     rxPostRxUpdates();
        ; Setup parameters for call to function rxPostRxUpdates
        LCALL   ??rxPostRxUpdates?relay; Banked call to: rxPostRxUpdates
//  339   }
//  340 }
??rxHaltCleanupFinalStep_2:
        MOV     R7,#0x1
        LJMP    ?BANKED_LEAVE_XDATA
          CFI EndBlock cfiBlock4
        REQUIRE RFST
        REQUIRE _A_IEN0
        REQUIRE S1CON
        REQUIRE RFIRQF0
//  341 
//  342 
//  343 /**************************************************************************************************
//  344  * @fn          macRxThresholdIsr
//  345  *
//  346  * @brief       Interrupt service routine called when bytes in FIFO reach threshold value.
//  347  *              It implements a state machine for receiving a packet.
//  348  *
//  349  * @param       none
//  350  *
//  351  * @return      none
//  352  **************************************************************************************************
//  353  */

        RSEG BANKED_CODE:CODE:NOROOT(0)
//  354 MAC_INTERNAL_API void macRxThresholdIsr(void)
macRxThresholdIsr:
          CFI Block cfiBlock5 Using cfiCommon0
          CFI Function macRxThresholdIsr
        CODE
//  355 {
        FUNCALL macRxThresholdIsr, rxHaltCleanupFinalStep
        LOCFRAME ISTACK, 2, STACK
        LOCFRAME PSTACK, 0, STACK
        LOCFRAME XSTACK, 0, STACK
        LOCFRAME IOVERLAY, 0, STATIC
        LOCFRAME DOVERLAY, 0, STATIC
        ARGFRAME ISTACK, 2, STACK
        ARGFRAME PSTACK, 0, STACK
        ARGFRAME XSTACK, 0, STACK
        ARGFRAME IOVERLAY, 0, STATIC
        ARGFRAME DOVERLAY, 0, STATIC
        PUSH    DPL
          CFI DPL0 Frame(CFA_SP, 4)
          CFI CFA_SP SP+-4
        PUSH    DPH
          CFI DPH0 Frame(CFA_SP, 5)
          CFI CFA_SP SP+-5
        ; Saved register size: 2
        ; Auto size: 0
//  356   /* if currently reseting, do not execute receive ISR logic */
//  357   if (rxResetFlag)
        MOV     DPTR,#rxResetFlag
        MOVX    A,@DPTR
        JNZ     ??macRxThresholdIsr_0
//  358   {
//  359     return;
//  360   }
//  361 
//  362   /*
//  363    *  Call the function that handles the current receive state.
//  364    *  A flag is set for the duration of the call to indicate
//  365    *  the ISR is executing.  This is necessary for the reset
//  366    *  logic so it does not perform a reset in the middle of
//  367    *  executing the ISR.
//  368    */
//  369   rxIsrActiveFlag = 1;
        MOV     DPTR,#rxIsrActiveFlag
        MOV     A,#0x1
        MOVX    @DPTR,A
//  370   (*pFuncRxState)();
        ; Setup parameters for indirect call
        MOV     DPTR,#pFuncRxState
        MOVX    A,@DPTR
        MOV     R0,A
        INC     DPTR
        MOVX    A,@DPTR
        MOV     DPH,A
        MOV     DPL,R0
        LCALL   ?CALL_IND
//  371   rxIsrActiveFlag = 0;
        MOV     DPTR,#rxIsrActiveFlag
        MOV     A,#0x0
        MOVX    @DPTR,A
//  372 
//  373   /* if a reset occurred during the ISR, peform cleanup here */
//  374   if (rxResetFlag)
        MOV     DPTR,#rxResetFlag
        MOVX    A,@DPTR
        JZ      ??macRxThresholdIsr_0
//  375   {
//  376     rxHaltCleanupFinalStep();
        ; Setup parameters for call to function rxHaltCleanupFinalStep
        LCALL   ??rxHaltCleanupFinalStep?relay; Banked call to: rxHaltCleanupFinalStep
//  377     rxResetFlag = 0;
        MOV     DPTR,#rxResetFlag
        MOV     A,#0x0
        MOVX    @DPTR,A
//  378   }
//  379 }
??macRxThresholdIsr_0:
        POP     DPH
          CFI DPH0 SameValue
          CFI CFA_SP SP+-4
        POP     DPL
          CFI DPL0 SameValue
          CFI CFA_SP SP+-3
        LJMP    ?BRET
          CFI EndBlock cfiBlock5
//  380 
//  381 
//  382 /*=================================================================================================
//  383  * @fn          rxStartIsr
//  384  *
//  385  * @brief       First ISR state for receiving a packet - compute packet length, allocate
//  386  *              buffer, initialize buffer.  Acknowledgements are handled immediately without
//  387  *              allocating a buffer.
//  388  *
//  389  * @param       none
//  390  *
//  391  * @return      none
//  392  *=================================================================================================
//  393  */

        RSEG BANKED_CODE:CODE:NOROOT(0)
//  394 static void rxStartIsr(void)
rxStartIsr:
          CFI Block cfiBlock6 Using cfiCommon0
          CFI Function rxStartIsr
        CODE
//  395 {
        FUNCALL rxStartIsr, halAssertHandler
        LOCFRAME ISTACK, 0, STACK
        LOCFRAME PSTACK, 0, STACK
        LOCFRAME XSTACK, 19, STACK
        LOCFRAME IOVERLAY, 0, STATIC
        LOCFRAME DOVERLAY, 0, STATIC
        ARGFRAME ISTACK, 0, STACK
        ARGFRAME PSTACK, 0, STACK
        ARGFRAME XSTACK, 19, STACK
        ARGFRAME IOVERLAY, 0, STATIC
        ARGFRAME DOVERLAY, 0, STATIC
        FUNCALL rxStartIsr, rxPostRxUpdates
        LOCFRAME ISTACK, 0, STACK
        LOCFRAME PSTACK, 0, STACK
        LOCFRAME XSTACK, 19, STACK
        LOCFRAME IOVERLAY, 0, STATIC
        LOCFRAME DOVERLAY, 0, STATIC
        ARGFRAME ISTACK, 0, STACK
        ARGFRAME PSTACK, 0, STACK
        ARGFRAME XSTACK, 19, STACK
        ARGFRAME IOVERLAY, 0, STATIC
        ARGFRAME DOVERLAY, 0, STATIC
        FUNCALL rxStartIsr, macCspForceTxDoneIfPending
        LOCFRAME ISTACK, 0, STACK
        LOCFRAME PSTACK, 0, STACK
        LOCFRAME XSTACK, 19, STACK
        LOCFRAME IOVERLAY, 0, STATIC
        LOCFRAME DOVERLAY, 0, STATIC
        ARGFRAME ISTACK, 0, STACK
        ARGFRAME PSTACK, 0, STACK
        ARGFRAME XSTACK, 19, STACK
        ARGFRAME IOVERLAY, 0, STATIC
        ARGFRAME DOVERLAY, 0, STATIC
        FUNCALL rxStartIsr, macMemReadRxFifo
        LOCFRAME ISTACK, 0, STACK
        LOCFRAME PSTACK, 0, STACK
        LOCFRAME XSTACK, 19, STACK
        LOCFRAME IOVERLAY, 0, STATIC
        LOCFRAME DOVERLAY, 0, STATIC
        ARGFRAME ISTACK, 0, STACK
        ARGFRAME PSTACK, 0, STACK
        ARGFRAME XSTACK, 19, STACK
        ARGFRAME IOVERLAY, 0, STATIC
        ARGFRAME DOVERLAY, 0, STATIC
        FUNCALL rxStartIsr, rxDone
        LOCFRAME ISTACK, 0, STACK
        LOCFRAME PSTACK, 0, STACK
        LOCFRAME XSTACK, 19, STACK
        LOCFRAME IOVERLAY, 0, STATIC
        LOCFRAME DOVERLAY, 0, STATIC
        ARGFRAME ISTACK, 0, STACK
        ARGFRAME PSTACK, 0, STACK
        ARGFRAME XSTACK, 19, STACK
        ARGFRAME IOVERLAY, 0, STATIC
        ARGFRAME DOVERLAY, 0, STATIC
        FUNCALL rxStartIsr, halAssertHandler
        LOCFRAME ISTACK, 0, STACK
        LOCFRAME PSTACK, 0, STACK
        LOCFRAME XSTACK, 19, STACK
        LOCFRAME IOVERLAY, 0, STATIC
        LOCFRAME DOVERLAY, 0, STATIC
        ARGFRAME ISTACK, 0, STACK
        ARGFRAME PSTACK, 0, STACK
        ARGFRAME XSTACK, 19, STACK
        ARGFRAME IOVERLAY, 0, STATIC
        ARGFRAME DOVERLAY, 0, STATIC
        FUNCALL rxStartIsr, macMemReadRxFifo
        LOCFRAME ISTACK, 0, STACK
        LOCFRAME PSTACK, 0, STACK
        LOCFRAME XSTACK, 19, STACK
        LOCFRAME IOVERLAY, 0, STATIC
        LOCFRAME DOVERLAY, 0, STATIC
        ARGFRAME ISTACK, 0, STACK
        ARGFRAME PSTACK, 0, STACK
        ARGFRAME XSTACK, 19, STACK
        ARGFRAME IOVERLAY, 0, STATIC
        ARGFRAME DOVERLAY, 0, STATIC
        FUNCALL rxStartIsr, halAssertHandler
        LOCFRAME ISTACK, 0, STACK
        LOCFRAME PSTACK, 0, STACK
        LOCFRAME XSTACK, 19, STACK
        LOCFRAME IOVERLAY, 0, STATIC
        LOCFRAME DOVERLAY, 0, STATIC
        ARGFRAME ISTACK, 0, STACK
        ARGFRAME PSTACK, 0, STACK
        ARGFRAME XSTACK, 19, STACK
        ARGFRAME IOVERLAY, 0, STATIC
        ARGFRAME DOVERLAY, 0, STATIC
        FUNCALL rxStartIsr, macRadioComputeLQI
        LOCFRAME ISTACK, 0, STACK
        LOCFRAME PSTACK, 0, STACK
        LOCFRAME XSTACK, 19, STACK
        LOCFRAME IOVERLAY, 0, STATIC
        LOCFRAME DOVERLAY, 0, STATIC
        ARGFRAME ISTACK, 0, STACK
        ARGFRAME PSTACK, 0, STACK
        ARGFRAME XSTACK, 19, STACK
        ARGFRAME IOVERLAY, 0, STATIC
        ARGFRAME DOVERLAY, 0, STATIC
        FUNCALL rxStartIsr, macTxAckReceivedCallback
        LOCFRAME ISTACK, 0, STACK
        LOCFRAME PSTACK, 0, STACK
        LOCFRAME XSTACK, 19, STACK
        LOCFRAME IOVERLAY, 0, STATIC
        LOCFRAME DOVERLAY, 0, STATIC
        ARGFRAME ISTACK, 0, STACK
        ARGFRAME PSTACK, 0, STACK
        ARGFRAME XSTACK, 19, STACK
        ARGFRAME IOVERLAY, 0, STATIC
        ARGFRAME DOVERLAY, 0, STATIC
        FUNCALL rxStartIsr, macTxAckNotReceivedCallback
        LOCFRAME ISTACK, 0, STACK
        LOCFRAME PSTACK, 0, STACK
        LOCFRAME XSTACK, 19, STACK
        LOCFRAME IOVERLAY, 0, STATIC
        LOCFRAME DOVERLAY, 0, STATIC
        ARGFRAME ISTACK, 0, STACK
        ARGFRAME PSTACK, 0, STACK
        ARGFRAME XSTACK, 19, STACK
        ARGFRAME IOVERLAY, 0, STATIC
        ARGFRAME DOVERLAY, 0, STATIC
        FUNCALL rxStartIsr, rxDone
        LOCFRAME ISTACK, 0, STACK
        LOCFRAME PSTACK, 0, STACK
        LOCFRAME XSTACK, 19, STACK
        LOCFRAME IOVERLAY, 0, STATIC
        LOCFRAME DOVERLAY, 0, STATIC
        ARGFRAME ISTACK, 0, STACK
        ARGFRAME PSTACK, 0, STACK
        ARGFRAME XSTACK, 19, STACK
        ARGFRAME IOVERLAY, 0, STATIC
        ARGFRAME DOVERLAY, 0, STATIC
        FUNCALL rxStartIsr, macTxAckNotReceivedCallback
        LOCFRAME ISTACK, 0, STACK
        LOCFRAME PSTACK, 0, STACK
        LOCFRAME XSTACK, 19, STACK
        LOCFRAME IOVERLAY, 0, STATIC
        LOCFRAME DOVERLAY, 0, STATIC
        ARGFRAME ISTACK, 0, STACK
        ARGFRAME PSTACK, 0, STACK
        ARGFRAME XSTACK, 19, STACK
        ARGFRAME IOVERLAY, 0, STATIC
        ARGFRAME DOVERLAY, 0, STATIC
        FUNCALL rxStartIsr, rxDiscardFrame
        LOCFRAME ISTACK, 0, STACK
        LOCFRAME PSTACK, 0, STACK
        LOCFRAME XSTACK, 19, STACK
        LOCFRAME IOVERLAY, 0, STATIC
        LOCFRAME DOVERLAY, 0, STATIC
        ARGFRAME ISTACK, 0, STACK
        ARGFRAME PSTACK, 0, STACK
        ARGFRAME XSTACK, 19, STACK
        ARGFRAME IOVERLAY, 0, STATIC
        ARGFRAME DOVERLAY, 0, STATIC
        FUNCALL rxStartIsr, rxDone
        LOCFRAME ISTACK, 0, STACK
        LOCFRAME PSTACK, 0, STACK
        LOCFRAME XSTACK, 19, STACK
        LOCFRAME IOVERLAY, 0, STATIC
        LOCFRAME DOVERLAY, 0, STATIC
        ARGFRAME ISTACK, 0, STACK
        ARGFRAME PSTACK, 0, STACK
        ARGFRAME XSTACK, 19, STACK
        ARGFRAME IOVERLAY, 0, STATIC
        ARGFRAME DOVERLAY, 0, STATIC
        FUNCALL rxStartIsr, rxDiscardFrame
        LOCFRAME ISTACK, 0, STACK
        LOCFRAME PSTACK, 0, STACK
        LOCFRAME XSTACK, 19, STACK
        LOCFRAME IOVERLAY, 0, STATIC
        LOCFRAME DOVERLAY, 0, STATIC
        ARGFRAME ISTACK, 0, STACK
        ARGFRAME PSTACK, 0, STACK
        ARGFRAME XSTACK, 19, STACK
        ARGFRAME IOVERLAY, 0, STATIC
        ARGFRAME DOVERLAY, 0, STATIC
        FUNCALL rxStartIsr, macDataRxMemAlloc
        LOCFRAME ISTACK, 0, STACK
        LOCFRAME PSTACK, 0, STACK
        LOCFRAME XSTACK, 19, STACK
        LOCFRAME IOVERLAY, 0, STATIC
        LOCFRAME DOVERLAY, 0, STATIC
        ARGFRAME ISTACK, 0, STACK
        ARGFRAME PSTACK, 0, STACK
        ARGFRAME XSTACK, 19, STACK
        ARGFRAME IOVERLAY, 0, STATIC
        ARGFRAME DOVERLAY, 0, STATIC
        FUNCALL rxStartIsr, rxDiscardFrame
        LOCFRAME ISTACK, 0, STACK
        LOCFRAME PSTACK, 0, STACK
        LOCFRAME XSTACK, 19, STACK
        LOCFRAME IOVERLAY, 0, STATIC
        LOCFRAME DOVERLAY, 0, STATIC
        ARGFRAME ISTACK, 0, STACK
        ARGFRAME PSTACK, 0, STACK
        ARGFRAME XSTACK, 19, STACK
        ARGFRAME IOVERLAY, 0, STATIC
        ARGFRAME DOVERLAY, 0, STATIC
        FUNCALL rxStartIsr, macRxCheckMACPendingCallback
        LOCFRAME ISTACK, 0, STACK
        LOCFRAME PSTACK, 0, STACK
        LOCFRAME XSTACK, 19, STACK
        LOCFRAME IOVERLAY, 0, STATIC
        LOCFRAME DOVERLAY, 0, STATIC
        ARGFRAME ISTACK, 0, STACK
        ARGFRAME PSTACK, 0, STACK
        ARGFRAME XSTACK, 19, STACK
        ARGFRAME IOVERLAY, 0, STATIC
        ARGFRAME DOVERLAY, 0, STATIC
        FUNCALL rxStartIsr, MAC_SrcMatchCheckAllPending
        LOCFRAME ISTACK, 0, STACK
        LOCFRAME PSTACK, 0, STACK
        LOCFRAME XSTACK, 19, STACK
        LOCFRAME IOVERLAY, 0, STATIC
        LOCFRAME DOVERLAY, 0, STATIC
        ARGFRAME ISTACK, 0, STACK
        ARGFRAME PSTACK, 0, STACK
        ARGFRAME XSTACK, 19, STACK
        ARGFRAME IOVERLAY, 0, STATIC
        ARGFRAME DOVERLAY, 0, STATIC
        FUNCALL rxStartIsr, macRxCheckPendingCallback
        LOCFRAME ISTACK, 0, STACK
        LOCFRAME PSTACK, 0, STACK
        LOCFRAME XSTACK, 19, STACK
        LOCFRAME IOVERLAY, 0, STATIC
        LOCFRAME DOVERLAY, 0, STATIC
        ARGFRAME ISTACK, 0, STACK
        ARGFRAME PSTACK, 0, STACK
        ARGFRAME XSTACK, 19, STACK
        ARGFRAME IOVERLAY, 0, STATIC
        ARGFRAME DOVERLAY, 0, STATIC
        FUNCALL rxStartIsr, macMcuOverflowCapture
        LOCFRAME ISTACK, 0, STACK
        LOCFRAME PSTACK, 0, STACK
        LOCFRAME XSTACK, 19, STACK
        LOCFRAME IOVERLAY, 0, STATIC
        LOCFRAME DOVERLAY, 0, STATIC
        ARGFRAME ISTACK, 0, STACK
        ARGFRAME PSTACK, 0, STACK
        ARGFRAME XSTACK, 19, STACK
        ARGFRAME IOVERLAY, 0, STATIC
        ARGFRAME DOVERLAY, 0, STATIC
        FUNCALL rxStartIsr, macMcuTimerCapture
        LOCFRAME ISTACK, 0, STACK
        LOCFRAME PSTACK, 0, STACK
        LOCFRAME XSTACK, 19, STACK
        LOCFRAME IOVERLAY, 0, STATIC
        LOCFRAME DOVERLAY, 0, STATIC
        ARGFRAME ISTACK, 0, STACK
        ARGFRAME PSTACK, 0, STACK
        ARGFRAME XSTACK, 19, STACK
        ARGFRAME IOVERLAY, 0, STATIC
        ARGFRAME DOVERLAY, 0, STATIC
        FUNCALL rxStartIsr, rxPrepPayload
        LOCFRAME ISTACK, 0, STACK
        LOCFRAME PSTACK, 0, STACK
        LOCFRAME XSTACK, 19, STACK
        LOCFRAME IOVERLAY, 0, STATIC
        LOCFRAME DOVERLAY, 0, STATIC
        ARGFRAME ISTACK, 0, STACK
        ARGFRAME PSTACK, 0, STACK
        ARGFRAME XSTACK, 19, STACK
        ARGFRAME IOVERLAY, 0, STATIC
        ARGFRAME DOVERLAY, 0, STATIC
        REQUIRE ?V0
        REQUIRE ?V1
        REQUIRE ?V2
        REQUIRE ?V3
        REQUIRE ?V4
        REQUIRE ?V5
        REQUIRE ?V6
        REQUIRE ?V7
        MOV     A,#-0x10
        LCALL   ?BANKED_ENTER_XDATA
          CFI DPH0 load(1, XDATA, add(CFA_XSP16, literal(-1)))
          CFI DPL0 load(1, XDATA, add(CFA_XSP16, literal(-2)))
          CFI ?BRET_EXT load(1, XDATA, add(CFA_XSP16, literal(-3)))
          CFI ?RET_HIGH load(1, XDATA, add(CFA_XSP16, literal(-4)))
          CFI ?RET_LOW load(1, XDATA, add(CFA_XSP16, literal(-5)))
          CFI R7 load(1, XDATA, add(CFA_XSP16, literal(-6)))
          CFI V7 load(1, XDATA, add(CFA_XSP16, literal(-7)))
          CFI V6 load(1, XDATA, add(CFA_XSP16, literal(-8)))
          CFI V5 load(1, XDATA, add(CFA_XSP16, literal(-9)))
          CFI V4 load(1, XDATA, add(CFA_XSP16, literal(-10)))
          CFI V3 load(1, XDATA, add(CFA_XSP16, literal(-11)))
          CFI V2 load(1, XDATA, add(CFA_XSP16, literal(-12)))
          CFI V1 load(1, XDATA, add(CFA_XSP16, literal(-13)))
          CFI V0 load(1, XDATA, add(CFA_XSP16, literal(-14)))
          CFI VB load(1, XDATA, add(CFA_XSP16, literal(-15)))
          CFI R6 load(1, XDATA, add(CFA_XSP16, literal(-16)))
          CFI CFA_SP SP+0
          CFI CFA_XSP16 add(XSP16, 16)
        ; Saved register size: 16
        ; Auto size: 3
        MOV     A,#-0x3
        LCALL   ?ALLOC_XSTACK8
          CFI CFA_XSP16 add(XSP16, 19)
//  396   uint8  addrLen;
//  397   uint8  ackWithPending;
//  398   uint8  dstAddrMode;
//  399   uint8  srcAddrMode;
//  400 
//  401   MAC_ASSERT(!macRxActive); /* receive on top of receive */
        MOV     DPTR,#macRxActive
        MOVX    A,@DPTR
        JZ      ??rxStartIsr_0
        ; Setup parameters for call to function halAssertHandler
        LCALL   ??halAssertHandler?relay; Banked call to: halAssertHandler
//  402 
//  403   /* indicate rx is active */
//  404   macRxActive = MAC_RX_ACTIVE_STARTED;
??rxStartIsr_0:
        MOV     DPTR,#macRxActive
        MOV     A,#-0x7f
        MOVX    @DPTR,A
//  405 
//  406   /*
//  407    *  For bullet proof functionality, need to see if the receiver was just turned off.
//  408    *  The logic to request turning off the receiver, disables interrupts and then checks
//  409    *  the value of macRxActive.  If it is TRUE, the receiver will not be turned off.
//  410    *
//  411    *  There is a small hole though.  It's possible to attempt turning off the receiver
//  412    *  in the window from when the receive interrupt fires and the point where macRxActive
//  413    *  is set to TRUE.  To plug this hole, the on/off status must be tested *after*
//  414    *  macRxActive has been set.  If the receiver is off at this point, there is nothing
//  415    *  in the RX fifo and the receive is simply aborted.
//  416    *
//  417    *  Also, there are some considerations in case a hard disable just happened.  Usually,
//  418    *  the receiver will just be off at this point after a hard disable.  The check described
//  419    *  above will account for this case too.  However, if a hard disable were immediately
//  420    *  followed by an enable, the receiver would be on.  To catch this case, the receive
//  421    *  FIFO is also tested to see if it is empty.  Recovery is identical to the other cases.
//  422    */
//  423   if (!macRxOnFlag || MAC_RADIO_RX_FIFO_IS_EMPTY())
        MOV     DPTR,#macRxOnFlag
        MOVX    A,@DPTR
        JZ      ??rxStartIsr_1
        MOV     DPTR,#0x6193
        MOVX    A,@DPTR
        MOV     C,0xE0 /* A   */.7
        JC      ??rxStartIsr_2
        MOV     DPTR,#0x6193
        MOVX    A,@DPTR
        MOV     C,0xE0 /* A   */.6
        JC      ??rxStartIsr_2
//  424   {
//  425     /* reset active flag */
//  426     macRxActive = MAC_RX_ACTIVE_NO_ACTIVITY;
??rxStartIsr_1:
        MOV     DPTR,#macRxActive
        MOV     A,#0x0
        MOVX    @DPTR,A
//  427 
//  428     /*
//  429      *  To be absolutely bulletproof, must make sure no transmit queue'ed up during
//  430      *  the tiny, tiny window when macRxActive was not zero.
//  431      */
//  432     rxPostRxUpdates();
        ; Setup parameters for call to function rxPostRxUpdates
        LCALL   ??rxPostRxUpdates?relay; Banked call to: rxPostRxUpdates
//  433 
//  434     /* return immediately from here */
//  435     return;
        LJMP    ??rxStartIsr_3 & 0xFFFF
//  436   }
//  437 
//  438   /*
//  439    *  If interrupts are held off for too long it's possible the previous "transmit done"
//  440    *  callback is pending.  If this is the case, it needs to be completed before
//  441    *  continuing with the receive logic.
//  442    */
//  443   MAC_RADIO_FORCE_TX_DONE_IF_PENDING();
??rxStartIsr_2:
        ; Setup parameters for call to function macCspForceTxDoneIfPending
        LCALL   ??macCspForceTxDoneIfPending?relay; Banked call to: macCspForceTxDoneIfPending
//  444 
//  445   /*
//  446    *  It's possible receive logic is still waiting for confirmation of an ACK that went out
//  447    *  for the previous receive.  This is OK but the callback needs to be canceled at this point.
//  448    *  That callback execute receive cleanup logic that will run at the completion
//  449    *  of *this* receive.  Also, it is important the flag for the outgoing ACK to be cleared.
//  450    */
//  451   MAC_RADIO_CANCEL_ACK_TX_DONE_CALLBACK();
        MOV     DPTR,#0x61a4
        MOVX    A,@DPTR
        CLR     0xE0 /* A   */.0
        MOVX    @DPTR,A
//  452   macRxOutgoingAckFlag = 0;
        MOV     DPTR,#macRxOutgoingAckFlag
        MOV     A,#0x0
        MOVX    @DPTR,A
//  453 
//  454   /*
//  455    *  Make a module-local copy of macRxFilter.  This prevents the selected
//  456    *  filter from changing in the middle of a receive.
//  457    */
//  458   rxFilter = macRxFilter;
        MOV     DPTR,#macRxFilter
        MOVX    A,@DPTR
        MOV     DPTR,#rxFilter
        MOVX    @DPTR,A
//  459 
//  460   /*-------------------------------------------------------------------------------
//  461    *  Read initial frame information from FIFO.
//  462    *
//  463    *   This code is not triggered until the following are in the RX FIFO:
//  464    *     frame length          - one byte containing length of MAC frame (excludes this field)
//  465    *     frame control field   - two bytes defining frame type, addressing fields, control flags
//  466    *     sequence number       - one byte unique sequence identifier
//  467    *     additional two bytes  - these bytes are available in case the received frame is an ACK,
//  468    *                             if so, the frame can be verified and responded to immediately,
//  469    *                             if not an ACK, these bytes will be processed normally
//  470    */
//  471 
//  472   /* read frame length, frame control field, and sequence number from FIFO */
//  473   MAC_RADIO_READ_RX_FIFO(rxBuf, MAC_PHY_PHR_LEN + MAC_FCF_FIELD_LEN + MAC_SEQ_NUM_FIELD_LEN);
        ; Setup parameters for call to function macMemReadRxFifo
        MOV     R1,#0x4
        MOV     R2,#rxBuf & 0xff
        MOV     R3,#(rxBuf >> 8) & 0xff
        LCALL   ??macMemReadRxFifo?relay; Banked call to: macMemReadRxFifo
//  474 
//  475   /* bytes to read from FIFO equals frame length minus length of MHR fields just read from FIFO */
//  476   rxUnreadLen = (rxBuf[0] & PHY_PACKET_SIZE_MASK) - MAC_FCF_FIELD_LEN - MAC_SEQ_NUM_FIELD_LEN;
        MOV     DPTR,#rxBuf
        MOVX    A,@DPTR
        ANL     A,#0x7f
        ADD     A,#-0x3
        MOV     DPTR,#rxUnreadLen
        MOVX    @DPTR,A
//  477 
//  478   /*
//  479    *  Workaround for chip bug #1547.  The receive buffer can sometimes be corrupted by hardware.
//  480    *  This usually occurs under heavy traffic.  If a corrupted receive buffer is detected
//  481    *  the entire receive buffer is flushed.
//  482    *
//  483    *  In the case that this workaround is not needed, an assert is used to make sure the
//  484    *  receive length field is not corrupted.  This is important because a corrupted receive
//  485    *  length field is utterly fatal and, if not caught here, extremely hard to track down.
//  486    */
//  487   if (macChipVersion == REV_A)
        MOV     DPTR,#macChipVersion
        MOVX    A,@DPTR
        JNZ     ??rxStartIsr_4
//  488   {
//  489     if ((rxUnreadLen > (MAC_A_MAX_PHY_PACKET_SIZE - MAC_FCF_FIELD_LEN - MAC_SEQ_NUM_FIELD_LEN)) ||
//  490         (MAC_FRAME_TYPE(&rxBuf[1]) > MAC_FRAME_TYPE_MAX_VALID))
        MOV     DPTR,#rxUnreadLen
        MOVX    A,@DPTR
        CLR     C
        SUBB    A,#0x7d
        JNC     ??rxStartIsr_5
        MOV     DPTR,#rxBuf + 1
        MOVX    A,@DPTR
        ANL     A,#0x7
        CLR     C
        SUBB    A,#0x4
        JC      ??rxStartIsr_6
//  491     {
//  492       MAC_RADIO_FLUSH_RX_FIFO();
??rxStartIsr_5:
        MOV     0xe1,#-0x13
        MOV     0xe1,#-0x13
//  493       rxDone();
        ; Setup parameters for call to function rxDone
        LCALL   ??rxDone?relay       ; Banked call to: rxDone
//  494       return;
        LJMP    ??rxStartIsr_3 & 0xFFFF
//  495     }
//  496   }
//  497   else
//  498   {
//  499     /* radio supplied a corrupted receive buffer length */
//  500     MAC_ASSERT(rxUnreadLen <= (MAC_A_MAX_PHY_PACKET_SIZE - MAC_FCF_FIELD_LEN - MAC_SEQ_NUM_FIELD_LEN));
??rxStartIsr_4:
        MOV     DPTR,#rxUnreadLen
        MOVX    A,@DPTR
        CLR     C
        SUBB    A,#0x7d
        JC      ??rxStartIsr_6
        ; Setup parameters for call to function halAssertHandler
        LCALL   ??halAssertHandler?relay; Banked call to: halAssertHandler
//  501   }
//  502 
//  503 
//  504 
//  505   /*-------------------------------------------------------------------------------
//  506    *  Process ACKs.
//  507    *
//  508    *  If this frame is an ACK, process it immediately and exit from here.
//  509    *  If this frame is not an ACK and transmit is listening for an ACK, let
//  510    *  the transmit logic know an non-ACK was received so transmit can complete.
//  511    *
//  512    *  In promiscuous mode ACKs are treated like any other frame.
//  513    */
//  514   if ((MAC_FRAME_TYPE(&rxBuf[1]) == MAC_FRAME_TYPE_ACK) && (rxPromiscuousMode == PROMISCUOUS_MODE_OFF))
??rxStartIsr_6:
        MOV     DPTR,#rxBuf + 1
        MOVX    A,@DPTR
        ANL     A,#0x7
        XRL     A,#0x2
        JZ      $+5
        LJMP    ??rxStartIsr_7 & 0xFFFF
        MOV     DPTR,#rxPromiscuousMode
        MOVX    A,@DPTR
        JZ      $+5
        LJMP    ??rxStartIsr_7 & 0xFFFF
//  515   {
//  516     halIntState_t  s;
//  517     uint8 fcsBuf[MAC_FCF_FIELD_LEN];
//  518     /*
//  519      *  There are guaranteed to be two unread bytes in the FIFO.  By defintion, for ACK frames
//  520      *  these two bytes will be the FCS.
//  521      */
//  522 
//  523     /* read FCS from FIFO (threshold set so bytes are guaranteed to be there) */
//  524     MAC_RADIO_READ_RX_FIFO(fcsBuf, MAC_FCS_FIELD_LEN);
        ; Setup parameters for call to function macMemReadRxFifo
        MOV     R1,#0x2
        MOV     R2,?XSP + 0
        MOV     R3,?XSP + 1
        LCALL   ??macMemReadRxFifo?relay; Banked call to: macMemReadRxFifo
//  525 
//  526     /*
//  527      *  This critical section ensures that the ACK timeout won't be triggered in the
//  528      *  millde of receiving the ACK frame.
//  529      */
//  530     HAL_ENTER_CRITICAL_SECTION(s);
        MOV     C,0xa8.7
        CLR     A
        RLC     A
        MOV     ?V0,A
        CLR     0xa8.7
//  531 
//  532     /* see if transmit is listening for an ACK */
//  533     if (macTxActive == MAC_TX_ACTIVE_LISTEN_FOR_ACK)
        MOV     DPTR,#macTxActive
        MOVX    A,@DPTR
        XRL     A,#0x86
        JZ      $+5
        LJMP    ??rxStartIsr_8 & 0xFFFF
//  534     {
//  535       MAC_ASSERT(pMacDataTx != NULL); /* transmit buffer must be present */
        MOV     DPTR,#pMacDataTx
        MOVX    A,@DPTR
        MOV     R0,A
        INC     DPTR
        MOVX    A,@DPTR
        MOV     R1,A
        MOV     A,R0
        ORL     A,R1
        JNZ     ??rxStartIsr_9
        ; Setup parameters for call to function halAssertHandler
        LCALL   ??halAssertHandler?relay; Banked call to: halAssertHandler
//  536 
//  537       /* record link quality metrics for the receive ACK */
//  538       {
//  539         int8 rssiDbm;
//  540         uint8 corr;
//  541 
//  542         rssiDbm = PROPRIETARY_FCS_RSSI(fcsBuf) + MAC_RADIO_RSSI_OFFSET;
??rxStartIsr_9:
        MOV     DPL,?XSP + 0
        MOV     DPH,?XSP + 1
        MOVX    A,@DPTR
        ADD     A,#-0x49
        MOV     ?V2,A
//  543         MAC_RADIO_RSSI_LNA_OFFSET(rssiDbm);
//  544         corr = PROPRIETARY_FCS_CORRELATION_VALUE(fcsBuf);
        MOV     A,#0x1
        LCALL   ?XSTACK_DISP0_8
        MOVX    A,@DPTR
        ANL     A,#0x7f
        MOV     ?V1,A
//  545 
//  546         pMacDataTx->internal.mpduLinkQuality = macRadioComputeLQI(rssiDbm, corr);
        ; Setup parameters for call to function macRadioComputeLQI
        MOV     R2,?V1
        MOV     R1,?V2
        LCALL   ??macRadioComputeLQI?relay; Banked call to: macRadioComputeLQI
        MOV     A,R1
        PUSH    A
          CFI CFA_SP SP+-1
        MOV     DPTR,#pMacDataTx
        MOVX    A,@DPTR
        MOV     R0,A
        INC     DPTR
        MOVX    A,@DPTR
        XCH     A,R0
        ADD     A,#0x14
        MOV     DPL,A
        XCH     A,R0
        ADDC    A,#0x0
        MOV     DPH,A
        POP     A
          CFI CFA_SP SP+0
        MOVX    @DPTR,A
//  547         pMacDataTx->internal.correlation = corr;
        MOV     A,?V1
        PUSH    A
          CFI CFA_SP SP+-1
        MOV     DPTR,#pMacDataTx
        MOVX    A,@DPTR
        MOV     R0,A
        INC     DPTR
        MOVX    A,@DPTR
        XCH     A,R0
        ADD     A,#0x15
        MOV     DPL,A
        XCH     A,R0
        ADDC    A,#0x0
        MOV     DPH,A
        POP     A
          CFI CFA_SP SP+0
        MOVX    @DPTR,A
//  548         pMacDataTx->internal.rssi= rssiDbm;
        MOV     A,?V2
        PUSH    A
          CFI CFA_SP SP+-1
        MOV     DPTR,#pMacDataTx
        MOVX    A,@DPTR
        MOV     R0,A
        INC     DPTR
        MOVX    A,@DPTR
        XCH     A,R0
        ADD     A,#0x16
        MOV     DPL,A
        XCH     A,R0
        ADDC    A,#0x0
        MOV     DPH,A
        POP     A
          CFI CFA_SP SP+0
        MOVX    @DPTR,A
//  549       }
//  550 
//  551       /*
//  552        *  It's okay if the ACK timeout is triggered here. The callbacks for ACK received
//  553        *  or ACK not received will check "macTxActive" flag before taking any actions.
//  554        */
//  555       HAL_EXIT_CRITICAL_SECTION(s);
        MOV     A,?V0
        PUSH    A
          CFI CFA_SP SP+-1
        MOV     A,#0x2
        LCALL   ?XSTACK_DISP0_8
        POP     A
          CFI CFA_SP SP+0
        MOVX    @DPTR,A
        MOV     A,?V0
        MOV     C,0xE0 /* A   */.0
        MOV     0xa8.7,C
//  556 
//  557       /*
//  558        *  An ACK was received so transmit logic needs to know.  If the FCS failed,
//  559        *  the transmit logic still needs to know.  In that case, treat the frame
//  560        *  as a non-ACK to complete the active transmit.
//  561        */
//  562       if (PROPRIETARY_FCS_CRC_OK(fcsBuf))
        MOV     A,#0x1
        LCALL   ?XSTACK_DISP0_8
        MOVX    A,@DPTR
        MOV     C,0xE0 /* A   */.7
        JNC     ??rxStartIsr_10
//  563       {
//  564         /* call transmit logic to indicate ACK was received */
//  565         macTxAckReceivedCallback(MAC_SEQ_NUMBER(&rxBuf[1]), MAC_FRAME_PENDING(&rxBuf[1]));
        ; Setup parameters for call to function macTxAckReceivedCallback
        MOV     DPTR,#rxBuf + 1
        MOVX    A,@DPTR
        ANL     A,#0x10
        MOV     R2,A
        MOV     DPTR,#rxBuf + 3
        MOVX    A,@DPTR
        MOV     R1,A
        LCALL   ??macTxAckReceivedCallback?relay; Banked call to: macTxAckReceivedCallback
        SJMP    ??rxStartIsr_11
//  566       }
//  567       else
//  568       {
//  569         macTxAckNotReceivedCallback();
??rxStartIsr_10:
        ; Setup parameters for call to function macTxAckNotReceivedCallback
        LCALL   ??macTxAckNotReceivedCallback?relay; Banked call to: macTxAckNotReceivedCallback
        SJMP    ??rxStartIsr_11
//  570       }
//  571     }
//  572     else
//  573     {
//  574       HAL_EXIT_CRITICAL_SECTION(s);
??rxStartIsr_8:
        MOV     A,?V0
        PUSH    A
          CFI CFA_SP SP+-1
        MOV     A,#0x2
        LCALL   ?XSTACK_DISP0_8
        POP     A
          CFI CFA_SP SP+0
        MOVX    @DPTR,A
        MOV     A,?V0
        MOV     C,0xE0 /* A   */.0
        MOV     0xa8.7,C
//  575     }
//  576 
//  577     /* receive is done, exit from here */
//  578     rxDone();
??rxStartIsr_11:
        ; Setup parameters for call to function rxDone
        LCALL   ??rxDone?relay       ; Banked call to: rxDone
//  579     return;
        LJMP    ??rxStartIsr_3 & 0xFFFF
//  580   }
//  581   else if (macTxActive == MAC_TX_ACTIVE_LISTEN_FOR_ACK)
??rxStartIsr_7:
        MOV     DPTR,#macTxActive
        MOVX    A,@DPTR
        XRL     A,#0x86
        JNZ     ??rxStartIsr_12
//  582   {
//  583     macTxAckNotReceivedCallback();
        ; Setup parameters for call to function macTxAckNotReceivedCallback
        LCALL   ??macTxAckNotReceivedCallback?relay; Banked call to: macTxAckNotReceivedCallback
//  584   }
//  585 
//  586   /*-------------------------------------------------------------------------------
//  587    *  Apply filtering.
//  588    *
//  589    *  For efficiency, see if filtering is even 'on' before processing.  Also test
//  590    *  to make sure promiscuous mode is disabled.  If promiscuous mode is enabled,
//  591    *  do not apply filtering.
//  592    */
//  593   if ((rxFilter != RX_FILTER_OFF) && !rxPromiscuousMode)
??rxStartIsr_12:
        MOV     DPTR,#rxFilter
        MOVX    A,@DPTR
        JZ      ??rxStartIsr_13
        MOV     DPTR,#rxPromiscuousMode
        MOVX    A,@DPTR
        JNZ     ??rxStartIsr_13
//  594   {
//  595     if (/* filter all frames */
//  596          (rxFilter == RX_FILTER_ALL) ||
//  597 
//  598          /* filter non-beacon frames */
//  599          ((rxFilter == RX_FILTER_NON_BEACON_FRAMES) &&
//  600           (MAC_FRAME_TYPE(&rxBuf[1]) != MAC_FRAME_TYPE_BEACON)) ||
//  601 
//  602          /* filter non-command frames */
//  603          ((rxFilter == RX_FILTER_NON_COMMAND_FRAMES) &&
//  604           ((MAC_FRAME_TYPE(&rxBuf[1]) != MAC_FRAME_TYPE_COMMAND))))
        MOV     DPTR,#rxFilter
        MOVX    A,@DPTR
        XRL     A,#0x1
        JZ      ??rxStartIsr_14
        MOV     DPTR,#rxFilter
        MOVX    A,@DPTR
        XRL     A,#0x2
        JNZ     ??rxStartIsr_15
        MOV     DPTR,#rxBuf + 1
        MOVX    A,@DPTR
        ANL     A,#0x7
        JNZ     ??rxStartIsr_14
??rxStartIsr_15:
        MOV     DPTR,#rxFilter
        MOVX    A,@DPTR
        XRL     A,#0x3
        JNZ     ??rxStartIsr_13
        MOV     DPTR,#rxBuf + 1
        MOVX    A,@DPTR
        ANL     A,#0x7
        XRL     A,#0x3
        JZ      ??rxStartIsr_13
//  605     {
//  606       /* discard rest of frame */
//  607       rxDiscardFrame();
??rxStartIsr_14:
        ; Setup parameters for call to function rxDiscardFrame
        LCALL   ??rxDiscardFrame?relay; Banked call to: rxDiscardFrame
//  608       return;
        LJMP    ??rxStartIsr_3 & 0xFFFF
//  609     }
//  610   }
//  611 
//  612   /*-------------------------------------------------------------------------------
//  613    *  Compute length of addressing fields.  Compute payload length.
//  614    */
//  615 
//  616   /* decode addressing modes */
//  617   dstAddrMode = MAC_DEST_ADDR_MODE(&rxBuf[1]);
??rxStartIsr_13:
        MOV     DPTR,#rxBuf + 2
        MOVX    A,@DPTR
        RRC     A
        RRC     A
        ANL     A,#0x3f
        ANL     A,#0x3
        MOV     ?V5,A
//  618   srcAddrMode = MAC_SRC_ADDR_MODE(&rxBuf[1]);
        MOV     DPTR,#rxBuf + 2
        MOVX    A,@DPTR
        SWAP    A
        RRC     A
        RRC     A
        ANL     A,#0x3
        MOV     ?V4,A
//  619 
//  620   /*
//  621   *  Workaround for chip bug #1547.  The receive buffer can sometimes be corrupted by hardware.
//  622    *  This usually occurs under heavy traffic.  If a corrupted receive buffer is detected
//  623    *  the entire receive buffer is flushed.
//  624    */
//  625   if (macChipVersion == REV_A)
        MOV     DPTR,#macChipVersion
        MOVX    A,@DPTR
        JNZ     ??rxStartIsr_16
//  626   {
//  627     if ((srcAddrMode == ADDR_MODE_RESERVERED) || (dstAddrMode == ADDR_MODE_RESERVERED))
        MOV     A,#0x1
        XRL     A,?V4
        JZ      ??rxStartIsr_17
        MOV     A,#0x1
        XRL     A,?V5
        JNZ     ??rxStartIsr_16
//  628     {
//  629       MAC_RADIO_FLUSH_RX_FIFO();
??rxStartIsr_17:
        MOV     0xe1,#-0x13
        MOV     0xe1,#-0x13
//  630       rxDone();
        ; Setup parameters for call to function rxDone
        LCALL   ??rxDone?relay       ; Banked call to: rxDone
//  631       return;
        LJMP    ??rxStartIsr_3 & 0xFFFF
//  632     }
//  633   }
//  634 
//  635   /*
//  636    *  Compute the addressing field length.  A lookup table based on addressing
//  637    *  mode is used for efficiency.  If the source address is present and the
//  638    *  frame is intra-PAN, the PAN Id is not repeated.  In this case, the address
//  639    *  length is adjusted to match the smaller length.
//  640    */
//  641   addrLen = macRxAddrLen[dstAddrMode] + macRxAddrLen[srcAddrMode];
??rxStartIsr_16:
        MOV     R0,?V4
        MOV     R1,#0x0
        MOV     A,#macRxAddrLen & 0xff
        ADD     A,R0
        MOV     DPL,A
        MOV     A,#(macRxAddrLen >> 8) & 0xff
        ADDC    A,R1
        MOV     DPH,A
        CLR     A
        MOVC    A,@A+DPTR
        MOV     R2,A
        MOV     R0,?V5
        MOV     R1,#0x0
        MOV     A,#macRxAddrLen & 0xff
        ADD     A,R0
        MOV     DPL,A
        MOV     A,#(macRxAddrLen >> 8) & 0xff
        ADDC    A,R1
        MOV     DPH,A
        CLR     A
        MOVC    A,@A+DPTR
        ADD     A,R2
        MOV     R7,A
//  642   if ((srcAddrMode != SADDR_MODE_NONE) && MAC_INTRA_PAN(&rxBuf[1]))
        MOV     A,?V4
        JZ      ??rxStartIsr_18
        MOV     DPTR,#rxBuf + 1
        MOVX    A,@DPTR
        MOV     C,0xE0 /* A   */.6
        JNC     ??rxStartIsr_18
//  643   {
//  644     addrLen -= MAC_PAN_ID_FIELD_LEN;
        MOV     A,#-0x2
        ADD     A,R7
        MOV     R7,A
//  645   }
//  646 
//  647   /*
//  648    *  If there are not enough unread bytes to include the computed address
//  649    *  plus FCS field, the frame is corrupted and must be discarded.
//  650    */
//  651   if ((addrLen + MAC_FCS_FIELD_LEN) > rxUnreadLen)
??rxStartIsr_18:
        MOV     DPTR,#rxUnreadLen
        MOVX    A,@DPTR
        MOV     R2,A
        MOV     R3,#0x0
        MOV     A,R7
        MOV     R0,A
        MOV     R1,#0x0
        MOV     A,R0
        ADD     A,#0x2
        MOV     R0,A
        JNC     ??rxStartIsr_19
        INC     R1
??rxStartIsr_19:
        CLR     C
        MOV     A,R2
        SUBB    A,R0
        MOV     A,R3
        SUBB    A,R1
        MOV     C,0xD0 /* PSW */.2
        XRL     A,PSW
        RLC     A
        JNC     ??rxStartIsr_20
//  652   {
//  653     /* discard frame and exit */
//  654     rxDiscardFrame();
        ; Setup parameters for call to function rxDiscardFrame
        LCALL   ??rxDiscardFrame?relay; Banked call to: rxDiscardFrame
//  655     return;
        LJMP    ??rxStartIsr_3 & 0xFFFF
//  656   }
//  657 
//  658   /* payload length is equal to unread bytes minus address length, minus the FCS */
//  659   rxPayloadLen = rxUnreadLen - addrLen - MAC_FCS_FIELD_LEN;
??rxStartIsr_20:
        MOV     DPTR,#rxUnreadLen
        MOVX    A,@DPTR
        CLR     C
        SUBB    A,R7
        ADD     A,#-0x2
        MOV     DPTR,#rxPayloadLen
        MOVX    @DPTR,A
//  660 
//  661   /*-------------------------------------------------------------------------------
//  662    *  Allocate memory for the incoming frame.
//  663    */
//  664   pRxBuf = (macRx_t *) MEM_ALLOC(sizeof(macRx_t) + rxPayloadLen);
        ; Setup parameters for call to function macDataRxMemAlloc
        MOV     DPTR,#rxPayloadLen
        MOVX    A,@DPTR
        MOV     R0,A
        MOV     R1,#0x0
        MOV     A,R0
        ADD     A,#0x32
        MOV     R2,A
        CLR     A
        ADDC    A,R1
        MOV     R3,A
        LCALL   ??macDataRxMemAlloc?relay; Banked call to: macDataRxMemAlloc
        MOV     DPTR,#pRxBuf
        MOV     A,R2
        MOVX    @DPTR,A
        INC     DPTR
        MOV     A,R3
        MOVX    @DPTR,A
//  665   if (pRxBuf == NULL)
        MOV     DPTR,#pRxBuf
        MOVX    A,@DPTR
        MOV     R0,A
        INC     DPTR
        MOVX    A,@DPTR
        MOV     R1,A
        MOV     A,R0
        ORL     A,R1
        JNZ     ??rxStartIsr_21
//  666   {
//  667     /* Cancel the outgoing TX ACK */
//  668     MAC_RADIO_CANCEL_TX_ACK();
        MOV     0xe1,#-0x18
//  669 
//  670     /* buffer allocation failed, discard the frame and exit*/
//  671     rxDiscardFrame();
        ; Setup parameters for call to function rxDiscardFrame
        LCALL   ??rxDiscardFrame?relay; Banked call to: rxDiscardFrame
//  672     return;
        LJMP    ??rxStartIsr_3 & 0xFFFF
//  673   }
//  674 
//  675   /*-------------------------------------------------------------------------------
//  676    *  Set up to process ACK request.  Do not ACK if in promiscuous mode.
//  677    */
//  678   ackWithPending = 0;
??rxStartIsr_21:
        MOV     R6,#0x0
//  679   if (!rxPromiscuousMode)
        MOV     DPTR,#rxPromiscuousMode
        MOVX    A,@DPTR
        JNZ     ??rxStartIsr_22
//  680   {
//  681     macRxOutgoingAckFlag = MAC_ACK_REQUEST(&rxBuf[1]);
        MOV     DPTR,#rxBuf + 1
        MOVX    A,@DPTR
        ANL     A,#0x20
        MOV     DPTR,#macRxOutgoingAckFlag
        MOVX    @DPTR,A
//  682   }
//  683 
//  684   /*-------------------------------------------------------------------------------
//  685    *  Process any ACK request.
//  686    */
//  687   if (macRxOutgoingAckFlag)
??rxStartIsr_22:
        MOV     DPTR,#macRxOutgoingAckFlag
        MOVX    A,@DPTR
        JZ      ??rxStartIsr_23
//  688   {
//  689     halIntState_t  s;
//  690 
//  691     /*
//  692      *  This critical section ensures that the callback ISR is initiated within time
//  693      *  to guarantee correlation with the strobe.
//  694      */
//  695     HAL_ENTER_CRITICAL_SECTION(s);
        MOV     C,0xa8.7
        CLR     A
        RLC     A
        MOV     ?V0,A
        CLR     0xa8.7
//  696 
//  697     /* Do not ack data packet with pending more data */
//  698     if( MAC_FRAME_TYPE(&rxBuf[1]) == MAC_FRAME_TYPE_COMMAND )
        MOV     DPTR,#rxBuf + 1
        MOVX    A,@DPTR
        ANL     A,#0x7
        XRL     A,#0x3
        JNZ     ??rxStartIsr_24
//  699     {
//  700       if( macRxCheckMACPendingCallback())
        ; Setup parameters for call to function macRxCheckMACPendingCallback
        LCALL   ??macRxCheckMACPendingCallback?relay; Banked call to: macRxCheckMACPendingCallback
        MOV     A,R1
        JZ      ??rxStartIsr_25
//  701       {
//  702         /* Check is any mac data pending for end devices */
//  703         ackWithPending = MAC_RX_FLAG_ACK_PENDING;
        MOV     R6,#0x4
        SJMP    ??rxStartIsr_24
//  704       }
//  705       else
//  706       {
//  707         if( macSrcMatchIsEnabled )
??rxStartIsr_25:
        MOV     DPTR,#macSrcMatchIsEnabled
        MOVX    A,@DPTR
        JZ      ??rxStartIsr_26
//  708         {
//  709           /* When autopend is enabled, check if allpending is set to true */
//  710           if( MAC_SrcMatchCheckAllPending() == MAC_AUTOACK_PENDING_ALL_ON )
        ; Setup parameters for call to function MAC_SrcMatchCheckAllPending
        LCALL   ??MAC_SrcMatchCheckAllPending?relay; Banked call to: MAC_SrcMatchCheckAllPending
        MOV     A,R1
        XRL     A,#0xfe
        JNZ     ??rxStartIsr_24
//  711           {
//  712             ackWithPending = MAC_RX_FLAG_ACK_PENDING;
        MOV     R6,#0x4
        SJMP    ??rxStartIsr_24
//  713           }
//  714         }
//  715         else
//  716         {
//  717           /* When autopend is disabled, check the application pending callback */
//  718           if( macRxCheckPendingCallback() )
??rxStartIsr_26:
        ; Setup parameters for call to function macRxCheckPendingCallback
        LCALL   ??macRxCheckPendingCallback?relay; Banked call to: macRxCheckPendingCallback
        MOV     A,R1
        JZ      ??rxStartIsr_24
//  719           {
//  720             ackWithPending = MAC_RX_FLAG_ACK_PENDING;
        MOV     R6,#0x4
//  721           }
//  722         }
//  723       }
//  724     }
//  725 
//  726     if( ackWithPending == MAC_RX_FLAG_ACK_PENDING )
??rxStartIsr_24:
        MOV     A,#0x4
        XRL     A,R6
        JNZ     ??rxStartIsr_27
//  727     {
//  728       MAC_RADIO_TX_ACK_PEND();
        MOV     DPTR,#0x618a
        MOVX    A,@DPTR
        SETB    0xE0 /* A   */.2
        MOVX    @DPTR,A
        SJMP    ??rxStartIsr_28
//  729     }
//  730     else
//  731     {
//  732       MAC_RADIO_TX_ACK();
??rxStartIsr_27:
        MOV     DPTR,#0x618a
        MOVX    A,@DPTR
        CLR     0xE0 /* A   */.2
        MOVX    @DPTR,A
//  733     }
//  734 
//  735 
//  736     /* request a callback to macRxAckTxDoneCallback() when the ACK transmit has finished */
//  737     MAC_RADIO_REQUEST_ACK_TX_DONE_CALLBACK();
??rxStartIsr_28:
        MOV     C,0xa8.7
        CLR     A
        RLC     A
        MOV     R0,A
        CLR     0xa8.7
        MOV     0x9b,#0x0
        MOV     0x91,#-0x2
        MOV     ?V7,R0
        MOV     A,R0
        MOV     C,0xE0 /* A   */.0
        MOV     0xa8.7,C
        MOV     DPTR,#0x61a4
        MOVX    A,@DPTR
        SETB    0xE0 /* A   */.0
        MOVX    @DPTR,A
//  738     HAL_EXIT_CRITICAL_SECTION(s);
        MOV     ?V6,?V0
        MOV     A,?V0
        MOV     C,0xE0 /* A   */.0
        MOV     0xa8.7,C
//  739   }
//  740 
//  741  /*-------------------------------------------------------------------------------
//  742   *  Populate the receive buffer going up to high-level.
//  743   */
//  744 
//  745   /* configure the payload buffer */
//  746   pRxBuf->msdu.p = (uint8 *) (pRxBuf + 1);
??rxStartIsr_23:
        MOV     DPTR,#pRxBuf
        MOVX    A,@DPTR
        ADD     A,#0x32
        MOV     R2,A
        INC     DPTR
        MOVX    A,@DPTR
        ADDC    A,#0x0
        MOV     R3,A
        MOV     DPTR,#pRxBuf
        MOVX    A,@DPTR
        MOV     R0,A
        INC     DPTR
        MOVX    A,@DPTR
        MOV     DPH,A
        MOV     DPL,R0
        INC     DPTR
        INC     DPTR
        MOV     A,R2
        MOVX    @DPTR,A
        INC     DPTR
        MOV     A,R3
        MOVX    @DPTR,A
//  747   pRxBuf->msdu.len = rxPayloadLen;
        MOV     DPTR,#rxPayloadLen
        MOVX    A,@DPTR
        PUSH    A
          CFI CFA_SP SP+-1
        MOV     DPTR,#pRxBuf
        MOVX    A,@DPTR
        MOV     R0,A
        INC     DPTR
        MOVX    A,@DPTR
        MOV     DPH,A
        MOV     DPL,R0
        INC     DPTR
        INC     DPTR
        INC     DPTR
        INC     DPTR
        POP     A
          CFI CFA_SP SP+0
        MOVX    @DPTR,A
//  748 
//  749   /* set internal values */
//  750   pRxBuf->mac.srcAddr.addrMode  = srcAddrMode;
        MOV     A,?V4
        PUSH    A
          CFI CFA_SP SP+-1
        MOV     DPTR,#pRxBuf
        MOVX    A,@DPTR
        MOV     R0,A
        INC     DPTR
        MOVX    A,@DPTR
        XCH     A,R0
        ADD     A,#0x1a
        MOV     DPL,A
        XCH     A,R0
        ADDC    A,#0x0
        MOV     DPH,A
        POP     A
          CFI CFA_SP SP+0
        MOVX    @DPTR,A
//  751   pRxBuf->mac.dstAddr.addrMode  = dstAddrMode;
        MOV     A,?V5
        PUSH    A
          CFI CFA_SP SP+-1
        MOV     DPTR,#pRxBuf
        MOVX    A,@DPTR
        MOV     R0,A
        INC     DPTR
        MOVX    A,@DPTR
        XCH     A,R0
        ADD     A,#0x23
        MOV     DPL,A
        XCH     A,R0
        ADDC    A,#0x0
        MOV     DPH,A
        POP     A
          CFI CFA_SP SP+0
        MOVX    @DPTR,A
//  752   pRxBuf->mac.timestamp         = MAC_RADIO_BACKOFF_CAPTURE();
        ; Setup parameters for call to function macMcuOverflowCapture
        LCALL   ??macMcuOverflowCapture?relay; Banked call to: macMcuOverflowCapture
        MOV     ?V0,R2
        MOV     ?V1,R3
        MOV     ?V2,R4
        MOV     ?V3,R5
        MOV     DPTR,#pRxBuf
        MOVX    A,@DPTR
        MOV     R0,A
        INC     DPTR
        MOVX    A,@DPTR
        XCH     A,R0
        ADD     A,#0x24
        MOV     DPL,A
        XCH     A,R0
        ADDC    A,#0x0
        MOV     DPH,A
        MOV     R0,#?V0
        LCALL   ?L_MOV_TO_X
//  753   pRxBuf->mac.timestamp2        = MAC_RADIO_TIMER_CAPTURE();
        ; Setup parameters for call to function macMcuTimerCapture
        LCALL   ??macMcuTimerCapture?relay; Banked call to: macMcuTimerCapture
        MOV     ?V0,R2
        MOV     ?V1,R3
        MOV     R0,?V0
        MOV     R1,?V1
        MOV     DPTR,#pRxBuf
        MOVX    A,@DPTR
        MOV     R2,A
        INC     DPTR
        MOVX    A,@DPTR
        XCH     A,R2
        ADD     A,#0x28
        MOV     DPL,A
        XCH     A,R2
        ADDC    A,#0x0
        MOV     DPH,A
        MOV     A,R0
        MOVX    @DPTR,A
        INC     DPTR
        MOV     A,R1
        MOVX    @DPTR,A
//  754   pRxBuf->internal.frameType    = MAC_FRAME_TYPE(&rxBuf[1]);
        MOV     DPTR,#rxBuf + 1
        MOVX    A,@DPTR
        ANL     A,#0x7
        PUSH    A
          CFI CFA_SP SP+-1
        MOV     DPTR,#pRxBuf
        MOVX    A,@DPTR
        MOV     R0,A
        INC     DPTR
        MOVX    A,@DPTR
        MOV     DPH,A
        MOV     DPL,R0
        INC     DPTR
        INC     DPTR
        INC     DPTR
        INC     DPTR
        INC     DPTR
        POP     A
          CFI CFA_SP SP+0
        MOVX    @DPTR,A
//  755   pRxBuf->mac.dsn               = MAC_SEQ_NUMBER(&rxBuf[1]);
        MOV     DPTR,#rxBuf + 3
        MOVX    A,@DPTR
        PUSH    A
          CFI CFA_SP SP+-1
        MOV     DPTR,#pRxBuf
        MOVX    A,@DPTR
        MOV     R0,A
        INC     DPTR
        MOVX    A,@DPTR
        XCH     A,R0
        ADD     A,#0x31
        MOV     DPL,A
        XCH     A,R0
        ADDC    A,#0x0
        MOV     DPH,A
        POP     A
          CFI CFA_SP SP+0
        MOVX    @DPTR,A
//  756   pRxBuf->internal.flags        = INTERNAL_FCF_FLAGS(&rxBuf[1]) | ackWithPending;
        MOV     DPTR,#rxBuf + 1
        MOVX    A,@DPTR
        ANL     A,#0x78
        MOV     R0,A
        MOV     DPTR,#rxBuf + 2
        MOVX    A,@DPTR
        SWAP    A
        ANL     A,#0xf
        ANL     A,#0x3
        ORL     A,R0
        ORL     A,R6
        PUSH    A
          CFI CFA_SP SP+-1
        MOV     DPTR,#pRxBuf
        MOVX    A,@DPTR
        MOV     R0,A
        INC     DPTR
        MOVX    A,@DPTR
        XCH     A,R0
        ADD     A,#0x6
        MOV     DPL,A
        XCH     A,R0
        ADDC    A,#0x0
        MOV     DPH,A
        POP     A
          CFI CFA_SP SP+0
        MOVX    @DPTR,A
//  757   pRxBuf->sec.securityLevel     = MAC_SEC_LEVEL_NONE;
        MOV     DPTR,#pRxBuf
        MOVX    A,@DPTR
        MOV     R0,A
        INC     DPTR
        MOVX    A,@DPTR
        XCH     A,R0
        ADD     A,#0xf
        MOV     DPL,A
        XCH     A,R0
        ADDC    A,#0x0
        MOV     DPH,A
        MOV     A,#0x0
        MOVX    @DPTR,A
//  758 
//  759   /*-------------------------------------------------------------------------------
//  760    *  If the processing the addressing fields does not require more bytes from
//  761    *  the FIFO go directly address processing function.  Otherwise, configure
//  762    *  interrupt to jump there once bytes are received.
//  763    */
//  764   if (addrLen == 0)
        MOV     A,R7
        JNZ     ??rxStartIsr_29
//  765   {
//  766     /* no addressing fields to read, prepare for payload interrupts */
//  767     pFuncRxState = &rxPayloadIsr;
        MOV     DPTR,#pFuncRxState
        MOV     A,#??rxPayloadIsr?relay & 0xff
        MOVX    @DPTR,A
        INC     DPTR
        MOV     A,#(??rxPayloadIsr?relay >> 8) & 0xff
        MOVX    @DPTR,A
//  768     rxPrepPayload();
        ; Setup parameters for call to function rxPrepPayload
        LCALL   ??rxPrepPayload?relay; Banked call to: rxPrepPayload
        SJMP    ??rxStartIsr_3
//  769   }
//  770   else
//  771   {
//  772     /* need to read and process addressing fields, prepare for address interrupt */
//  773     rxNextLen = addrLen;
??rxStartIsr_29:
        MOV     A,R7
        MOV     DPTR,#rxNextLen
        MOVX    @DPTR,A
//  774     MAC_RADIO_SET_RX_THRESHOLD(rxNextLen);
        MOV     DPTR,#rxNextLen
        MOVX    A,@DPTR
        ADD     A,#-0x1
        MOV     DPTR,#0x6194
        MOVX    @DPTR,A
//  775     pFuncRxState = &rxAddrIsr;
        MOV     DPTR,#pFuncRxState
        MOV     A,#??rxAddrIsr?relay & 0xff
        MOVX    @DPTR,A
        INC     DPTR
        MOV     A,#(??rxAddrIsr?relay >> 8) & 0xff
        MOVX    @DPTR,A
//  776   }
//  777 }
??rxStartIsr_3:
        MOV     A,#0x3
        LCALL   ?DEALLOC_XSTACK8
          CFI CFA_XSP16 add(XSP16, 16)
        MOV     R7,#0x8
        LJMP    ?BANKED_LEAVE_XDATA
          CFI EndBlock cfiBlock6
        REQUIRE RFST
        REQUIRE _A_IEN0
        REQUIRE S1CON
        REQUIRE RFIRQF1
//  778 
//  779 
//  780 /*=================================================================================================
//  781  * @fn          rxAddrIsr
//  782  *
//  783  * @brief       Receive ISR state for decoding address.  Reads and stores the address information
//  784  *              from the incoming packet.
//  785  *
//  786  * @param       none
//  787  *
//  788  * @return      none
//  789  *=================================================================================================
//  790  */

        RSEG BANKED_CODE:CODE:NOROOT(0)
//  791 static void rxAddrIsr(void)
rxAddrIsr:
          CFI Block cfiBlock7 Using cfiCommon0
          CFI Function rxAddrIsr
        CODE
//  792 {
        FUNCALL rxAddrIsr, halAssertHandler
        LOCFRAME ISTACK, 0, STACK
        LOCFRAME PSTACK, 0, STACK
        LOCFRAME XSTACK, 32, STACK
        LOCFRAME IOVERLAY, 0, STATIC
        LOCFRAME DOVERLAY, 0, STATIC
        ARGFRAME ISTACK, 0, STACK
        ARGFRAME PSTACK, 0, STACK
        ARGFRAME XSTACK, 32, STACK
        ARGFRAME IOVERLAY, 0, STATIC
        ARGFRAME DOVERLAY, 0, STATIC
        FUNCALL rxAddrIsr, macMemReadRxFifo
        LOCFRAME ISTACK, 0, STACK
        LOCFRAME PSTACK, 0, STACK
        LOCFRAME XSTACK, 32, STACK
        LOCFRAME IOVERLAY, 0, STATIC
        LOCFRAME DOVERLAY, 0, STATIC
        ARGFRAME ISTACK, 0, STACK
        ARGFRAME PSTACK, 0, STACK
        ARGFRAME XSTACK, 32, STACK
        ARGFRAME IOVERLAY, 0, STATIC
        ARGFRAME DOVERLAY, 0, STATIC
        FUNCALL rxAddrIsr, sAddrExtCpy
        LOCFRAME ISTACK, 0, STACK
        LOCFRAME PSTACK, 0, STACK
        LOCFRAME XSTACK, 32, STACK
        LOCFRAME IOVERLAY, 0, STATIC
        LOCFRAME DOVERLAY, 0, STATIC
        ARGFRAME ISTACK, 0, STACK
        ARGFRAME PSTACK, 0, STACK
        ARGFRAME XSTACK, 32, STACK
        ARGFRAME IOVERLAY, 0, STATIC
        ARGFRAME DOVERLAY, 0, STATIC
        FUNCALL rxAddrIsr, sAddrExtCpy
        LOCFRAME ISTACK, 0, STACK
        LOCFRAME PSTACK, 0, STACK
        LOCFRAME XSTACK, 32, STACK
        LOCFRAME IOVERLAY, 0, STATIC
        LOCFRAME DOVERLAY, 0, STATIC
        ARGFRAME ISTACK, 0, STACK
        ARGFRAME PSTACK, 0, STACK
        ARGFRAME XSTACK, 32, STACK
        ARGFRAME IOVERLAY, 0, STATIC
        ARGFRAME DOVERLAY, 0, STATIC
        FUNCALL rxAddrIsr, rxPrepPayload
        LOCFRAME ISTACK, 0, STACK
        LOCFRAME PSTACK, 0, STACK
        LOCFRAME XSTACK, 32, STACK
        LOCFRAME IOVERLAY, 0, STATIC
        LOCFRAME DOVERLAY, 0, STATIC
        ARGFRAME ISTACK, 0, STACK
        ARGFRAME PSTACK, 0, STACK
        ARGFRAME XSTACK, 32, STACK
        ARGFRAME IOVERLAY, 0, STATIC
        ARGFRAME DOVERLAY, 0, STATIC
        REQUIRE ?V0
        REQUIRE ?V1
        REQUIRE ?V2
        REQUIRE ?V3
        MOV     A,#-0xc
        LCALL   ?BANKED_ENTER_XDATA
          CFI DPH0 load(1, XDATA, add(CFA_XSP16, literal(-1)))
          CFI DPL0 load(1, XDATA, add(CFA_XSP16, literal(-2)))
          CFI ?BRET_EXT load(1, XDATA, add(CFA_XSP16, literal(-3)))
          CFI ?RET_HIGH load(1, XDATA, add(CFA_XSP16, literal(-4)))
          CFI ?RET_LOW load(1, XDATA, add(CFA_XSP16, literal(-5)))
          CFI R7 load(1, XDATA, add(CFA_XSP16, literal(-6)))
          CFI V3 load(1, XDATA, add(CFA_XSP16, literal(-7)))
          CFI V2 load(1, XDATA, add(CFA_XSP16, literal(-8)))
          CFI V1 load(1, XDATA, add(CFA_XSP16, literal(-9)))
          CFI V0 load(1, XDATA, add(CFA_XSP16, literal(-10)))
          CFI VB load(1, XDATA, add(CFA_XSP16, literal(-11)))
          CFI R6 load(1, XDATA, add(CFA_XSP16, literal(-12)))
          CFI CFA_SP SP+0
          CFI CFA_XSP16 add(XSP16, 12)
        ; Saved register size: 12
        ; Auto size: 20
        MOV     A,#-0x14
        LCALL   ?ALLOC_XSTACK8
          CFI CFA_XSP16 add(XSP16, 32)
//  793   uint8 buf[MAX_ADDR_FIELDS_LEN];
//  794   uint8 dstAddrMode;
//  795   uint8 srcAddrMode;
//  796   uint8  * p;
//  797 
//  798   MAC_ASSERT(rxNextLen != 0); /* logic assumes at least one address byte in buffer */
        MOV     DPTR,#rxNextLen
        MOVX    A,@DPTR
        JNZ     ??rxAddrIsr_0
        ; Setup parameters for call to function halAssertHandler
        LCALL   ??halAssertHandler?relay; Banked call to: halAssertHandler
//  799 
//  800   /*  read out address fields into local buffer in one shot */
//  801   MAC_RADIO_READ_RX_FIFO(buf, rxNextLen);
??rxAddrIsr_0:
        ; Setup parameters for call to function macMemReadRxFifo
        MOV     DPTR,#rxNextLen
        MOVX    A,@DPTR
        MOV     R1,A
        MOV     R2,?XSP + 0
        MOV     R3,?XSP + 1
        LCALL   ??macMemReadRxFifo?relay; Banked call to: macMemReadRxFifo
//  802 
//  803   /* set pointer to buffer with addressing fields */
//  804   p = buf;
        MOV     R0,?XSP + 0
        MOV     R1,?XSP + 1
        MOV     ?V2,R0
        MOV     ?V3,R1
        MOV     R6,?V2
        MOV     R7,?V3
//  805 
//  806   /* destination address */
//  807   dstAddrMode = MAC_DEST_ADDR_MODE(&rxBuf[1]);
        MOV     DPTR,#rxBuf + 2
        MOVX    A,@DPTR
        RRC     A
        RRC     A
        ANL     A,#0x3f
        ANL     A,#0x3
        MOV     ?V0,A
//  808   if (dstAddrMode != SADDR_MODE_NONE)
        MOV     A,?V0
        JNZ     $+5
        LJMP    ??rxAddrIsr_1 & 0xFFFF
//  809   {
//  810     pRxBuf->mac.srcPanId = pRxBuf->mac.dstPanId = BUILD_UINT16(p[0], p[1]);
        MOV     DPL,R6
        MOV     DPH,R7
        MOVX    A,@DPTR
        MOV     R2,A
        MOV     R3,#0x0
        MOV     DPL,R6
        MOV     DPH,R7
        INC     DPTR
        MOVX    A,@DPTR
        MOV     R0,A
        MOV     R1,#0x0
        CLR     A
        XCH     A,R0
        MOV     R1,A
        MOV     A,R2
        ADD     A,R0
        MOV     R0,A
        MOV     A,R3
        ADDC    A,R1
        MOV     R1,A
        MOV     DPTR,#pRxBuf
        MOVX    A,@DPTR
        MOV     R2,A
        INC     DPTR
        MOVX    A,@DPTR
        XCH     A,R2
        ADD     A,#0x2c
        MOV     DPL,A
        XCH     A,R2
        ADDC    A,#0x0
        MOV     DPH,A
        MOV     A,R0
        MOVX    @DPTR,A
        INC     DPTR
        MOV     A,R1
        MOVX    @DPTR,A
        MOV     DPTR,#pRxBuf
        MOVX    A,@DPTR
        MOV     R2,A
        INC     DPTR
        MOVX    A,@DPTR
        XCH     A,R2
        ADD     A,#0x2a
        MOV     DPL,A
        XCH     A,R2
        ADDC    A,#0x0
        MOV     DPH,A
        MOV     A,R0
        MOVX    @DPTR,A
        INC     DPTR
        MOV     A,R1
        MOVX    @DPTR,A
//  811     p += MAC_PAN_ID_FIELD_LEN;
        MOV     A,R6
        ADD     A,#0x2
        MOV     R6,A
        JNC     ??rxAddrIsr_2
        INC     R7
//  812     if (dstAddrMode == SADDR_MODE_EXT)
??rxAddrIsr_2:
        MOV     A,#0x3
        XRL     A,?V0
        JNZ     ??rxAddrIsr_3
//  813     {
//  814       sAddrExtCpy(pRxBuf->mac.dstAddr.addr.extAddr, p);
        ; Setup parameters for call to function sAddrExtCpy
        MOV     A,R6
        MOV     R4,A
        MOV     A,R7
        MOV     R5,A
        MOV     DPTR,#pRxBuf
        MOVX    A,@DPTR
        ADD     A,#0x1b
        MOV     R2,A
        INC     DPTR
        MOVX    A,@DPTR
        ADDC    A,#0x0
        MOV     R3,A
        LCALL   ??sAddrExtCpy?relay  ; Banked call to: sAddrExtCpy
//  815       p += MAC_EXT_ADDR_FIELD_LEN;
        MOV     A,R6
        ADD     A,#0x8
        MOV     R6,A
        JNC     ??rxAddrIsr_1
        INC     R7
        SJMP    ??rxAddrIsr_1
//  816     }
//  817     else
//  818     {
//  819       pRxBuf->mac.dstAddr.addr.shortAddr = BUILD_UINT16(p[0], p[1]);
??rxAddrIsr_3:
        MOV     DPL,R6
        MOV     DPH,R7
        MOVX    A,@DPTR
        MOV     R2,A
        MOV     R3,#0x0
        MOV     DPL,R6
        MOV     DPH,R7
        INC     DPTR
        MOVX    A,@DPTR
        MOV     R0,A
        MOV     R1,#0x0
        CLR     A
        XCH     A,R0
        MOV     R1,A
        MOV     A,R2
        ADD     A,R0
        MOV     R0,A
        MOV     A,R3
        ADDC    A,R1
        MOV     R1,A
        MOV     DPTR,#pRxBuf
        MOVX    A,@DPTR
        MOV     R2,A
        INC     DPTR
        MOVX    A,@DPTR
        XCH     A,R2
        ADD     A,#0x1b
        MOV     DPL,A
        XCH     A,R2
        ADDC    A,#0x0
        MOV     DPH,A
        MOV     A,R0
        MOVX    @DPTR,A
        INC     DPTR
        MOV     A,R1
        MOVX    @DPTR,A
//  820       p += MAC_SHORT_ADDR_FIELD_LEN;
        MOV     A,R6
        ADD     A,#0x2
        MOV     R6,A
        JNC     ??rxAddrIsr_1
        INC     R7
//  821     }
//  822   }
//  823 
//  824   /* sources address */
//  825   srcAddrMode = MAC_SRC_ADDR_MODE(&rxBuf[1]);
??rxAddrIsr_1:
        MOV     DPTR,#rxBuf + 2
        MOVX    A,@DPTR
        SWAP    A
        RRC     A
        RRC     A
        ANL     A,#0x3
        MOV     ?V1,A
//  826   if (srcAddrMode != SADDR_MODE_NONE)
        MOV     A,?V1
        JNZ     $+5
        LJMP    ??rxAddrIsr_4 & 0xFFFF
//  827   {
//  828     if (!(pRxBuf->internal.flags & MAC_RX_FLAG_INTRA_PAN))
        MOV     DPTR,#pRxBuf
        MOVX    A,@DPTR
        MOV     R0,A
        INC     DPTR
        MOVX    A,@DPTR
        XCH     A,R0
        ADD     A,#0x6
        MOV     DPL,A
        XCH     A,R0
        ADDC    A,#0x0
        MOV     DPH,A
        MOVX    A,@DPTR
        MOV     C,0xE0 /* A   */.6
        JC      ??rxAddrIsr_5
//  829     {
//  830       pRxBuf->mac.srcPanId = BUILD_UINT16(p[0], p[1]);
        MOV     DPL,R6
        MOV     DPH,R7
        MOVX    A,@DPTR
        MOV     R2,A
        MOV     R3,#0x0
        MOV     DPL,R6
        MOV     DPH,R7
        INC     DPTR
        MOVX    A,@DPTR
        MOV     R0,A
        MOV     R1,#0x0
        CLR     A
        XCH     A,R0
        MOV     R1,A
        MOV     A,R2
        ADD     A,R0
        MOV     R0,A
        MOV     A,R3
        ADDC    A,R1
        MOV     R1,A
        MOV     DPTR,#pRxBuf
        MOVX    A,@DPTR
        MOV     R2,A
        INC     DPTR
        MOVX    A,@DPTR
        XCH     A,R2
        ADD     A,#0x2a
        MOV     DPL,A
        XCH     A,R2
        ADDC    A,#0x0
        MOV     DPH,A
        MOV     A,R0
        MOVX    @DPTR,A
        INC     DPTR
        MOV     A,R1
        MOVX    @DPTR,A
//  831       p += MAC_PAN_ID_FIELD_LEN;
        MOV     A,R6
        ADD     A,#0x2
        MOV     R6,A
        JNC     ??rxAddrIsr_5
        INC     R7
//  832     }
//  833     if (srcAddrMode == SADDR_MODE_EXT)
??rxAddrIsr_5:
        MOV     A,#0x3
        XRL     A,?V1
        JNZ     ??rxAddrIsr_6
//  834     {
//  835       sAddrExtCpy(pRxBuf->mac.srcAddr.addr.extAddr, p);
        ; Setup parameters for call to function sAddrExtCpy
        MOV     A,R6
        MOV     R4,A
        MOV     A,R7
        MOV     R5,A
        MOV     DPTR,#pRxBuf
        MOVX    A,@DPTR
        ADD     A,#0x12
        MOV     R2,A
        INC     DPTR
        MOVX    A,@DPTR
        ADDC    A,#0x0
        MOV     R3,A
        LCALL   ??sAddrExtCpy?relay  ; Banked call to: sAddrExtCpy
        SJMP    ??rxAddrIsr_4
//  836     }
//  837     else
//  838     {
//  839       pRxBuf->mac.srcAddr.addr.shortAddr = BUILD_UINT16(p[0], p[1]);
??rxAddrIsr_6:
        MOV     DPL,R6
        MOV     DPH,R7
        MOVX    A,@DPTR
        MOV     R2,A
        MOV     R3,#0x0
        MOV     DPL,R6
        MOV     DPH,R7
        INC     DPTR
        MOVX    A,@DPTR
        MOV     R0,A
        MOV     R1,#0x0
        CLR     A
        XCH     A,R0
        MOV     R1,A
        MOV     A,R2
        ADD     A,R0
        MOV     R0,A
        MOV     A,R3
        ADDC    A,R1
        MOV     R1,A
        MOV     DPTR,#pRxBuf
        MOVX    A,@DPTR
        MOV     R2,A
        INC     DPTR
        MOVX    A,@DPTR
        XCH     A,R2
        ADD     A,#0x12
        MOV     DPL,A
        XCH     A,R2
        ADDC    A,#0x0
        MOV     DPH,A
        MOV     A,R0
        MOVX    @DPTR,A
        INC     DPTR
        MOV     A,R1
        MOVX    @DPTR,A
//  840     }
//  841   }
//  842 
//  843   /*-------------------------------------------------------------------------------
//  844    *  Prepare for payload interrupts.
//  845    */
//  846   pFuncRxState = &rxPayloadIsr;
??rxAddrIsr_4:
        MOV     DPTR,#pFuncRxState
        MOV     A,#??rxPayloadIsr?relay & 0xff
        MOVX    @DPTR,A
        INC     DPTR
        MOV     A,#(??rxPayloadIsr?relay >> 8) & 0xff
        MOVX    @DPTR,A
//  847   rxPrepPayload();
        ; Setup parameters for call to function rxPrepPayload
        LCALL   ??rxPrepPayload?relay; Banked call to: rxPrepPayload
//  848 }
        MOV     A,#0x14
        LCALL   ?DEALLOC_XSTACK8
          CFI CFA_XSP16 add(XSP16, 12)
        MOV     R7,#0x4
        LJMP    ?BANKED_LEAVE_XDATA
          CFI EndBlock cfiBlock7
//  849 
//  850 
//  851 /*=================================================================================================
//  852  * @fn          rxPrepPayload
//  853  *
//  854  * @brief       Common code to prepare for the payload ISR.
//  855  *
//  856  * @param       none
//  857  *
//  858  * @return      none
//  859  *=================================================================================================
//  860  */

        RSEG BANKED_CODE:CODE:NOROOT(0)
//  861 static void rxPrepPayload(void)
rxPrepPayload:
          CFI Block cfiBlock8 Using cfiCommon0
          CFI Function rxPrepPayload
        CODE
//  862 {
        PUSH    DPL
          CFI DPL0 Frame(CFA_SP, 4)
          CFI CFA_SP SP+-4
        PUSH    DPH
          CFI DPH0 Frame(CFA_SP, 5)
          CFI CFA_SP SP+-5
        ; Saved register size: 2
        ; Auto size: 0
//  863   if (rxPayloadLen == 0)
        MOV     DPTR,#rxPayloadLen
        MOVX    A,@DPTR
        JNZ     ??rxPrepPayload_0
//  864   {
//  865     MAC_RADIO_SET_RX_THRESHOLD(MAC_FCS_FIELD_LEN);
        MOV     DPTR,#0x6194
        MOV     A,#0x1
        MOVX    @DPTR,A
//  866     pFuncRxState = &rxFcsIsr;
        MOV     DPTR,#pFuncRxState
        MOV     A,#??rxFcsIsr?relay & 0xff
        MOVX    @DPTR,A
        INC     DPTR
        MOV     A,#(??rxFcsIsr?relay >> 8) & 0xff
        MOVX    @DPTR,A
        SJMP    ??rxPrepPayload_1
//  867   }
//  868   else
//  869   {
//  870     rxNextLen = MIN(rxPayloadLen, MAX_PAYLOAD_BYTES_READ_PER_INTERRUPT);
??rxPrepPayload_0:
        MOV     DPTR,#rxPayloadLen
        MOVX    A,@DPTR
        CLR     C
        SUBB    A,#0x10
        JNC     ??rxPrepPayload_2
        MOV     DPTR,#rxPayloadLen
        MOVX    A,@DPTR
        SJMP    ??rxPrepPayload_3
??rxPrepPayload_2:
        MOV     A,#0x10
??rxPrepPayload_3:
        MOV     DPTR,#rxNextLen
        MOVX    @DPTR,A
//  871     MAC_RADIO_SET_RX_THRESHOLD(rxNextLen);
        MOV     DPTR,#rxNextLen
        MOVX    A,@DPTR
        ADD     A,#-0x1
        MOV     DPTR,#0x6194
        MOVX    @DPTR,A
//  872   }
//  873 }
??rxPrepPayload_1:
        POP     DPH
          CFI DPH0 SameValue
          CFI CFA_SP SP+-4
        POP     DPL
          CFI DPL0 SameValue
          CFI CFA_SP SP+-3
        LJMP    ?BRET
          CFI EndBlock cfiBlock8
//  874 
//  875 
//  876 /*=================================================================================================
//  877  * @fn          rxPayloadIsr
//  878  *
//  879  * @brief       Receive ISR state for reading out and storing the packet payload.
//  880  *
//  881  * @param       none
//  882  *
//  883  * @return      none
//  884  *=================================================================================================
//  885  */

        RSEG BANKED_CODE:CODE:NOROOT(0)
//  886 static void rxPayloadIsr(void)
rxPayloadIsr:
          CFI Block cfiBlock9 Using cfiCommon0
          CFI Function rxPayloadIsr
        CODE
//  887 {
        FUNCALL rxPayloadIsr, macMemReadRxFifo
        LOCFRAME ISTACK, 2, STACK
        LOCFRAME PSTACK, 0, STACK
        LOCFRAME XSTACK, 0, STACK
        LOCFRAME IOVERLAY, 0, STATIC
        LOCFRAME DOVERLAY, 0, STATIC
        ARGFRAME ISTACK, 2, STACK
        ARGFRAME PSTACK, 0, STACK
        ARGFRAME XSTACK, 0, STACK
        ARGFRAME IOVERLAY, 0, STATIC
        ARGFRAME DOVERLAY, 0, STATIC
        FUNCALL rxPayloadIsr, rxPrepPayload
        LOCFRAME ISTACK, 2, STACK
        LOCFRAME PSTACK, 0, STACK
        LOCFRAME XSTACK, 0, STACK
        LOCFRAME IOVERLAY, 0, STATIC
        LOCFRAME DOVERLAY, 0, STATIC
        ARGFRAME ISTACK, 2, STACK
        ARGFRAME PSTACK, 0, STACK
        ARGFRAME XSTACK, 0, STACK
        ARGFRAME IOVERLAY, 0, STATIC
        ARGFRAME DOVERLAY, 0, STATIC
        PUSH    DPL
          CFI DPL0 Frame(CFA_SP, 4)
          CFI CFA_SP SP+-4
        PUSH    DPH
          CFI DPH0 Frame(CFA_SP, 5)
          CFI CFA_SP SP+-5
        ; Saved register size: 2
        ; Auto size: 0
//  888   MAC_RADIO_READ_RX_FIFO(pRxBuf->msdu.p, rxNextLen);
        ; Setup parameters for call to function macMemReadRxFifo
        MOV     DPTR,#rxNextLen
        MOVX    A,@DPTR
        MOV     R1,A
        MOV     DPTR,#pRxBuf
        MOVX    A,@DPTR
        MOV     R0,A
        INC     DPTR
        MOVX    A,@DPTR
        MOV     DPH,A
        MOV     DPL,R0
        INC     DPTR
        INC     DPTR
        MOVX    A,@DPTR
        MOV     R2,A
        INC     DPTR
        MOVX    A,@DPTR
        MOV     R3,A
        LCALL   ??macMemReadRxFifo?relay; Banked call to: macMemReadRxFifo
//  889   pRxBuf->msdu.p += rxNextLen;
        MOV     DPTR,#rxNextLen
        MOVX    A,@DPTR
        MOV     R0,A
        MOV     R1,#0x0
        MOV     DPTR,#pRxBuf
        MOVX    A,@DPTR
        MOV     R2,A
        INC     DPTR
        MOVX    A,@DPTR
        MOV     DPH,A
        MOV     DPL,R2
        INC     DPTR
        INC     DPTR
        MOVX    A,@DPTR
        ADD     A,R0
        MOV     R0,A
        INC     DPTR
        MOVX    A,@DPTR
        ADDC    A,R1
        MOV     R1,A
        MOV     DPTR,#pRxBuf
        MOVX    A,@DPTR
        MOV     R2,A
        INC     DPTR
        MOVX    A,@DPTR
        MOV     DPH,A
        MOV     DPL,R2
        INC     DPTR
        INC     DPTR
        MOV     A,R0
        MOVX    @DPTR,A
        INC     DPTR
        MOV     A,R1
        MOVX    @DPTR,A
//  890   rxPayloadLen -= rxNextLen;
        MOV     DPTR,#rxNextLen
        MOVX    A,@DPTR
        MOV     R0,A
        MOV     DPTR,#rxPayloadLen
        MOVX    A,@DPTR
        CLR     C
        SUBB    A,R0
        MOVX    @DPTR,A
//  891 
//  892   rxPrepPayload();
        ; Setup parameters for call to function rxPrepPayload
        LCALL   ??rxPrepPayload?relay; Banked call to: rxPrepPayload
//  893 }
        POP     DPH
          CFI DPH0 SameValue
          CFI CFA_SP SP+-4
        POP     DPL
          CFI DPL0 SameValue
          CFI CFA_SP SP+-3
        LJMP    ?BRET
          CFI EndBlock cfiBlock9
//  894 
//  895 
//  896 /*=================================================================================================
//  897  * @fn          rxFcsIsr
//  898  *
//  899  * @brief       Receive ISR state for handling the FCS.
//  900  *
//  901  * @param       none
//  902  *
//  903  * @return      none
//  904  *=================================================================================================
//  905  */

        RSEG BANKED_CODE:CODE:NOROOT(0)
//  906 static void rxFcsIsr(void)
rxFcsIsr:
          CFI Block cfiBlock10 Using cfiCommon0
          CFI Function rxFcsIsr
        CODE
//  907 {
        FUNCALL rxFcsIsr, macMemReadRxFifo
        LOCFRAME ISTACK, 0, STACK
        LOCFRAME PSTACK, 0, STACK
        LOCFRAME XSTACK, 10, STACK
        LOCFRAME IOVERLAY, 0, STATIC
        LOCFRAME DOVERLAY, 0, STATIC
        ARGFRAME ISTACK, 0, STACK
        ARGFRAME PSTACK, 0, STACK
        ARGFRAME XSTACK, 10, STACK
        ARGFRAME IOVERLAY, 0, STATIC
        ARGFRAME DOVERLAY, 0, STATIC
        FUNCALL rxFcsIsr, macRxOffRequest
        LOCFRAME ISTACK, 0, STACK
        LOCFRAME PSTACK, 0, STACK
        LOCFRAME XSTACK, 10, STACK
        LOCFRAME IOVERLAY, 0, STATIC
        LOCFRAME DOVERLAY, 0, STATIC
        ARGFRAME ISTACK, 0, STACK
        ARGFRAME PSTACK, 0, STACK
        ARGFRAME XSTACK, 10, STACK
        ARGFRAME IOVERLAY, 0, STATIC
        ARGFRAME DOVERLAY, 0, STATIC
        FUNCALL rxFcsIsr, MAC_SrcMatchCheckResult
        LOCFRAME ISTACK, 0, STACK
        LOCFRAME PSTACK, 0, STACK
        LOCFRAME XSTACK, 10, STACK
        LOCFRAME IOVERLAY, 0, STATIC
        LOCFRAME DOVERLAY, 0, STATIC
        ARGFRAME ISTACK, 0, STACK
        ARGFRAME PSTACK, 0, STACK
        ARGFRAME XSTACK, 10, STACK
        ARGFRAME IOVERLAY, 0, STATIC
        ARGFRAME DOVERLAY, 0, STATIC
        FUNCALL rxFcsIsr, macRadioComputeLQI
        LOCFRAME ISTACK, 0, STACK
        LOCFRAME PSTACK, 0, STACK
        LOCFRAME XSTACK, 10, STACK
        LOCFRAME IOVERLAY, 0, STATIC
        LOCFRAME DOVERLAY, 0, STATIC
        ARGFRAME ISTACK, 0, STACK
        ARGFRAME PSTACK, 0, STACK
        ARGFRAME XSTACK, 10, STACK
        ARGFRAME IOVERLAY, 0, STATIC
        ARGFRAME DOVERLAY, 0, STATIC
        FUNCALL rxFcsIsr, macRxCompleteCallback
        LOCFRAME ISTACK, 0, STACK
        LOCFRAME PSTACK, 0, STACK
        LOCFRAME XSTACK, 10, STACK
        LOCFRAME IOVERLAY, 0, STATIC
        LOCFRAME DOVERLAY, 0, STATIC
        ARGFRAME ISTACK, 0, STACK
        ARGFRAME PSTACK, 0, STACK
        ARGFRAME XSTACK, 10, STACK
        ARGFRAME IOVERLAY, 0, STATIC
        ARGFRAME DOVERLAY, 0, STATIC
        FUNCALL rxFcsIsr, macDataRxMemFree
        LOCFRAME ISTACK, 0, STACK
        LOCFRAME PSTACK, 0, STACK
        LOCFRAME XSTACK, 10, STACK
        LOCFRAME IOVERLAY, 0, STATIC
        LOCFRAME DOVERLAY, 0, STATIC
        ARGFRAME ISTACK, 0, STACK
        ARGFRAME PSTACK, 0, STACK
        ARGFRAME XSTACK, 10, STACK
        ARGFRAME IOVERLAY, 0, STATIC
        ARGFRAME DOVERLAY, 0, STATIC
        FUNCALL rxFcsIsr, rxDone
        LOCFRAME ISTACK, 0, STACK
        LOCFRAME PSTACK, 0, STACK
        LOCFRAME XSTACK, 10, STACK
        LOCFRAME IOVERLAY, 0, STATIC
        LOCFRAME DOVERLAY, 0, STATIC
        ARGFRAME ISTACK, 0, STACK
        ARGFRAME PSTACK, 0, STACK
        ARGFRAME XSTACK, 10, STACK
        ARGFRAME IOVERLAY, 0, STATIC
        ARGFRAME DOVERLAY, 0, STATIC
        REQUIRE ?V0
        REQUIRE ?V1
        MOV     A,#-0xa
        LCALL   ?BANKED_ENTER_XDATA
          CFI DPH0 load(1, XDATA, add(CFA_XSP16, literal(-1)))
          CFI DPL0 load(1, XDATA, add(CFA_XSP16, literal(-2)))
          CFI ?BRET_EXT load(1, XDATA, add(CFA_XSP16, literal(-3)))
          CFI ?RET_HIGH load(1, XDATA, add(CFA_XSP16, literal(-4)))
          CFI ?RET_LOW load(1, XDATA, add(CFA_XSP16, literal(-5)))
          CFI R7 load(1, XDATA, add(CFA_XSP16, literal(-6)))
          CFI V1 load(1, XDATA, add(CFA_XSP16, literal(-7)))
          CFI V0 load(1, XDATA, add(CFA_XSP16, literal(-8)))
          CFI VB load(1, XDATA, add(CFA_XSP16, literal(-9)))
          CFI R6 load(1, XDATA, add(CFA_XSP16, literal(-10)))
          CFI CFA_SP SP+0
          CFI CFA_XSP16 add(XSP16, 10)
        ; Saved register size: 10
        ; Auto size: 0
//  908   uint8 crcOK;
//  909   uint8 ackWithPending = 0;
        MOV     R6,#0x0
//  910 
//  911   /* read FCS, rxBuf is now available storage */
//  912   MAC_RADIO_READ_RX_FIFO(rxBuf, MAC_FCS_FIELD_LEN);
        ; Setup parameters for call to function macMemReadRxFifo
        MOV     R1,#0x2
        MOV     R2,#rxBuf & 0xff
        MOV     R3,#(rxBuf >> 8) & 0xff
        LCALL   ??macMemReadRxFifo?relay; Banked call to: macMemReadRxFifo
//  913 
//  914   /*
//  915    *  The FCS has actually been replaced within the radio by a proprietary version of the FCS.
//  916    *  This proprietary FCS is two bytes (same length as the real FCS) and contains:
//  917    *    1) the RSSI value
//  918    *    2) the average correlation value (used for LQI)
//  919    *    3) a CRC passed bit
//  920    */
//  921 
//  922   /* save the "CRC-is-OK" status */
//  923   crcOK = PROPRIETARY_FCS_CRC_OK(rxBuf);
        MOV     DPTR,#rxBuf + 1
        MOVX    A,@DPTR
        ANL     A,#0x80
        MOV     ?V1,A
//  924 
//  925   /*
//  926    *  See if the frame should be passed up to high-level MAC.  If the CRC is OK, the
//  927    *  the frame is always passed up.  Frames with a bad CRC are also passed up *if*
//  928    *  a special variant of promiscuous mode is active.
//  929    */
//  930   if (crcOK || (rxPromiscuousMode == MAC_PROMISCUOUS_MODE_WITH_BAD_CRC))
        MOV     A,?V1
        JNZ     ??rxFcsIsr_0
        MOV     DPTR,#rxPromiscuousMode
        MOVX    A,@DPTR
        XRL     A,#0x2
        JZ      $+5
        LJMP    ??rxFcsIsr_1 & 0xFFFF
//  931   {
//  932     int8 rssiDbm;
//  933     uint8 corr;
//  934 
//  935 #ifdef PACKET_FILTER_STATS
//  936     rxCrcSuccess++;
//  937 #endif /* PACKET_FILTER_STATS */
//  938 
//  939     /*
//  940      *  As power saving optimization, set state variable to indicate physical receive
//  941      *  has completed and then request turning of the receiver.  This means the receiver
//  942      *  can be off (if other conditions permit) during execution of the callback function.
//  943      *
//  944      *  The receiver will be requested to turn off once again at the end of the receive
//  945      *  logic.  There is no harm in doing this.
//  946      */
//  947     macRxActive = MAC_RX_ACTIVE_DONE;
??rxFcsIsr_0:
        MOV     DPTR,#macRxActive
        MOV     A,#0x2
        MOVX    @DPTR,A
//  948     macRxOffRequest();
        ; Setup parameters for call to function macRxOffRequest
        LCALL   ??macRxOffRequest?relay; Banked call to: macRxOffRequest
//  949 
//  950     /* decode RSSI and correlation values */
//  951     rssiDbm = PROPRIETARY_FCS_RSSI(rxBuf) + MAC_RADIO_RSSI_OFFSET;
        MOV     DPTR,#rxBuf
        MOVX    A,@DPTR
        ADD     A,#-0x49
        MOV     R7,A
//  952     MAC_RADIO_RSSI_LNA_OFFSET(rssiDbm);
//  953     corr = PROPRIETARY_FCS_CORRELATION_VALUE(rxBuf);
        MOV     DPTR,#rxBuf + 1
        MOVX    A,@DPTR
        ANL     A,#0x7f
        MOV     ?V0,A
//  954 
//  955     /* Read the source matching result back */
//  956     if( macSrcMatchIsEnabled && MAC_RADIO_SRC_MATCH_RESULT() )
        MOV     DPTR,#macSrcMatchIsEnabled
        MOVX    A,@DPTR
        JZ      ??rxFcsIsr_2
        ; Setup parameters for call to function MAC_SrcMatchCheckResult
        LCALL   ??MAC_SrcMatchCheckResult?relay; Banked call to: MAC_SrcMatchCheckResult
        MOV     A,R1
        JZ      ??rxFcsIsr_2
//  957     {
//  958       /* This result will not overwrite the previously determined pRxBuf->internal.flags */
//  959       ackWithPending = MAC_RX_FLAG_ACK_PENDING;
        MOV     R6,#0x4
//  960     }
//  961 
//  962     /* record parameters that get passed up to high-level */
//  963     pRxBuf->internal.flags |= ( crcOK | ackWithPending );
??rxFcsIsr_2:
        MOV     A,?V1
        ORL     A,R6
        MOV     R0,A
        MOV     DPTR,#pRxBuf
        MOVX    A,@DPTR
        MOV     R1,A
        INC     DPTR
        MOVX    A,@DPTR
        XCH     A,R1
        ADD     A,#0x6
        MOV     DPL,A
        XCH     A,R1
        ADDC    A,#0x0
        MOV     DPH,A
        MOVX    A,@DPTR
        ORL     A,R0
        MOVX    @DPTR,A
//  964     pRxBuf->mac.mpduLinkQuality = macRadioComputeLQI(rssiDbm, corr);
        ; Setup parameters for call to function macRadioComputeLQI
        MOV     R2,?V0
        MOV     A,R7
        MOV     R1,A
        LCALL   ??macRadioComputeLQI?relay; Banked call to: macRadioComputeLQI
        MOV     A,R1
        PUSH    A
          CFI CFA_SP SP+-1
        MOV     DPTR,#pRxBuf
        MOVX    A,@DPTR
        MOV     R0,A
        INC     DPTR
        MOVX    A,@DPTR
        XCH     A,R0
        ADD     A,#0x2e
        MOV     DPL,A
        XCH     A,R0
        ADDC    A,#0x0
        MOV     DPH,A
        POP     A
          CFI CFA_SP SP+0
        MOVX    @DPTR,A
//  965     pRxBuf->mac.rssi = rssiDbm;
        MOV     A,R7
        PUSH    A
          CFI CFA_SP SP+-1
        MOV     DPTR,#pRxBuf
        MOVX    A,@DPTR
        MOV     R0,A
        INC     DPTR
        MOVX    A,@DPTR
        XCH     A,R0
        ADD     A,#0x30
        MOV     DPL,A
        XCH     A,R0
        ADDC    A,#0x0
        MOV     DPH,A
        POP     A
          CFI CFA_SP SP+0
        MOVX    @DPTR,A
//  966     pRxBuf->mac.correlation = corr;
        MOV     A,?V0
        PUSH    A
          CFI CFA_SP SP+-1
        MOV     DPTR,#pRxBuf
        MOVX    A,@DPTR
        MOV     R0,A
        INC     DPTR
        MOVX    A,@DPTR
        XCH     A,R0
        ADD     A,#0x2f
        MOV     DPL,A
        XCH     A,R0
        ADDC    A,#0x0
        MOV     DPH,A
        POP     A
          CFI CFA_SP SP+0
        MOVX    @DPTR,A
//  967 
//  968     /* set the MSDU pointer to point at start of data */
//  969     pRxBuf->msdu.p = (uint8 *) (pRxBuf + 1);
        MOV     DPTR,#pRxBuf
        MOVX    A,@DPTR
        ADD     A,#0x32
        MOV     R0,A
        INC     DPTR
        MOVX    A,@DPTR
        ADDC    A,#0x0
        MOV     R1,A
        MOV     DPTR,#pRxBuf
        MOVX    A,@DPTR
        MOV     R2,A
        INC     DPTR
        MOVX    A,@DPTR
        MOV     DPH,A
        MOV     DPL,R2
        INC     DPTR
        INC     DPTR
        MOV     A,R0
        MOVX    @DPTR,A
        INC     DPTR
        MOV     A,R1
        MOVX    @DPTR,A
//  970 
//  971     /* finally... execute callback function */
//  972     macRxCompleteCallback(pRxBuf);
        ; Setup parameters for call to function macRxCompleteCallback
        MOV     DPTR,#pRxBuf
        MOVX    A,@DPTR
        MOV     R2,A
        INC     DPTR
        MOVX    A,@DPTR
        MOV     R3,A
        LCALL   ??macRxCompleteCallback?relay; Banked call to: macRxCompleteCallback
//  973     pRxBuf = NULL; /* needed to indicate buffer is no longer allocated */
        MOV     DPTR,#pRxBuf
        MOV     A,#0x0
        MOVX    @DPTR,A
        INC     DPTR
        MOV     A,#0x0
        MOVX    @DPTR,A
        SJMP    ??rxFcsIsr_3
//  974   }
//  975   else
//  976   {
//  977 #ifdef PACKET_FILTER_STATS
//  978     rxCrcFailure++;
//  979 #endif /* PACKET_FILTER_STATS */
//  980 
//  981     /*
//  982      *  The CRC is bad so no ACK was sent.  Cancel any callback and clear the flag.
//  983      *  (It's OK to cancel the outgoing ACK even if an ACK was not requested.  It's
//  984      *  slightly more efficient to do so.)
//  985      */
//  986     MAC_RADIO_CANCEL_ACK_TX_DONE_CALLBACK();
??rxFcsIsr_1:
        MOV     DPTR,#0x61a4
        MOVX    A,@DPTR
        CLR     0xE0 /* A   */.0
        MOVX    @DPTR,A
//  987     macRxOutgoingAckFlag = 0;
        MOV     DPTR,#macRxOutgoingAckFlag
        MOV     A,#0x0
        MOVX    @DPTR,A
//  988 
//  989     /* the CRC failed so the packet must be discarded */
//  990     MEM_FREE((uint8 **)&pRxBuf);
        ; Setup parameters for call to function macDataRxMemFree
        MOV     R2,#pRxBuf & 0xff
        MOV     R3,#(pRxBuf >> 8) & 0xff
        LCALL   ??macDataRxMemFree?relay; Banked call to: macDataRxMemFree
        MOV     A,R1
//  991     pRxBuf = NULL;  /* needed to indicate buffer is no longer allocated */
        MOV     DPTR,#pRxBuf
        MOV     A,#0x0
        MOVX    @DPTR,A
        INC     DPTR
        MOV     A,#0x0
        MOVX    @DPTR,A
//  992   }
//  993 
//  994   /* reset threshold level, reset receive state, and complete receive logic */
//  995   MAC_RADIO_SET_RX_THRESHOLD(RX_THRESHOLD_START_LEN);
??rxFcsIsr_3:
        MOV     DPTR,#0x6194
        MOV     A,#0x5
        MOVX    @DPTR,A
//  996   pFuncRxState = &rxStartIsr;
        MOV     DPTR,#pFuncRxState
        MOV     A,#??rxStartIsr?relay & 0xff
        MOVX    @DPTR,A
        INC     DPTR
        MOV     A,#(??rxStartIsr?relay >> 8) & 0xff
        MOVX    @DPTR,A
//  997   rxDone();
        ; Setup parameters for call to function rxDone
        LCALL   ??rxDone?relay       ; Banked call to: rxDone
//  998 }
        MOV     R7,#0x2
        LJMP    ?BANKED_LEAVE_XDATA
          CFI EndBlock cfiBlock10
//  999 
// 1000 
// 1001 /*=================================================================================================
// 1002  * @fn          rxDone
// 1003  *
// 1004  * @brief       Common exit point for receive.
// 1005  *
// 1006  * @param       none
// 1007  *
// 1008  * @return      none
// 1009  *=================================================================================================
// 1010  */

        RSEG BANKED_CODE:CODE:NOROOT(0)
// 1011 static void rxDone(void)
rxDone:
          CFI Block cfiBlock11 Using cfiCommon0
          CFI Function rxDone
        CODE
// 1012 {
        FUNCALL rxDone, rxPostRxUpdates
        LOCFRAME ISTACK, 2, STACK
        LOCFRAME PSTACK, 0, STACK
        LOCFRAME XSTACK, 0, STACK
        LOCFRAME IOVERLAY, 0, STATIC
        LOCFRAME DOVERLAY, 0, STATIC
        ARGFRAME ISTACK, 2, STACK
        ARGFRAME PSTACK, 0, STACK
        ARGFRAME XSTACK, 0, STACK
        ARGFRAME IOVERLAY, 0, STATIC
        ARGFRAME DOVERLAY, 0, STATIC
        PUSH    DPL
          CFI DPL0 Frame(CFA_SP, 4)
          CFI CFA_SP SP+-4
        PUSH    DPH
          CFI DPH0 Frame(CFA_SP, 5)
          CFI CFA_SP SP+-5
        ; Saved register size: 2
        ; Auto size: 0
// 1013   /* Make sure the peak RSSI is reset */
// 1014   COMPRESSION_WORKAROUND_RESET_RSSI();
// 1015   
// 1016   /* if the receive FIFO has overflowed, flush it here */
// 1017   if (MAC_RADIO_RX_FIFO_HAS_OVERFLOWED())
        MOV     DPTR,#0x6193
        MOVX    A,@DPTR
        MOV     C,0xE0 /* A   */.6
        JNC     ??rxDone_0
        MOV     DPTR,#0x6193
        MOVX    A,@DPTR
        MOV     C,0xE0 /* A   */.7
        JC      ??rxDone_0
// 1018   {
// 1019     MAC_RADIO_FLUSH_RX_FIFO();
        MOV     0xe1,#-0x13
        MOV     0xe1,#-0x13
// 1020   }
// 1021 
// 1022   /* mark receive as inactive */
// 1023   macRxActive = MAC_RX_ACTIVE_NO_ACTIVITY;
??rxDone_0:
        MOV     DPTR,#macRxActive
        MOV     A,#0x0
        MOVX    @DPTR,A
// 1024 
// 1025   /* if there is no outgoing ACK, run the post receive updates */
// 1026   if (!macRxOutgoingAckFlag)
        MOV     DPTR,#macRxOutgoingAckFlag
        MOVX    A,@DPTR
        JNZ     ??rxDone_1
// 1027   {
// 1028     rxPostRxUpdates();
        ; Setup parameters for call to function rxPostRxUpdates
        LCALL   ??rxPostRxUpdates?relay; Banked call to: rxPostRxUpdates
// 1029   }
// 1030 }
??rxDone_1:
        POP     DPH
          CFI DPH0 SameValue
          CFI CFA_SP SP+-4
        POP     DPL
          CFI DPL0 SameValue
          CFI CFA_SP SP+-3
        LJMP    ?BRET
          CFI EndBlock cfiBlock11
        REQUIRE RFST
// 1031 
// 1032 
// 1033 /**************************************************************************************************
// 1034  * @fn          macRxAckTxDoneCallback
// 1035  *
// 1036  * @brief       Function called when the outoing ACK has completed transmitting.
// 1037  *
// 1038  * @param       none
// 1039  *
// 1040  * @return      none
// 1041  **************************************************************************************************
// 1042  */

        RSEG BANKED_CODE:CODE:NOROOT(0)
// 1043 void macRxAckTxDoneCallback(void)
macRxAckTxDoneCallback:
          CFI Block cfiBlock12 Using cfiCommon0
          CFI Function macRxAckTxDoneCallback
        CODE
// 1044 {
        FUNCALL macRxAckTxDoneCallback, rxPostRxUpdates
        LOCFRAME ISTACK, 2, STACK
        LOCFRAME PSTACK, 0, STACK
        LOCFRAME XSTACK, 0, STACK
        LOCFRAME IOVERLAY, 0, STATIC
        LOCFRAME DOVERLAY, 0, STATIC
        ARGFRAME ISTACK, 2, STACK
        ARGFRAME PSTACK, 0, STACK
        ARGFRAME XSTACK, 0, STACK
        ARGFRAME IOVERLAY, 0, STATIC
        ARGFRAME DOVERLAY, 0, STATIC
        PUSH    DPL
          CFI DPL0 Frame(CFA_SP, 4)
          CFI CFA_SP SP+-4
        PUSH    DPH
          CFI DPH0 Frame(CFA_SP, 5)
          CFI CFA_SP SP+-5
        ; Saved register size: 2
        ; Auto size: 0
// 1045   macRxOutgoingAckFlag = 0;
        MOV     DPTR,#macRxOutgoingAckFlag
        MOV     A,#0x0
        MOVX    @DPTR,A
// 1046 
// 1047   /*
// 1048    *  With certain interrupt priorities and timing conditions, it is possible this callback
// 1049    *  could be executed before the primary receive logic completes.  To prevent this, the
// 1050    *  post updates are only executed if receive logic is no longer active.  In the case the
// 1051    *  post updates are not executed here, they will execute when the main receive logic
// 1052    *  completes.
// 1053    */
// 1054   if (!macRxActive)
        MOV     DPTR,#macRxActive
        MOVX    A,@DPTR
        JNZ     ??macRxAckTxDoneCallback_0
// 1055   {
// 1056     rxPostRxUpdates();
        ; Setup parameters for call to function rxPostRxUpdates
        LCALL   ??rxPostRxUpdates?relay; Banked call to: rxPostRxUpdates
// 1057   }
// 1058 }
??macRxAckTxDoneCallback_0:
        POP     DPH
          CFI DPH0 SameValue
          CFI CFA_SP SP+-4
        POP     DPL
          CFI DPL0 SameValue
          CFI CFA_SP SP+-3
        LJMP    ?BRET
          CFI EndBlock cfiBlock12
// 1059 
// 1060 
// 1061 /*=================================================================================================
// 1062  * @fn          rxPostRxUpdates
// 1063  *
// 1064  * @brief       Updates that need to be performed once receive is complete.
// 1065  *
// 1066  *              It is not fatal to execute this function if somehow receive is active.  Under
// 1067  *              certain timing/interrupt conditions a new receive may have started before this
// 1068  *              function executes.  This should happen very rarely (if it happens at all) and
// 1069  *              would cause no problems.
// 1070  *
// 1071  * @param       none
// 1072  *
// 1073  * @return      none
// 1074  *=================================================================================================
// 1075  */

        RSEG BANKED_CODE:CODE:NOROOT(0)
// 1076 static void rxPostRxUpdates(void)
rxPostRxUpdates:
          CFI Block cfiBlock13 Using cfiCommon0
          CFI Function rxPostRxUpdates
        CODE
// 1077 {
        FUNCALL rxPostRxUpdates, macRxOffRequest
        LOCFRAME ISTACK, 2, STACK
        LOCFRAME PSTACK, 0, STACK
        LOCFRAME XSTACK, 0, STACK
        LOCFRAME IOVERLAY, 0, STATIC
        LOCFRAME DOVERLAY, 0, STATIC
        ARGFRAME ISTACK, 2, STACK
        ARGFRAME PSTACK, 0, STACK
        ARGFRAME XSTACK, 0, STACK
        ARGFRAME IOVERLAY, 0, STATIC
        ARGFRAME DOVERLAY, 0, STATIC
        FUNCALL rxPostRxUpdates, macRadioUpdateTxPower
        LOCFRAME ISTACK, 2, STACK
        LOCFRAME PSTACK, 0, STACK
        LOCFRAME XSTACK, 0, STACK
        LOCFRAME IOVERLAY, 0, STATIC
        LOCFRAME DOVERLAY, 0, STATIC
        ARGFRAME ISTACK, 2, STACK
        ARGFRAME PSTACK, 0, STACK
        ARGFRAME XSTACK, 0, STACK
        ARGFRAME IOVERLAY, 0, STATIC
        ARGFRAME DOVERLAY, 0, STATIC
        FUNCALL rxPostRxUpdates, macTxStartQueuedFrame
        LOCFRAME ISTACK, 2, STACK
        LOCFRAME PSTACK, 0, STACK
        LOCFRAME XSTACK, 0, STACK
        LOCFRAME IOVERLAY, 0, STATIC
        LOCFRAME DOVERLAY, 0, STATIC
        ARGFRAME ISTACK, 2, STACK
        ARGFRAME PSTACK, 0, STACK
        ARGFRAME XSTACK, 0, STACK
        ARGFRAME IOVERLAY, 0, STATIC
        ARGFRAME DOVERLAY, 0, STATIC
        PUSH    DPL
          CFI DPL0 Frame(CFA_SP, 4)
          CFI CFA_SP SP+-4
        PUSH    DPH
          CFI DPH0 Frame(CFA_SP, 5)
          CFI CFA_SP SP+-5
        ; Saved register size: 2
        ; Auto size: 0
// 1078   /* turn off receiver if permitted */
// 1079   macRxOffRequest();
        ; Setup parameters for call to function macRxOffRequest
        LCALL   ??macRxOffRequest?relay; Banked call to: macRxOffRequest
// 1080 
// 1081   /* update the transmit power, update may have been blocked by transmit of outgoing ACK */
// 1082   macRadioUpdateTxPower();
        ; Setup parameters for call to function macRadioUpdateTxPower
        LCALL   ??macRadioUpdateTxPower?relay; Banked call to: macRadioUpdateTxPower
// 1083 
// 1084   /* initiate and transmit that was queued during receive */
// 1085   macTxStartQueuedFrame();
        ; Setup parameters for call to function macTxStartQueuedFrame
        LCALL   ??macTxStartQueuedFrame?relay; Banked call to: macTxStartQueuedFrame
// 1086 }
        POP     DPH
          CFI DPH0 SameValue
          CFI CFA_SP SP+-4
        POP     DPL
          CFI DPL0 SameValue
          CFI CFA_SP SP+-3
        LJMP    ?BRET
          CFI EndBlock cfiBlock13
// 1087 
// 1088 
// 1089 /*=================================================================================================
// 1090  * @fn          rxDiscardFrame
// 1091  *
// 1092  * @brief       Initializes for discarding a packet.  Must be called before ACK is strobed.
// 1093  *
// 1094  * @param       none
// 1095  *
// 1096  * @return      none
// 1097  *=================================================================================================
// 1098  */

        RSEG BANKED_CODE:CODE:NOROOT(0)
// 1099 static void rxDiscardFrame(void)
rxDiscardFrame:
          CFI Block cfiBlock14 Using cfiCommon0
          CFI Function rxDiscardFrame
        CODE
// 1100 {
        FUNCALL rxDiscardFrame, halAssertHandler
        LOCFRAME ISTACK, 2, STACK
        LOCFRAME PSTACK, 0, STACK
        LOCFRAME XSTACK, 0, STACK
        LOCFRAME IOVERLAY, 0, STATIC
        LOCFRAME DOVERLAY, 0, STATIC
        ARGFRAME ISTACK, 2, STACK
        ARGFRAME PSTACK, 0, STACK
        ARGFRAME XSTACK, 0, STACK
        ARGFRAME IOVERLAY, 0, STATIC
        ARGFRAME DOVERLAY, 0, STATIC
        FUNCALL rxDiscardFrame, rxDone
        LOCFRAME ISTACK, 2, STACK
        LOCFRAME PSTACK, 0, STACK
        LOCFRAME XSTACK, 0, STACK
        LOCFRAME IOVERLAY, 0, STATIC
        LOCFRAME DOVERLAY, 0, STATIC
        ARGFRAME ISTACK, 2, STACK
        ARGFRAME PSTACK, 0, STACK
        ARGFRAME XSTACK, 0, STACK
        ARGFRAME IOVERLAY, 0, STATIC
        ARGFRAME DOVERLAY, 0, STATIC
        PUSH    DPL
          CFI DPL0 Frame(CFA_SP, 4)
          CFI CFA_SP SP+-4
        PUSH    DPH
          CFI DPH0 Frame(CFA_SP, 5)
          CFI CFA_SP SP+-5
        ; Saved register size: 2
        ; Auto size: 0
// 1101   MAC_ASSERT(pFuncRxState == &rxStartIsr); /* illegal state for calling discard frame function */
        MOV     DPTR,#pFuncRxState
        MOVX    A,@DPTR
        XRL     A,#??rxStartIsr?relay & 0xff
        JNZ     ??rxDiscardFrame_0
        INC     DPTR
        MOVX    A,@DPTR
        XRL     A,#(??rxStartIsr?relay >> 8) & 0xff
??rxDiscardFrame_0:
        JZ      ??rxDiscardFrame_1
        ; Setup parameters for call to function halAssertHandler
        LCALL   ??halAssertHandler?relay; Banked call to: halAssertHandler
// 1102 
// 1103   if (rxUnreadLen == 0)
??rxDiscardFrame_1:
        MOV     DPTR,#rxUnreadLen
        MOVX    A,@DPTR
        JNZ     ??rxDiscardFrame_2
// 1104   {
// 1105     rxDone();
        ; Setup parameters for call to function rxDone
        LCALL   ??rxDone?relay       ; Banked call to: rxDone
        SJMP    ??rxDiscardFrame_3
// 1106   }
// 1107   else
// 1108   {
// 1109     rxNextLen = MIN(rxUnreadLen, MAX_PAYLOAD_BYTES_READ_PER_INTERRUPT);
??rxDiscardFrame_2:
        MOV     DPTR,#rxUnreadLen
        MOVX    A,@DPTR
        CLR     C
        SUBB    A,#0x10
        JNC     ??rxDiscardFrame_4
        MOV     DPTR,#rxUnreadLen
        MOVX    A,@DPTR
        SJMP    ??rxDiscardFrame_5
??rxDiscardFrame_4:
        MOV     A,#0x10
??rxDiscardFrame_5:
        MOV     DPTR,#rxNextLen
        MOVX    @DPTR,A
// 1110     MAC_RADIO_SET_RX_THRESHOLD(rxNextLen);
        MOV     DPTR,#rxNextLen
        MOVX    A,@DPTR
        ADD     A,#-0x1
        MOV     DPTR,#0x6194
        MOVX    @DPTR,A
// 1111     pFuncRxState = &rxDiscardIsr;
        MOV     DPTR,#pFuncRxState
        MOV     A,#??rxDiscardIsr?relay & 0xff
        MOVX    @DPTR,A
        INC     DPTR
        MOV     A,#(??rxDiscardIsr?relay >> 8) & 0xff
        MOVX    @DPTR,A
// 1112   }
// 1113 }
??rxDiscardFrame_3:
        POP     DPH
          CFI DPH0 SameValue
          CFI CFA_SP SP+-4
        POP     DPL
          CFI DPL0 SameValue
          CFI CFA_SP SP+-3
        LJMP    ?BRET
          CFI EndBlock cfiBlock14
// 1114 
// 1115 
// 1116 /*=================================================================================================
// 1117  * @fn          rxDiscardIsr
// 1118  *
// 1119  * @brief       Receive ISR state for discarding a packet.
// 1120  *
// 1121  * @param       none
// 1122  *
// 1123  * @return      none
// 1124  *=================================================================================================
// 1125  */

        RSEG BANKED_CODE:CODE:NOROOT(0)
// 1126 static void rxDiscardIsr(void)
rxDiscardIsr:
          CFI Block cfiBlock15 Using cfiCommon0
          CFI Function rxDiscardIsr
        CODE
// 1127 {
        FUNCALL rxDiscardIsr, macMemReadRxFifo
        LOCFRAME ISTACK, 2, STACK
        LOCFRAME PSTACK, 0, STACK
        LOCFRAME XSTACK, 16, STACK
        LOCFRAME IOVERLAY, 0, STATIC
        LOCFRAME DOVERLAY, 0, STATIC
        ARGFRAME ISTACK, 2, STACK
        ARGFRAME PSTACK, 0, STACK
        ARGFRAME XSTACK, 16, STACK
        ARGFRAME IOVERLAY, 0, STATIC
        ARGFRAME DOVERLAY, 0, STATIC
        FUNCALL rxDiscardIsr, rxDone
        LOCFRAME ISTACK, 2, STACK
        LOCFRAME PSTACK, 0, STACK
        LOCFRAME XSTACK, 16, STACK
        LOCFRAME IOVERLAY, 0, STATIC
        LOCFRAME DOVERLAY, 0, STATIC
        ARGFRAME ISTACK, 2, STACK
        ARGFRAME PSTACK, 0, STACK
        ARGFRAME XSTACK, 16, STACK
        ARGFRAME IOVERLAY, 0, STATIC
        ARGFRAME DOVERLAY, 0, STATIC
        PUSH    DPL
          CFI DPL0 Frame(CFA_SP, 4)
          CFI CFA_SP SP+-4
        PUSH    DPH
          CFI DPH0 Frame(CFA_SP, 5)
          CFI CFA_SP SP+-5
        ; Saved register size: 2
        ; Auto size: 16
        MOV     A,#-0x10
        LCALL   ?ALLOC_XSTACK8
          CFI CFA_XSP16 add(XSP16, 16)
// 1128   uint8 buf[MAX_PAYLOAD_BYTES_READ_PER_INTERRUPT];
// 1129 
// 1130   MAC_RADIO_READ_RX_FIFO(buf, rxNextLen);
        ; Setup parameters for call to function macMemReadRxFifo
        MOV     DPTR,#rxNextLen
        MOVX    A,@DPTR
        MOV     R1,A
        MOV     R2,?XSP + 0
        MOV     R3,?XSP + 1
        LCALL   ??macMemReadRxFifo?relay; Banked call to: macMemReadRxFifo
// 1131   rxUnreadLen -= rxNextLen;
        MOV     DPTR,#rxNextLen
        MOVX    A,@DPTR
        MOV     R0,A
        MOV     DPTR,#rxUnreadLen
        MOVX    A,@DPTR
        CLR     C
        SUBB    A,R0
        MOVX    @DPTR,A
// 1132 
// 1133   /* read out and discard bytes until all bytes of packet are disposed of */
// 1134   if (rxUnreadLen != 0)
        MOV     DPTR,#rxUnreadLen
        MOVX    A,@DPTR
        JZ      ??rxDiscardIsr_0
// 1135   {
// 1136     if (rxUnreadLen < MAX_PAYLOAD_BYTES_READ_PER_INTERRUPT)
        MOV     DPTR,#rxUnreadLen
        MOVX    A,@DPTR
        CLR     C
        SUBB    A,#0x10
        JNC     ??rxDiscardIsr_1
// 1137     {
// 1138       rxNextLen = rxUnreadLen;
        MOV     DPTR,#rxUnreadLen
        MOVX    A,@DPTR
        MOV     DPTR,#rxNextLen
        MOVX    @DPTR,A
// 1139       MAC_RADIO_SET_RX_THRESHOLD(rxNextLen);
        MOV     DPTR,#rxNextLen
        MOVX    A,@DPTR
        ADD     A,#-0x1
        MOV     DPTR,#0x6194
        MOVX    @DPTR,A
        SJMP    ??rxDiscardIsr_1
// 1140     }
// 1141   }
// 1142   else
// 1143   {
// 1144     /* reset threshold level, reset receive state, and complete receive logic */
// 1145     MAC_RADIO_SET_RX_THRESHOLD(RX_THRESHOLD_START_LEN);
??rxDiscardIsr_0:
        MOV     DPTR,#0x6194
        MOV     A,#0x5
        MOVX    @DPTR,A
// 1146     pFuncRxState = &rxStartIsr;
        MOV     DPTR,#pFuncRxState
        MOV     A,#??rxStartIsr?relay & 0xff
        MOVX    @DPTR,A
        INC     DPTR
        MOV     A,#(??rxStartIsr?relay >> 8) & 0xff
        MOVX    @DPTR,A
// 1147     rxDone();
        ; Setup parameters for call to function rxDone
        LCALL   ??rxDone?relay       ; Banked call to: rxDone
// 1148   }
// 1149 }
??rxDiscardIsr_1:
        MOV     A,#0x10
        LCALL   ?DEALLOC_XSTACK8
          CFI CFA_XSP16 XSP16+0
        POP     DPH
          CFI DPH0 SameValue
          CFI CFA_SP SP+-4
        POP     DPL
          CFI DPL0 SameValue
          CFI CFA_SP SP+-3
        LJMP    ?BRET
          CFI EndBlock cfiBlock15
// 1150 
// 1151 
// 1152 /**************************************************************************************************
// 1153  * @fn          maxRxRifoOverflowIsr
// 1154  *
// 1155  * @brief       This interrupt service routine is called when RX FIFO overflow. Note that this
// 1156  *              exception does not retrieve the good frames that are trapped in the RX FIFO.
// 1157  *              It simply halts and cleanup the RX.
// 1158  *
// 1159  * @param       none
// 1160  *
// 1161  * @return      none
// 1162  **************************************************************************************************
// 1163  */

        RSEG BANKED_CODE:CODE:NOROOT(0)
// 1164 MAC_INTERNAL_API void macRxFifoOverflowIsr(void)
macRxFifoOverflowIsr:
          CFI Block cfiBlock16 Using cfiCommon0
          CFI Function macRxFifoOverflowIsr
        CODE
// 1165 {
        FUNCALL macRxFifoOverflowIsr, macRxHaltCleanup
        LOCFRAME ISTACK, 2, STACK
        LOCFRAME PSTACK, 0, STACK
        LOCFRAME XSTACK, 0, STACK
        LOCFRAME IOVERLAY, 0, STATIC
        LOCFRAME DOVERLAY, 0, STATIC
        ARGFRAME ISTACK, 2, STACK
        ARGFRAME PSTACK, 0, STACK
        ARGFRAME XSTACK, 0, STACK
        ARGFRAME IOVERLAY, 0, STATIC
        ARGFRAME DOVERLAY, 0, STATIC
        PUSH    DPL
          CFI DPL0 Frame(CFA_SP, 4)
          CFI CFA_SP SP+-4
        PUSH    DPH
          CFI DPH0 Frame(CFA_SP, 5)
          CFI CFA_SP SP+-5
        ; Saved register size: 2
        ; Auto size: 0
// 1166   rxFifoOverflowCount++; /* This flag is used for debug purpose only */
        MOV     DPTR,#rxFifoOverflowCount
        MOVX    A,@DPTR
        ADD     A,#0x1
        MOVX    @DPTR,A
// 1167   macRxHaltCleanup();
        ; Setup parameters for call to function macRxHaltCleanup
        LCALL   ??macRxHaltCleanup?relay; Banked call to: macRxHaltCleanup
// 1168 }
        POP     DPH
          CFI DPH0 SameValue
          CFI CFA_SP SP+-4
        POP     DPL
          CFI DPL0 SameValue
          CFI CFA_SP SP+-3
        LJMP    ?BRET
          CFI EndBlock cfiBlock16
// 1169 
// 1170 
// 1171 /**************************************************************************************************
// 1172  * @fn          macRxPromiscuousMode
// 1173  *
// 1174  * @brief       Sets promiscuous mode - enabling or disabling it.
// 1175  *
// 1176  * @param       none
// 1177  *
// 1178  * @return      none
// 1179  **************************************************************************************************
// 1180  */

        RSEG BANKED_CODE:CODE:NOROOT(0)
// 1181 MAC_INTERNAL_API void macRxPromiscuousMode(uint8 mode)
macRxPromiscuousMode:
          CFI Block cfiBlock17 Using cfiCommon0
          CFI Function macRxPromiscuousMode
        CODE
// 1182 {
        FUNCALL macRxPromiscuousMode, halAssertHandler
        LOCFRAME ISTACK, 0, STACK
        LOCFRAME PSTACK, 0, STACK
        LOCFRAME XSTACK, 9, STACK
        LOCFRAME IOVERLAY, 0, STATIC
        LOCFRAME DOVERLAY, 0, STATIC
        ARGFRAME ISTACK, 0, STACK
        ARGFRAME PSTACK, 0, STACK
        ARGFRAME XSTACK, 9, STACK
        ARGFRAME IOVERLAY, 0, STATIC
        ARGFRAME DOVERLAY, 0, STATIC
        MOV     A,#-0x9
        LCALL   ?BANKED_ENTER_XDATA
          CFI DPH0 load(1, XDATA, add(CFA_XSP16, literal(-1)))
          CFI DPL0 load(1, XDATA, add(CFA_XSP16, literal(-2)))
          CFI ?BRET_EXT load(1, XDATA, add(CFA_XSP16, literal(-3)))
          CFI ?RET_HIGH load(1, XDATA, add(CFA_XSP16, literal(-4)))
          CFI ?RET_LOW load(1, XDATA, add(CFA_XSP16, literal(-5)))
          CFI R7 load(1, XDATA, add(CFA_XSP16, literal(-6)))
          CFI V0 load(1, XDATA, add(CFA_XSP16, literal(-7)))
          CFI VB load(1, XDATA, add(CFA_XSP16, literal(-8)))
          CFI R6 load(1, XDATA, add(CFA_XSP16, literal(-9)))
          CFI CFA_SP SP+0
          CFI CFA_XSP16 add(XSP16, 9)
        ; Saved register size: 9
        ; Auto size: 0
        MOV     A,R1
        MOV     R6,A
// 1183   rxPromiscuousMode = mode;
        MOV     A,R6
        MOV     DPTR,#rxPromiscuousMode
        MOVX    @DPTR,A
// 1184 
// 1185   if (rxPromiscuousMode == MAC_PROMISCUOUS_MODE_OFF)
        MOV     DPTR,#rxPromiscuousMode
        MOVX    A,@DPTR
        JNZ     ??macRxPromiscuousMode_0
// 1186   {
// 1187       MAC_RADIO_TURN_ON_RX_FRAME_FILTERING();
        MOV     DPTR,#0x6180
        MOV     A,#0x0
        MOVX    @DPTR,A
        MOV     DPTR,#0x6180
        MOVX    A,@DPTR
        ORL     A,#0x5
        MOVX    @DPTR,A
        SJMP    ??macRxPromiscuousMode_1
// 1188   }
// 1189   else
// 1190   {
// 1191     MAC_ASSERT((mode == MAC_PROMISCUOUS_MODE_WITH_BAD_CRC)   ||
// 1192                (mode == MAC_PROMISCUOUS_MODE_COMPLIANT));  /* invalid mode */
??macRxPromiscuousMode_0:
        MOV     A,#0x2
        XRL     A,R6
        JZ      ??macRxPromiscuousMode_2
        MOV     A,#0x1
        XRL     A,R6
        JZ      ??macRxPromiscuousMode_2
        ; Setup parameters for call to function halAssertHandler
        LCALL   ??halAssertHandler?relay; Banked call to: halAssertHandler
// 1193 
// 1194     MAC_RADIO_TURN_OFF_RX_FRAME_FILTERING();
??macRxPromiscuousMode_2:
        MOV     DPTR,#0x6180
        MOVX    A,@DPTR
        CLR     0xE0 /* A   */.0
        MOVX    @DPTR,A
// 1195   }
// 1196 }
??macRxPromiscuousMode_1:
        MOV     R7,#0x1
        LJMP    ?BANKED_LEAVE_XDATA
          CFI EndBlock cfiBlock17

        RSEG BANK_RELAYS:CODE:REORDER:NOROOT(0)
??macRxInit?relay:
        CODE
        LCALL   ?BDISPATCH
        DATA24
        DC24    macRxInit

        RSEG BANK_RELAYS:CODE:REORDER:NOROOT(0)
??macRxRadioPowerUpInit?relay:
        CODE
        LCALL   ?BDISPATCH
        DATA24
        DC24    macRxRadioPowerUpInit

        RSEG BANK_RELAYS:CODE:REORDER:NOROOT(0)
??macRxTxReset?relay:
        CODE
        LCALL   ?BDISPATCH
        DATA24
        DC24    macRxTxReset

        RSEG BANK_RELAYS:CODE:REORDER:NOROOT(0)
??macRxHaltCleanup?relay:
        CODE
        LCALL   ?BDISPATCH
        DATA24
        DC24    macRxHaltCleanup

        RSEG BANK_RELAYS:CODE:REORDER:NOROOT(0)
??rxHaltCleanupFinalStep?relay:
        CODE
        LCALL   ?BDISPATCH
        DATA24
        DC24    rxHaltCleanupFinalStep

        RSEG BANK_RELAYS:CODE:REORDER:NOROOT(0)
??macRxThresholdIsr?relay:
        CODE
        LCALL   ?BDISPATCH
        DATA24
        DC24    macRxThresholdIsr

        RSEG BANK_RELAYS:CODE:REORDER:NOROOT(0)
??rxStartIsr?relay:
        CODE
        LCALL   ?BDISPATCH
        DATA24
        DC24    rxStartIsr

        RSEG BANK_RELAYS:CODE:REORDER:NOROOT(0)
??rxAddrIsr?relay:
        CODE
        LCALL   ?BDISPATCH
        DATA24
        DC24    rxAddrIsr

        RSEG BANK_RELAYS:CODE:REORDER:NOROOT(0)
??rxPrepPayload?relay:
        CODE
        LCALL   ?BDISPATCH
        DATA24
        DC24    rxPrepPayload

        RSEG BANK_RELAYS:CODE:REORDER:NOROOT(0)
??rxPayloadIsr?relay:
        CODE
        LCALL   ?BDISPATCH
        DATA24
        DC24    rxPayloadIsr

        RSEG BANK_RELAYS:CODE:REORDER:NOROOT(0)
??rxFcsIsr?relay:
        CODE
        LCALL   ?BDISPATCH
        DATA24
        DC24    rxFcsIsr

        RSEG BANK_RELAYS:CODE:REORDER:NOROOT(0)
??rxDone?relay:
        CODE
        LCALL   ?BDISPATCH
        DATA24
        DC24    rxDone

        RSEG BANK_RELAYS:CODE:REORDER:NOROOT(0)
??macRxAckTxDoneCallback?relay:
        CODE
        LCALL   ?BDISPATCH
        DATA24
        DC24    macRxAckTxDoneCallback

        RSEG BANK_RELAYS:CODE:REORDER:NOROOT(0)
??rxPostRxUpdates?relay:
        CODE
        LCALL   ?BDISPATCH
        DATA24
        DC24    rxPostRxUpdates

        RSEG BANK_RELAYS:CODE:REORDER:NOROOT(0)
??rxDiscardFrame?relay:
        CODE
        LCALL   ?BDISPATCH
        DATA24
        DC24    rxDiscardFrame

        RSEG BANK_RELAYS:CODE:REORDER:NOROOT(0)
??rxDiscardIsr?relay:
        CODE
        LCALL   ?BDISPATCH
        DATA24
        DC24    rxDiscardIsr

        RSEG BANK_RELAYS:CODE:REORDER:NOROOT(0)
??macRxFifoOverflowIsr?relay:
        CODE
        LCALL   ?BDISPATCH
        DATA24
        DC24    macRxFifoOverflowIsr

        RSEG BANK_RELAYS:CODE:REORDER:NOROOT(0)
??macRxPromiscuousMode?relay:
        CODE
        LCALL   ?BDISPATCH
        DATA24
        DC24    macRxPromiscuousMode

        END
// 1197 
// 1198 #ifdef CC2591_COMPRESSION_WORKAROUND
// 1199 /**************************************************************************************************
// 1200  * @fn          macRxResetRssi
// 1201  *
// 1202  * @brief       This function reset RSSI peak if the device is not actively in TX or RX.
// 1203  *
// 1204  * @param       none
// 1205  *
// 1206  * @return      none
// 1207  **************************************************************************************************
// 1208  */
// 1209 void macRxResetRssi(void)
// 1210 {
// 1211   if ( !(macRxActive || macRxOutgoingAckFlag || macTxActive) )
// 1212   {
// 1213     COMPRESSION_WORKAROUND_RESET_RSSI();
// 1214   }
// 1215 }
// 1216 #endif /* CC2591_COMPRESSION_WORKAROUND */
// 1217 
// 1218 /**************************************************************************************************
// 1219  *                                  Compile Time Integrity Checks
// 1220  **************************************************************************************************
// 1221  */
// 1222 
// 1223 /* check for changes to the spec that would affect the source code */
// 1224 #if ((MAC_A_MAX_PHY_PACKET_SIZE   !=  0x7F )   ||  \ 
// 1225      (MAC_FCF_FIELD_LEN           !=  2    )   ||  \ 
// 1226      (MAC_FCF_FRAME_TYPE_POS      !=  0    )   ||  \ 
// 1227      (MAC_FCF_FRAME_PENDING_POS   !=  4    )   ||  \ 
// 1228      (MAC_FCF_ACK_REQUEST_POS     !=  5    )   ||  \ 
// 1229      (MAC_FCF_INTRA_PAN_POS       !=  6    )   ||  \ 
// 1230      (MAC_FCF_DST_ADDR_MODE_POS   !=  10   )   ||  \ 
// 1231      (MAC_FCF_FRAME_VERSION_POS   !=  12   )   ||  \ 
// 1232      (MAC_FCF_SRC_ADDR_MODE_POS   !=  14   ))
// 1233 #error "ERROR!  Change to the spec that requires modification of source code."
// 1234 #endif
// 1235 
// 1236 /* check for changes to the internal flags format */
// 1237 #if ((MAC_RX_FLAG_VERSION      !=  0x03)  ||  \ 
// 1238      (MAC_RX_FLAG_ACK_PENDING  !=  0x04)  ||  \ 
// 1239      (MAC_RX_FLAG_SECURITY     !=  0x08)  ||  \ 
// 1240      (MAC_RX_FLAG_PENDING      !=  0x10)  ||  \ 
// 1241      (MAC_RX_FLAG_ACK_REQUEST  !=  0x20)  ||  \ 
// 1242      (MAC_RX_FLAG_INTRA_PAN    !=  0x40))
// 1243 #error "ERROR!  Change to the internal RX flags format.  Requires modification of source code."
// 1244 #endif
// 1245 
// 1246 /* validate CRC OK bit optimization */
// 1247 #if (MAC_RX_FLAG_CRC_OK != PROPRIETARY_FCS_CRC_OK_BIT)
// 1248 #error "ERROR!  Optimization relies on these bits having the same position."
// 1249 #endif
// 1250 
// 1251 #if (MAC_RX_ACTIVE_NO_ACTIVITY != 0x00)
// 1252 #error "ERROR! Zero is reserved value of macRxActive. Allows boolean operations, e.g !macRxActive."
// 1253 #endif
// 1254 
// 1255 #if (MAC_PROMISCUOUS_MODE_OFF != 0x00)
// 1256 #error "ERROR! Zero is reserved value of rxPromiscuousMode. Allows boolean operations, e.g !rxPromiscuousMode."
// 1257 #endif
// 1258 
// 1259 
// 1260 /**************************************************************************************************
// 1261 */
// 
// 2 700 bytes in segment BANKED_CODE
//   108 bytes in segment BANK_RELAYS
//     4 bytes in segment CODE_C
//     5 bytes in segment SFR_AN
//    19 bytes in segment XDATA_Z
// 
// 2 812 bytes of CODE  memory
//     0 bytes of DATA  memory (+ 5 bytes shared)
//    19 bytes of XDATA memory
//
//Errors: none
//Warnings: none
