///////////////////////////////////////////////////////////////////////////////
//
// IAR C/C++ Compiler V9.10.1.2146 for 8051               07/Jul/2023  16:40:47
// Copyright 2004-2014 IAR Systems AB.
// Standalone license - IAR Embedded Workbench for 8051
//
//    Core               =  plain
//    Code model         =  banked
//    Data model         =  large
//    Calling convention =  xdata reentrant
//    Constant location  =  data_rom
//    Dptr setup         =  1,16
//                          
//    Source file        =  
//        I:\1_git_code\EPnode_OTA\CC2530
//        IAP\CC2530_stack\zstack-2.4.0-1.4.0x\Components\zmac\f8w\zmac_cb.c
//    Command line       =  
//        -f "I:\1_git_code\EPnode_OTA\CC2530
//        IAP\CC2530_stack\zstack-2.4.0-1.4.0x\Projects\zstack\Samples\CC2530-Serial(IAP)\CC2530DB\..\..\..\Tools\CC2530DB\f8wRouter.cfg"
//        (-DCPU32MHZ -DROOT=__near_func -DMAC_CFG_APP_PENDING_QUEUE=TRUE
//        -DMAC_CFG_TX_DATA_MAX=5 -DMAC_CFG_TX_MAX=8 -DMAC_CFG_RX_MAX=5
//        -DRTR_NWK) -f "I:\1_git_code\EPnode_OTA\CC2530
//        IAP\CC2530_stack\zstack-2.4.0-1.4.0x\Projects\zstack\Samples\CC2530-Serial(IAP)\CC2530DB\..\..\..\Tools\CC2530DB\f8wConfig.cfg"
//        (-DZIGBEEPRO -DSECURE=0 -DZG_SECURE_DYNAMIC=0 -DREFLECTOR
//        -DDEFAULT_CHANLIST=0x00000800 -DZDAPP_CONFIG_PAN_ID=8448
//        -DNWK_START_DELAY=100 -DEXTENDED_JOINING_RANDOM_MASK=0x007F
//        -DBEACON_REQUEST_DELAY=100 -DBEACON_REQ_DELAY_MASK=0x00FF
//        -DLINK_STATUS_JITTER_MASK=0x007F -DROUTE_EXPIRY_TIME=30
//        -DAPSC_ACK_WAIT_DURATION_POLLED=3000 -DNWK_INDIRECT_MSG_TIMEOUT=7
//        -DMAX_RREQ_ENTRIES=8 -DAPSC_MAX_FRAME_RETRIES=3
//        -DNWK_MAX_DATA_RETRIES=2 -DMAX_POLL_FAILURE_RETRIES=2 -DMAX_BCAST=9
//        -DAPS_MAX_GROUPS=16 -DMAX_RTG_ENTRIES=40 -DNWK_MAX_BINDING_ENTRIES=4
//        -DMAX_BINDING_CLUSTER_IDS=4 "-DDEFAULT_KEY={0x01, 0x03, 0x05, 0x07,
//        0x09, 0x0B, 0x0D, 0x0F, 0x00, 0x02, 0x04, 0x06, 0x08, 0x0A, 0x0C,
//        0x0D}" -DMAC_MAX_FRAME_SIZE=116 -DZDNWKMGR_MIN_TRANSMISSIONS=20
//        "-DCONST=const __code" -DGENERIC=__generic -DRFD_RCVC_ALWAYS_ON=TRUE
//        -DPOLL_RATE=1000 -DQUEUED_POLL_RATE=100 -DRESPONSE_POLL_RATE=100)
//        -DREJOIN_POLL_RATE=440 "I:\1_git_code\EPnode_OTA\CC2530
//        IAP\CC2530_stack\zstack-2.4.0-1.4.0x\Components\zmac\f8w\zmac_cb.c"
//        -D HOLD_AUTO_START -D BUILD_ALL_DEVICES -D REFLECTOR -D NV_INIT -D
//        XLAB -D CC2530_Serial -D MAKE_CRC_SHDW -D CC2530_USE_IAP -lC
//        "I:\1_git_code\EPnode_OTA\CC2530
//        IAP\CC2530_stack\zstack-2.4.0-1.4.0x\Projects\zstack\Samples\CC2530-Serial(IAP)\CC2530DB\CC2530-Serial\List\"
//        -lA "I:\1_git_code\EPnode_OTA\CC2530
//        IAP\CC2530_stack\zstack-2.4.0-1.4.0x\Projects\zstack\Samples\CC2530-Serial(IAP)\CC2530DB\CC2530-Serial\List\"
//        --diag_suppress Pe001,Pa010 -o "I:\1_git_code\EPnode_OTA\CC2530
//        IAP\CC2530_stack\zstack-2.4.0-1.4.0x\Projects\zstack\Samples\CC2530-Serial(IAP)\CC2530DB\CC2530-Serial\Obj\"
//        -e --no_cse --no_unroll --no_inline --no_code_motion --no_tbaa
//        --debug --core=plain --dptr=16,1 --data_model=large
//        --code_model=banked --calling_convention=xdata_reentrant
//        --place_constants=data_rom --nr_virtual_regs 8 -I
//        "I:\1_git_code\EPnode_OTA\CC2530
//        IAP\CC2530_stack\zstack-2.4.0-1.4.0x\Projects\zstack\Samples\CC2530-Serial(IAP)\CC2530DB\"
//        -I "I:\1_git_code\EPnode_OTA\CC2530
//        IAP\CC2530_stack\zstack-2.4.0-1.4.0x\Projects\zstack\Samples\CC2530-Serial(IAP)\CC2530DB\..\Source\"
//        -I "I:\1_git_code\EPnode_OTA\CC2530
//        IAP\CC2530_stack\zstack-2.4.0-1.4.0x\Projects\zstack\Samples\CC2530-Serial(IAP)\CC2530DB\..\..\common\"
//        -I "I:\1_git_code\EPnode_OTA\CC2530
//        IAP\CC2530_stack\zstack-2.4.0-1.4.0x\Projects\zstack\Samples\CC2530-Serial(IAP)\CC2530DB\..\..\..\ZMain\TI2530DB\"
//        -I "I:\1_git_code\EPnode_OTA\CC2530
//        IAP\CC2530_stack\zstack-2.4.0-1.4.0x\Projects\zstack\Samples\CC2530-Serial(IAP)\CC2530DB\..\..\..\..\..\Components\hal\include\"
//        -I "I:\1_git_code\EPnode_OTA\CC2530
//        IAP\CC2530_stack\zstack-2.4.0-1.4.0x\Projects\zstack\Samples\CC2530-Serial(IAP)\CC2530DB\..\..\..\..\..\Components\hal\target\CC2530EB\"
//        -I "I:\1_git_code\EPnode_OTA\CC2530
//        IAP\CC2530_stack\zstack-2.4.0-1.4.0x\Projects\zstack\Samples\CC2530-Serial(IAP)\CC2530DB\..\..\..\..\..\Components\mac\include\"
//        -I "I:\1_git_code\EPnode_OTA\CC2530
//        IAP\CC2530_stack\zstack-2.4.0-1.4.0x\Projects\zstack\Samples\CC2530-Serial(IAP)\CC2530DB\..\..\..\..\..\Components\mac\high_level\"
//        -I "I:\1_git_code\EPnode_OTA\CC2530
//        IAP\CC2530_stack\zstack-2.4.0-1.4.0x\Projects\zstack\Samples\CC2530-Serial(IAP)\CC2530DB\..\..\..\..\..\Components\mac\low_level\srf04\"
//        -I "I:\1_git_code\EPnode_OTA\CC2530
//        IAP\CC2530_stack\zstack-2.4.0-1.4.0x\Projects\zstack\Samples\CC2530-Serial(IAP)\CC2530DB\..\..\..\..\..\Components\mac\low_level\srf04\single_chip\"
//        -I "I:\1_git_code\EPnode_OTA\CC2530
//        IAP\CC2530_stack\zstack-2.4.0-1.4.0x\Projects\zstack\Samples\CC2530-Serial(IAP)\CC2530DB\..\..\..\..\..\Components\mt\"
//        -I "I:\1_git_code\EPnode_OTA\CC2530
//        IAP\CC2530_stack\zstack-2.4.0-1.4.0x\Projects\zstack\Samples\CC2530-Serial(IAP)\CC2530DB\..\..\..\..\..\Components\osal\include\"
//        -I "I:\1_git_code\EPnode_OTA\CC2530
//        IAP\CC2530_stack\zstack-2.4.0-1.4.0x\Projects\zstack\Samples\CC2530-Serial(IAP)\CC2530DB\..\..\..\..\..\Components\osal\mcu\ccsoc\"
//        -I "I:\1_git_code\EPnode_OTA\CC2530
//        IAP\CC2530_stack\zstack-2.4.0-1.4.0x\Projects\zstack\Samples\CC2530-Serial(IAP)\CC2530DB\..\..\..\..\..\Components\services\saddr\"
//        -I "I:\1_git_code\EPnode_OTA\CC2530
//        IAP\CC2530_stack\zstack-2.4.0-1.4.0x\Projects\zstack\Samples\CC2530-Serial(IAP)\CC2530DB\..\..\..\..\..\Components\services\sdata\"
//        -I "I:\1_git_code\EPnode_OTA\CC2530
//        IAP\CC2530_stack\zstack-2.4.0-1.4.0x\Projects\zstack\Samples\CC2530-Serial(IAP)\CC2530DB\..\..\..\..\..\Components\stack\af\"
//        -I "I:\1_git_code\EPnode_OTA\CC2530
//        IAP\CC2530_stack\zstack-2.4.0-1.4.0x\Projects\zstack\Samples\CC2530-Serial(IAP)\CC2530DB\..\..\..\..\..\Components\stack\nwk\"
//        -I "I:\1_git_code\EPnode_OTA\CC2530
//        IAP\CC2530_stack\zstack-2.4.0-1.4.0x\Projects\zstack\Samples\CC2530-Serial(IAP)\CC2530DB\..\..\..\..\..\Components\stack\sapi\"
//        -I "I:\1_git_code\EPnode_OTA\CC2530
//        IAP\CC2530_stack\zstack-2.4.0-1.4.0x\Projects\zstack\Samples\CC2530-Serial(IAP)\CC2530DB\..\..\..\..\..\Components\stack\sec\"
//        -I "I:\1_git_code\EPnode_OTA\CC2530
//        IAP\CC2530_stack\zstack-2.4.0-1.4.0x\Projects\zstack\Samples\CC2530-Serial(IAP)\CC2530DB\..\..\..\..\..\Components\stack\sys\"
//        -I "I:\1_git_code\EPnode_OTA\CC2530
//        IAP\CC2530_stack\zstack-2.4.0-1.4.0x\Projects\zstack\Samples\CC2530-Serial(IAP)\CC2530DB\..\..\..\..\..\Components\stack\zdo\"
//        -I "I:\1_git_code\EPnode_OTA\CC2530
//        IAP\CC2530_stack\zstack-2.4.0-1.4.0x\Projects\zstack\Samples\CC2530-Serial(IAP)\CC2530DB\..\..\..\..\..\Components\zmac\"
//        -I "I:\1_git_code\EPnode_OTA\CC2530
//        IAP\CC2530_stack\zstack-2.4.0-1.4.0x\Projects\zstack\Samples\CC2530-Serial(IAP)\CC2530DB\..\..\..\..\..\Components\zmac\f8w\"
//        -On
//    List file          =  
//        I:\1_git_code\EPnode_OTA\CC2530
//        IAP\CC2530_stack\zstack-2.4.0-1.4.0x\Projects\zstack\Samples\CC2530-Serial(IAP)\CC2530DB\CC2530-Serial\List\zmac_cb.s51
//
///////////////////////////////////////////////////////////////////////////////

        NAME zmac_cb

        RTMODEL "__SystemLibrary", "CLib"
        RTMODEL "__calling_convention", "xdata_reentrant"
        RTMODEL "__code_model", "banked"
        RTMODEL "__core", "plain"
        RTMODEL "__data_model", "large"
        RTMODEL "__dptr_size", "16"
        RTMODEL "__extended_stack", "disabled"
        RTMODEL "__location_for_constants", "data"
        RTMODEL "__number_of_dptrs", "1"
        RTMODEL "__rt_version", "1"

        RSEG DOVERLAY:DATA:NOROOT(0)
        RSEG IOVERLAY:IDATA:NOROOT(0)
        RSEG ISTACK:IDATA:NOROOT(0)
        RSEG PSTACK:XDATA:NOROOT(0)
        RSEG XSTACK:XDATA:NOROOT(0)

        EXTERN ?V0
        EXTERN ?V1
        EXTERN ?V2
        EXTERN ?V3
        EXTERN ?V4
        EXTERN ?V5
        EXTERN ?ALLOC_XSTACK8
        EXTERN ?BANKED_ENTER_XDATA
        EXTERN ?BANKED_LEAVE_XDATA
        EXTERN ?BDISPATCH
        EXTERN ?BRET
        EXTERN ?CALL_IND
        EXTERN ?DEALLOC_XSTACK8
        EXTERN ?PUSH_XSTACK_I_THREE
        EXTERN ?US_DIV_MOD
        EXTERN ?XSP
        EXTERN ?XSTACK_DISP0_8
        EXTERN ?XSTACK_DISP101_8
        EXTERN __INIT_XDATA_Z

        PUBLIC ??MAC_CbackCheckPending?relay
        FUNCTION ??MAC_CbackCheckPending?relay,0203H
        PUBLIC ??MAC_CbackEvent?relay
        FUNCTION ??MAC_CbackEvent?relay,0203H
        FUNCTION ??ZMacLqiAdjust?relay,0203H
        PUBLIC ??ZMacLqiAdjustMode?relay
        FUNCTION ??ZMacLqiAdjustMode?relay,0203H
        PUBLIC MAC_CbackCheckPending
        FUNCTION MAC_CbackCheckPending,021203H
        ARGFRAME XSTACK, 0, STACK
        LOCFRAME ISTACK, 2, STACK
        PUBLIC MAC_CbackEvent
        FUNCTION MAC_CbackEvent,0a1203H
        ARGFRAME XSTACK, 0, STACK
        LOCFRAME ISTACK, 1, STACK
        LOCFRAME XSTACK, 24, STACK
        FUNCTION ZMacLqiAdjust,080203H
        ARGFRAME XSTACK, 21, STACK
        ARGFRAME IOVERLAY, 0, STATIC
        ARGFRAME DOVERLAY, 0, STATIC
        LOCFRAME ISTACK, 1, STACK
        LOCFRAME XSTACK, 10, STACK
        PUBLIC ZMacLqiAdjustMode
        FUNCTION ZMacLqiAdjustMode,0203H
        ARGFRAME XSTACK, 0, STACK
        LOCFRAME ISTACK, 2, STACK
        PUBWEAK _A_IEN0
        PUBLIC pZMac_AppCallback
        PUBLIC zmacCBSizeTable
        
          CFI Names cfiNames0
          CFI StackFrame CFA_SP SP IDATA
          CFI StackFrame CFA_PSP16 PSP16 XDATA
          CFI StackFrame CFA_XSP16 XSP16 XDATA
          CFI StaticOverlayFrame CFA_IOVERLAY IOVERLAY
          CFI StaticOverlayFrame CFA_DOVERLAY DOVERLAY
          CFI Resource `PSW.CY`:1, `B.BR0`:1, `B.BR1`:1, `B.BR2`:1, `B.BR3`:1
          CFI Resource `B.BR4`:1, `B.BR5`:1, `B.BR6`:1, `B.BR7`:1, `VB.BR8`:1
          CFI Resource `VB.BR9`:1, `VB.BR10`:1, `VB.BR11`:1, `VB.BR12`:1
          CFI Resource `VB.BR13`:1, `VB.BR14`:1, `VB.BR15`:1, VB:8, B:8, A:8
          CFI Resource PSW:8, DPL0:8, DPH0:8, R0:8, R1:8, R2:8, R3:8, R4:8, R5:8
          CFI Resource R6:8, R7:8, V0:8, V1:8, V2:8, V3:8, V4:8, V5:8, V6:8, V7:8
          CFI Resource SP:8, PSPH:8, PSPL:8, PSP16:16, XSPH:8, XSPL:8, XSP16:16
          CFI VirtualResource ?RET:24
          CFI Resource ?BRET_EXT:8
          CFI VirtualResource ?RET_HIGH:8, ?RET_LOW:8
          CFI ResourceParts PSP16 PSPH, PSPL
          CFI ResourceParts XSP16 XSPH, XSPL
          CFI ResourceParts ?RET ?BRET_EXT, ?RET_HIGH, ?RET_LOW
          CFI EndNames cfiNames0
        
          CFI Common cfiCommon0 Using cfiNames0
          CFI CodeAlign 1
          CFI DataAlign -1
          CFI ReturnAddress ?RET CODE
          CFI CFA_DOVERLAY Used
          CFI CFA_IOVERLAY Used
          CFI CFA_SP SP+-3
          CFI CFA_PSP16 PSP16+0
          CFI CFA_XSP16 XSP16+0
          CFI `PSW.CY` SameValue
          CFI `B.BR0` SameValue
          CFI `B.BR1` SameValue
          CFI `B.BR2` SameValue
          CFI `B.BR3` SameValue
          CFI `B.BR4` SameValue
          CFI `B.BR5` SameValue
          CFI `B.BR6` SameValue
          CFI `B.BR7` SameValue
          CFI `VB.BR8` SameValue
          CFI `VB.BR9` SameValue
          CFI `VB.BR10` SameValue
          CFI `VB.BR11` SameValue
          CFI `VB.BR12` SameValue
          CFI `VB.BR13` SameValue
          CFI `VB.BR14` SameValue
          CFI `VB.BR15` SameValue
          CFI VB SameValue
          CFI B Undefined
          CFI A Undefined
          CFI PSW SameValue
          CFI DPL0 SameValue
          CFI DPH0 SameValue
          CFI R0 Undefined
          CFI R1 Undefined
          CFI R2 Undefined
          CFI R3 Undefined
          CFI R4 Undefined
          CFI R5 Undefined
          CFI R6 SameValue
          CFI R7 SameValue
          CFI V0 SameValue
          CFI V1 SameValue
          CFI V2 SameValue
          CFI V3 SameValue
          CFI V4 SameValue
          CFI V5 SameValue
          CFI V6 SameValue
          CFI V7 SameValue
          CFI PSPH Undefined
          CFI PSPL Undefined
          CFI XSPH Undefined
          CFI XSPL Undefined
          CFI ?RET Concat
          CFI ?BRET_EXT Frame(CFA_SP, 3)
          CFI ?RET_HIGH Frame(CFA_SP, 2)
          CFI ?RET_LOW Frame(CFA_SP, 1)
          CFI EndCommon cfiCommon0
        
MAC_MlmeGetReq      SYMBOL "MAC_MlmeGetReq"
??MAC_MlmeGetReq?relay SYMBOL "?relay", MAC_MlmeGetReq
mac_msg_deallocate  SYMBOL "mac_msg_deallocate"
??mac_msg_deallocate?relay SYMBOL "?relay", mac_msg_deallocate
nwkDB_ReturnIndirectHoldingCnt SYMBOL "nwkDB_ReturnIndirectHoldingCnt"
??nwkDB_ReturnIndirectHoldingCnt?relay SYMBOL "?relay", nwkDB_ReturnIndirectHoldingCnt
nwk_broadcastSend   SYMBOL "nwk_broadcastSend"
??nwk_broadcastSend?relay SYMBOL "?relay", nwk_broadcastSend
osal_mem_free       SYMBOL "osal_mem_free"
??osal_mem_free?relay SYMBOL "?relay", osal_mem_free
osal_memcpy         SYMBOL "osal_memcpy"
??osal_memcpy?relay SYMBOL "?relay", osal_memcpy
osal_msg_allocate   SYMBOL "osal_msg_allocate"
??osal_msg_allocate?relay SYMBOL "?relay", osal_msg_allocate
osal_msg_send       SYMBOL "osal_msg_send"
??osal_msg_send?relay SYMBOL "?relay", osal_msg_send
MAC_CbackCheckPending SYMBOL "MAC_CbackCheckPending"
??MAC_CbackCheckPending?relay SYMBOL "?relay", MAC_CbackCheckPending
MAC_CbackEvent      SYMBOL "MAC_CbackEvent"
??MAC_CbackEvent?relay SYMBOL "?relay", MAC_CbackEvent
ZMacLqiAdjustMode   SYMBOL "ZMacLqiAdjustMode"
??ZMacLqiAdjustMode?relay SYMBOL "?relay", ZMacLqiAdjustMode

        EXTERN ??MAC_MlmeGetReq?relay
        FUNCTION ??MAC_MlmeGetReq?relay,00H
        EXTERN ??mac_msg_deallocate?relay
        FUNCTION ??mac_msg_deallocate?relay,00H
        EXTERN ??nwkDB_ReturnIndirectHoldingCnt?relay
        FUNCTION ??nwkDB_ReturnIndirectHoldingCnt?relay,00H
        EXTERN ??nwk_broadcastSend?relay
        FUNCTION ??nwk_broadcastSend?relay,00H
        EXTERN ??osal_mem_free?relay
        FUNCTION ??osal_mem_free?relay,00H
        EXTERN ??osal_memcpy?relay
        FUNCTION ??osal_memcpy?relay,00H
        EXTERN ??osal_msg_allocate?relay
        FUNCTION ??osal_msg_allocate?relay,00H
        EXTERN ??osal_msg_send?relay
        FUNCTION ??osal_msg_send?relay,00H
        EXTERN MAC_MlmeGetReq
        FUNCTION MAC_MlmeGetReq,0202H
        ARGFRAME ISTACK, 0, STACK
        ARGFRAME PSTACK, 0, STACK
        ARGFRAME XSTACK, 21, STACK
        ARGFRAME IOVERLAY, 0, STATIC
        ARGFRAME DOVERLAY, 0, STATIC
        EXTERN NWK_TaskID
        EXTERN ZMac_ScanBuf
        EXTERN _NIB
        EXTERN mac_msg_deallocate
        FUNCTION mac_msg_deallocate,0202H
        ARGFRAME ISTACK, 0, STACK
        ARGFRAME PSTACK, 0, STACK
        ARGFRAME XSTACK, 21, STACK
        ARGFRAME IOVERLAY, 0, STATIC
        ARGFRAME DOVERLAY, 0, STATIC
        EXTERN nwkDB_ReturnIndirectHoldingCnt
        FUNCTION nwkDB_ReturnIndirectHoldingCnt,0202H
        ARGFRAME ISTACK, 2, STACK
        ARGFRAME PSTACK, 0, STACK
        ARGFRAME XSTACK, 0, STACK
        ARGFRAME IOVERLAY, 0, STATIC
        ARGFRAME DOVERLAY, 0, STATIC
        EXTERN nwk_broadcastSend
        FUNCTION nwk_broadcastSend,0202H
        ARGFRAME ISTACK, 0, STACK
        ARGFRAME PSTACK, 0, STACK
        ARGFRAME XSTACK, 21, STACK
        ARGFRAME IOVERLAY, 0, STATIC
        ARGFRAME DOVERLAY, 0, STATIC
        EXTERN osal_mem_free
        FUNCTION osal_mem_free,0202H
        ARGFRAME ISTACK, 0, STACK
        ARGFRAME PSTACK, 0, STACK
        ARGFRAME XSTACK, 21, STACK
        ARGFRAME IOVERLAY, 0, STATIC
        ARGFRAME DOVERLAY, 0, STATIC
        EXTERN osal_memcpy
        FUNCTION osal_memcpy,0202H
        ARGFRAME ISTACK, 0, STACK
        ARGFRAME PSTACK, 0, STACK
        ARGFRAME XSTACK, 24, STACK
        ARGFRAME IOVERLAY, 0, STATIC
        ARGFRAME DOVERLAY, 0, STATIC
        EXTERN osal_msg_allocate
        FUNCTION osal_msg_allocate,0202H
        ARGFRAME ISTACK, 0, STACK
        ARGFRAME PSTACK, 0, STACK
        ARGFRAME XSTACK, 21, STACK
        ARGFRAME IOVERLAY, 0, STATIC
        ARGFRAME DOVERLAY, 0, STATIC
        EXTERN osal_msg_send
        FUNCTION osal_msg_send,0202H
        ARGFRAME ISTACK, 0, STACK
        ARGFRAME PSTACK, 0, STACK
        ARGFRAME XSTACK, 21, STACK
        ARGFRAME IOVERLAY, 0, STATIC
        ARGFRAME DOVERLAY, 0, STATIC
        EXTERN zgDeviceLogicalType

// I:\1_git_code\EPnode_OTA\CC2530 IAP\CC2530_stack\zstack-2.4.0-1.4.0x\Components\zmac\f8w\zmac_cb.c
//    1 /**************************************************************************************************
//    2   Filename:       zmac_cb.c
//    3   Revised:        $Date: 2010-05-18 18:54:25 -0700 (Tue, 18 May 2010) $
//    4   Revision:       $Revision: 22542 $
//    5 
//    6   Description:    This file contains the NWK functions that the ZMAC calls
//    7 
//    8 
//    9   Copyright 2005-2010 Texas Instruments Incorporated. All rights reserved.
//   10 
//   11   IMPORTANT: Your use of this Software is limited to those specific rights
//   12   granted under the terms of a software license agreement between the user
//   13   who downloaded the software, his/her employer (which must be your employer)
//   14   and Texas Instruments Incorporated (the "License").  You may not use this
//   15   Software unless you agree to abide by the terms of the License. The License
//   16   limits your use, and you acknowledge, that the Software may not be modified,
//   17   copied or distributed unless embedded on a Texas Instruments microcontroller
//   18   or used solely and exclusively in conjunction with a Texas Instruments radio
//   19   frequency transceiver, which is integrated into your product.  Other than for
//   20   the foregoing purpose, you may not use, reproduce, copy, prepare derivative
//   21   works of, modify, distribute, perform, display or sell this Software and/or
//   22   its documentation for any purpose.
//   23 
//   24   YOU FURTHER ACKNOWLEDGE AND AGREE THAT THE SOFTWARE AND DOCUMENTATION ARE
//   25   PROVIDED “AS IS” WITHOUT WARRANTY OF ANY KIND, EITHER EXPRESS OR IMPLIED,
//   26   INCLUDING WITHOUT LIMITATION, ANY WARRANTY OF MERCHANTABILITY, TITLE,
//   27   NON-INFRINGEMENT AND FITNESS FOR A PARTICULAR PURPOSE. IN NO EVENT SHALL
//   28   TEXAS INSTRUMENTS OR ITS LICENSORS BE LIABLE OR OBLIGATED UNDER CONTRACT,
//   29   NEGLIGENCE, STRICT LIABILITY, CONTRIBUTION, BREACH OF WARRANTY, OR OTHER
//   30   LEGAL EQUITABLE THEORY ANY DIRECT OR INDIRECT DAMAGES OR EXPENSES
//   31   INCLUDING BUT NOT LIMITED TO ANY INCIDENTAL, SPECIAL, INDIRECT, PUNITIVE
//   32   OR CONSEQUENTIAL DAMAGES, LOST PROFITS OR LOST DATA, COST OF PROCUREMENT
//   33   OF SUBSTITUTE GOODS, TECHNOLOGY, SERVICES, OR ANY CLAIMS BY THIRD PARTIES
//   34   (INCLUDING BUT NOT LIMITED TO ANY DEFENSE THEREOF), OR OTHER SIMILAR COSTS.
//   35 
//   36   Should you have any questions regarding your right to use this Software,
//   37   contact Texas Instruments Incorporated at www.TI.com.
//   38 **************************************************************************************************/
//   39 
//   40 /********************************************************************************************************
//   41  *                                               INCLUDES
//   42  ********************************************************************************************************/
//   43 
//   44 #include "ZComDef.h"
//   45 #include "OSAL.h"
//   46 #include "ZMAC.h"
//   47 #include "MT_MAC.h"
//   48 #include "hal_mcu.h"

        ASEGN SFR_AN:DATA:NOROOT,0a8H
// union <unnamed> volatile __sfr _A_IEN0
_A_IEN0:
        DATA8
        DS 1
//   49 
//   50 #if !defined NONWK
//   51 #include "nwk.h"
//   52 #include "nwk_bufs.h"
//   53 #include "ZGlobals.h"
//   54 #endif
//   55 
//   56 #if defined( MACSIM )
//   57   #include "mac_sim.h"
//   58 #endif
//   59 
//   60 #include "mac_main.h"
//   61 extern void *ZMac_ScanBuf;
//   62 
//   63 /********************************************************************************************************
//   64  *                                               CONSTANTS
//   65  ********************************************************************************************************/
//   66 
//   67 #if !defined NONWK
//   68 /* Lookup table for size of structures. Must match with the order of MAC callback events */

        RSEG CODE_C:CODE:REORDER:NOROOT(0)
        DATA8
//   69 const uint8 CODE zmacCBSizeTable [] = {
zmacCBSizeTable:
        DB 0
        DB 22
        DB 15
        DB 0
        DB 0
        DB 11
        DB 21
        DB 11
        DB 2
        DB 0
        DB 2
        DB 34
        DB 15
        DB 50
        DB 0
        DB 0
        DB 6
//   70   0,
//   71   sizeof(ZMacAssociateInd_t),       // MAC_MLME_ASSOCIATE_IND      1   Associate indication
//   72   sizeof(ZMacAssociateCnf_t),       // MAC_MLME_ASSOCIATE_CNF      2   Associate confirm
//   73   0,                                // MAC_MLME_DISASSOCIATE_IND   3   Disassociate indication
//   74   0,                                // MAC_MLME_DISASSOCIATE_CNF   4   Disassociate confirm
//   75   sizeof(macMlmeBeaconNotifyInd_t), // MAC_MLME_BEACON_NOTIFY_IND  5   con notify indication
//   76   sizeof(ZMacOrphanInd_t),          // MAC_MLME_ORPHAN_IND         6   Orphan indication
//   77   sizeof(ZMacScanCnf_t),            // MAC_MLME_SCAN_CNF           7   Scan confirm
//   78   sizeof(ZMacStartCnf_t),           // MAC_MLME_START_CNF          8   Start confirm
//   79   0,                                // MAC_MLME_SYNC_LOSS_IND      9   Sync loss indication
//   80   sizeof(ZMacPollCnf_t),            // MAC_MLME_POLL_CNF           10  Poll confirm
//   81   sizeof(ZMacCommStatusInd_t),      // MAC_MLME_COMM_STATUS_IND    11  Comm status indication
//   82   sizeof(ZMacDataCnf_t),            // MAC_MCPS_DATA_CNF           12  Data confirm
//   83   sizeof(macMcpsDataInd_t),         // MAC_MCPS_DATA_IND           13  Data indication
//   84   0,                                // MAC_MCPS_PURGE_CNF          14  Purge confirm
//   85   0,                                // MAC_PWR_ON_CNF              15  Power on confirm
//   86   sizeof(ZMacPollInd_t)             // MAC_MLME_POLL_IND           16  Poll indication
//   87 };
//   88 #endif /* !defined NONWK */
//   89 
//   90 /********************************************************************************************************
//   91  *                                               LOCALS
//   92  ********************************************************************************************************/
//   93 
//   94 /* LQI Adjustment Mode */

        RSEG XDATA_Z:XDATA:NOROOT(0)
        DATA8
//   95 static ZMacLqiAdjust_t lqiAdjMode = LQI_ADJ_OFF;
lqiAdjMode:
        DS 1
        REQUIRE __INIT_XDATA_Z
//   96 
//   97 /* LQI Adjustment Function */
//   98 static void ZMacLqiAdjust( uint8 corr, uint8* lqi );
//   99 
//  100 /*********************************************************************
//  101  * ZMAC Function Pointers
//  102  */
//  103 
//  104 /*
//  105  * ZMac Application callback function. This function will be called
//  106  * for every MAC message that is received over-the-air or generated
//  107  * locally by MAC for the application.
//  108  *
//  109  * The callback function should return TRUE if it has handled the
//  110  * MAC message and no further action should be taken with it. It
//  111  * should return FALSE if it has not handled the MAC message and
//  112  * normal processing should take place.
//  113  *
//  114  * NOTE: The processing in this function should be kept to the
//  115  *       minimum.
//  116  */

        RSEG XDATA_Z:XDATA:NOROOT(0)
        DATA16
//  117 uint8 (*pZMac_AppCallback)( uint8 *msgPtr ) = (void*)NULL;
pZMac_AppCallback:
        DS 2
        REQUIRE __INIT_XDATA_Z
//  118 
//  119 
//  120 /*********************************************************************
//  121  * ZMAC Functions
//  122  */
//  123 
//  124 /**************************************************************************************************
//  125  * @fn       MAC_CbackEvent()
//  126  *
//  127  * @brief    convert MAC data confirm and indication to ZMac and send to NWK
//  128  *
//  129  * @param    pData - pointer to macCbackEvent_t
//  130  *
//  131  * @return   none
//  132  *************************************************************************************************/

        RSEG BANKED_CODE:CODE:NOROOT(0)
//  133 void MAC_CbackEvent(macCbackEvent_t *pData)
MAC_CbackEvent:
          CFI Block cfiBlock0 Using cfiCommon0
          CFI Function MAC_CbackEvent
        CODE
//  134 #ifndef MT_MAC_CB_FUNC
//  135 {
        FUNCALL MAC_CbackEvent, MAC_MlmeGetReq
        LOCFRAME ISTACK, 0, STACK
        LOCFRAME PSTACK, 0, STACK
        LOCFRAME XSTACK, 21, STACK
        LOCFRAME IOVERLAY, 0, STATIC
        LOCFRAME DOVERLAY, 0, STATIC
        ARGFRAME ISTACK, 0, STACK
        ARGFRAME PSTACK, 0, STACK
        ARGFRAME XSTACK, 21, STACK
        ARGFRAME IOVERLAY, 0, STATIC
        ARGFRAME DOVERLAY, 0, STATIC
        FUNCALL MAC_CbackEvent, mac_msg_deallocate
        LOCFRAME ISTACK, 0, STACK
        LOCFRAME PSTACK, 0, STACK
        LOCFRAME XSTACK, 21, STACK
        LOCFRAME IOVERLAY, 0, STATIC
        LOCFRAME DOVERLAY, 0, STATIC
        ARGFRAME ISTACK, 0, STACK
        ARGFRAME PSTACK, 0, STACK
        ARGFRAME XSTACK, 21, STACK
        ARGFRAME IOVERLAY, 0, STATIC
        ARGFRAME DOVERLAY, 0, STATIC
        FUNCALL MAC_CbackEvent, osal_msg_allocate
        LOCFRAME ISTACK, 0, STACK
        LOCFRAME PSTACK, 0, STACK
        LOCFRAME XSTACK, 21, STACK
        LOCFRAME IOVERLAY, 0, STATIC
        LOCFRAME DOVERLAY, 0, STATIC
        ARGFRAME ISTACK, 0, STACK
        ARGFRAME PSTACK, 0, STACK
        ARGFRAME XSTACK, 21, STACK
        ARGFRAME IOVERLAY, 0, STATIC
        ARGFRAME DOVERLAY, 0, STATIC
        FUNCALL MAC_CbackEvent, mac_msg_deallocate
        LOCFRAME ISTACK, 0, STACK
        LOCFRAME PSTACK, 0, STACK
        LOCFRAME XSTACK, 21, STACK
        LOCFRAME IOVERLAY, 0, STATIC
        LOCFRAME DOVERLAY, 0, STATIC
        ARGFRAME ISTACK, 0, STACK
        ARGFRAME PSTACK, 0, STACK
        ARGFRAME XSTACK, 21, STACK
        ARGFRAME IOVERLAY, 0, STATIC
        ARGFRAME DOVERLAY, 0, STATIC
        FUNCALL MAC_CbackEvent, osal_msg_allocate
        LOCFRAME ISTACK, 0, STACK
        LOCFRAME PSTACK, 0, STACK
        LOCFRAME XSTACK, 21, STACK
        LOCFRAME IOVERLAY, 0, STATIC
        LOCFRAME DOVERLAY, 0, STATIC
        ARGFRAME ISTACK, 0, STACK
        ARGFRAME PSTACK, 0, STACK
        ARGFRAME XSTACK, 21, STACK
        ARGFRAME IOVERLAY, 0, STATIC
        ARGFRAME DOVERLAY, 0, STATIC
        FUNCALL MAC_CbackEvent, osal_memcpy
        LOCFRAME ISTACK, 0, STACK
        LOCFRAME PSTACK, 0, STACK
        LOCFRAME XSTACK, 24, STACK
        LOCFRAME IOVERLAY, 0, STATIC
        LOCFRAME DOVERLAY, 0, STATIC
        ARGFRAME ISTACK, 0, STACK
        ARGFRAME PSTACK, 0, STACK
        ARGFRAME XSTACK, 24, STACK
        ARGFRAME IOVERLAY, 0, STATIC
        ARGFRAME DOVERLAY, 0, STATIC
        FUNCALL MAC_CbackEvent, osal_memcpy
        LOCFRAME ISTACK, 0, STACK
        LOCFRAME PSTACK, 0, STACK
        LOCFRAME XSTACK, 24, STACK
        LOCFRAME IOVERLAY, 0, STATIC
        LOCFRAME DOVERLAY, 0, STATIC
        ARGFRAME ISTACK, 0, STACK
        ARGFRAME PSTACK, 0, STACK
        ARGFRAME XSTACK, 24, STACK
        ARGFRAME IOVERLAY, 0, STATIC
        ARGFRAME DOVERLAY, 0, STATIC
        FUNCALL MAC_CbackEvent, osal_memcpy
        LOCFRAME ISTACK, 0, STACK
        LOCFRAME PSTACK, 0, STACK
        LOCFRAME XSTACK, 24, STACK
        LOCFRAME IOVERLAY, 0, STATIC
        LOCFRAME DOVERLAY, 0, STATIC
        ARGFRAME ISTACK, 0, STACK
        ARGFRAME PSTACK, 0, STACK
        ARGFRAME XSTACK, 24, STACK
        ARGFRAME IOVERLAY, 0, STATIC
        ARGFRAME DOVERLAY, 0, STATIC
        FUNCALL MAC_CbackEvent, osal_memcpy
        LOCFRAME ISTACK, 0, STACK
        LOCFRAME PSTACK, 0, STACK
        LOCFRAME XSTACK, 24, STACK
        LOCFRAME IOVERLAY, 0, STATIC
        LOCFRAME DOVERLAY, 0, STATIC
        ARGFRAME ISTACK, 0, STACK
        ARGFRAME PSTACK, 0, STACK
        ARGFRAME XSTACK, 24, STACK
        ARGFRAME IOVERLAY, 0, STATIC
        ARGFRAME DOVERLAY, 0, STATIC
        FUNCALL MAC_CbackEvent, osal_memcpy
        LOCFRAME ISTACK, 0, STACK
        LOCFRAME PSTACK, 0, STACK
        LOCFRAME XSTACK, 24, STACK
        LOCFRAME IOVERLAY, 0, STATIC
        LOCFRAME DOVERLAY, 0, STATIC
        ARGFRAME ISTACK, 0, STACK
        ARGFRAME PSTACK, 0, STACK
        ARGFRAME XSTACK, 24, STACK
        ARGFRAME IOVERLAY, 0, STATIC
        ARGFRAME DOVERLAY, 0, STATIC
        FUNCALL MAC_CbackEvent, osal_mem_free
        LOCFRAME ISTACK, 0, STACK
        LOCFRAME PSTACK, 0, STACK
        LOCFRAME XSTACK, 21, STACK
        LOCFRAME IOVERLAY, 0, STATIC
        LOCFRAME DOVERLAY, 0, STATIC
        ARGFRAME ISTACK, 0, STACK
        ARGFRAME PSTACK, 0, STACK
        ARGFRAME XSTACK, 21, STACK
        ARGFRAME IOVERLAY, 0, STATIC
        ARGFRAME DOVERLAY, 0, STATIC
        FUNCALL MAC_CbackEvent, mac_msg_deallocate
        LOCFRAME ISTACK, 0, STACK
        LOCFRAME PSTACK, 0, STACK
        LOCFRAME XSTACK, 21, STACK
        LOCFRAME IOVERLAY, 0, STATIC
        LOCFRAME DOVERLAY, 0, STATIC
        ARGFRAME ISTACK, 0, STACK
        ARGFRAME PSTACK, 0, STACK
        ARGFRAME XSTACK, 21, STACK
        ARGFRAME IOVERLAY, 0, STATIC
        ARGFRAME DOVERLAY, 0, STATIC
        FUNCALL MAC_CbackEvent, ZMacLqiAdjust
        LOCFRAME ISTACK, 0, STACK
        LOCFRAME PSTACK, 0, STACK
        LOCFRAME XSTACK, 21, STACK
        LOCFRAME IOVERLAY, 0, STATIC
        LOCFRAME DOVERLAY, 0, STATIC
        ARGFRAME ISTACK, 0, STACK
        ARGFRAME PSTACK, 0, STACK
        ARGFRAME XSTACK, 21, STACK
        ARGFRAME IOVERLAY, 0, STATIC
        ARGFRAME DOVERLAY, 0, STATIC
        FUNCALL MAC_CbackEvent, nwk_broadcastSend
        LOCFRAME ISTACK, 0, STACK
        LOCFRAME PSTACK, 0, STACK
        LOCFRAME XSTACK, 21, STACK
        LOCFRAME IOVERLAY, 0, STATIC
        LOCFRAME DOVERLAY, 0, STATIC
        ARGFRAME ISTACK, 0, STACK
        ARGFRAME PSTACK, 0, STACK
        ARGFRAME XSTACK, 21, STACK
        ARGFRAME IOVERLAY, 0, STATIC
        ARGFRAME DOVERLAY, 0, STATIC
        FUNCALL MAC_CbackEvent, mac_msg_deallocate
        LOCFRAME ISTACK, 0, STACK
        LOCFRAME PSTACK, 0, STACK
        LOCFRAME XSTACK, 21, STACK
        LOCFRAME IOVERLAY, 0, STATIC
        LOCFRAME DOVERLAY, 0, STATIC
        ARGFRAME ISTACK, 0, STACK
        ARGFRAME PSTACK, 0, STACK
        ARGFRAME XSTACK, 21, STACK
        ARGFRAME IOVERLAY, 0, STATIC
        ARGFRAME DOVERLAY, 0, STATIC
        FUNCALL MAC_CbackEvent, ZMacLqiAdjust
        LOCFRAME ISTACK, 0, STACK
        LOCFRAME PSTACK, 0, STACK
        LOCFRAME XSTACK, 21, STACK
        LOCFRAME IOVERLAY, 0, STATIC
        LOCFRAME DOVERLAY, 0, STATIC
        ARGFRAME ISTACK, 0, STACK
        ARGFRAME PSTACK, 0, STACK
        ARGFRAME XSTACK, 21, STACK
        ARGFRAME IOVERLAY, 0, STATIC
        ARGFRAME DOVERLAY, 0, STATIC
        FUNCALL MAC_CbackEvent, osal_msg_send
        LOCFRAME ISTACK, 0, STACK
        LOCFRAME PSTACK, 0, STACK
        LOCFRAME XSTACK, 21, STACK
        LOCFRAME IOVERLAY, 0, STATIC
        LOCFRAME DOVERLAY, 0, STATIC
        ARGFRAME ISTACK, 0, STACK
        ARGFRAME PSTACK, 0, STACK
        ARGFRAME XSTACK, 21, STACK
        ARGFRAME IOVERLAY, 0, STATIC
        ARGFRAME DOVERLAY, 0, STATIC
        FUNCALL MAC_CbackEvent, mac_msg_deallocate
        LOCFRAME ISTACK, 0, STACK
        LOCFRAME PSTACK, 0, STACK
        LOCFRAME XSTACK, 21, STACK
        LOCFRAME IOVERLAY, 0, STATIC
        LOCFRAME DOVERLAY, 0, STATIC
        ARGFRAME ISTACK, 0, STACK
        ARGFRAME PSTACK, 0, STACK
        ARGFRAME XSTACK, 21, STACK
        ARGFRAME IOVERLAY, 0, STATIC
        ARGFRAME DOVERLAY, 0, STATIC
        REQUIRE ?V0
        REQUIRE ?V1
        REQUIRE ?V2
        REQUIRE ?V3
        REQUIRE ?V4
        REQUIRE ?V5
        MOV     A,#-0xe
        LCALL   ?BANKED_ENTER_XDATA
          CFI DPH0 load(1, XDATA, add(CFA_XSP16, literal(-1)))
          CFI DPL0 load(1, XDATA, add(CFA_XSP16, literal(-2)))
          CFI ?BRET_EXT load(1, XDATA, add(CFA_XSP16, literal(-3)))
          CFI ?RET_HIGH load(1, XDATA, add(CFA_XSP16, literal(-4)))
          CFI ?RET_LOW load(1, XDATA, add(CFA_XSP16, literal(-5)))
          CFI R7 load(1, XDATA, add(CFA_XSP16, literal(-6)))
          CFI V5 load(1, XDATA, add(CFA_XSP16, literal(-7)))
          CFI V4 load(1, XDATA, add(CFA_XSP16, literal(-8)))
          CFI V3 load(1, XDATA, add(CFA_XSP16, literal(-9)))
          CFI V2 load(1, XDATA, add(CFA_XSP16, literal(-10)))
          CFI V1 load(1, XDATA, add(CFA_XSP16, literal(-11)))
          CFI V0 load(1, XDATA, add(CFA_XSP16, literal(-12)))
          CFI VB load(1, XDATA, add(CFA_XSP16, literal(-13)))
          CFI R6 load(1, XDATA, add(CFA_XSP16, literal(-14)))
          CFI CFA_SP SP+0
          CFI CFA_XSP16 add(XSP16, 14)
        ; Saved register size: 14
        ; Auto size: 7
        MOV     A,#-0x7
        LCALL   ?ALLOC_XSTACK8
          CFI CFA_XSP16 add(XSP16, 21)
        MOV     DPL,?XSP + 0
        MOV     DPH,?XSP + 1
        MOV     A,R2
        MOVX    @DPTR,A
        INC     DPTR
        MOV     A,R3
        MOVX    @DPTR,A
//  136 #if !defined NONWK
//  137   uint8 event = pData->hdr.event;
        MOV     DPL,?XSP + 0
        MOV     DPH,?XSP + 1
        MOVX    A,@DPTR
        MOV     R0,A
        INC     DPTR
        MOVX    A,@DPTR
        MOV     DPH,A
        MOV     DPL,R0
        MOVX    A,@DPTR
        MOV     ?V3,A
//  138   uint16 tmp = zmacCBSizeTable[event];
        MOV     R0,?V3
        MOV     R1,#0x0
        MOV     A,#zmacCBSizeTable & 0xff
        ADD     A,R0
        MOV     DPL,A
        MOV     A,#(zmacCBSizeTable >> 8) & 0xff
        ADDC    A,R1
        MOV     DPH,A
        CLR     A
        MOVC    A,@A+DPTR
        MOV     R0,A
        MOV     R1,#0x0
        MOV     A,#0x2
        LCALL   ?XSTACK_DISP0_8
        MOV     A,R0
        MOVX    @DPTR,A
        INC     DPTR
        MOV     A,R1
        MOVX    @DPTR,A
//  139   macCbackEvent_t *msgPtr;
//  140 
//  141   /* If the Network layer will handle a new MAC callback, a non-zero value must be entered in the
//  142    * corresponding location in the zmacCBSizeTable[] - thus the table acts as "should handle"?
//  143    */
//  144   if (tmp == 0)
        MOV     A,#0x2
        LCALL   ?XSTACK_DISP0_8
        MOVX    A,@DPTR
        MOV     R0,A
        INC     DPTR
        MOVX    A,@DPTR
        MOV     R1,A
        MOV     A,R0
        ORL     A,R1
        JNZ     $+5
        LJMP    ??MAC_CbackEvent_0 & 0xFFFF
//  145   {
//  146     return;
//  147   }
//  148 
//  149   // MAC_MCPS_DATA_IND is very special - it is the only event where the MAC does not free *pData.
//  150   if ( event == MAC_MCPS_DATA_IND )
        MOV     A,#0xd
        XRL     A,?V3
        JNZ     ??MAC_CbackEvent_1
//  151   {
//  152     MAC_MlmeGetReq( MAC_SHORT_ADDRESS, &tmp );
        ; Setup parameters for call to function MAC_MlmeGetReq
        MOV     A,#0x2
        LCALL   ?XSTACK_DISP101_8
        MOV     R1,#0x53
        LCALL   ??MAC_MlmeGetReq?relay; Banked call to: MAC_MlmeGetReq
        MOV     A,R1
//  153     if ((tmp == INVALID_NODE_ADDR) || (tmp == NWK_BROADCAST_SHORTADDR_DEVALL) ||
//  154         (pData->dataInd.msdu.len == 0))
        MOV     A,#0x2
        LCALL   ?XSTACK_DISP0_8
        MOVX    A,@DPTR
        XRL     A,#0xfe
        JNZ     ??MAC_CbackEvent_2
        INC     DPTR
        MOVX    A,@DPTR
        XRL     A,#0xff
??MAC_CbackEvent_2:
        JZ      ??MAC_CbackEvent_3
        MOV     A,#0x2
        LCALL   ?XSTACK_DISP0_8
        MOVX    A,@DPTR
        XRL     A,#0xff
        JNZ     ??MAC_CbackEvent_4
        INC     DPTR
        MOVX    A,@DPTR
        XRL     A,#0xff
??MAC_CbackEvent_4:
        JZ      ??MAC_CbackEvent_3
        MOV     DPL,?XSP + 0
        MOV     DPH,?XSP + 1
        MOVX    A,@DPTR
        MOV     R0,A
        INC     DPTR
        MOVX    A,@DPTR
        MOV     DPH,A
        MOV     DPL,R0
        INC     DPTR
        INC     DPTR
        INC     DPTR
        INC     DPTR
        MOVX    A,@DPTR
        JNZ     ??MAC_CbackEvent_5
//  155     {
//  156       mac_msg_deallocate( (uint8 **)&pData );
??MAC_CbackEvent_3:
        ; Setup parameters for call to function mac_msg_deallocate
        MOV     R2,?XSP + 0
        MOV     R3,?XSP + 1
        LCALL   ??mac_msg_deallocate?relay; Banked call to: mac_msg_deallocate
//  157       return;
        LJMP    ??MAC_CbackEvent_0 & 0xFFFF
//  158     }
//  159     msgPtr = pData;
??MAC_CbackEvent_5:
        MOV     DPL,?XSP + 0
        MOV     DPH,?XSP + 1
        MOVX    A,@DPTR
        MOV     R0,A
        INC     DPTR
        MOVX    A,@DPTR
        MOV     R1,A
        MOV     A,R0
        MOV     R6,A
        MOV     A,R1
        MOV     R7,A
        LJMP    ??MAC_CbackEvent_6 & 0xFFFF
//  160   }
//  161   else
//  162   {
//  163     if (event == MAC_MLME_BEACON_NOTIFY_IND )
??MAC_CbackEvent_1:
        MOV     A,#0x5
        XRL     A,?V3
        JNZ     ??MAC_CbackEvent_7
//  164     {
//  165       tmp += sizeof(macPanDesc_t) + pData->beaconNotifyInd.sduLength;
        MOV     DPL,?XSP + 0
        MOV     DPH,?XSP + 1
        MOVX    A,@DPTR
        MOV     R0,A
        INC     DPTR
        MOVX    A,@DPTR
        XCH     A,R0
        ADD     A,#0x8
        MOV     DPL,A
        XCH     A,R0
        ADDC    A,#0x0
        MOV     DPH,A
        MOVX    A,@DPTR
        MOV     R0,A
        MOV     R1,#0x0
        MOV     A,R0
        ADD     A,#0x21
        MOV     R0,A
        JNC     ??MAC_CbackEvent_8
        INC     R1
??MAC_CbackEvent_8:
        MOV     A,#0x2
        LCALL   ?XSTACK_DISP0_8
        MOVX    A,@DPTR
        ADD     A,R0
        MOVX    @DPTR,A
        INC     DPTR
        MOVX    A,@DPTR
        ADDC    A,R1
        MOVX    @DPTR,A
        SJMP    ??MAC_CbackEvent_9
//  166     }
//  167     else if (event == MAC_MLME_SCAN_CNF)
??MAC_CbackEvent_7:
        MOV     A,#0x7
        XRL     A,?V3
        JNZ     ??MAC_CbackEvent_9
//  168     {
//  169       if (pData->scanCnf.scanType == ZMAC_ED_SCAN)
        MOV     DPL,?XSP + 0
        MOV     DPH,?XSP + 1
        MOVX    A,@DPTR
        MOV     R0,A
        INC     DPTR
        MOVX    A,@DPTR
        MOV     DPH,A
        MOV     DPL,R0
        INC     DPTR
        INC     DPTR
        MOVX    A,@DPTR
        JNZ     ??MAC_CbackEvent_10
//  170       {
//  171         tmp += ZMAC_ED_SCAN_MAXCHANNELS;
        MOV     A,#0x2
        LCALL   ?XSTACK_DISP0_8
        MOVX    A,@DPTR
        ADD     A,#0x1b
        MOVX    @DPTR,A
        INC     DPTR
        MOVX    A,@DPTR
        ADDC    A,#0x0
        MOVX    @DPTR,A
        SJMP    ??MAC_CbackEvent_9
//  172       }
//  173       else
//  174       {
//  175         tmp += sizeof( ZMacPanDesc_t ) * pData->scanCnf.resultListSize;
??MAC_CbackEvent_10:
        MOV     DPL,?XSP + 0
        MOV     DPH,?XSP + 1
        MOVX    A,@DPTR
        MOV     R0,A
        INC     DPTR
        MOVX    A,@DPTR
        XCH     A,R0
        ADD     A,#0x8
        MOV     DPL,A
        XCH     A,R0
        ADDC    A,#0x0
        MOV     DPH,A
        MOVX    A,@DPTR
        MOV     R0,A
        MOV     R1,#0x0
        MOV     A,R0
        MOV     B,#0x21
        MUL     AB
        XCH     A,R0
        MOV     R2,B
        MOV     B,#0x0
        MUL     AB
        ADD     A,R2
        MOV     R2,A
        MOV     B,#0x21
        MOV     A,R1
        MUL     AB
        ADD     A,R2
        MOV     R1,A
        MOV     A,#0x2
        LCALL   ?XSTACK_DISP0_8
        MOVX    A,@DPTR
        ADD     A,R0
        MOVX    @DPTR,A
        INC     DPTR
        MOVX    A,@DPTR
        ADDC    A,R1
        MOVX    @DPTR,A
//  176       }
//  177     }
//  178 
//  179     if ( !(msgPtr = (macCbackEvent_t *)osal_msg_allocate(tmp)) )
??MAC_CbackEvent_9:
        ; Setup parameters for call to function osal_msg_allocate
        MOV     A,#0x2
        LCALL   ?XSTACK_DISP0_8
        MOVX    A,@DPTR
        MOV     R2,A
        INC     DPTR
        MOVX    A,@DPTR
        MOV     R3,A
        LCALL   ??osal_msg_allocate?relay; Banked call to: osal_msg_allocate
        MOV     ?V0,R2
        MOV     ?V1,R3
        MOV     R0,?V0
        MOV     R1,?V1
        MOV     A,R0
        MOV     R6,A
        MOV     A,R1
        MOV     R7,A
        MOV     A,R0
        ORL     A,R1
        JZ      $+5
        LJMP    ??MAC_CbackEvent_11 & 0xFFFF
//  180     {
//  181       // Not enough memory. If data confirm - try again
//  182       if ( event == MAC_MCPS_DATA_CNF )
        MOV     A,#0xc
        XRL     A,?V3
        JNZ     ??MAC_CbackEvent_12
//  183       {
//  184         halIntState_t intState;
//  185 
//  186         // This is not normally deallocated here because the pZMac_AppCallback()
//  187         // application may need it.
//  188         HAL_ENTER_CRITICAL_SECTION( intState );  // Hold off interrupts.
        MOV     C,0xa8.7
        CLR     A
        RLC     A
        MOV     ?V0,A
        CLR     0xa8.7
//  189 
//  190         mac_msg_deallocate( (uint8**)&(pData->dataCnf.pDataReq) );
        ; Setup parameters for call to function mac_msg_deallocate
        MOV     DPL,?XSP + 0
        MOV     DPH,?XSP + 1
        MOVX    A,@DPTR
        ADD     A,#0x3
        MOV     R2,A
        INC     DPTR
        MOVX    A,@DPTR
        ADDC    A,#0x0
        MOV     R3,A
        LCALL   ??mac_msg_deallocate?relay; Banked call to: mac_msg_deallocate
//  191         if ( !(msgPtr = (macCbackEvent_t *)osal_msg_allocate(tmp)) )
        ; Setup parameters for call to function osal_msg_allocate
        MOV     A,#0x2
        LCALL   ?XSTACK_DISP0_8
        MOVX    A,@DPTR
        MOV     R2,A
        INC     DPTR
        MOVX    A,@DPTR
        MOV     R3,A
        LCALL   ??osal_msg_allocate?relay; Banked call to: osal_msg_allocate
        MOV     ?V4,R2
        MOV     ?V5,R3
        MOV     R0,?V4
        MOV     R1,?V5
        MOV     A,R0
        MOV     R6,A
        MOV     A,R1
        MOV     R7,A
        MOV     A,R0
        ORL     A,R1
        JNZ     ??MAC_CbackEvent_13
//  192         {
//  193           // Still no allocation, something is wrong
//  194           HAL_EXIT_CRITICAL_SECTION( intState );   // Re-enable interrupts.
        MOV     A,?V0
        PUSH    A
          CFI CFA_SP SP+-1
        MOV     A,#0x6
        LCALL   ?XSTACK_DISP0_8
        POP     A
          CFI CFA_SP SP+0
        MOVX    @DPTR,A
        MOV     A,?V0
        MOV     C,0xE0 /* A   */.0
        MOV     0xa8.7,C
//  195           return;
        LJMP    ??MAC_CbackEvent_0 & 0xFFFF
//  196         }
//  197         HAL_EXIT_CRITICAL_SECTION( intState );   // Re-enable interrupts.
??MAC_CbackEvent_13:
        MOV     A,?V0
        PUSH    A
          CFI CFA_SP SP+-1
        MOV     A,#0x6
        LCALL   ?XSTACK_DISP0_8
        POP     A
          CFI CFA_SP SP+0
        MOVX    @DPTR,A
        MOV     A,?V0
        MOV     C,0xE0 /* A   */.0
        MOV     0xa8.7,C
//  198         pData->dataCnf.pDataReq = NULL;
        MOV     DPL,?XSP + 0
        MOV     DPH,?XSP + 1
        MOVX    A,@DPTR
        MOV     R0,A
        INC     DPTR
        MOVX    A,@DPTR
        MOV     DPH,A
        MOV     DPL,R0
        INC     DPTR
        INC     DPTR
        INC     DPTR
        MOV     A,#0x0
        MOVX    @DPTR,A
        INC     DPTR
        MOV     A,#0x0
        MOVX    @DPTR,A
        SJMP    ??MAC_CbackEvent_11
//  199       }
//  200       else
//  201       {
//  202         // This message is dropped
//  203         return;
??MAC_CbackEvent_12:
        LJMP    ??MAC_CbackEvent_0 & 0xFFFF
//  204       }
//  205     }
//  206     osal_memcpy(msgPtr, pData, zmacCBSizeTable[event]);
??MAC_CbackEvent_11:
        ; Setup parameters for call to function osal_memcpy
        MOV     DPL,?XSP + 0
        MOV     DPH,?XSP + 1
        MOVX    A,@DPTR
        MOV     ?V0,A
        INC     DPTR
        MOVX    A,@DPTR
        MOV     ?V1,A
        MOV     ?V2,#0x0
        MOV     R0,#?V0
        LCALL   ?PUSH_XSTACK_I_THREE
          CFI CFA_XSP16 add(XSP16, 24)
        MOV     R0,?V3
        MOV     R1,#0x0
        MOV     A,#zmacCBSizeTable & 0xff
        ADD     A,R0
        MOV     DPL,A
        MOV     A,#(zmacCBSizeTable >> 8) & 0xff
        ADDC    A,R1
        MOV     DPH,A
        CLR     A
        MOVC    A,@A+DPTR
        MOV     R4,A
        MOV     R5,#0x0
        MOV     A,R6
        MOV     R2,A
        MOV     A,R7
        MOV     R3,A
        LCALL   ??osal_memcpy?relay  ; Banked call to: osal_memcpy
        MOV     A,#0x3
        LCALL   ?DEALLOC_XSTACK8
          CFI CFA_XSP16 add(XSP16, 21)
//  207   }
//  208 
//  209   if ( event == MAC_MLME_BEACON_NOTIFY_IND )
??MAC_CbackEvent_6:
        MOV     A,#0x5
        XRL     A,?V3
        JZ      $+5
        LJMP    ??MAC_CbackEvent_14 & 0xFFFF
//  210   {
//  211     macMlmeBeaconNotifyInd_t *pBeacon = (macMlmeBeaconNotifyInd_t*)msgPtr;
        MOV     ?V4,R6
        MOV     ?V5,R7
//  212 
//  213     osal_memcpy(pBeacon+1, pBeacon->pPanDesc, sizeof(macPanDesc_t));
        ; Setup parameters for call to function osal_memcpy
        MOV     DPL,?V4
        MOV     DPH,?V5
        INC     DPTR
        INC     DPTR
        INC     DPTR
        MOVX    A,@DPTR
        MOV     ?V0,A
        INC     DPTR
        MOVX    A,@DPTR
        MOV     ?V1,A
        MOV     ?V2,#0x0
        MOV     R0,#?V0
        LCALL   ?PUSH_XSTACK_I_THREE
          CFI CFA_XSP16 add(XSP16, 24)
        MOV     R4,#0x21
        MOV     R5,#0x0
        MOV     A,?V4
        ADD     A,#0xb
        MOV     R2,A
        CLR     A
        ADDC    A,?V5
        MOV     R3,A
        LCALL   ??osal_memcpy?relay  ; Banked call to: osal_memcpy
        MOV     A,#0x3
        LCALL   ?DEALLOC_XSTACK8
          CFI CFA_XSP16 add(XSP16, 21)
//  214     pBeacon->pPanDesc = (macPanDesc_t *)(pBeacon+1);
        MOV     A,?V4
        ADD     A,#0xb
        MOV     R0,A
        CLR     A
        ADDC    A,?V5
        MOV     R1,A
        MOV     DPL,?V4
        MOV     DPH,?V5
        INC     DPTR
        INC     DPTR
        INC     DPTR
        MOV     A,R0
        MOVX    @DPTR,A
        INC     DPTR
        MOV     A,R1
        MOVX    @DPTR,A
//  215     osal_memcpy(pBeacon->pPanDesc+1, pBeacon->pSdu, pBeacon->sduLength);
        ; Setup parameters for call to function osal_memcpy
        MOV     DPL,?V4
        MOV     DPH,?V5
        INC     DPTR
        INC     DPTR
        INC     DPTR
        INC     DPTR
        INC     DPTR
        INC     DPTR
        INC     DPTR
        INC     DPTR
        INC     DPTR
        MOVX    A,@DPTR
        MOV     ?V0,A
        INC     DPTR
        MOVX    A,@DPTR
        MOV     ?V1,A
        MOV     ?V2,#0x0
        MOV     R0,#?V0
        LCALL   ?PUSH_XSTACK_I_THREE
          CFI CFA_XSP16 add(XSP16, 24)
        MOV     DPL,?V4
        MOV     DPH,?V5
        INC     DPTR
        INC     DPTR
        INC     DPTR
        INC     DPTR
        INC     DPTR
        INC     DPTR
        INC     DPTR
        INC     DPTR
        MOVX    A,@DPTR
        MOV     R4,A
        MOV     R5,#0x0
        MOV     DPL,?V4
        MOV     DPH,?V5
        INC     DPTR
        INC     DPTR
        INC     DPTR
        MOVX    A,@DPTR
        ADD     A,#0x21
        MOV     R2,A
        INC     DPTR
        MOVX    A,@DPTR
        ADDC    A,#0x0
        MOV     R3,A
        LCALL   ??osal_memcpy?relay  ; Banked call to: osal_memcpy
        MOV     A,#0x3
        LCALL   ?DEALLOC_XSTACK8
          CFI CFA_XSP16 add(XSP16, 21)
//  216     pBeacon->pSdu = (uint8 *)(pBeacon->pPanDesc+1);
        MOV     DPL,?V4
        MOV     DPH,?V5
        INC     DPTR
        INC     DPTR
        INC     DPTR
        MOVX    A,@DPTR
        ADD     A,#0x21
        MOV     R0,A
        INC     DPTR
        MOVX    A,@DPTR
        ADDC    A,#0x0
        MOV     R1,A
        MOV     DPL,?V4
        MOV     DPH,?V5
        INC     DPTR
        INC     DPTR
        INC     DPTR
        INC     DPTR
        INC     DPTR
        INC     DPTR
        INC     DPTR
        INC     DPTR
        INC     DPTR
        MOV     A,R0
        MOVX    @DPTR,A
        INC     DPTR
        MOV     A,R1
        MOVX    @DPTR,A
        LJMP    ??MAC_CbackEvent_15 & 0xFFFF
//  217   }
//  218   else if (event == MAC_MLME_SCAN_CNF)
??MAC_CbackEvent_14:
        MOV     A,#0x7
        XRL     A,?V3
        JZ      $+5
        LJMP    ??MAC_CbackEvent_15 & 0xFFFF
//  219   {
//  220     macMlmeScanCnf_t *pScan = (macMlmeScanCnf_t*)msgPtr;
        MOV     ?V4,R6
        MOV     ?V5,R7
//  221 
//  222     if (ZMac_ScanBuf != NULL)
        MOV     DPTR,#ZMac_ScanBuf
        MOVX    A,@DPTR
        MOV     R0,A
        INC     DPTR
        MOVX    A,@DPTR
        MOV     R1,A
        MOV     A,R0
        ORL     A,R1
        JNZ     $+5
        LJMP    ??MAC_CbackEvent_15 & 0xFFFF
//  223     {
//  224       void *pTmp = ZMac_ScanBuf;
        MOV     DPTR,#ZMac_ScanBuf
        MOVX    A,@DPTR
        MOV     R0,A
        INC     DPTR
        MOVX    A,@DPTR
        MOV     R1,A
        MOV     A,#0x4
        LCALL   ?XSTACK_DISP0_8
        MOV     A,R0
        MOVX    @DPTR,A
        INC     DPTR
        MOV     A,R1
        MOVX    @DPTR,A
//  225       ZMac_ScanBuf = NULL;
        MOV     DPTR,#ZMac_ScanBuf
        MOV     A,#0x0
        MOVX    @DPTR,A
        INC     DPTR
        MOV     A,#0x0
        MOVX    @DPTR,A
//  226 
//  227       if (pScan->scanType == ZMAC_ED_SCAN)
        MOV     DPL,?V4
        MOV     DPH,?V5
        INC     DPTR
        INC     DPTR
        MOVX    A,@DPTR
        JNZ     ??MAC_CbackEvent_16
//  228       {
//  229         pScan->result.pEnergyDetect = (uint8*) (pScan + 1);
        MOV     A,?V4
        ADD     A,#0xb
        MOV     R0,A
        CLR     A
        ADDC    A,?V5
        MOV     R1,A
        MOV     DPL,?V4
        MOV     DPH,?V5
        INC     DPTR
        INC     DPTR
        INC     DPTR
        INC     DPTR
        INC     DPTR
        INC     DPTR
        INC     DPTR
        INC     DPTR
        INC     DPTR
        MOV     A,R0
        MOVX    @DPTR,A
        INC     DPTR
        MOV     A,R1
        MOVX    @DPTR,A
//  230         osal_memcpy(pScan->result.pEnergyDetect, pTmp, ZMAC_ED_SCAN_MAXCHANNELS);
        ; Setup parameters for call to function osal_memcpy
        MOV     A,#0x4
        LCALL   ?XSTACK_DISP0_8
        MOVX    A,@DPTR
        MOV     ?V0,A
        INC     DPTR
        MOVX    A,@DPTR
        MOV     ?V1,A
        MOV     ?V2,#0x0
        MOV     R0,#?V0
        LCALL   ?PUSH_XSTACK_I_THREE
          CFI CFA_XSP16 add(XSP16, 24)
        MOV     R4,#0x1b
        MOV     R5,#0x0
        MOV     DPL,?V4
        MOV     DPH,?V5
        INC     DPTR
        INC     DPTR
        INC     DPTR
        INC     DPTR
        INC     DPTR
        INC     DPTR
        INC     DPTR
        INC     DPTR
        INC     DPTR
        MOVX    A,@DPTR
        MOV     R2,A
        INC     DPTR
        MOVX    A,@DPTR
        MOV     R3,A
        LCALL   ??osal_memcpy?relay  ; Banked call to: osal_memcpy
        MOV     A,#0x3
        LCALL   ?DEALLOC_XSTACK8
          CFI CFA_XSP16 add(XSP16, 21)
        SJMP    ??MAC_CbackEvent_17
//  231       }
//  232       else
//  233       {
//  234         pScan->result.pPanDescriptor = (macPanDesc_t*) (pScan + 1);
??MAC_CbackEvent_16:
        MOV     A,?V4
        ADD     A,#0xb
        MOV     R0,A
        CLR     A
        ADDC    A,?V5
        MOV     R1,A
        MOV     DPL,?V4
        MOV     DPH,?V5
        INC     DPTR
        INC     DPTR
        INC     DPTR
        INC     DPTR
        INC     DPTR
        INC     DPTR
        INC     DPTR
        INC     DPTR
        INC     DPTR
        MOV     A,R0
        MOVX    @DPTR,A
        INC     DPTR
        MOV     A,R1
        MOVX    @DPTR,A
//  235         osal_memcpy(pScan + 1, pTmp, sizeof( ZMacPanDesc_t ) * pScan->resultListSize);
        ; Setup parameters for call to function osal_memcpy
        MOV     A,#0x4
        LCALL   ?XSTACK_DISP0_8
        MOVX    A,@DPTR
        MOV     ?V0,A
        INC     DPTR
        MOVX    A,@DPTR
        MOV     ?V1,A
        MOV     ?V2,#0x0
        MOV     R0,#?V0
        LCALL   ?PUSH_XSTACK_I_THREE
          CFI CFA_XSP16 add(XSP16, 24)
        MOV     DPL,?V4
        MOV     DPH,?V5
        INC     DPTR
        INC     DPTR
        INC     DPTR
        INC     DPTR
        INC     DPTR
        INC     DPTR
        INC     DPTR
        INC     DPTR
        MOVX    A,@DPTR
        MOV     R4,A
        MOV     R5,#0x0
        MOV     A,R4
        MOV     B,#0x21
        MUL     AB
        XCH     A,R4
        MOV     R0,B
        MOV     B,#0x0
        MUL     AB
        ADD     A,R0
        MOV     R0,A
        MOV     B,#0x21
        MOV     A,R5
        MUL     AB
        ADD     A,R0
        MOV     R5,A
        MOV     A,?V4
        ADD     A,#0xb
        MOV     R2,A
        CLR     A
        ADDC    A,?V5
        MOV     R3,A
        LCALL   ??osal_memcpy?relay  ; Banked call to: osal_memcpy
        MOV     A,#0x3
        LCALL   ?DEALLOC_XSTACK8
          CFI CFA_XSP16 add(XSP16, 21)
//  236       }
//  237 
//  238       osal_mem_free(pTmp);
??MAC_CbackEvent_17:
        ; Setup parameters for call to function osal_mem_free
        MOV     A,#0x4
        LCALL   ?XSTACK_DISP0_8
        MOVX    A,@DPTR
        MOV     R2,A
        INC     DPTR
        MOVX    A,@DPTR
        MOV     R3,A
        LCALL   ??osal_mem_free?relay; Banked call to: osal_mem_free
//  239     }
//  240   }
//  241 
//  242   if ( ( pZMac_AppCallback == NULL ) || ( pZMac_AppCallback( (uint8 *)msgPtr ) == FALSE ) )
??MAC_CbackEvent_15:
        MOV     DPTR,#pZMac_AppCallback
        MOVX    A,@DPTR
        MOV     R0,A
        INC     DPTR
        MOVX    A,@DPTR
        MOV     R1,A
        MOV     A,R0
        ORL     A,R1
        JZ      ??MAC_CbackEvent_18
        ; Setup parameters for indirect call
        MOV     A,R6
        MOV     R2,A
        MOV     A,R7
        MOV     R3,A
        MOV     DPTR,#pZMac_AppCallback
        MOVX    A,@DPTR
        MOV     R0,A
        INC     DPTR
        MOVX    A,@DPTR
        MOV     DPH,A
        MOV     DPL,R0
        LCALL   ?CALL_IND
        MOV     A,R1
        JZ      $+5
        LJMP    ??MAC_CbackEvent_19 & 0xFFFF
//  243   {
//  244     // Filter out non-zigbee packets
//  245     if ( event == MAC_MCPS_DATA_IND )
??MAC_CbackEvent_18:
        MOV     A,#0xd
        XRL     A,?V3
        JZ      $+5
        LJMP    ??MAC_CbackEvent_20 & 0xFFFF
//  246     {
//  247       uint8 fcFrameType = (pData->dataInd.msdu.p[0] & 0x03);
        MOV     DPL,?XSP + 0
        MOV     DPH,?XSP + 1
        MOVX    A,@DPTR
        MOV     R0,A
        INC     DPTR
        MOVX    A,@DPTR
        MOV     DPH,A
        MOV     DPL,R0
        INC     DPTR
        INC     DPTR
        MOVX    A,@DPTR
        MOV     R0,A
        INC     DPTR
        MOVX    A,@DPTR
        MOV     DPH,A
        MOV     DPL,R0
        MOVX    A,@DPTR
        ANL     A,#0x3
        MOV     ?V0,A
//  248       uint8 fcProtoVer = ((pData->dataInd.msdu.p[0] >> 2) & 0x0F);
        MOV     DPL,?XSP + 0
        MOV     DPH,?XSP + 1
        MOVX    A,@DPTR
        MOV     R0,A
        INC     DPTR
        MOVX    A,@DPTR
        MOV     DPH,A
        MOV     DPL,R0
        INC     DPTR
        INC     DPTR
        MOVX    A,@DPTR
        MOV     R0,A
        INC     DPTR
        MOVX    A,@DPTR
        MOV     DPH,A
        MOV     DPL,R0
        MOVX    A,@DPTR
        RRC     A
        RRC     A
        ANL     A,#0x3f
        ANL     A,#0xf
        MOV     ?V1,A
//  249       uint8 fcReserve = (pData->dataInd.msdu.p[1] & 0xE0);
        MOV     DPL,?XSP + 0
        MOV     DPH,?XSP + 1
        MOVX    A,@DPTR
        MOV     R0,A
        INC     DPTR
        MOVX    A,@DPTR
        MOV     DPH,A
        MOV     DPL,R0
        INC     DPTR
        INC     DPTR
        MOVX    A,@DPTR
        MOV     R0,A
        INC     DPTR
        MOVX    A,@DPTR
        MOV     DPH,A
        MOV     DPL,R0
        INC     DPTR
        MOVX    A,@DPTR
        ANL     A,#0xe0
        MOV     ?V2,A
//  250       if ( (fcFrameType > 0x01) || (fcProtoVer != _NIB.nwkProtocolVersion) || (fcReserve != 0)
//  251           || (pData->dataInd.mac.srcAddr.addrMode != SADDR_MODE_SHORT) )
        MOV     A,?V0
        CLR     C
        SUBB    A,#0x2
        JNC     ??MAC_CbackEvent_21
        MOV     DPTR,#_NIB + 17
        MOVX    A,@DPTR
        XRL     A,?V1
        JNZ     ??MAC_CbackEvent_21
        MOV     A,?V2
        JNZ     ??MAC_CbackEvent_21
        MOV     DPL,?XSP + 0
        MOV     DPH,?XSP + 1
        MOVX    A,@DPTR
        MOV     R0,A
        INC     DPTR
        MOVX    A,@DPTR
        XCH     A,R0
        ADD     A,#0x1a
        MOV     DPL,A
        XCH     A,R0
        ADDC    A,#0x0
        MOV     DPH,A
        MOVX    A,@DPTR
        XRL     A,#0x2
        JZ      ??MAC_CbackEvent_22
//  252       {
//  253         // Drop the message
//  254         mac_msg_deallocate( (uint8 **)&pData );
??MAC_CbackEvent_21:
        ; Setup parameters for call to function mac_msg_deallocate
        MOV     R2,?XSP + 0
        MOV     R3,?XSP + 1
        LCALL   ??mac_msg_deallocate?relay; Banked call to: mac_msg_deallocate
//  255         return;
        LJMP    ??MAC_CbackEvent_0 & 0xFFFF
//  256       }
//  257       else
//  258       {
//  259         macDataInd_t *pInd = &msgPtr->dataInd.mac;
??MAC_CbackEvent_22:
        MOV     A,R6
        ADD     A,#0x12
        MOV     ?V4,A
        CLR     A
        ADDC    A,R7
        MOV     ?V5,A
//  260         // See if LQI needs adjustment due to frame correlation
//  261         ZMacLqiAdjust( pInd->correlation, &pInd->mpduLinkQuality );
        ; Setup parameters for call to function ZMacLqiAdjust
        MOV     A,?V4
        ADD     A,#0x1c
        MOV     R2,A
        CLR     A
        ADDC    A,?V5
        MOV     R3,A
        MOV     A,?V4
        ADD     A,#0x1d
        MOV     DPL,A
        CLR     A
        ADDC    A,?V5
        MOV     DPH,A
        MOVX    A,@DPTR
        MOV     R1,A
        LCALL   ??ZMacLqiAdjust?relay; Banked call to: ZMacLqiAdjust
//  262 
//  263         // Look for broadcast message that has a radius of greater 1
//  264         if ( (pData->dataInd.mac.dstAddr.addr.shortAddr == 0xFFFF)
//  265                && (pData->dataInd.msdu.p[6] > 1) )
        MOV     DPL,?XSP + 0
        MOV     DPH,?XSP + 1
        MOVX    A,@DPTR
        MOV     R0,A
        INC     DPTR
        MOVX    A,@DPTR
        XCH     A,R0
        ADD     A,#0x1b
        MOV     DPL,A
        XCH     A,R0
        ADDC    A,#0x0
        MOV     DPH,A
        MOVX    A,@DPTR
        XRL     A,#0xff
        JNZ     ??MAC_CbackEvent_23
        INC     DPTR
        MOVX    A,@DPTR
        XRL     A,#0xff
??MAC_CbackEvent_23:
        JNZ     ??MAC_CbackEvent_24
        MOV     DPL,?XSP + 0
        MOV     DPH,?XSP + 1
        MOVX    A,@DPTR
        MOV     R0,A
        INC     DPTR
        MOVX    A,@DPTR
        MOV     DPH,A
        MOV     DPL,R0
        INC     DPTR
        INC     DPTR
        MOVX    A,@DPTR
        MOV     R0,A
        INC     DPTR
        MOVX    A,@DPTR
        XCH     A,R0
        ADD     A,#0x6
        MOV     DPL,A
        XCH     A,R0
        ADDC    A,#0x0
        MOV     DPH,A
        MOVX    A,@DPTR
        CLR     C
        SUBB    A,#0x2
        JC      ??MAC_CbackEvent_24
//  266         {
//  267           // Send the messsage to a special broadcast queue
//  268           if ( nwk_broadcastSend( (uint8 *)msgPtr ) != SUCCESS )
        ; Setup parameters for call to function nwk_broadcastSend
        MOV     A,R6
        MOV     R2,A
        MOV     A,R7
        MOV     R3,A
        LCALL   ??nwk_broadcastSend?relay; Banked call to: nwk_broadcastSend
        MOV     A,R1
        JZ      ??MAC_CbackEvent_0
//  269           {
//  270             // Drop the message, too many broadcast messages to process
//  271             mac_msg_deallocate( (uint8 **)&pData );
        ; Setup parameters for call to function mac_msg_deallocate
        MOV     R2,?XSP + 0
        MOV     R3,?XSP + 1
        LCALL   ??mac_msg_deallocate?relay; Banked call to: mac_msg_deallocate
//  272           }
//  273           return;
        SJMP    ??MAC_CbackEvent_0
//  274         }
//  275       }
//  276     }
//  277     else if ( event == MAC_MCPS_DATA_CNF )
??MAC_CbackEvent_20:
        MOV     A,#0xc
        XRL     A,?V3
        JNZ     ??MAC_CbackEvent_24
//  278     {
//  279       macMcpsDataCnf_t *pCnf = &msgPtr->dataCnf;
        MOV     ?V0,R6
        MOV     ?V1,R7
//  280       // See if LQI needs adjustment due to frame correlation
//  281       ZMacLqiAdjust( pCnf->correlation, &pCnf->mpduLinkQuality );
        ; Setup parameters for call to function ZMacLqiAdjust
        MOV     A,?V0
        ADD     A,#0xc
        MOV     R2,A
        CLR     A
        ADDC    A,?V1
        MOV     R3,A
        MOV     A,?V0
        ADD     A,#0xd
        MOV     DPL,A
        CLR     A
        ADDC    A,?V1
        MOV     DPH,A
        MOVX    A,@DPTR
        MOV     R1,A
        LCALL   ??ZMacLqiAdjust?relay; Banked call to: ZMacLqiAdjust
//  282     }
//  283 
//  284     // Application hasn't already processed this message. Send it to NWK task.
//  285     osal_msg_send( NWK_TaskID, (uint8 *)msgPtr );
??MAC_CbackEvent_24:
        ; Setup parameters for call to function osal_msg_send
        MOV     A,R6
        MOV     R2,A
        MOV     A,R7
        MOV     R3,A
        MOV     DPTR,#NWK_TaskID
        MOVX    A,@DPTR
        MOV     R1,A
        LCALL   ??osal_msg_send?relay; Banked call to: osal_msg_send
        MOV     A,R1
//  286   }
//  287 
//  288   if ( event == MAC_MCPS_DATA_CNF )
??MAC_CbackEvent_19:
        MOV     A,#0xc
        XRL     A,?V3
        JNZ     ??MAC_CbackEvent_0
//  289   {
//  290     // If the application needs 'pDataReq' then we cannot free it here.
//  291     // The application must free it after using it. Note that 'pDataReq'
//  292     // is of macMcpsDataReq_t (and not ZMacDataReq_t) type.
//  293 
//  294     mac_msg_deallocate( (uint8**)&(pData->dataCnf.pDataReq) );
        ; Setup parameters for call to function mac_msg_deallocate
        MOV     DPL,?XSP + 0
        MOV     DPH,?XSP + 1
        MOVX    A,@DPTR
        ADD     A,#0x3
        MOV     R2,A
        INC     DPTR
        MOVX    A,@DPTR
        ADDC    A,#0x0
        MOV     R3,A
        LCALL   ??mac_msg_deallocate?relay; Banked call to: mac_msg_deallocate
//  295   }
//  296 #endif
//  297 }
??MAC_CbackEvent_0:
        MOV     A,#0x7
        LCALL   ?DEALLOC_XSTACK8
          CFI CFA_XSP16 add(XSP16, 14)
        MOV     R7,#0x6
        LJMP    ?BANKED_LEAVE_XDATA
          CFI EndBlock cfiBlock0
        REQUIRE _A_IEN0
//  298 #else  // ifdef MT_MAC_CB_FUNC
//  299 {
//  300   /* Check if MT has subscribed for this callback If so, pass it as an event to MonitorTest */
//  301   switch (pData->hdr.event)
//  302   {
//  303     case MAC_MLME_ASSOCIATE_IND:
//  304       if ( _macCallbackSub & CB_ID_NWK_ASSOCIATE_IND )
//  305         nwk_MTCallbackSubNwkAssociateInd ( (ZMacAssociateInd_t *)pData );
//  306       break;
//  307 
//  308     case MAC_MLME_ASSOCIATE_CNF:
//  309       if ( _macCallbackSub & CB_ID_NWK_ASSOCIATE_CNF )
//  310         nwk_MTCallbackSubNwkAssociateCnf ( (ZMacAssociateCnf_t *)pData );
//  311       break;
//  312 
//  313     case MAC_MLME_DISASSOCIATE_IND:
//  314       if ( _macCallbackSub & CB_ID_NWK_DISASSOCIATE_IND )
//  315         nwk_MTCallbackSubNwkDisassociateInd ( (ZMacDisassociateInd_t *)pData );
//  316       break;
//  317 
//  318     case MAC_MLME_DISASSOCIATE_CNF:
//  319       if ( _macCallbackSub & CB_ID_NWK_DISASSOCIATE_CNF )
//  320         nwk_MTCallbackSubNwkDisassociateCnf ( (ZMacDisassociateCnf_t *)pData );
//  321       break;
//  322 
//  323     case MAC_MLME_BEACON_NOTIFY_IND:
//  324       if ( _macCallbackSub & CB_ID_NWK_BEACON_NOTIFY_IND )
//  325         nwk_MTCallbackSubNwkBeaconNotifyInd( (ZMacBeaconNotifyInd_t *)pData );
//  326       break;
//  327 
//  328     case MAC_MLME_ORPHAN_IND:
//  329       if ( _macCallbackSub & CB_ID_NWK_ORPHAN_IND )
//  330         nwk_MTCallbackSubNwkOrphanInd( (ZMacOrphanInd_t *) pData );
//  331       break;
//  332 
//  333     case MAC_MLME_SCAN_CNF:
//  334       if ( _macCallbackSub & CB_ID_NWK_SCAN_CNF )
//  335       {
//  336         pData->scanCnf.result.pEnergyDetect = ZMac_ScanBuf;
//  337         nwk_MTCallbackSubNwkScanCnf ( (ZMacScanCnf_t *) pData );
//  338       }
//  339 
//  340       if (ZMac_ScanBuf != NULL)
//  341       {
//  342         void *pTmp = ZMac_ScanBuf;
//  343         ZMac_ScanBuf = NULL;
//  344         osal_mem_free(pTmp);
//  345       }
//  346       break;
//  347 
//  348     case MAC_MLME_START_CNF:
//  349       if ( _macCallbackSub & CB_ID_NWK_START_CNF )
//  350         nwk_MTCallbackSubNwkStartCnf ( pData->hdr.status );
//  351       break;
//  352 
//  353     case MAC_MLME_SYNC_LOSS_IND:
//  354       if ( _macCallbackSub & CB_ID_NWK_SYNC_LOSS_IND )
//  355        nwk_MTCallbackSubNwkSyncLossInd( (ZMacSyncLossInd_t *) pData );
//  356       break;
//  357 
//  358     case MAC_MLME_POLL_CNF:
//  359       if ( _macCallbackSub & CB_ID_NWK_POLL_CNF )
//  360          nwk_MTCallbackSubNwkPollCnf( pData->hdr.status );
//  361       break;
//  362 
//  363     case MAC_MLME_COMM_STATUS_IND:
//  364       if ( _macCallbackSub & CB_ID_NWK_COMM_STATUS_IND )
//  365         nwk_MTCallbackSubCommStatusInd ( (ZMacCommStatusInd_t *) pData );
//  366       break;
//  367 
//  368     case MAC_MCPS_DATA_CNF:
//  369       mac_msg_deallocate((uint8**)&pData->dataCnf.pDataReq);
//  370 
//  371       if ( _macCallbackSub & CB_ID_NWK_DATA_CNF )
//  372         nwk_MTCallbackSubNwkDataCnf( (ZMacDataCnf_t *) pData );
//  373       break;
//  374 
//  375     case MAC_MCPS_DATA_IND:
//  376         {
//  377           /*
//  378              Data Ind is unconventional: to save an alloc/copy, reuse the MAC
//  379              buffer and re-organize the contents into ZMAC format.
//  380           */
//  381           ZMacDataInd_t *pDataInd = (ZMacDataInd_t *) pData;
//  382           uint8 event, status, len, *msdu;
//  383 
//  384           /* Store parameters */
//  385           event = pData->hdr.event;
//  386           status = pData->hdr.status;
//  387           len = pData->dataInd.msdu.len;
//  388           msdu = pData->dataInd.msdu.p;
//  389 
//  390           /* Copy header */
//  391           osal_memcpy(&pDataInd->SrcAddr, &pData->dataInd.mac, sizeof(ZMacDataInd_t) - sizeof(ZMacEventHdr_t));
//  392 
//  393           /* Security - set to zero for now*/
//  394           pDataInd->Sec.SecurityLevel = false;
//  395 
//  396           /* Restore parameters */
//  397           pDataInd->hdr.Status = status;
//  398           pDataInd->hdr.Event = event;
//  399           pDataInd->msduLength = len;
//  400 
//  401           if (len)
//  402             pDataInd->msdu = msdu;
//  403           else
//  404             pDataInd->msdu = NULL;
//  405 
//  406           if ( _macCallbackSub & CB_ID_NWK_DATA_IND )
//  407             nwk_MTCallbackSubNwkDataInd ( pDataInd );
//  408 
//  409           /* free buffer */
//  410           mac_msg_deallocate( (uint8 **)&pData );
//  411         }
//  412         break;
//  413 
//  414     case MAC_MCPS_PURGE_CNF:
//  415       if ( _macCallbackSub & CB_ID_NWK_PURGE_CNF )
//  416         nwk_MTCallbackSubNwkPurgeCnf( (ZMacPurgeCnf_t *) pData);
//  417       break;
//  418 
//  419     default:
//  420       break;
//  421   }
//  422 }
//  423 #endif
//  424 
//  425 /********************************************************************************************************
//  426  * @fn      MAC_CbackCheckPending
//  427  *
//  428  * @brief   Return number of pending indirect msg
//  429  *
//  430  * @param   None
//  431  *
//  432  * @return  Number of indirect msg holding
//  433  ********************************************************************************************************/

        RSEG BANKED_CODE:CODE:NOROOT(0)
//  434 uint8 MAC_CbackCheckPending(void)
MAC_CbackCheckPending:
          CFI Block cfiBlock1 Using cfiCommon0
          CFI Function MAC_CbackCheckPending
        CODE
//  435 {
        FUNCALL MAC_CbackCheckPending, nwkDB_ReturnIndirectHoldingCnt
        LOCFRAME ISTACK, 2, STACK
        LOCFRAME PSTACK, 0, STACK
        LOCFRAME XSTACK, 0, STACK
        LOCFRAME IOVERLAY, 0, STATIC
        LOCFRAME DOVERLAY, 0, STATIC
        ARGFRAME ISTACK, 2, STACK
        ARGFRAME PSTACK, 0, STACK
        ARGFRAME XSTACK, 0, STACK
        ARGFRAME IOVERLAY, 0, STATIC
        ARGFRAME DOVERLAY, 0, STATIC
        PUSH    DPL
          CFI DPL0 Frame(CFA_SP, 4)
          CFI CFA_SP SP+-4
        PUSH    DPH
          CFI DPH0 Frame(CFA_SP, 5)
          CFI CFA_SP SP+-5
        ; Saved register size: 2
        ; Auto size: 0
//  436 #if !defined (NONWK)
//  437   if ( ZSTACK_ROUTER_BUILD )
        MOV     DPTR,#zgDeviceLogicalType
        MOVX    A,@DPTR
        JZ      ??MAC_CbackCheckPending_0
        MOV     DPTR,#zgDeviceLogicalType
        MOVX    A,@DPTR
        XRL     A,#0x1
        JNZ     ??MAC_CbackCheckPending_1
//  438   {
//  439     return (nwkDB_ReturnIndirectHoldingCnt());
??MAC_CbackCheckPending_0:
        ; Setup parameters for call to function nwkDB_ReturnIndirectHoldingCnt
        LCALL   ??nwkDB_ReturnIndirectHoldingCnt?relay; Banked call to: nwkDB_ReturnIndirectHoldingCnt
        SJMP    ??MAC_CbackCheckPending_2
//  440   }
//  441   else
//  442   {
//  443     return (0);
??MAC_CbackCheckPending_1:
        MOV     R1,#0x0
??MAC_CbackCheckPending_2:
        POP     DPH
          CFI DPH0 SameValue
          CFI CFA_SP SP+-4
        POP     DPL
          CFI DPL0 SameValue
          CFI CFA_SP SP+-3
        LJMP    ?BRET
          CFI EndBlock cfiBlock1
//  444   }
//  445 #else
//  446   return (0);
//  447 #endif
//  448 }
//  449 
//  450 /********************************************************************************************************
//  451  * @fn      ZMacLqiAdjustMode
//  452  *
//  453  * @brief   Sets/return LQI adjust mode
//  454  *
//  455  * @param   mode - LQI_ADJ_GET = return current mode only
//  456  *                 LQI_ADJ_OFF = disable LQI adjusts
//  457  *                 LQI_ADJ_MODEx = set to LQI adjust MODEx
//  458  *
//  459  * @return  current LQI adjust mode
//  460  ********************************************************************************************************/

        RSEG BANKED_CODE:CODE:NOROOT(0)
//  461 ZMacLqiAdjust_t ZMacLqiAdjustMode( ZMacLqiAdjust_t mode )
ZMacLqiAdjustMode:
          CFI Block cfiBlock2 Using cfiCommon0
          CFI Function ZMacLqiAdjustMode
        CODE
//  462 {
        PUSH    DPL
          CFI DPL0 Frame(CFA_SP, 4)
          CFI CFA_SP SP+-4
        PUSH    DPH
          CFI DPH0 Frame(CFA_SP, 5)
          CFI CFA_SP SP+-5
        ; Saved register size: 2
        ; Auto size: 0
        MOV     A,R1
        MOV     R0,A
//  463   if ( mode != LQI_ADJ_GET )
        MOV     A,#-0x1
        XRL     A,R0
        JZ      ??ZMacLqiAdjustMode_0
//  464   {
//  465     lqiAdjMode = mode;
        MOV     A,R0
        MOV     DPTR,#lqiAdjMode
        MOVX    @DPTR,A
//  466   }
//  467   return ( lqiAdjMode );
??ZMacLqiAdjustMode_0:
        MOV     DPTR,#lqiAdjMode
        MOVX    A,@DPTR
        MOV     R1,A
        POP     DPH
          CFI DPH0 SameValue
          CFI CFA_SP SP+-4
        POP     DPL
          CFI DPL0 SameValue
          CFI CFA_SP SP+-3
        LJMP    ?BRET
          CFI EndBlock cfiBlock2
//  468 }
//  469 
//  470 /********************************************************************************************************
//  471  * @fn      ZMacLqiAdjust
//  472  *
//  473  * @brief   Adjust LQI according to correlation value
//  474  *
//  475  * @notes - the IEEE 802.15.4 specification provides some general statements on
//  476  *          the subject of LQI. Section 6.7.8: "The minimum and maximum LQI values
//  477  *          (0x00 and 0xFF) should be associated with the lowest and highest IEEE
//  478  *          802.15.4 signals detectable by the receiver, and LQ values should be
//  479  *          uniformly distributed between these two limits." Section E.2.3: "The
//  480  *          LQI (see 6.7.8) measures the received energy and/or SNR for each
//  481  *          received packet. When energy level and SNR information are combined,
//  482  *          they can indicate whether a corrupt packet resulted from low signal
//  483  *          strength or from high signal strength plus interference."
//  484  *        - LQI Adjustment Mode1 provided below is a simple algorithm to use the
//  485  *          packet correlation value (related to SNR) to scale incoming LQI value
//  486  *          (related to signal strength) to 'derate' noisy packets.
//  487  *        - LQI Adjustment Mode2 provided below is a location for a developer to
//  488  *          implement their own proprietary LQI adjustment algorithm.
//  489  *
//  490  * @param   corr - packet correlation value
//  491  * @param   lqi  - ptr to link quality (scaled rssi)
//  492  *
//  493  * @return  *lqi - adjusted link quality
//  494  ********************************************************************************************************/

        RSEG BANKED_CODE:CODE:NOROOT(0)
//  495 static void ZMacLqiAdjust( uint8 corr, uint8 *lqi )
ZMacLqiAdjust:
          CFI Block cfiBlock3 Using cfiCommon0
          CFI Function ZMacLqiAdjust
        CODE
//  496 {
        REQUIRE ?V0
        REQUIRE ?V1
        MOV     A,#-0xa
        LCALL   ?BANKED_ENTER_XDATA
          CFI DPH0 load(1, XDATA, add(CFA_XSP16, literal(-1)))
          CFI DPL0 load(1, XDATA, add(CFA_XSP16, literal(-2)))
          CFI ?BRET_EXT load(1, XDATA, add(CFA_XSP16, literal(-3)))
          CFI ?RET_HIGH load(1, XDATA, add(CFA_XSP16, literal(-4)))
          CFI ?RET_LOW load(1, XDATA, add(CFA_XSP16, literal(-5)))
          CFI R7 load(1, XDATA, add(CFA_XSP16, literal(-6)))
          CFI V1 load(1, XDATA, add(CFA_XSP16, literal(-7)))
          CFI V0 load(1, XDATA, add(CFA_XSP16, literal(-8)))
          CFI VB load(1, XDATA, add(CFA_XSP16, literal(-9)))
          CFI R6 load(1, XDATA, add(CFA_XSP16, literal(-10)))
          CFI CFA_SP SP+0
          CFI CFA_XSP16 add(XSP16, 10)
        ; Saved register size: 10
        ; Auto size: 0
        MOV     A,R1
        MOV     R6,A
        MOV     A,R2
        MOV     R4,A
        MOV     A,R3
        MOV     R5,A
//  497   if ( lqiAdjMode != LQI_ADJ_OFF )
        MOV     DPTR,#lqiAdjMode
        MOVX    A,@DPTR
        JZ      ??ZMacLqiAdjust_0
//  498   {
//  499     uint16 adjLqi = *lqi;
        MOV     DPL,R4
        MOV     DPH,R5
        MOVX    A,@DPTR
        MOV     R0,A
        MOV     R1,#0x0
//  500 
//  501     // Keep correlation within theoretical limits
//  502     if ( corr < LQI_CORR_MIN )
        MOV     A,R6
        CLR     C
        SUBB    A,#0x32
        JNC     ??ZMacLqiAdjust_1
//  503     {
//  504        corr = LQI_CORR_MIN;
        MOV     R6,#0x32
        SJMP    ??ZMacLqiAdjust_2
//  505     }
//  506     else if ( corr > LQI_CORR_MAX )
??ZMacLqiAdjust_1:
        MOV     A,R6
        CLR     C
        SUBB    A,#0x6f
        JC      ??ZMacLqiAdjust_2
//  507     {
//  508        corr = LQI_CORR_MAX;
        MOV     R6,#0x6e
//  509     }
//  510 
//  511     if ( lqiAdjMode == LQI_ADJ_MODE1 )
??ZMacLqiAdjust_2:
        MOV     DPTR,#lqiAdjMode
        MOVX    A,@DPTR
        XRL     A,#0x1
        JNZ     ??ZMacLqiAdjust_3
//  512     {
//  513       /* MODE1 - linear scaling of incoming LQI with a "correlation percentage"
//  514                  which is computed from the incoming correlation value between
//  515                  theorectical minimum/maximum values. This is a very simple way
//  516                  of 'derating' the incoming LQI as correlation value drops. */
//  517       adjLqi = (adjLqi * (corr - LQI_CORR_MIN)) / (LQI_CORR_MAX - LQI_CORR_MIN);
        MOV     A,R6
        MOV     R2,A
        MOV     R3,#0x0
        MOV     A,R2
        ADD     A,#-0x32
        MOV     ?V0,A
        MOV     A,R3
        ADDC    A,#-0x1
        MOV     ?V1,A
        MOV     A,R0
        MOV     B,?V0
        MUL     AB
        XCH     A,R0
        MOV     R2,B
        MOV     B,?V1
        MUL     AB
        ADD     A,R2
        MOV     R2,A
        MOV     B,?V0
        MOV     A,R1
        MUL     AB
        ADD     A,R2
        MOV     R1,A
        MOV     R2,#0x3c
        MOV     R3,#0x0
        LCALL   ?US_DIV_MOD
        MOV     ?V0,R0
        MOV     ?V1,R1
        MOV     R0,?V0
        MOV     R1,?V1
//  518     }
//  519     else if ( lqiAdjMode == LQI_ADJ_MODE2 )
//  520     {
//  521       /* MODE2 - location for developer to implement a proprietary algorithm */
//  522     }
//  523 
//  524     // Replace incoming LQI with scaled value
//  525     *lqi = (adjLqi > 255) ? 255 : (uint8)adjLqi;
??ZMacLqiAdjust_3:
        CLR     C
        MOV     A,R0
        SUBB    A,#0x0
        MOV     A,R1
        SUBB    A,#0x1
        JC      ??ZMacLqiAdjust_4
        MOV     A,#-0x1
        SJMP    ??ZMacLqiAdjust_5
??ZMacLqiAdjust_4:
        MOV     A,R0
??ZMacLqiAdjust_5:
        PUSH    A
          CFI CFA_SP SP+-1
        MOV     DPL,R4
        MOV     DPH,R5
        POP     A
          CFI CFA_SP SP+0
        MOVX    @DPTR,A
//  526   }
//  527 }
??ZMacLqiAdjust_0:
        MOV     R7,#0x2
        LJMP    ?BANKED_LEAVE_XDATA
          CFI EndBlock cfiBlock3

        RSEG BANK_RELAYS:CODE:REORDER:NOROOT(0)
??MAC_CbackEvent?relay:
        CODE
        LCALL   ?BDISPATCH
        DATA24
        DC24    MAC_CbackEvent

        RSEG BANK_RELAYS:CODE:REORDER:NOROOT(0)
??MAC_CbackCheckPending?relay:
        CODE
        LCALL   ?BDISPATCH
        DATA24
        DC24    MAC_CbackCheckPending

        RSEG BANK_RELAYS:CODE:REORDER:NOROOT(0)
??ZMacLqiAdjustMode?relay:
        CODE
        LCALL   ?BDISPATCH
        DATA24
        DC24    ZMacLqiAdjustMode

        RSEG BANK_RELAYS:CODE:REORDER:NOROOT(0)
??ZMacLqiAdjust?relay:
        CODE
        LCALL   ?BDISPATCH
        DATA24
        DC24    ZMacLqiAdjust

        END
// 
// 1 590 bytes in segment BANKED_CODE
//    24 bytes in segment BANK_RELAYS
//    17 bytes in segment CODE_C
//     1 byte  in segment SFR_AN
//     3 bytes in segment XDATA_Z
// 
// 1 631 bytes of CODE  memory
//     0 bytes of DATA  memory (+ 1 byte shared)
//     3 bytes of XDATA memory
//
//Errors: none
//Warnings: none
