///////////////////////////////////////////////////////////////////////////////
//
// IAR C/C++ Compiler V9.10.1.2146 for 8051               07/Jul/2023  16:40:18
// Copyright 2004-2014 IAR Systems AB.
// Standalone license - IAR Embedded Workbench for 8051
//
//    Core               =  plain
//    Code model         =  near
//    Data model         =  large
//    Calling convention =  xdata reentrant
//    Constant location  =  data
//    Dptr setup         =  1,16
//                          
//    Source file        =  
//        I:\1_git_code\EPnode_OTA\CC2530
//        IAP\CC2530_stack\zstack-2.4.0-1.4.0x\Projects\zstack\Samples\CC2530-IAP\Source\iap\app_start.c
//    Command line       =  
//        "I:\1_git_code\EPnode_OTA\CC2530
//        IAP\CC2530_stack\zstack-2.4.0-1.4.0x\Projects\zstack\Samples\CC2530-IAP\Source\iap\app_start.c"
//        -D HAL_SB_BOOT_CODE -D HAL_UART=TRUE -D HAL_UART_DMA=0 -D
//        HAL_UART_ISR=1 -D HAL_UART_ISR_RX_MAX=254 -lC
//        "I:\1_git_code\EPnode_OTA\CC2530
//        IAP\CC2530_stack\zstack-2.4.0-1.4.0x\Projects\zstack\Samples\CC2530-IAP\CC2530\CC2530BL\List\"
//        -lA "I:\1_git_code\EPnode_OTA\CC2530
//        IAP\CC2530_stack\zstack-2.4.0-1.4.0x\Projects\zstack\Samples\CC2530-IAP\CC2530\CC2530BL\List\"
//        --diag_suppress Pe001,Pa010,Pa050 -o "I:\1_git_code\EPnode_OTA\CC2530
//        IAP\CC2530_stack\zstack-2.4.0-1.4.0x\Projects\zstack\Samples\CC2530-IAP\CC2530\CC2530BL\Obj\"
//        -e --debug --core=plain --dptr=16,1 --data_model=large
//        --code_model=near --calling_convention=xdata_reentrant
//        --place_constants=data --nr_virtual_regs 8 -I
//        "I:\1_git_code\EPnode_OTA\CC2530
//        IAP\CC2530_stack\zstack-2.4.0-1.4.0x\Projects\zstack\Samples\CC2530-IAP\CC2530\..\Source\drive\"
//        -I "I:\1_git_code\EPnode_OTA\CC2530
//        IAP\CC2530_stack\zstack-2.4.0-1.4.0x\Projects\zstack\Samples\CC2530-IAP\CC2530\..\Source\iap\"
//        -I "I:\1_git_code\EPnode_OTA\CC2530
//        IAP\CC2530_stack\zstack-2.4.0-1.4.0x\Projects\zstack\Samples\CC2530-IAP\CC2530\..\Source\shell\"
//        -I "I:\1_git_code\EPnode_OTA\CC2530
//        IAP\CC2530_stack\zstack-2.4.0-1.4.0x\Projects\zstack\Samples\CC2530-IAP\CC2530\..\Source\sys\"
//        -I "I:\1_git_code\EPnode_OTA\CC2530
//        IAP\CC2530_stack\zstack-2.4.0-1.4.0x\Projects\zstack\Samples\CC2530-IAP\CC2530\..\Source\"
//        -I "I:\1_git_code\EPnode_OTA\CC2530
//        IAP\CC2530_stack\zstack-2.4.0-1.4.0x\Projects\zstack\Samples\CC2530-IAP\CC2530\source\"
//        -I "I:\1_git_code\EPnode_OTA\CC2530
//        IAP\CC2530_stack\zstack-2.4.0-1.4.0x\Projects\zstack\Samples\CC2530-IAP\CC2530\..\..\common\"
//        -I "I:\1_git_code\EPnode_OTA\CC2530
//        IAP\CC2530_stack\zstack-2.4.0-1.4.0x\Projects\zstack\Samples\CC2530-IAP\CC2530\..\..\..\ZMain\TI2530DB\"
//        -I "I:\1_git_code\EPnode_OTA\CC2530
//        IAP\CC2530_stack\zstack-2.4.0-1.4.0x\Projects\zstack\Samples\CC2530-IAP\CC2530\..\..\..\..\..\Components\hal\include\"
//        -I "I:\1_git_code\EPnode_OTA\CC2530
//        IAP\CC2530_stack\zstack-2.4.0-1.4.0x\Projects\zstack\Samples\CC2530-IAP\CC2530\..\..\..\..\..\Components\hal\target\_COMMON\CC2530\"
//        -I "I:\1_git_code\EPnode_OTA\CC2530
//        IAP\CC2530_stack\zstack-2.4.0-1.4.0x\Projects\zstack\Samples\CC2530-IAP\CC2530\..\..\..\..\..\Components\hal\target\CC2530EB\"
//        -I "I:\1_git_code\EPnode_OTA\CC2530
//        IAP\CC2530_stack\zstack-2.4.0-1.4.0x\Projects\zstack\Samples\CC2530-IAP\CC2530\..\..\..\..\..\Components\osal\include\"
//        -I "I:\1_git_code\EPnode_OTA\CC2530
//        IAP\CC2530_stack\zstack-2.4.0-1.4.0x\Projects\zstack\Samples\CC2530-IAP\CC2530\..\..\..\..\..\Components\services\saddr\"
//        -Ohz
//    List file          =  
//        I:\1_git_code\EPnode_OTA\CC2530
//        IAP\CC2530_stack\zstack-2.4.0-1.4.0x\Projects\zstack\Samples\CC2530-IAP\CC2530\CC2530BL\List\app_start.s51
//
///////////////////////////////////////////////////////////////////////////////

        NAME app_start

        RTMODEL "__SystemLibrary", "CLib"
        RTMODEL "__calling_convention", "xdata_reentrant"
        RTMODEL "__code_model", "near"
        RTMODEL "__core", "plain"
        RTMODEL "__data_model", "large"
        RTMODEL "__dptr_size", "16"
        RTMODEL "__extended_stack", "disabled"
        RTMODEL "__iar_require _formatted_write", ""
        RTMODEL "__location_for_constants", "data"
        RTMODEL "__number_of_dptrs", "1"
        RTMODEL "__rt_version", "1"

        RSEG DOVERLAY:DATA:NOROOT(0)
        RSEG IOVERLAY:IDATA:NOROOT(0)
        RSEG ISTACK:IDATA:NOROOT(0)
        RSEG PSTACK:XDATA:NOROOT(0)
        RSEG XSTACK:XDATA:NOROOT(0)

        EXTERN ?V0
        EXTERN ?V1
        EXTERN ?DEALLOC_XSTACK8
        EXTERN ?FUNC_ENTER_XDATA
        EXTERN ?FUNC_LEAVE_XDATA
        EXTERN ?PUSH_XSTACK_I_TWO
        EXTERN __INIT_XDATA_I

        PUBWEAK P0DIR
        PUBWEAK P0IFG
        PUBWEAK P0INP
        PUBWEAK P1DIR
        PUBWEAK P1IFG
        PUBWEAK P1INP
        PUBWEAK P2DIR
        PUBWEAK P2INP
        PUBWEAK WDCTL
        PUBWEAK _A_IEN0
        PUBWEAK _A_P0
        PUBWEAK _A_P1
        PUBWEAK _A_P2
        PUBLIC jump_to_app
        FUNCTION jump_to_app,0a1203H
        ARGFRAME XSTACK, 9, STACK
        ARGFRAME IOVERLAY, 0, STATIC
        ARGFRAME DOVERLAY, 0, STATIC
        PUBLIC start_app_partition
        FUNCTION start_app_partition,0a1203H
        ARGFRAME XSTACK, 0, STACK
        LOCFRAME XSTACK, 11, STACK
        
          CFI Names cfiNames0
          CFI StackFrame CFA_SP SP IDATA
          CFI StackFrame CFA_PSP16 PSP16 XDATA
          CFI StackFrame CFA_XSP16 XSP16 XDATA
          CFI StaticOverlayFrame CFA_IOVERLAY IOVERLAY
          CFI StaticOverlayFrame CFA_DOVERLAY DOVERLAY
          CFI Resource `PSW.CY`:1, `B.BR0`:1, `B.BR1`:1, `B.BR2`:1, `B.BR3`:1
          CFI Resource `B.BR4`:1, `B.BR5`:1, `B.BR6`:1, `B.BR7`:1, `VB.BR8`:1
          CFI Resource `VB.BR9`:1, `VB.BR10`:1, `VB.BR11`:1, `VB.BR12`:1
          CFI Resource `VB.BR13`:1, `VB.BR14`:1, `VB.BR15`:1, VB:8, B:8, A:8
          CFI Resource PSW:8, DPL0:8, DPH0:8, R0:8, R1:8, R2:8, R3:8, R4:8, R5:8
          CFI Resource R6:8, R7:8, V0:8, V1:8, V2:8, V3:8, V4:8, V5:8, V6:8, V7:8
          CFI Resource SP:8, PSPH:8, PSPL:8, PSP16:16, XSPH:8, XSPL:8, XSP16:16
          CFI VirtualResource ?RET:16, ?RET_HIGH:8, ?RET_LOW:8
          CFI ResourceParts PSP16 PSPH, PSPL
          CFI ResourceParts XSP16 XSPH, XSPL
          CFI ResourceParts ?RET ?RET_HIGH, ?RET_LOW
          CFI EndNames cfiNames0
        
          CFI Common cfiCommon0 Using cfiNames0
          CFI CodeAlign 1
          CFI DataAlign -1
          CFI ReturnAddress ?RET CODE
          CFI CFA_DOVERLAY Used
          CFI CFA_IOVERLAY Used
          CFI CFA_SP SP+-2
          CFI CFA_PSP16 PSP16+0
          CFI CFA_XSP16 XSP16+0
          CFI `PSW.CY` SameValue
          CFI `B.BR0` SameValue
          CFI `B.BR1` SameValue
          CFI `B.BR2` SameValue
          CFI `B.BR3` SameValue
          CFI `B.BR4` SameValue
          CFI `B.BR5` SameValue
          CFI `B.BR6` SameValue
          CFI `B.BR7` SameValue
          CFI `VB.BR8` SameValue
          CFI `VB.BR9` SameValue
          CFI `VB.BR10` SameValue
          CFI `VB.BR11` SameValue
          CFI `VB.BR12` SameValue
          CFI `VB.BR13` SameValue
          CFI `VB.BR14` SameValue
          CFI `VB.BR15` SameValue
          CFI VB SameValue
          CFI B Undefined
          CFI A Undefined
          CFI PSW SameValue
          CFI DPL0 SameValue
          CFI DPH0 SameValue
          CFI R0 Undefined
          CFI R1 Undefined
          CFI R2 Undefined
          CFI R3 Undefined
          CFI R4 Undefined
          CFI R5 Undefined
          CFI R6 SameValue
          CFI R7 SameValue
          CFI V0 SameValue
          CFI V1 SameValue
          CFI V2 SameValue
          CFI V3 SameValue
          CFI V4 SameValue
          CFI V5 SameValue
          CFI V6 SameValue
          CFI V7 SameValue
          CFI PSPH Undefined
          CFI PSPL Undefined
          CFI XSPH Undefined
          CFI XSPL Undefined
          CFI ?RET Concat
          CFI ?RET_HIGH Frame(CFA_SP, 2)
          CFI ?RET_LOW Frame(CFA_SP, 1)
          CFI EndCommon cfiCommon0
        
        EXTERN printf
        FUNCTION printf,0202H
        ARGFRAME ISTACK, 0, STACK
        ARGFRAME PSTACK, 0, STACK
        ARGFRAME XSTACK, 11, STACK
        ARGFRAME IOVERLAY, 0, STATIC
        ARGFRAME DOVERLAY, 0, STATIC
        EXTERN shell_hw_uninit
        FUNCTION shell_hw_uninit,0202H
        ARGFRAME ISTACK, 0, STACK
        ARGFRAME PSTACK, 0, STACK
        ARGFRAME XSTACK, 0, STACK
        ARGFRAME IOVERLAY, 0, STATIC
        ARGFRAME DOVERLAY, 0, STATIC
        EXTERN sys_parameter

// I:\1_git_code\EPnode_OTA\CC2530 IAP\CC2530_stack\zstack-2.4.0-1.4.0x\Projects\zstack\Samples\CC2530-IAP\Source\iap\app_start.c
//    1 #include "app_start.h"

        ASEGN SFR_AN:DATA:NOROOT,080H
// union <unnamed> volatile __sfr _A_P0
_A_P0:
        DATA8
        DS 1

        ASEGN SFR_AN:DATA:NOROOT,089H
// unsigned char volatile __sfr P0IFG
P0IFG:
        DATA8
        DS 1

        ASEGN SFR_AN:DATA:NOROOT,08aH
// unsigned char volatile __sfr P1IFG
P1IFG:
        DATA8
        DS 1

        ASEGN SFR_AN:DATA:NOROOT,08fH
// unsigned char volatile __sfr P0INP
P0INP:
        DATA8
        DS 1

        ASEGN SFR_AN:DATA:NOROOT,090H
// union <unnamed> volatile __sfr _A_P1
_A_P1:
        DATA8
        DS 1

        ASEGN SFR_AN:DATA:NOROOT,0a0H
// union <unnamed> volatile __sfr _A_P2
_A_P2:
        DATA8
        DS 1

        ASEGN SFR_AN:DATA:NOROOT,0a8H
// union <unnamed> volatile __sfr _A_IEN0
_A_IEN0:
        DATA8
        DS 1

        ASEGN SFR_AN:DATA:NOROOT,0c9H
// unsigned char volatile __sfr WDCTL
WDCTL:
        DATA8
        DS 1

        ASEGN SFR_AN:DATA:NOROOT,0f6H
// unsigned char volatile __sfr P1INP
P1INP:
        DATA8
        DS 1

        ASEGN SFR_AN:DATA:NOROOT,0f7H
// unsigned char volatile __sfr P2INP
P2INP:
        DATA8
        DS 1

        ASEGN SFR_AN:DATA:NOROOT,0fdH
// unsigned char volatile __sfr P0DIR
P0DIR:
        DATA8
        DS 1

        ASEGN SFR_AN:DATA:NOROOT,0feH
// unsigned char volatile __sfr P1DIR
P1DIR:
        DATA8
        DS 1

        ASEGN SFR_AN:DATA:NOROOT,0ffH
// unsigned char volatile __sfr P2DIR
P2DIR:
        DATA8
        DS 1
//    2 #include "sys.h"
//    3 #include "uart.h"
//    4 
//    5 // 复位bootloader外设
//    6 static void resetPeripheral() 
//    7 {
//    8   // 复位串口
//    9   shell_hw_uninit();
//   10   // 复位GPIO
//   11   P0 = 0x00;
//   12   P1 = 0x00;
//   13   P2 = 0x00;
//   14   
//   15   P0DIR = 0x00;
//   16   P1DIR = 0x00;
//   17   P2DIR = 0x00;
//   18   
//   19   P0INP = 0x00;
//   20   P1INP = 0x00;
//   21   P2INP = 0x00;
//   22   
//   23   P0IFG = 0x00;
//   24   P1IFG = 0x00;
//   25 }
//   26 
//   27 // 跳转运行APP程序

        RSEG NEAR_CODE:CODE:NOROOT(0)
//   28 void jump_to_app(void)
jump_to_app:
          CFI Block cfiBlock0 Using cfiCommon0
          CFI Function jump_to_app
        CODE
//   29 {
        FUNCALL jump_to_app, shell_hw_uninit
        LOCFRAME ISTACK, 0, STACK
        LOCFRAME PSTACK, 0, STACK
        LOCFRAME XSTACK, 0, STACK
        LOCFRAME IOVERLAY, 0, STATIC
        LOCFRAME DOVERLAY, 0, STATIC
        ARGFRAME ISTACK, 0, STACK
        ARGFRAME PSTACK, 0, STACK
        ARGFRAME XSTACK, 0, STACK
        ARGFRAME IOVERLAY, 0, STATIC
        ARGFRAME DOVERLAY, 0, STATIC
        ; Saved register size: 0
        ; Auto size: 0
//   30   resetPeripheral();
        ; Setup parameters for call to function shell_hw_uninit
        LCALL   shell_hw_uninit
        MOV     0x80,#0x0
        MOV     0x90,#0x0
        MOV     0xa0,#0x0
        MOV     0xfd,#0x0
        MOV     0xfe,#0x0
        MOV     0xff,#0x0
        MOV     0x8f,#0x0
        MOV     0xf6,#0x0
        MOV     0xf7,#0x0
        MOV     0x89,#0x0
        MOV     0x8a,#0x0
//   31   // Simulate a reset for the Application code by an absolute jump to location 0x2000.
//   32   asm("LJMP 0x5000\n");
        LJMP 0x5000
//   33   HAL_SYSTEM_RESET();
        CLR     0xa8.7
        MOV     0xc9,#-0x55
        MOV     0xc9,#0x5b
??jump_to_app_0:
        SJMP    ??jump_to_app_0
          CFI EndBlock cfiBlock0
        REQUIRE _A_IEN0
        REQUIRE WDCTL
        REQUIRE _A_P0
        REQUIRE _A_P1
        REQUIRE _A_P2
        REQUIRE P0DIR
        REQUIRE P1DIR
        REQUIRE P2DIR
        REQUIRE P0INP
        REQUIRE P1INP
        REQUIRE P2INP
        REQUIRE P0IFG
        REQUIRE P1IFG
//   34 }
//   35 
//   36 // 启动app系统分区

        RSEG NEAR_CODE:CODE:NOROOT(0)
//   37 void start_app_partition(uint8_t partition)
start_app_partition:
          CFI Block cfiBlock1 Using cfiCommon0
          CFI Function start_app_partition
        CODE
//   38 {
        FUNCALL start_app_partition, jump_to_app
        LOCFRAME ISTACK, 0, STACK
        LOCFRAME PSTACK, 0, STACK
        LOCFRAME XSTACK, 9, STACK
        LOCFRAME IOVERLAY, 0, STATIC
        LOCFRAME DOVERLAY, 0, STATIC
        ARGFRAME ISTACK, 0, STACK
        ARGFRAME PSTACK, 0, STACK
        ARGFRAME XSTACK, 9, STACK
        ARGFRAME IOVERLAY, 0, STATIC
        ARGFRAME DOVERLAY, 0, STATIC
        FUNCALL start_app_partition, printf
        LOCFRAME ISTACK, 0, STACK
        LOCFRAME PSTACK, 0, STACK
        LOCFRAME XSTACK, 9, STACK
        LOCFRAME IOVERLAY, 0, STATIC
        LOCFRAME DOVERLAY, 0, STATIC
        ARGFRAME ISTACK, 0, STACK
        ARGFRAME PSTACK, 0, STACK
        ARGFRAME XSTACK, 9, STACK
        ARGFRAME IOVERLAY, 0, STATIC
        ARGFRAME DOVERLAY, 0, STATIC
        FUNCALL start_app_partition, printf
        LOCFRAME ISTACK, 0, STACK
        LOCFRAME PSTACK, 0, STACK
        LOCFRAME XSTACK, 11, STACK
        LOCFRAME IOVERLAY, 0, STATIC
        LOCFRAME DOVERLAY, 0, STATIC
        ARGFRAME ISTACK, 0, STACK
        ARGFRAME PSTACK, 0, STACK
        ARGFRAME XSTACK, 11, STACK
        ARGFRAME IOVERLAY, 0, STATIC
        ARGFRAME DOVERLAY, 0, STATIC
        REQUIRE ?V0
        REQUIRE ?V1
        MOV     A,#-0x9
        LCALL   ?FUNC_ENTER_XDATA
          CFI DPH0 load(1, XDATA, add(CFA_XSP16, literal(-1)))
          CFI DPL0 load(1, XDATA, add(CFA_XSP16, literal(-2)))
          CFI ?RET_HIGH load(1, XDATA, add(CFA_XSP16, literal(-3)))
          CFI ?RET_LOW load(1, XDATA, add(CFA_XSP16, literal(-4)))
          CFI R7 load(1, XDATA, add(CFA_XSP16, literal(-5)))
          CFI V1 load(1, XDATA, add(CFA_XSP16, literal(-6)))
          CFI V0 load(1, XDATA, add(CFA_XSP16, literal(-7)))
          CFI VB load(1, XDATA, add(CFA_XSP16, literal(-8)))
          CFI R6 load(1, XDATA, add(CFA_XSP16, literal(-9)))
          CFI CFA_SP SP+0
          CFI CFA_XSP16 add(XSP16, 9)
        ; Saved register size: 9
        ; Auto size: 0
        MOV     A,R1
        MOV     R6,A
//   39   // 强制进入boot
//   40   if(SB1_PRESS || SB2_PRESS) return;
        MOV     C,0x90.2
        JNC     ??start_app_partition_0
        MOV     C,0x90.3
        JNC     ??start_app_partition_0
//   41     
//   42   // 根据falsh参数启动
//   43   switch(partition){
        DEC     A
        JZ      ??start_app_partition_1
        ADD     A,#0x2
        JZ      ??start_app_partition_0
        SJMP    ??start_app_partition_2
//   44     case 1:{
//   45       if(sys_parameter.app1_flag==APP_OK){
??start_app_partition_1:
        MOV     DPTR,#sys_parameter + 1
        MOVX    A,@DPTR
        XRL     A,#0x4d
        JNZ     ??start_app_partition_3
//   46         jump_to_app();
        ; Setup parameters for call to function jump_to_app
        LCALL   jump_to_app
        SJMP    ??start_app_partition_0
//   47       }else{
//   48         printf(INFO"Starting partition 1 fail!\r\n");
??start_app_partition_3:
        ; Setup parameters for call to function printf
        MOV     R2,#`?<Constant "INFORMATION:Starting ...">` & 0xff
        MOV     R3,#(`?<Constant "INFORMATION:Starting ...">` >> 8) & 0xff
        LCALL   printf
        SJMP    ??start_app_partition_0
//   49       }
//   50     }break;
//   51     case 0xff:break;
//   52     default:{
//   53       printf(INFO"partition %d not assigned!\r\n",partition);
??start_app_partition_2:
        ; Setup parameters for call to function printf
        MOV     ?V0,R6
        MOV     ?V1,#0x0
        MOV     R0,#?V0
        LCALL   ?PUSH_XSTACK_I_TWO
          CFI CFA_XSP16 add(XSP16, 11)
        MOV     R2,#`?<Constant "INFORMATION:partition...">` & 0xff
        MOV     R3,#(`?<Constant "INFORMATION:partition...">` >> 8) & 0xff
        LCALL   printf
        MOV     A,#0x2
        LCALL   ?DEALLOC_XSTACK8
          CFI CFA_XSP16 add(XSP16, 9)
//   54     }break;
//   55   }
//   56 }
??start_app_partition_0:
        MOV     R7,#0x2
        LJMP    ?FUNC_LEAVE_XDATA
          CFI EndBlock cfiBlock1
        REQUIRE _A_P1

        RSEG XDATA_ID:CODE:NOROOT(0)
`?<Initializer for <Constant "INFORMATION:Start`:
        DB "INFORMATION:Starting partition 1 fail!\015\012"

        RSEG XDATA_ID:CODE:NOROOT(0)
`?<Initializer for <Constant "INFORMATION:parti`:
        DB "INFORMATION:partition %d not assigned!\015\012"

        RSEG XDATA_I:XDATA:NOROOT(0)
        DATA8
`?<Constant "INFORMATION:Starting ...">`:
        DS 41
        REQUIRE `?<Initializer for <Constant "INFORMATION:Start`
        REQUIRE __INIT_XDATA_I

        RSEG XDATA_I:XDATA:NOROOT(0)
        DATA8
`?<Constant "INFORMATION:partition...">`:
        DS 41
        REQUIRE `?<Initializer for <Constant "INFORMATION:parti`
        REQUIRE __INIT_XDATA_I

        END
// 
// 122 bytes in segment NEAR_CODE
//  13 bytes in segment SFR_AN
//  82 bytes in segment XDATA_I
//  82 bytes in segment XDATA_ID
// 
// 204 bytes of CODE  memory
//   0 bytes of DATA  memory (+ 13 bytes shared)
//  82 bytes of XDATA memory
//
//Errors: none
//Warnings: none
