///////////////////////////////////////////////////////////////////////////////
//
// IAR C/C++ Compiler V9.10.1.2146 for 8051               07/Jul/2023  16:40:19
// Copyright 2004-2014 IAR Systems AB.
// Standalone license - IAR Embedded Workbench for 8051
//
//    Core               =  plain
//    Code model         =  near
//    Data model         =  large
//    Calling convention =  xdata reentrant
//    Constant location  =  data
//    Dptr setup         =  1,16
//                          
//    Source file        =  
//        I:\1_git_code\EPnode_OTA\CC2530
//        IAP\CC2530_stack\zstack-2.4.0-1.4.0x\Projects\zstack\Samples\CC2530-IAP\Source\shell\shell.c
//    Command line       =  
//        "I:\1_git_code\EPnode_OTA\CC2530
//        IAP\CC2530_stack\zstack-2.4.0-1.4.0x\Projects\zstack\Samples\CC2530-IAP\Source\shell\shell.c"
//        -D HAL_SB_BOOT_CODE -D HAL_UART=TRUE -D HAL_UART_DMA=0 -D
//        HAL_UART_ISR=1 -D HAL_UART_ISR_RX_MAX=254 -lC
//        "I:\1_git_code\EPnode_OTA\CC2530
//        IAP\CC2530_stack\zstack-2.4.0-1.4.0x\Projects\zstack\Samples\CC2530-IAP\CC2530\CC2530BL\List\"
//        -lA "I:\1_git_code\EPnode_OTA\CC2530
//        IAP\CC2530_stack\zstack-2.4.0-1.4.0x\Projects\zstack\Samples\CC2530-IAP\CC2530\CC2530BL\List\"
//        --diag_suppress Pe001,Pa010,Pa050 -o "I:\1_git_code\EPnode_OTA\CC2530
//        IAP\CC2530_stack\zstack-2.4.0-1.4.0x\Projects\zstack\Samples\CC2530-IAP\CC2530\CC2530BL\Obj\"
//        -e --debug --core=plain --dptr=16,1 --data_model=large
//        --code_model=near --calling_convention=xdata_reentrant
//        --place_constants=data --nr_virtual_regs 8 -I
//        "I:\1_git_code\EPnode_OTA\CC2530
//        IAP\CC2530_stack\zstack-2.4.0-1.4.0x\Projects\zstack\Samples\CC2530-IAP\CC2530\..\Source\drive\"
//        -I "I:\1_git_code\EPnode_OTA\CC2530
//        IAP\CC2530_stack\zstack-2.4.0-1.4.0x\Projects\zstack\Samples\CC2530-IAP\CC2530\..\Source\iap\"
//        -I "I:\1_git_code\EPnode_OTA\CC2530
//        IAP\CC2530_stack\zstack-2.4.0-1.4.0x\Projects\zstack\Samples\CC2530-IAP\CC2530\..\Source\shell\"
//        -I "I:\1_git_code\EPnode_OTA\CC2530
//        IAP\CC2530_stack\zstack-2.4.0-1.4.0x\Projects\zstack\Samples\CC2530-IAP\CC2530\..\Source\sys\"
//        -I "I:\1_git_code\EPnode_OTA\CC2530
//        IAP\CC2530_stack\zstack-2.4.0-1.4.0x\Projects\zstack\Samples\CC2530-IAP\CC2530\..\Source\"
//        -I "I:\1_git_code\EPnode_OTA\CC2530
//        IAP\CC2530_stack\zstack-2.4.0-1.4.0x\Projects\zstack\Samples\CC2530-IAP\CC2530\source\"
//        -I "I:\1_git_code\EPnode_OTA\CC2530
//        IAP\CC2530_stack\zstack-2.4.0-1.4.0x\Projects\zstack\Samples\CC2530-IAP\CC2530\..\..\common\"
//        -I "I:\1_git_code\EPnode_OTA\CC2530
//        IAP\CC2530_stack\zstack-2.4.0-1.4.0x\Projects\zstack\Samples\CC2530-IAP\CC2530\..\..\..\ZMain\TI2530DB\"
//        -I "I:\1_git_code\EPnode_OTA\CC2530
//        IAP\CC2530_stack\zstack-2.4.0-1.4.0x\Projects\zstack\Samples\CC2530-IAP\CC2530\..\..\..\..\..\Components\hal\include\"
//        -I "I:\1_git_code\EPnode_OTA\CC2530
//        IAP\CC2530_stack\zstack-2.4.0-1.4.0x\Projects\zstack\Samples\CC2530-IAP\CC2530\..\..\..\..\..\Components\hal\target\_COMMON\CC2530\"
//        -I "I:\1_git_code\EPnode_OTA\CC2530
//        IAP\CC2530_stack\zstack-2.4.0-1.4.0x\Projects\zstack\Samples\CC2530-IAP\CC2530\..\..\..\..\..\Components\hal\target\CC2530EB\"
//        -I "I:\1_git_code\EPnode_OTA\CC2530
//        IAP\CC2530_stack\zstack-2.4.0-1.4.0x\Projects\zstack\Samples\CC2530-IAP\CC2530\..\..\..\..\..\Components\osal\include\"
//        -I "I:\1_git_code\EPnode_OTA\CC2530
//        IAP\CC2530_stack\zstack-2.4.0-1.4.0x\Projects\zstack\Samples\CC2530-IAP\CC2530\..\..\..\..\..\Components\services\saddr\"
//        -Ohz
//    List file          =  
//        I:\1_git_code\EPnode_OTA\CC2530
//        IAP\CC2530_stack\zstack-2.4.0-1.4.0x\Projects\zstack\Samples\CC2530-IAP\CC2530\CC2530BL\List\shell.s51
//
///////////////////////////////////////////////////////////////////////////////

        NAME shell

        RTMODEL "__SystemLibrary", "CLib"
        RTMODEL "__calling_convention", "xdata_reentrant"
        RTMODEL "__code_model", "near"
        RTMODEL "__core", "plain"
        RTMODEL "__data_model", "large"
        RTMODEL "__dptr_size", "16"
        RTMODEL "__extended_stack", "disabled"
        RTMODEL "__iar_require _formatted_write", "qualifiers"
        RTMODEL "__location_for_constants", "data"
        RTMODEL "__number_of_dptrs", "1"
        RTMODEL "__rt_version", "1"

        RSEG DOVERLAY:DATA:NOROOT(0)
        RSEG IOVERLAY:IDATA:NOROOT(0)
        RSEG ISTACK:IDATA:NOROOT(0)
        RSEG PSTACK:XDATA:NOROOT(0)
        RSEG XSTACK:XDATA:NOROOT(0)

        EXTERN ?V0
        EXTERN ?V1
        EXTERN ?V2
        EXTERN ?V3
        EXTERN ?V4
        EXTERN ?V5
        EXTERN ?V6
        EXTERN ?V7
        EXTERN ?ALLOC_XSTACK8
        EXTERN ?CALL_IND
        EXTERN ?DEALLOC_XSTACK8
        EXTERN ?FUNC_ENTER_XDATA
        EXTERN ?FUNC_LEAVE_XDATA
        EXTERN ?L_ADD_TO_X
        EXTERN ?L_ADD_X
        EXTERN ?L_AND_X
        EXTERN ?L_EQ
        EXTERN ?L_EQ_X
        EXTERN ?L_IOR
        EXTERN ?L_IOR_X
        EXTERN ?L_MOV_TO_X
        EXTERN ?L_MOV_X
        EXTERN ?L_SHL
        EXTERN ?MOVE_LONG8_XDATA_XDATA
        EXTERN ?PUSH_XSTACK8_X_FOUR
        EXTERN ?PUSH_XSTACK8_X_TWO
        EXTERN ?PUSH_XSTACK_I_TWO
        EXTERN ?SL_GE_X
        EXTERN ?SL_GT
        EXTERN ?S_DIV_MOD
        EXTERN ?S_SHL
        EXTERN ?UL_GE_X
        EXTERN ?UL_GT
        EXTERN ?UL_GT_X
        EXTERN ?UL_SHR
        EXTERN ?XLOAD_R0123
        EXTERN ?XLOAD_R2345
        EXTERN ?XLOAD_R4567
        EXTERN ?XSP
        EXTERN ?XSTACK_DISP0_8
        EXTERN ?XSTACK_DISP100_8
        EXTERN ?XSTACK_DISP101_8
        EXTERN ?XSTACK_DISP102_8
        EXTERN __INIT_XDATA_I
        EXTERN __INIT_XDATA_Z

        PUBLIC DEFAULT_INPUTSIGN
        PUBWEAK __Constant_0
        PUBWEAK __Constant_1
        PUBWEAK __Constant_1f0000
        PUBWEAK __Constant_3e00000
        PUBWEAK __Constant_3e0ffff
        PUBWEAK __Constant_3ffffff
        PUBWEAK __Constant_87654321
        PUBWEAK __Constant_a
        PUBWEAK __Constant_abcd4320
        PUBWEAK __Constant_abcd4321
        PUBWEAK __Constant_abcd4322
        PUBWEAK __Constant_fc000000
        PUBWEAK __Constant_ff
        PUBWEAK __Constant_ff00
        PUBWEAK __Constant_fffffff0
        PUBWEAK __Constant_ffffffff
        PUBLIC _shell_register
        FUNCTION _shell_register,080203H
        ARGFRAME XSTACK, 11, STACK
        ARGFRAME IOVERLAY, 0, STATIC
        ARGFRAME DOVERLAY, 0, STATIC
        LOCFRAME XSTACK, 37, STACK
        FUNCTION checkout,0a1203H
        ARGFRAME XSTACK, 53, STACK
        ARGFRAME IOVERLAY, 0, STATIC
        ARGFRAME DOVERLAY, 0, STATIC
        LOCFRAME XSTACK, 29, STACK
        PUBLIC cmdline_gets
        FUNCTION cmdline_gets,0a1603H
        ARGFRAME XSTACK, 11, STACK
        ARGFRAME IOVERLAY, 0, STATIC
        ARGFRAME DOVERLAY, 0, STATIC
        LOCFRAME ISTACK, 1, STACK
        LOCFRAME XSTACK, 23, STACK
        PUBLIC cmdline_param
        FUNCTION cmdline_param,080203H
        ARGFRAME XSTACK, 2, STACK
        LOCFRAME XSTACK, 14, STACK
        PUBLIC cmdline_strtok
        FUNCTION cmdline_strtok,080203H
        ARGFRAME XSTACK, 2, STACK
        LOCFRAME XSTACK, 9, STACK
        FUNCTION confirm_gets,0a1603H
        ARGFRAME XSTACK, 2, STACK
        LOCFRAME ISTACK, 1, STACK
        LOCFRAME XSTACK, 17, STACK
        PUBLIC current_puts
        PUBLIC default_puts
        FUNCTION shell_backspace,080203H
        ARGFRAME XSTACK, 19, STACK
        ARGFRAME IOVERLAY, 0, STATIC
        ARGFRAME DOVERLAY, 0, STATIC
        LOCFRAME ISTACK, 1, STACK
        LOCFRAME XSTACK, 117, STACK
        FUNCTION shell_clean_screen,0a1603H
        ARGFRAME XSTACK, 0, STACK
        LOCFRAME XSTACK, 19, STACK
        PUBLIC shell_confirm
        FUNCTION shell_confirm,0a1203H
        ARGFRAME XSTACK, 45, STACK
        ARGFRAME IOVERLAY, 0, STATIC
        ARGFRAME DOVERLAY, 0, STATIC
        LOCFRAME XSTACK, 11, STACK
        FUNCTION shell_getchar,080203H
        ARGFRAME XSTACK, 45, STACK
        ARGFRAME IOVERLAY, 0, STATIC
        ARGFRAME DOVERLAY, 0, STATIC
        LOCFRAME ISTACK, 1, STACK
        LOCFRAME XSTACK, 117, STACK
        PUBLIC shell_init
        FUNCTION shell_init,0a1203H
        ARGFRAME XSTACK, 0, STACK
        LOCFRAME XSTACK, 11, STACK
        PUBLIC shell_input_init
        FUNCTION shell_input_init,0a1203H
        ARGFRAME XSTACK, 0, STACK
        LOCFRAME ISTACK, 2, STACK
        LOCFRAME XSTACK, 19, STACK
        FUNCTION shell_list_cmd,0a1603H
        ARGFRAME XSTACK, 0, STACK
        LOCFRAME XSTACK, 19, STACK
        FUNCTION shell_parse,0a1203H
        ARGFRAME XSTACK, 19, STACK
        ARGFRAME IOVERLAY, 0, STATIC
        ARGFRAME DOVERLAY, 0, STATIC
        LOCFRAME XSTACK, 45, STACK
        FUNCTION shell_show_history,0a1203H
        ARGFRAME XSTACK, 23, STACK
        ARGFRAME IOVERLAY, 0, STATIC
        ARGFRAME DOVERLAY, 0, STATIC
        LOCFRAME ISTACK, 1, STACK
        LOCFRAME XSTACK, 16, STACK
        FUNCTION shell_tab,0a1203H
        ARGFRAME XSTACK, 19, STACK
        ARGFRAME IOVERLAY, 0, STATIC
        ARGFRAME DOVERLAY, 0, STATIC
        LOCFRAME ISTACK, 1, STACK
        LOCFRAME XSTACK, 53, STACK
        PUBLIC welcome_gets
        FUNCTION welcome_gets,0a1603H
        ARGFRAME XSTACK, 2, STACK
        LOCFRAME XSTACK, 11, STACK
        
          CFI Names cfiNames0
          CFI StackFrame CFA_SP SP IDATA
          CFI StackFrame CFA_PSP16 PSP16 XDATA
          CFI StackFrame CFA_XSP16 XSP16 XDATA
          CFI StaticOverlayFrame CFA_IOVERLAY IOVERLAY
          CFI StaticOverlayFrame CFA_DOVERLAY DOVERLAY
          CFI Resource `PSW.CY`:1, `B.BR0`:1, `B.BR1`:1, `B.BR2`:1, `B.BR3`:1
          CFI Resource `B.BR4`:1, `B.BR5`:1, `B.BR6`:1, `B.BR7`:1, `VB.BR8`:1
          CFI Resource `VB.BR9`:1, `VB.BR10`:1, `VB.BR11`:1, `VB.BR12`:1
          CFI Resource `VB.BR13`:1, `VB.BR14`:1, `VB.BR15`:1, VB:8, B:8, A:8
          CFI Resource PSW:8, DPL0:8, DPH0:8, R0:8, R1:8, R2:8, R3:8, R4:8, R5:8
          CFI Resource R6:8, R7:8, V0:8, V1:8, V2:8, V3:8, V4:8, V5:8, V6:8, V7:8
          CFI Resource SP:8, PSPH:8, PSPL:8, PSP16:16, XSPH:8, XSPL:8, XSP16:16
          CFI VirtualResource ?RET:16, ?RET_HIGH:8, ?RET_LOW:8
          CFI ResourceParts PSP16 PSPH, PSPL
          CFI ResourceParts XSP16 XSPH, XSPL
          CFI ResourceParts ?RET ?RET_HIGH, ?RET_LOW
          CFI EndNames cfiNames0
        
          CFI Common cfiCommon0 Using cfiNames0
          CFI CodeAlign 1
          CFI DataAlign -1
          CFI ReturnAddress ?RET CODE
          CFI CFA_DOVERLAY Used
          CFI CFA_IOVERLAY Used
          CFI CFA_SP SP+-2
          CFI CFA_PSP16 PSP16+0
          CFI CFA_XSP16 XSP16+0
          CFI `PSW.CY` SameValue
          CFI `B.BR0` SameValue
          CFI `B.BR1` SameValue
          CFI `B.BR2` SameValue
          CFI `B.BR3` SameValue
          CFI `B.BR4` SameValue
          CFI `B.BR5` SameValue
          CFI `B.BR6` SameValue
          CFI `B.BR7` SameValue
          CFI `VB.BR8` SameValue
          CFI `VB.BR9` SameValue
          CFI `VB.BR10` SameValue
          CFI `VB.BR11` SameValue
          CFI `VB.BR12` SameValue
          CFI `VB.BR13` SameValue
          CFI `VB.BR14` SameValue
          CFI `VB.BR15` SameValue
          CFI VB SameValue
          CFI B Undefined
          CFI A Undefined
          CFI PSW SameValue
          CFI DPL0 SameValue
          CFI DPH0 SameValue
          CFI R0 Undefined
          CFI R1 Undefined
          CFI R2 Undefined
          CFI R3 Undefined
          CFI R4 Undefined
          CFI R5 Undefined
          CFI R6 SameValue
          CFI R7 SameValue
          CFI V0 SameValue
          CFI V1 SameValue
          CFI V2 SameValue
          CFI V3 SameValue
          CFI V4 SameValue
          CFI V5 SameValue
          CFI V6 SameValue
          CFI V7 SameValue
          CFI PSPH Undefined
          CFI PSPL Undefined
          CFI XSPH Undefined
          CFI XSPL Undefined
          CFI ?RET Concat
          CFI ?RET_HIGH Frame(CFA_SP, 2)
          CFI ?RET_LOW Frame(CFA_SP, 1)
          CFI EndCommon cfiCommon0
        
        
          CFI Common cfiCommon1 Using cfiNames0
          CFI CodeAlign 1
          CFI DataAlign -1
          CFI ReturnAddress ?RET CODE
          CFI CFA_DOVERLAY Used
          CFI CFA_IOVERLAY Used
          CFI CFA_SP SP+-2
          CFI CFA_PSP16 PSP16+0
          CFI CFA_XSP16 XSP16+0
          CFI `PSW.CY` SameValue
          CFI `B.BR0` SameValue
          CFI `B.BR1` SameValue
          CFI `B.BR2` SameValue
          CFI `B.BR3` SameValue
          CFI `B.BR4` SameValue
          CFI `B.BR5` SameValue
          CFI `B.BR6` SameValue
          CFI `B.BR7` SameValue
          CFI `VB.BR8` SameValue
          CFI `VB.BR9` SameValue
          CFI `VB.BR10` SameValue
          CFI `VB.BR11` SameValue
          CFI `VB.BR12` SameValue
          CFI `VB.BR13` SameValue
          CFI `VB.BR14` SameValue
          CFI `VB.BR15` SameValue
          CFI VB SameValue
          CFI B SameValue
          CFI A SameValue
          CFI PSW SameValue
          CFI DPL0 SameValue
          CFI DPH0 SameValue
          CFI R0 SameValue
          CFI R1 SameValue
          CFI R2 SameValue
          CFI R3 SameValue
          CFI R4 SameValue
          CFI R5 SameValue
          CFI R6 SameValue
          CFI R7 SameValue
          CFI V0 SameValue
          CFI V1 SameValue
          CFI V2 SameValue
          CFI V3 SameValue
          CFI V4 SameValue
          CFI V5 SameValue
          CFI V6 SameValue
          CFI V7 SameValue
          CFI PSPH Undefined
          CFI PSPL Undefined
          CFI XSPH Undefined
          CFI XSPL Undefined
          CFI ?RET Concat
          CFI ?RET_HIGH Frame(CFA_SP, 2)
          CFI ?RET_LOW Frame(CFA_SP, 1)
          CFI EndCommon cfiCommon1
        
        EXTERN memcmp
        FUNCTION memcmp,010202H
        ARGFRAME ISTACK, 0, STACK
        ARGFRAME PSTACK, 0, STACK
        ARGFRAME XSTACK, 29, STACK
        ARGFRAME IOVERLAY, 0, STATIC
        ARGFRAME DOVERLAY, 0, STATIC
        EXTERN memcpy
        FUNCTION memcpy,010202H
        ARGFRAME ISTACK, 0, STACK
        ARGFRAME PSTACK, 0, STACK
        ARGFRAME XSTACK, 21, STACK
        ARGFRAME IOVERLAY, 0, STATIC
        ARGFRAME DOVERLAY, 0, STATIC
        EXTERN printf
        FUNCTION printf,0202H
        ARGFRAME ISTACK, 0, STACK
        ARGFRAME PSTACK, 0, STACK
        ARGFRAME XSTACK, 49, STACK
        ARGFRAME IOVERLAY, 0, STATIC
        ARGFRAME DOVERLAY, 0, STATIC
        EXTERN strcpy
        FUNCTION strcpy,010202H
        ARGFRAME ISTACK, 0, STACK
        ARGFRAME PSTACK, 0, STACK
        ARGFRAME XSTACK, 19, STACK
        ARGFRAME IOVERLAY, 0, STATIC
        ARGFRAME DOVERLAY, 0, STATIC
        EXTERN strncpy
        FUNCTION strncpy,010202H
        ARGFRAME ISTACK, 0, STACK
        ARGFRAME PSTACK, 0, STACK
        ARGFRAME XSTACK, 11, STACK
        ARGFRAME IOVERLAY, 0, STATIC
        ARGFRAME DOVERLAY, 0, STATIC

// I:\1_git_code\EPnode_OTA\CC2530 IAP\CC2530_stack\zstack-2.4.0-1.4.0x\Projects\zstack\Samples\CC2530-IAP\Source\shell\shell.c
//    1 /**
//    2   ******************************************************************************
//    3   * @file           shell.c
//    4   * @author         古么宁
//    5   * @brief          shell 命令解释器，支持  TAB 键命令补全，上下左右箭头 ，BACKSPACE回删
//    6   * @note
//    7   * <pre>
//    8   * 使用步骤:
//    9   *    0.初始化硬件部分。
//   10   *    1.编写硬件对应的void puts(char * buf , uint16_t len) 发送函数。
//   11   *    2.shell_init(sign,puts) 初始化输入标志和默认输出。
//   12   *    3.新建一个  shellinput_t shellx , 初始化输出 shell_input_init(&shellx,puts,...);
//   13   *    4.接收到一包数据后，调用 shell_input(shellx,buf,len)
//   14   *    *.  需要注册命令则调用宏 shell_register_command 进行注册。
//   15   *    *.. shell_register_confirm() 可注册带选项命令([Y/N]选项)
//   16   * </pre>
//   17   ******************************************************************************
//   18   *
//   19   * COPYRIGHT(c) 2019 GoodMorning
//   20   *
//   21   ******************************************************************************
//   22   */
//   23 /* Includes ---------------------------------------------------*/
//   24 #include <string.h>
//   25 #include <stdarg.h>
//   26 #include <stdio.h>
//   27 #include "shell.h"
//   28 #include "containerof.h"
//   29 

        RSEG XDATA_Z:XDATA:NOROOT(0)
        DATA16
//   30 fmt_puts_t current_puts = NULL;
current_puts:
        DS 2
        REQUIRE __INIT_XDATA_Z

        RSEG XDATA_Z:XDATA:NOROOT(0)
        DATA16
//   31 fmt_puts_t default_puts = NULL;
default_puts:
        DS 2
        REQUIRE __INIT_XDATA_Z

        RSEG XDATA_I:XDATA:NOROOT(0)
        DATA8
`?<Constant "\\033[2K\\r%s">`:
        DS 8
        REQUIRE `?<Initializer for <Constant "\\033[2K\\r%s">>`
        REQUIRE __INIT_XDATA_I

        RSEG XDATA_I:XDATA:NOROOT(0)
        DATA8
`?<Constant "\\r\\n\\t%s">`:
        DS 6
        REQUIRE `?<Initializer for <Constant "\\r\\n\\t%s">>`
        REQUIRE __INIT_XDATA_I

        RSEG XDATA_I:XDATA:NOROOT(0)
        DATA8
`?<Constant "\\r\\n%s%s">`:
        DS 7
        REQUIRE `?<Initializer for <Constant "\\r\\n%s%s">>`
        REQUIRE __INIT_XDATA_I

        RSEG XDATA_I:XDATA:NOROOT(0)
        DATA8
`?<Constant {0}>`:
        DS 100
        REQUIRE `?<Initializer for <Constant {0}>>`
        REQUIRE __INIT_XDATA_I

        RSEG XDATA_I:XDATA:NOROOT(0)
        DATA8
`?<Constant {0}>_1`:
        DS 100
        REQUIRE `?<Initializer for <Constant {0}>>_1`
        REQUIRE __INIT_XDATA_I

        RSEG XDATA_I:XDATA:NOROOT(0)
        DATA8
`?<Constant "\\r\\n\\tno reply:%s\\r\\n">`:
        DS 17
        REQUIRE `?<Initializer for <Constant "\\r\\n\\tno reply:%s`
        REQUIRE __INIT_XDATA_I

        RSEG XDATA_I:XDATA:NOROOT(0)
        DATA8
`?<Constant "\\033[2J\\033[%ld;%ldH%s">`:
        DS 17
        REQUIRE `?<Initializer for <Constant "\\033[2J\\033[%ld;%`
        REQUIRE __INIT_XDATA_I

        RSEG XDATA_I:XDATA:NOROOT(0)
        DATA8
`?<Constant "\\r\\n(%c)------">`:
        DS 13
        REQUIRE `?<Initializer for <Constant "\\r\\n(%c)------">>`
        REQUIRE __INIT_XDATA_I

        RSEG XDATA_I:XDATA:NOROOT(0)
        DATA8
`?<Constant "\\r\\n\\r\\n%s">`:
        DS 7
        REQUIRE `?<Initializer for <Constant "\\r\\n\\r\\n%s">>`
        REQUIRE __INIT_XDATA_I

        RSEG XDATA_I:XDATA:NOROOT(0)
        DATA8
`?<Constant "\\r\\n">`:
        DS 3
        REQUIRE `?<Initializer for <Constant "\\r\\n">>`
        REQUIRE __INIT_XDATA_I

        RSEG XDATA_I:XDATA:NOROOT(0)
        DATA8
`?<Constant "\\r\\n%s">`:
        DS 5
        REQUIRE `?<Initializer for <Constant "\\r\\n%s">>`
        REQUIRE __INIT_XDATA_I

        RSEG XDATA_I:XDATA:NOROOT(0)
        DATA8
`?<Constant "^C\\r\\n%s">`:
        DS 7
        REQUIRE `?<Initializer for <Constant "^C\\r\\n%s">>`
        REQUIRE __INIT_XDATA_I

        RSEG XDATA_I:XDATA:NOROOT(0)
        DATA16
`?<Constant "\\b">`:
        DS 2
        REQUIRE `?<Initializer for <Constant "\\b">>`
        REQUIRE __INIT_XDATA_I

        RSEG XDATA_I:XDATA:NOROOT(0)
        DATA32
`?<Constant "\\b \\b">`:
        DS 4
        REQUIRE `?<Initializer for <Constant "\\b \\b">>`
        REQUIRE __INIT_XDATA_I

        RSEG XDATA_I:XDATA:NOROOT(0)
        DATA8
`?<Constant "cancel this operation\\r\\n">`:
        DS 24
        REQUIRE `?<Initializer for <Constant "cancel this opera`
        REQUIRE __INIT_XDATA_I

        RSEG XDATA_I:XDATA:NOROOT(0)
        DATA8
`?<Constant "%s [Y/N] ">`:
        DS 10
        REQUIRE `?<Initializer for <Constant "%s [Y/N] ">>`
        REQUIRE __INIT_XDATA_I

        RSEG XDATA_I:XDATA:NOROOT(0)
        DATA8
`?<Constant "help">`:
        DS 5
        REQUIRE `?<Initializer for <Constant "help">>`
        REQUIRE __INIT_XDATA_I

        RSEG XDATA_I:XDATA:NOROOT(0)
        DATA8
`?<Constant "clear">`:
        DS 6
        REQUIRE `?<Initializer for <Constant "clear">>`
        REQUIRE __INIT_XDATA_I
//   32 
//   33 /* Private types ------------------------------------------------------------*/
//   34 
//   35 union uncmd {
//   36 	struct {// 命令号分为以下五个部分  
//   37 		uint32_t CRC2      : 8;
//   38 		uint32_t CRC1      : 8;///< 低十六位为两个 crc 校验码
//   39 		uint32_t Sum       : 5;///< 命令字符的总和
//   40 		uint32_t Len       : 5;///< 命令字符的长度，5 bit ，即命令长度不能超过31个字符
//   41 		uint32_t FirstChar : 6;///< 命令字符的第一个字符
//   42 	}part;
//   43 	uint32_t ID;               ///< 由此合并为 32 位的命令码
//   44 };
//   45 
//   46 /* Private macro ------------------------------------------------------------*/
//   47 
//   48 #define VERSION      "V2.0.4"
//   49 
//   50 #if USE_AVL_TREE 
//   51 	#define NEXT(x)          avl_next(x)
//   52 	#define FIRST(root)      avl_first(root)
//   53 	#define ROOT(root)       ((root)->avl_node)
//   54 #else 
//   55 	#define NEXT(x)          ((x)->next)
//   56 	#define FIRST(root)      ((root)->next)
//   57 	#define ROOT(root)       ((root)->next)
//   58 #endif
//   59 
//   60 /* Private variables --------------------------------------------------------*/
//   61 

        RSEG XDATA_I:XDATA:NOROOT(0)
        DATA8
//   62 static const  unsigned char F_CRC8_Table[256] = {//正序,高位先行 x^8+x^5+x^4+1
F_CRC8_Table:
        DS 256
        REQUIRE `?<Initializer for F_CRC8_Table>`
        REQUIRE __INIT_XDATA_I
//   63 	0x00, 0x31, 0x62, 0x53, 0xc4, 0xf5, 0xa6, 0x97, 0xb9, 0x88, 0xdb, 0xea, 0x7d, 0x4c, 0x1f, 0x2e,
//   64 	0x43, 0x72, 0x21, 0x10, 0x87, 0xb6, 0xe5, 0xd4, 0xfa, 0xcb, 0x98, 0xa9, 0x3e, 0x0f, 0x5c, 0x6d,
//   65 	0x86, 0xb7, 0xe4, 0xd5, 0x42, 0x73, 0x20, 0x11, 0x3f, 0x0e, 0x5d, 0x6c, 0xfb, 0xca, 0x99, 0xa8,
//   66 	0xc5, 0xf4, 0xa7, 0x96, 0x01, 0x30, 0x63, 0x52, 0x7c, 0x4d, 0x1e, 0x2f, 0xb8, 0x89, 0xda, 0xeb,
//   67 	0x3d, 0x0c, 0x5f, 0x6e, 0xf9, 0xc8, 0x9b, 0xaa, 0x84, 0xb5, 0xe6, 0xd7, 0x40, 0x71, 0x22, 0x13,
//   68 	0x7e, 0x4f, 0x1c, 0x2d, 0xba, 0x8b, 0xd8, 0xe9, 0xc7, 0xf6, 0xa5, 0x94, 0x03, 0x32, 0x61, 0x50,
//   69 	0xbb, 0x8a, 0xd9, 0xe8, 0x7f, 0x4e, 0x1d, 0x2c, 0x02, 0x33, 0x60, 0x51, 0xc6, 0xf7, 0xa4, 0x95,
//   70 	0xf8, 0xc9, 0x9a, 0xab, 0x3c, 0x0d, 0x5e, 0x6f, 0x41, 0x70, 0x23, 0x12, 0x85, 0xb4, 0xe7, 0xd6,
//   71 	0x7a, 0x4b, 0x18, 0x29, 0xbe, 0x8f, 0xdc, 0xed, 0xc3, 0xf2, 0xa1, 0x90, 0x07, 0x36, 0x65, 0x54,
//   72 	0x39, 0x08, 0x5b, 0x6a, 0xfd, 0xcc, 0x9f, 0xae, 0x80, 0xb1, 0xe2, 0xd3, 0x44, 0x75, 0x26, 0x17,
//   73 	0xfc, 0xcd, 0x9e, 0xaf, 0x38, 0x09, 0x5a, 0x6b, 0x45, 0x74, 0x27, 0x16, 0x81, 0xb0, 0xe3, 0xd2,
//   74 	0xbf, 0x8e, 0xdd, 0xec, 0x7b, 0x4a, 0x19, 0x28, 0x06, 0x37, 0x64, 0x55, 0xc2, 0xf3, 0xa0, 0x91,
//   75 	0x47, 0x76, 0x25, 0x14, 0x83, 0xb2, 0xe1, 0xd0, 0xfe, 0xcf, 0x9c, 0xad, 0x3a, 0x0b, 0x58, 0x69,
//   76 	0x04, 0x35, 0x66, 0x57, 0xc0, 0xf1, 0xa2, 0x93, 0xbd, 0x8c, 0xdf, 0xee, 0x79, 0x48, 0x1b, 0x2a,
//   77 	0xc1, 0xf0, 0xa3, 0x92, 0x05, 0x34, 0x67, 0x56, 0x78, 0x49, 0x1a, 0x2b, 0xbc, 0x8d, 0xde, 0xef,
//   78 	0x82, 0xb3, 0xe0, 0xd1, 0x46, 0x77, 0x24, 0x15, 0x3b, 0x0a, 0x59, 0x68, 0xff, 0xce, 0x9d, 0xac
//   79 };
//   80 

        RSEG XDATA_I:XDATA:NOROOT(0)
        DATA8
//   81 static const  unsigned char B_CRC8_Table[256] = {//反序,低位先行 x^8+x^5+x^4+1
B_CRC8_Table:
        DS 256
        REQUIRE `?<Initializer for B_CRC8_Table>`
        REQUIRE __INIT_XDATA_I
//   82 	0x00, 0x5e, 0xbc, 0xe2, 0x61, 0x3f, 0xdd, 0x83, 0xc2, 0x9c, 0x7e, 0x20, 0xa3, 0xfd, 0x1f, 0x41,
//   83 	0x9d, 0xc3, 0x21, 0x7f, 0xfc, 0xa2, 0x40, 0x1e, 0x5f, 0x01, 0xe3, 0xbd, 0x3e, 0x60, 0x82, 0xdc,
//   84 	0x23, 0x7d, 0x9f, 0xc1, 0x42, 0x1c, 0xfe, 0xa0, 0xe1, 0xbf, 0x5d, 0x03, 0x80, 0xde, 0x3c, 0x62,
//   85 	0xbe, 0xe0, 0x02, 0x5c, 0xdf, 0x81, 0x63, 0x3d, 0x7c, 0x22, 0xc0, 0x9e, 0x1d, 0x43, 0xa1, 0xff,
//   86 	0x46, 0x18, 0xfa, 0xa4, 0x27, 0x79, 0x9b, 0xc5, 0x84, 0xda, 0x38, 0x66, 0xe5, 0xbb, 0x59, 0x07,
//   87 	0xdb, 0x85, 0x67, 0x39, 0xba, 0xe4, 0x06, 0x58, 0x19, 0x47, 0xa5, 0xfb, 0x78, 0x26, 0xc4, 0x9a,
//   88 	0x65, 0x3b, 0xd9, 0x87, 0x04, 0x5a, 0xb8, 0xe6, 0xa7, 0xf9, 0x1b, 0x45, 0xc6, 0x98, 0x7a, 0x24,
//   89 	0xf8, 0xa6, 0x44, 0x1a, 0x99, 0xc7, 0x25, 0x7b, 0x3a, 0x64, 0x86, 0xd8, 0x5b, 0x05, 0xe7, 0xb9,
//   90 	0x8c, 0xd2, 0x30, 0x6e, 0xed, 0xb3, 0x51, 0x0f, 0x4e, 0x10, 0xf2, 0xac, 0x2f, 0x71, 0x93, 0xcd,
//   91 	0x11, 0x4f, 0xad, 0xf3, 0x70, 0x2e, 0xcc, 0x92, 0xd3, 0x8d, 0x6f, 0x31, 0xb2, 0xec, 0x0e, 0x50,
//   92 	0xaf, 0xf1, 0x13, 0x4d, 0xce, 0x90, 0x72, 0x2c, 0x6d, 0x33, 0xd1, 0x8f, 0x0c, 0x52, 0xb0, 0xee,
//   93 	0x32, 0x6c, 0x8e, 0xd0, 0x53, 0x0d, 0xef, 0xb1, 0xf0, 0xae, 0x4c, 0x12, 0x91, 0xcf, 0x2d, 0x73,
//   94 	0xca, 0x94, 0x76, 0x28, 0xab, 0xf5, 0x17, 0x49, 0x08, 0x56, 0xb4, 0xea, 0x69, 0x37, 0xd5, 0x8b,
//   95 	0x57, 0x09, 0xeb, 0xb5, 0x36, 0x68, 0x8a, 0xd4, 0x95, 0xcb, 0x29, 0x77, 0xf4, 0xaa, 0x48, 0x16,
//   96 	0xe9, 0xb7, 0x55, 0x0b, 0x88, 0xd6, 0x34, 0x6a, 0x2b, 0x75, 0x97, 0xc9, 0x4a, 0x14, 0xf6, 0xa8,
//   97 	0x74, 0x2a, 0xc8, 0x96, 0x15, 0x4b, 0xa9, 0xf7, 0xb6, 0xe8, 0x0a, 0x54, 0xd7, 0x89, 0x6b, 0x35
//   98 };
//   99 
//  100 /// 索引起始点，目录根

        RSEG XDATA_Z:XDATA:NOROOT(0)
        DATA16
//  101 static cmd_root_t shellcmdroot = {0};
shellcmdroot:
        DS 2
        REQUIRE __INIT_XDATA_Z
//  102 
//  103 /* Global variables ---------------------------------------------------------*/
//  104 
//  105 /// 默认输出标志，可修改

        RSEG XDATA_I:XDATA:NOROOT(0)
//  106 char DEFAULT_INPUTSIGN[COMMANDLINE_MAX_LEN] = "~ # ";
DEFAULT_INPUTSIGN:
        DATA8
        DS 50
        REQUIRE `?<Initializer for DEFAULT_INPUTSIGN>`
        REQUIRE __INIT_XDATA_I
//  107 
//  108 /* Private function prototypes -----------------------------------------------*/
//  109 static void   shell_getchar     (struct shell_input * shellin , char ch);
//  110 static void   shell_backspace   (struct shell_input * shellin) ;
//  111 static void   shell_tab         (struct shell_input * shellin) ;
//  112        void   shell_confirm     (struct shell_input * shellin ,char * info ,cmd_fn_t yestodo);
//  113 
//  114 #if (COMMANDLINE_MAX_RECORD)//如果定义了历史纪录
//  115 	static char * shell_record(struct shell_input * shellin);
//  116 	static void   shell_show_history(struct shell_input * shellin,int32_t LastOrNext);
//  117 #else
//  118 #	define shell_record(x)
//  119 #	define shell_show_history(x,y)
//  120 #endif //#if (COMMANDLINE_MAX_RECORD)//如果定义了历史纪录
//  121 
//  122 /* Gorgeous Split-line ------------------------------------------------------*/
//  123 
//  124 /**
//  125   * @brief    命令匹配，根据 cmd 找到对应的控制块
//  126   * @param    cmdindex : 命令号
//  127   * @param    root     : 检索根，起始检索点
//  128   * @return   返回 cmd 命令字符串对应的控制块
//  129 */
//  130 static struct shellcommand *shell_search_cmd(cmd_root_t * root , uint32_t cmdindex)
//  131 {
//  132 	struct shellcommand * command ;
//  133 	cmd_entry_t *node = ROOT(root);
//  134 
//  135 	#if USE_AVL_TREE 
//  136 		while (node) {
//  137 			command = container_of(node, struct shellcommand, node);
//  138 			if (cmdindex < command->ID)
//  139 				node = node->avl_left;
//  140 			else 
//  141 			if (cmdindex > command->ID)
//  142 				node = node->avl_right;
//  143 			else 
//  144 				return command;
//  145 		}
//  146 	#else 
//  147 		for ( ; node ; node = node->next ) {
//  148 			command = container_of(node, struct shellcommand, node);
//  149 			if (command->ID > cmdindex)
//  150 				return NULL;
//  151 			else
//  152 			if (command->ID == cmdindex)
//  153 				return command;
//  154 		}
//  155 	#endif 
//  156   
//  157 	return NULL;
//  158 }
//  159 
//  160 /**
//  161   * @brief    新命令插入记录
//  162   * @param    root     : 检索根，起始检索点
//  163   * @param    newcmd   : 新命令控制块
//  164   * @return   成功返回 0
//  165 */
//  166 static int32_t shell_insert_cmd(cmd_root_t * root , struct shellcommand * newcmd)
//  167 {
//  168 	struct shellcommand * command ;
//  169 	cmd_entry_t **node = &ROOT(root) ;
//  170 
//  171 	#if USE_AVL_TREE 
//  172 		/* 用平衡二叉树构建查询系统 */
//  173 		cmd_entry_t *parent = NULL;
//  174 
//  175 		/* Figure out where to put new node */
//  176 		while (*node) {
//  177 			command = container_of(*node, struct shellcommand, node);
//  178 			parent = *node;
//  179 			if (newcmd->ID < command->ID)
//  180 				node = &((*node)->avl_left);
//  181 			else 
//  182 			if (newcmd->ID > command->ID)
//  183 				node = &((*node)->avl_right);
//  184 			else
//  185 				return 1;
//  186 		}
//  187 
//  188 		/* Add new node and rebalance tree. */
//  189 		avl_insert(root,&newcmd->node,parent,node);
//  190 	#else 
//  191 		/* 用单链表构建查询系统 */
//  192 		for ( ; *node ; node = &((*node)->next) ) {
//  193 			command = container_of(*node, struct shellcommand, node);
//  194 			if (newcmd->ID == command->ID) 
//  195 				return -1;
//  196 			else
//  197 			if (command->ID > newcmd->ID)
//  198 				break ;
//  199 		}
//  200 		newcmd->node.next = *node; 
//  201 		*node = &newcmd->node;
//  202 	#endif 
//  203 	return 0;
//  204 }
//  205 
//  206 
//  207 /** 
//  208   * @brief  检出命令起始字符串为 str 的所有命令 
//  209   * @param  str      : 起始字符串
//  210   * @param  len      : 起始字符串长度
//  211   * @param  checkout : 检出内存
//  212   * @param  checkmax : 最大检出数，如果超出此数则返回 0 
//  213   * @return 返回检出命令的条目数
//  214 */

        RSEG NEAR_CODE:CODE:NOROOT(0)
//  215 static int32_t checkout(char * str,int32_t len,struct shellcommand ** checkout , int32_t checkmax)
checkout:
          CFI Block cfiBlock0 Using cfiCommon0
          CFI Function checkout
        CODE
//  216 {
        FUNCALL checkout, memcmp
        LOCFRAME ISTACK, 0, STACK
        LOCFRAME PSTACK, 0, STACK
        LOCFRAME XSTACK, 29, STACK
        LOCFRAME IOVERLAY, 0, STATIC
        LOCFRAME DOVERLAY, 0, STATIC
        ARGFRAME ISTACK, 0, STACK
        ARGFRAME PSTACK, 0, STACK
        ARGFRAME XSTACK, 29, STACK
        ARGFRAME IOVERLAY, 0, STATIC
        ARGFRAME DOVERLAY, 0, STATIC
        REQUIRE ?V0
        REQUIRE ?V1
        REQUIRE ?V2
        REQUIRE ?V3
        REQUIRE ?V4
        REQUIRE ?V5
        REQUIRE ?V6
        REQUIRE ?V7
        MOV     A,#-0xf
        LCALL   ?FUNC_ENTER_XDATA
          CFI DPH0 load(1, XDATA, add(CFA_XSP16, literal(-1)))
          CFI DPL0 load(1, XDATA, add(CFA_XSP16, literal(-2)))
          CFI ?RET_HIGH load(1, XDATA, add(CFA_XSP16, literal(-3)))
          CFI ?RET_LOW load(1, XDATA, add(CFA_XSP16, literal(-4)))
          CFI R7 load(1, XDATA, add(CFA_XSP16, literal(-5)))
          CFI V7 load(1, XDATA, add(CFA_XSP16, literal(-6)))
          CFI V6 load(1, XDATA, add(CFA_XSP16, literal(-7)))
          CFI V5 load(1, XDATA, add(CFA_XSP16, literal(-8)))
          CFI V4 load(1, XDATA, add(CFA_XSP16, literal(-9)))
          CFI V3 load(1, XDATA, add(CFA_XSP16, literal(-10)))
          CFI V2 load(1, XDATA, add(CFA_XSP16, literal(-11)))
          CFI V1 load(1, XDATA, add(CFA_XSP16, literal(-12)))
          CFI V0 load(1, XDATA, add(CFA_XSP16, literal(-13)))
          CFI VB load(1, XDATA, add(CFA_XSP16, literal(-14)))
          CFI R6 load(1, XDATA, add(CFA_XSP16, literal(-15)))
          CFI CFA_SP SP+0
          CFI CFA_XSP16 add(XSP16, 15)
        ; Saved register size: 15
        ; Auto size: 12
        MOV     A,#-0xc
        LCALL   ?ALLOC_XSTACK8
          CFI CFA_XSP16 add(XSP16, 27)
        LCALL   ?Subroutine12
??CrossCallReturnLabel_91:
        MOV     A,#0x6
        LCALL   ?XSTACK_DISP0_8
        MOV     A,R4
        MOVX    @DPTR,A
        INC     DPTR
        MOV     A,R5
        MOVX    @DPTR,A
//  217 	uint32_t index , end;
//  218 	int32_t      matchnums = 0;
        MOV     A,#0x2
        LCALL   ?XSTACK_DISP0_8
        LCALL   ?Subroutine10
//  219 	struct shellcommand * shellcmd = NULL;
//  220 	cmd_entry_t  * node = ROOT(&shellcmdroot);
??CrossCallReturnLabel_11:
        MOV     DPTR,#shellcmdroot
        LCALL   ??Subroutine54_0
//  221 
//  222 	/* 首字母相同并且长度不小于 len 的点作为起始点，下一个字母开头的点作为结束点 */
//  223 	index = ((uint32_t)(*str)<<26) | (len << 21) ;
??CrossCallReturnLabel_100:
        LCALL   ?Subroutine15
??CrossCallReturnLabel_87:
        MOV     ?V4,R2
        CLR     A
        MOV     ?V5,A
        MOV     ?V6,A
        MOV     ?V7,A
        MOV     A,#0x1a
        MOV     R0,#?V4
        LCALL   ?L_SHL
        MOV     A,#0x1b
        LCALL   ?XSTACK_DISP0_8
        MOV     R0,#?V0
        LCALL   ?L_MOV_X
        MOV     A,#0x15
        MOV     R0,#?V0
        LCALL   ?L_SHL
        MOV     R0,#?V4
        MOV     R1,#?V0
        LCALL   ?L_IOR
//  224 	end = (uint32_t)(*str + 1)<<26 ; 
        MOV     A,R2
        ADD     A,#0x1
        MOV     ?V0,A
        CLR     A
        ADDC    A,#0x0
        MOV     ?V1,A
        SUBB    A,0xE0 /* A   */
        MOV     ?V2,A
        MOV     ?V3,A
        MOV     A,#0x1a
        MOV     R0,#?V0
        LCALL   ?L_SHL
        MOV     A,#0x8
        LCALL   ?XSTACK_DISP0_8
        MOV     R0,#?V0
        LCALL   ?L_MOV_TO_X
        SJMP    ??CrossCallReturnLabel_103
//  225 
//  226 	/* 先找到起始匹配点 */
//  227 	#if USE_AVL_TREE 
//  228 		/* index 不存在，查找结束后的 shell_cmd 最靠近 index 用此作为起始匹配点 */
//  229 		while ( node ){
//  230 			shellcmd = container_of(node,struct shellcommand, node);	
//  231 			node = (index < shellcmd->ID) ? node->avl_left : node->avl_right;
//  232 		}
//  233 
//  234 		if (shellcmd)
//  235 		   node = &shellcmd->node ;
//  236 	#else 
//  237 		/* 查找到首字母相同的点作为起始点 */
//  238 		for ( ; node ; node = NEXT(node)) { 
??checkout_0:
        LCALL   ?Subroutine24
??CrossCallReturnLabel_103:
        MOV     A,R6
        ORL     A,R7
        JNZ     $+5
        LJMP    ??checkout_1
//  239 			shellcmd = container_of(node, struct shellcommand, node);
//  240 			if (shellcmd->ID > index)
        MOV     DPL,R6
        MOV     DPH,R7
        INC     DPTR
        INC     DPTR
        INC     DPTR
        INC     DPTR
        INC     DPTR
        INC     DPTR
        MOV     R0,#?V4
        LCALL   ?UL_GE_X
        JC      ??checkout_0
        MOV     A,#0x1f
        LCALL   ?XSTACK_DISP0_8
        MOV     R0,#?V0
        LCALL   ?L_MOV_X
//  241 				break;
//  242 		}
//  243 	#endif
//  244 
//  245 	for( ; node ; node = NEXT(node) ) {
//  246 		/* 对比输入的字符串，如果前 len 个字符与 str 相同,把命令块记下来 */
//  247 		shellcmd = container_of(node,struct shellcommand, node);
//  248 		if (shellcmd->ID > end) {
??checkout_2:
        MOV     DPL,R6
        MOV     DPH,R7
        INC     DPTR
        INC     DPTR
        INC     DPTR
        INC     DPTR
        INC     DPTR
        INC     DPTR
        MOV     R0,#?V4
        LCALL   ?L_MOV_X
        MOV     A,#0x8
        LCALL   ?XSTACK_DISP0_8
        MOV     R0,#?V4
        LCALL   ?UL_GT_X
        JNC     $+5
        LJMP    ??checkout_1
//  249 			break ;
//  250 		}
//  251 
//  252 		if (0 == memcmp(shellcmd->name, str, len)){ 
        ; Setup parameters for call to function memcmp
        MOV     A,#0x1b
        LCALL   ?XSTACK_DISP0_8
        MOV     R0,#?V4
        LCALL   ?L_MOV_X
        MOV     R0,#?V4
        LCALL   ?PUSH_XSTACK_I_TWO
          CFI CFA_XSP16 add(XSP16, 29)
        MOV     A,#0x2
        LCALL   ?XSTACK_DISP0_8
        LCALL   ?Subroutine26
??CrossCallReturnLabel_41:
        MOV     DPL,R6
        MOV     DPH,R7
        INC     DPTR
        INC     DPTR
        LCALL   ??Subroutine55_0
??CrossCallReturnLabel_105:
        LCALL   memcmp
        MOV     A,#0x2
        LCALL   ?DEALLOC_XSTACK8
          CFI CFA_XSP16 add(XSP16, 27)
        MOV     ?V5,R3
        MOV     A,R2
        ORL     A,?V5
        JNZ     ??checkout_3
//  253 			checkout[matchnums] = shellcmd;
        MOV     A,#0x2
        LCALL   ?XSTACK_DISP0_8
        MOV     R0,#?V4
        LCALL   ?L_MOV_X
        MOV     A,?V4
        ADD     A,0xE0 /* A   */
        MOV     ?V4,A
        MOV     A,?V5
        RLC     A
        MOV     ?V5,A
        MOV     A,#0x6
        LCALL   ?XSTACK_DISP0_8
        LCALL   ?Subroutine45
??CrossCallReturnLabel_79:
        MOV     A,R6
        MOVX    @DPTR,A
        INC     DPTR
        MOV     A,R7
        MOVX    @DPTR,A
//  254 			if (++matchnums > checkmax) {
        MOV     DPTR,#__Constant_1
        MOV     R0,#?V4
        LCALL   ?L_MOV_X
        MOV     A,#0x2
        LCALL   ?XSTACK_DISP0_8
        MOV     R0,#?V4
        LCALL   ?L_ADD_TO_X
        MOV     A,#0x2
        LCALL   ?XSTACK_DISP0_8
        MOV     R0,#?V0
        LCALL   ?SL_GE_X
        JC      ??checkout_3
//  255 				return 0;    
        MOV     R2,#0x0
        MOV     R3,#0x0
        MOV     R4,#0x0
        MOV     R5,#0x0
        SJMP    ??checkout_4
//  256 			}
//  257 		}
//  258 	}
??checkout_3:
        LCALL   ?Subroutine24
??CrossCallReturnLabel_104:
        MOV     A,R6
        ORL     A,R7
        JZ      $+5
        LJMP    ??checkout_2
//  259 
//  260 	return matchnums;
??checkout_1:
        MOV     A,#0x2
        LCALL   ?XSTACK_DISP0_8
        LCALL   ?XLOAD_R2345
??checkout_4:
        MOV     A,#0xc
        LJMP    ??Subroutine53_0
          CFI EndBlock cfiBlock0
//  261 }

        RSEG NEAR_CODE:CODE:NOROOT(0)
?Subroutine15:
          CFI Block cfiCond1 Using cfiCommon0
          CFI Function checkout
          CFI Conditional ??CrossCallReturnLabel_87
          CFI R6 load(1, XDATA, add(CFA_XSP16, literal(-15)))
          CFI VB load(1, XDATA, add(CFA_XSP16, literal(-14)))
          CFI V0 load(1, XDATA, add(CFA_XSP16, literal(-13)))
          CFI V1 load(1, XDATA, add(CFA_XSP16, literal(-12)))
          CFI V2 load(1, XDATA, add(CFA_XSP16, literal(-11)))
          CFI V3 load(1, XDATA, add(CFA_XSP16, literal(-10)))
          CFI V4 load(1, XDATA, add(CFA_XSP16, literal(-9)))
          CFI V5 load(1, XDATA, add(CFA_XSP16, literal(-8)))
          CFI V6 load(1, XDATA, add(CFA_XSP16, literal(-7)))
          CFI V7 load(1, XDATA, add(CFA_XSP16, literal(-6)))
          CFI R7 load(1, XDATA, add(CFA_XSP16, literal(-5)))
          CFI ?RET_LOW load(1, XDATA, add(CFA_XSP16, literal(-4)))
          CFI ?RET_HIGH load(1, XDATA, add(CFA_XSP16, literal(-3)))
          CFI DPL0 load(1, XDATA, add(CFA_XSP16, literal(-2)))
          CFI DPH0 load(1, XDATA, add(CFA_XSP16, literal(-1)))
          CFI CFA_XSP16 add(XSP16, 27)
          CFI Block cfiCond2 Using cfiCommon0
          CFI (cfiCond2) Function shell_parse
          CFI (cfiCond2) Conditional ??CrossCallReturnLabel_88
          CFI (cfiCond2) R6 load(1, XDATA, add(CFA_XSP16, literal(-15)))
          CFI (cfiCond2) VB load(1, XDATA, add(CFA_XSP16, literal(-14)))
          CFI (cfiCond2) V0 load(1, XDATA, add(CFA_XSP16, literal(-13)))
          CFI (cfiCond2) V1 load(1, XDATA, add(CFA_XSP16, literal(-12)))
          CFI (cfiCond2) V2 load(1, XDATA, add(CFA_XSP16, literal(-11)))
          CFI (cfiCond2) V3 load(1, XDATA, add(CFA_XSP16, literal(-10)))
          CFI (cfiCond2) V4 load(1, XDATA, add(CFA_XSP16, literal(-9)))
          CFI (cfiCond2) V5 load(1, XDATA, add(CFA_XSP16, literal(-8)))
          CFI (cfiCond2) V6 load(1, XDATA, add(CFA_XSP16, literal(-7)))
          CFI (cfiCond2) V7 load(1, XDATA, add(CFA_XSP16, literal(-6)))
          CFI (cfiCond2) R7 load(1, XDATA, add(CFA_XSP16, literal(-5)))
          CFI (cfiCond2) ?RET_LOW load(1, XDATA, add(CFA_XSP16, literal(-4)))
          CFI (cfiCond2) ?RET_HIGH load(1, XDATA, add(CFA_XSP16, literal(-3)))
          CFI (cfiCond2) DPL0 load(1, XDATA, add(CFA_XSP16, literal(-2)))
          CFI (cfiCond2) DPH0 load(1, XDATA, add(CFA_XSP16, literal(-1)))
          CFI (cfiCond2) CFA_XSP16 add(XSP16, 43)
          CFI Block cfiPicker3 Using cfiCommon1
          CFI (cfiPicker3) NoFunction
          CFI (cfiPicker3) Picker
        MOV     DPL,?XSP + 0
        MOV     DPH,?XSP + 1
          CFI EndBlock cfiCond1
          CFI EndBlock cfiCond2
          CFI EndBlock cfiPicker3
        REQUIRE ??Subroutine50_0
        ; // Fall through to label ??Subroutine50_0

        RSEG NEAR_CODE:CODE:NOROOT(0)
??Subroutine50_0:
          CFI Block cfiCond4 Using cfiCommon0
          CFI Function shell_tab
          CFI Conditional ??CrossCallReturnLabel_85
          CFI R6 load(1, XDATA, add(CFA_XSP16, literal(-15)))
          CFI VB load(1, XDATA, add(CFA_XSP16, literal(-14)))
          CFI V0 load(1, XDATA, add(CFA_XSP16, literal(-13)))
          CFI V1 load(1, XDATA, add(CFA_XSP16, literal(-12)))
          CFI V2 load(1, XDATA, add(CFA_XSP16, literal(-11)))
          CFI V3 load(1, XDATA, add(CFA_XSP16, literal(-10)))
          CFI V4 load(1, XDATA, add(CFA_XSP16, literal(-9)))
          CFI V5 load(1, XDATA, add(CFA_XSP16, literal(-8)))
          CFI V6 load(1, XDATA, add(CFA_XSP16, literal(-7)))
          CFI V7 load(1, XDATA, add(CFA_XSP16, literal(-6)))
          CFI R7 load(1, XDATA, add(CFA_XSP16, literal(-5)))
          CFI ?RET_LOW load(1, XDATA, add(CFA_XSP16, literal(-4)))
          CFI ?RET_HIGH load(1, XDATA, add(CFA_XSP16, literal(-3)))
          CFI DPL0 load(1, XDATA, add(CFA_XSP16, literal(-2)))
          CFI DPH0 load(1, XDATA, add(CFA_XSP16, literal(-1)))
          CFI CFA_XSP16 add(XSP16, 45)
          CFI Block cfiCond5 Using cfiCommon0
          CFI (cfiCond5) Function _shell_register
          CFI (cfiCond5) Conditional ??CrossCallReturnLabel_86
          CFI (cfiCond5) R6 load(1, XDATA, add(CFA_XSP16, literal(-15)))
          CFI (cfiCond5) VB load(1, XDATA, add(CFA_XSP16, literal(-14)))
          CFI (cfiCond5) V0 load(1, XDATA, add(CFA_XSP16, literal(-13)))
          CFI (cfiCond5) V1 load(1, XDATA, add(CFA_XSP16, literal(-12)))
          CFI (cfiCond5) V2 load(1, XDATA, add(CFA_XSP16, literal(-11)))
          CFI (cfiCond5) V3 load(1, XDATA, add(CFA_XSP16, literal(-10)))
          CFI (cfiCond5) V4 load(1, XDATA, add(CFA_XSP16, literal(-9)))
          CFI (cfiCond5) V5 load(1, XDATA, add(CFA_XSP16, literal(-8)))
          CFI (cfiCond5) V6 load(1, XDATA, add(CFA_XSP16, literal(-7)))
          CFI (cfiCond5) V7 load(1, XDATA, add(CFA_XSP16, literal(-6)))
          CFI (cfiCond5) R7 load(1, XDATA, add(CFA_XSP16, literal(-5)))
          CFI (cfiCond5) ?RET_LOW load(1, XDATA, add(CFA_XSP16, literal(-4)))
          CFI (cfiCond5) ?RET_HIGH load(1, XDATA, add(CFA_XSP16, literal(-3)))
          CFI (cfiCond5) DPL0 load(1, XDATA, add(CFA_XSP16, literal(-2)))
          CFI (cfiCond5) DPH0 load(1, XDATA, add(CFA_XSP16, literal(-1)))
          CFI (cfiCond5) CFA_XSP16 add(XSP16, 37)
          CFI Block cfiCond6 Using cfiCommon0
          CFI (cfiCond6) Function checkout
          CFI (cfiCond6) Conditional ??CrossCallReturnLabel_87
          CFI (cfiCond6) R6 load(1, XDATA, add(CFA_XSP16, literal(-15)))
          CFI (cfiCond6) VB load(1, XDATA, add(CFA_XSP16, literal(-14)))
          CFI (cfiCond6) V0 load(1, XDATA, add(CFA_XSP16, literal(-13)))
          CFI (cfiCond6) V1 load(1, XDATA, add(CFA_XSP16, literal(-12)))
          CFI (cfiCond6) V2 load(1, XDATA, add(CFA_XSP16, literal(-11)))
          CFI (cfiCond6) V3 load(1, XDATA, add(CFA_XSP16, literal(-10)))
          CFI (cfiCond6) V4 load(1, XDATA, add(CFA_XSP16, literal(-9)))
          CFI (cfiCond6) V5 load(1, XDATA, add(CFA_XSP16, literal(-8)))
          CFI (cfiCond6) V6 load(1, XDATA, add(CFA_XSP16, literal(-7)))
          CFI (cfiCond6) V7 load(1, XDATA, add(CFA_XSP16, literal(-6)))
          CFI (cfiCond6) R7 load(1, XDATA, add(CFA_XSP16, literal(-5)))
          CFI (cfiCond6) ?RET_LOW load(1, XDATA, add(CFA_XSP16, literal(-4)))
          CFI (cfiCond6) ?RET_HIGH load(1, XDATA, add(CFA_XSP16, literal(-3)))
          CFI (cfiCond6) DPL0 load(1, XDATA, add(CFA_XSP16, literal(-2)))
          CFI (cfiCond6) DPH0 load(1, XDATA, add(CFA_XSP16, literal(-1)))
          CFI (cfiCond6) CFA_XSP16 add(XSP16, 27)
          CFI Block cfiCond7 Using cfiCommon0
          CFI (cfiCond7) Function shell_parse
          CFI (cfiCond7) Conditional ??CrossCallReturnLabel_88
          CFI (cfiCond7) R6 load(1, XDATA, add(CFA_XSP16, literal(-15)))
          CFI (cfiCond7) VB load(1, XDATA, add(CFA_XSP16, literal(-14)))
          CFI (cfiCond7) V0 load(1, XDATA, add(CFA_XSP16, literal(-13)))
          CFI (cfiCond7) V1 load(1, XDATA, add(CFA_XSP16, literal(-12)))
          CFI (cfiCond7) V2 load(1, XDATA, add(CFA_XSP16, literal(-11)))
          CFI (cfiCond7) V3 load(1, XDATA, add(CFA_XSP16, literal(-10)))
          CFI (cfiCond7) V4 load(1, XDATA, add(CFA_XSP16, literal(-9)))
          CFI (cfiCond7) V5 load(1, XDATA, add(CFA_XSP16, literal(-8)))
          CFI (cfiCond7) V6 load(1, XDATA, add(CFA_XSP16, literal(-7)))
          CFI (cfiCond7) V7 load(1, XDATA, add(CFA_XSP16, literal(-6)))
          CFI (cfiCond7) R7 load(1, XDATA, add(CFA_XSP16, literal(-5)))
          CFI (cfiCond7) ?RET_LOW load(1, XDATA, add(CFA_XSP16, literal(-4)))
          CFI (cfiCond7) ?RET_HIGH load(1, XDATA, add(CFA_XSP16, literal(-3)))
          CFI (cfiCond7) DPL0 load(1, XDATA, add(CFA_XSP16, literal(-2)))
          CFI (cfiCond7) DPH0 load(1, XDATA, add(CFA_XSP16, literal(-1)))
          CFI (cfiCond7) CFA_XSP16 add(XSP16, 43)
          CFI Block cfiPicker8 Using cfiCommon1
          CFI (cfiPicker8) NoFunction
          CFI (cfiPicker8) Picker
        LCALL   ?Subroutine44
??CrossCallReturnLabel_166:
        MOV     R2,A
        RET
          CFI EndBlock cfiCond4
          CFI EndBlock cfiCond5
          CFI EndBlock cfiCond6
          CFI EndBlock cfiCond7
          CFI EndBlock cfiPicker8
//  262 
//  263 
//  264 #if (COMMANDLINE_MAX_RECORD) //如果定义了历史纪录
//  265 
//  266 /**
//  267   * @author   古么宁
//  268   * @brief    记录此次运行的命令及参数
//  269   * @param    
//  270   * @return   返回记录地址
//  271 */
//  272 static char * shell_record(struct shell_input * shellin)
//  273 {	
//  274 	char *  history = &shellin->history[shellin->htywrt][0];
//  275 	
//  276 	shellin->htywrt  = (shellin->htywrt + 1) % COMMANDLINE_MAX_RECORD;
//  277 	shellin->htyread = shellin->htywrt;
//  278 
//  279 	memcpy(history,shellin->cmdline,shellin->tail);
//  280 	history[shellin->tail] = 0;
//  281 	
//  282 	return history;
//  283 }
//  284 
//  285 
//  286 /**
//  287   * @author   古么宁
//  288   * @brief    按上下箭头键显示以往输入过的命令，此处只记录最近几次的命令
//  289   * @param    void
//  290   * @return   don't care
//  291 */

        RSEG NEAR_CODE:CODE:NOROOT(0)
//  292 static void shell_show_history(struct shell_input * shellin,int32_t LastOrNext)
shell_show_history:
          CFI Block cfiBlock9 Using cfiCommon0
          CFI Function shell_show_history
        CODE
//  293 {
        FUNCALL shell_show_history, printf
        LOCFRAME ISTACK, 0, STACK
        LOCFRAME PSTACK, 0, STACK
        LOCFRAME XSTACK, 16, STACK
        LOCFRAME IOVERLAY, 0, STATIC
        LOCFRAME DOVERLAY, 0, STATIC
        ARGFRAME ISTACK, 0, STACK
        ARGFRAME PSTACK, 0, STACK
        ARGFRAME XSTACK, 16, STACK
        ARGFRAME IOVERLAY, 0, STATIC
        ARGFRAME DOVERLAY, 0, STATIC
        REQUIRE ?V0
        REQUIRE ?V1
        REQUIRE ?V2
        REQUIRE ?V3
        REQUIRE ?V4
        REQUIRE ?V5
        REQUIRE ?V6
        MOV     A,#-0xe
        LCALL   ?FUNC_ENTER_XDATA
          CFI DPH0 load(1, XDATA, add(CFA_XSP16, literal(-1)))
          CFI DPL0 load(1, XDATA, add(CFA_XSP16, literal(-2)))
          CFI ?RET_HIGH load(1, XDATA, add(CFA_XSP16, literal(-3)))
          CFI ?RET_LOW load(1, XDATA, add(CFA_XSP16, literal(-4)))
          CFI R7 load(1, XDATA, add(CFA_XSP16, literal(-5)))
          CFI V6 load(1, XDATA, add(CFA_XSP16, literal(-6)))
          CFI V5 load(1, XDATA, add(CFA_XSP16, literal(-7)))
          CFI V4 load(1, XDATA, add(CFA_XSP16, literal(-8)))
          CFI V3 load(1, XDATA, add(CFA_XSP16, literal(-9)))
          CFI V2 load(1, XDATA, add(CFA_XSP16, literal(-10)))
          CFI V1 load(1, XDATA, add(CFA_XSP16, literal(-11)))
          CFI V0 load(1, XDATA, add(CFA_XSP16, literal(-12)))
          CFI VB load(1, XDATA, add(CFA_XSP16, literal(-13)))
          CFI R6 load(1, XDATA, add(CFA_XSP16, literal(-14)))
          CFI CFA_SP SP+0
          CFI CFA_XSP16 add(XSP16, 14)
        ; Saved register size: 14
        ; Auto size: 0
        MOV     A,R2
        MOV     R6,A
        MOV     A,R3
        MOV     R7,A
//  294 	int32_t len = 0;
        MOV     ?V0,#0x0
        MOV     ?V1,#0x0
        MOV     ?V2,#0x0
        MOV     ?V3,#0x0
//  295 	
//  296 	printf("\33[2K\r%s",shellin->sign);//"\33[2K\r" 表示清除当前行
        ; Setup parameters for call to function printf
        MOV     A,R6
        ADD     A,#0x6
        MOV     ?V4,A
        CLR     A
        ADDC    A,R7
        MOV     ?V5,A
        MOV     R0,#?V4
        LCALL   ?PUSH_XSTACK_I_TWO
          CFI CFA_XSP16 add(XSP16, 16)
        MOV     R2,#`?<Constant "\\033[2K\\r%s">` & 0xff
        MOV     R3,#(`?<Constant "\\033[2K\\r%s">` >> 8) & 0xff
        LCALL   printf
        MOV     A,#0x2
        LCALL   ?DEALLOC_XSTACK8
          CFI CFA_XSP16 add(XSP16, 14)
//  297 
//  298 	if (!LastOrNext) //上箭头，上一条命令
        MOV     A,R6
        ADD     A,#0x6d
        MOV     R4,A
        CLR     A
        ADDC    A,R7
        MOV     R5,A
        MOV     DPL,R4
        MOV     DPH,R5
        MOVX    A,@DPTR
        MOV     ?V6,A
        MOV     A,R6
        ADD     A,#0x6c
        MOV     ?V4,A
        CLR     A
        ADDC    A,R7
        MOV     ?V5,A
        MOV     A,#0xe
        LCALL   ?XSTACK_DISP0_8
        LCALL   ?XLOAD_R0123
        MOV     A,R0
        ORL     A,R1
        ORL     A,R2
        ORL     A,R3
        JNZ     ??shell_show_history_0
//  299 		shellin->htyread = (!shellin->htyread) ? (COMMANDLINE_MAX_RECORD - 1) : (shellin->htyread - 1);
        MOV     A,?V6
        JNZ     ??shell_show_history_1
        MOV     R0,#0x3
        SJMP    ??shell_show_history_2
??shell_show_history_1:
        MOV     A,#-0x1
        ADD     A,?V6
        MOV     R0,A
??shell_show_history_2:
        MOV     A,R0
        SJMP    ??shell_show_history_3
//  300 	else       //下箭头
//  301 	if (shellin->htyread != shellin->htywrt)
??shell_show_history_0:
        MOV     DPL,?V4
        MOV     DPH,?V5
        MOVX    A,@DPTR
        XRL     A,?V6
        JZ      ??shell_show_history_4
//  302 		shellin->htyread = (shellin->htyread + 1) % COMMANDLINE_MAX_RECORD;
        MOV     R1,#0x0
        MOV     A,?V6
        ADD     A,#0x1
        MOV     R0,A
        JNC     ??shell_show_history_5
        INC     R1
??shell_show_history_5:
        MOV     R2,#0x4
        MOV     R3,#0x0
        LCALL   ?S_DIV_MOD
        MOV     A,R2
??shell_show_history_3:
        MOV     DPL,R4
        MOV     DPH,R5
        MOVX    @DPTR,A
//  303 
//  304 	if (shellin->htyread != shellin->htywrt){ //把历史记录考到命令行内存 
??shell_show_history_4:
        MOV     DPL,R4
        MOV     DPH,R5
        MOVX    A,@DPTR
        MOV     R0,A
        MOV     DPL,?V4
        MOV     DPH,?V5
        MOVX    A,@DPTR
        XRL     A,R0
        JZ      ??shell_show_history_6
//  305 		for (char * history = &shellin->history[shellin->htyread][0]; *history ; ++len)
        MOV     A,R0
        MOV     B,#0x32
        MUL     AB
        MOV     R0,A
        MOV     R1,B
        MOV     A,R6
        ADD     A,R0
        MOV     R0,A
        MOV     A,R7
        ADDC    A,R1
        MOV     R1,A
        MOV     A,R0
        ADD     A,#0x6e
        MOV     R2,A
        CLR     A
        ADDC    A,R1
        MOV     R3,A
        SJMP    ??shell_show_history_7
//  306 			shellin->cmdline[len] = *history++;
??shell_show_history_8:
        PUSH    A
          CFI CFA_SP SP+-1
        LCALL   ?Subroutine31
??CrossCallReturnLabel_51:
        POP     A
          CFI CFA_SP SP+0
        LCALL   ??Subroutine61_0
??CrossCallReturnLabel_135:
        MOV     DPTR,#__Constant_1
        MOV     R0,#?V0
        LCALL   ?L_ADD_X
??shell_show_history_7:
        MOV     DPL,R2
        MOV     DPH,R3
        MOVX    A,@DPTR
        JNZ     ??shell_show_history_8
//  307 	}
//  308 	
//  309 	shellin->cmdline[len] = 0; //添加结束符
??shell_show_history_6:
        LCALL   ?Subroutine31
??CrossCallReturnLabel_52:
        CLR     A
        MOVX    @DPTR,A
//  310 	shellin->tail = len ;
        MOV     A,R6
        ADD     A,#0x6b
        MOV     DPL,A
        CLR     A
        ADDC    A,R7
        MOV     DPH,A
        MOV     A,?V0
        MOVX    @DPTR,A
//  311 	shellin->edit = len ;
        MOV     A,R6
        ADD     A,#0x6a
        MOV     DPL,A
        CLR     A
        ADDC    A,R7
        MOV     DPH,A
        MOV     A,?V0
        MOVX    @DPTR,A
//  312 
//  313 	if (len)
        ORL     A,?V1
        ORL     A,?V2
        ORL     A,?V3
        JZ      ??shell_show_history_9
//  314 		printl(shellin->cmdline,len); //打印命令行内容
        LCALL   ?Subroutine20
??CrossCallReturnLabel_32:
        JZ      ??shell_show_history_9
        ; Setup parameters for indirect call
        MOV     R4,?V0
        MOV     R5,?V1
        MOV     A,R6
        ADD     A,#0x38
        MOV     R2,A
        CLR     A
        ADDC    A,R7
        MOV     R3,A
        LCALL   ??Subroutine65_0
??CrossCallReturnLabel_142:
        LCALL   ?CALL_IND
          CFI EndBlock cfiBlock9
//  315 }
??shell_show_history_9:
        REQUIRE ?Subroutine1
        ; // Fall through to label ?Subroutine1

        RSEG NEAR_CODE:CODE:NOROOT(0)
?Subroutine1:
          CFI Block cfiBlock10 Using cfiCommon0
          CFI NoFunction
          CFI CFA_SP SP+0
          CFI CFA_XSP16 add(XSP16, 14)
          CFI VB load(1, XDATA, add(CFA_XSP16, literal(-13)))
          CFI DPL0 load(1, XDATA, add(CFA_XSP16, literal(-2)))
          CFI DPH0 load(1, XDATA, add(CFA_XSP16, literal(-1)))
          CFI R6 load(1, XDATA, add(CFA_XSP16, literal(-14)))
          CFI R7 load(1, XDATA, add(CFA_XSP16, literal(-5)))
          CFI V0 load(1, XDATA, add(CFA_XSP16, literal(-12)))
          CFI V1 load(1, XDATA, add(CFA_XSP16, literal(-11)))
          CFI V2 load(1, XDATA, add(CFA_XSP16, literal(-10)))
          CFI V3 load(1, XDATA, add(CFA_XSP16, literal(-9)))
          CFI V4 load(1, XDATA, add(CFA_XSP16, literal(-8)))
          CFI V5 load(1, XDATA, add(CFA_XSP16, literal(-7)))
          CFI V6 load(1, XDATA, add(CFA_XSP16, literal(-6)))
          CFI ?RET_HIGH load(1, XDATA, add(CFA_XSP16, literal(-3)))
          CFI ?RET_LOW load(1, XDATA, add(CFA_XSP16, literal(-4)))
        MOV     R7,#0x7
        LJMP    ?FUNC_LEAVE_XDATA
          CFI EndBlock cfiBlock10

        RSEG NEAR_CODE:CODE:NOROOT(0)
?Subroutine31:
          CFI Block cfiCond11 Using cfiCommon0
          CFI Function shell_show_history
          CFI Conditional ??CrossCallReturnLabel_51
          CFI R6 load(1, XDATA, add(CFA_XSP16, literal(-14)))
          CFI VB load(1, XDATA, add(CFA_XSP16, literal(-13)))
          CFI V0 load(1, XDATA, add(CFA_XSP16, literal(-12)))
          CFI V1 load(1, XDATA, add(CFA_XSP16, literal(-11)))
          CFI V2 load(1, XDATA, add(CFA_XSP16, literal(-10)))
          CFI V3 load(1, XDATA, add(CFA_XSP16, literal(-9)))
          CFI V4 load(1, XDATA, add(CFA_XSP16, literal(-8)))
          CFI V5 load(1, XDATA, add(CFA_XSP16, literal(-7)))
          CFI V6 load(1, XDATA, add(CFA_XSP16, literal(-6)))
          CFI R7 load(1, XDATA, add(CFA_XSP16, literal(-5)))
          CFI ?RET_LOW load(1, XDATA, add(CFA_XSP16, literal(-4)))
          CFI ?RET_HIGH load(1, XDATA, add(CFA_XSP16, literal(-3)))
          CFI DPL0 load(1, XDATA, add(CFA_XSP16, literal(-2)))
          CFI DPH0 load(1, XDATA, add(CFA_XSP16, literal(-1)))
          CFI CFA_SP SP+-3
          CFI CFA_XSP16 add(XSP16, 14)
          CFI Block cfiCond12 Using cfiCommon0
          CFI (cfiCond12) Function shell_show_history
          CFI (cfiCond12) Conditional ??CrossCallReturnLabel_52
          CFI (cfiCond12) R6 load(1, XDATA, add(CFA_XSP16, literal(-14)))
          CFI (cfiCond12) VB load(1, XDATA, add(CFA_XSP16, literal(-13)))
          CFI (cfiCond12) V0 load(1, XDATA, add(CFA_XSP16, literal(-12)))
          CFI (cfiCond12) V1 load(1, XDATA, add(CFA_XSP16, literal(-11)))
          CFI (cfiCond12) V2 load(1, XDATA, add(CFA_XSP16, literal(-10)))
          CFI (cfiCond12) V3 load(1, XDATA, add(CFA_XSP16, literal(-9)))
          CFI (cfiCond12) V4 load(1, XDATA, add(CFA_XSP16, literal(-8)))
          CFI (cfiCond12) V5 load(1, XDATA, add(CFA_XSP16, literal(-7)))
          CFI (cfiCond12) V6 load(1, XDATA, add(CFA_XSP16, literal(-6)))
          CFI (cfiCond12) R7 load(1, XDATA, add(CFA_XSP16, literal(-5)))
          CFI (cfiCond12) ?RET_LOW load(1, XDATA, add(CFA_XSP16, literal(-4)))
          CFI (cfiCond12) ?RET_HIGH load(1, XDATA, add(CFA_XSP16, literal(-3)))
          CFI (cfiCond12) DPL0 load(1, XDATA, add(CFA_XSP16, literal(-2)))
          CFI (cfiCond12) DPH0 load(1, XDATA, add(CFA_XSP16, literal(-1)))
          CFI (cfiCond12) CFA_XSP16 add(XSP16, 14)
          CFI Block cfiPicker13 Using cfiCommon1
          CFI (cfiPicker13) NoFunction
          CFI (cfiPicker13) Picker
        MOV     ?V4,?V0
        MOV     ?V5,?V1
        MOV     A,R6
        ADD     A,?V4
        MOV     R0,A
        MOV     A,R7
        ADDC    A,?V5
        LCALL   ?Subroutine48
??CrossCallReturnLabel_84:
        RET
          CFI EndBlock cfiCond11
          CFI EndBlock cfiCond12
          CFI EndBlock cfiPicker13

        RSEG NEAR_CODE:CODE:NOROOT(0)
?Subroutine48:
          CFI Block cfiCond14 Using cfiCommon0
          CFI Function shell_show_history
          CFI Conditional ??CrossCallReturnLabel_84, ??CrossCallReturnLabel_51
          CFI R6 load(1, XDATA, add(CFA_XSP16, literal(-14)))
          CFI VB load(1, XDATA, add(CFA_XSP16, literal(-13)))
          CFI V0 load(1, XDATA, add(CFA_XSP16, literal(-12)))
          CFI V1 load(1, XDATA, add(CFA_XSP16, literal(-11)))
          CFI V2 load(1, XDATA, add(CFA_XSP16, literal(-10)))
          CFI V3 load(1, XDATA, add(CFA_XSP16, literal(-9)))
          CFI V4 load(1, XDATA, add(CFA_XSP16, literal(-8)))
          CFI V5 load(1, XDATA, add(CFA_XSP16, literal(-7)))
          CFI V6 load(1, XDATA, add(CFA_XSP16, literal(-6)))
          CFI R7 load(1, XDATA, add(CFA_XSP16, literal(-5)))
          CFI ?RET_LOW load(1, XDATA, add(CFA_XSP16, literal(-4)))
          CFI ?RET_HIGH load(1, XDATA, add(CFA_XSP16, literal(-3)))
          CFI DPL0 load(1, XDATA, add(CFA_XSP16, literal(-2)))
          CFI DPH0 load(1, XDATA, add(CFA_XSP16, literal(-1)))
          CFI CFA_SP SP+-5
          CFI CFA_XSP16 add(XSP16, 14)
          CFI Block cfiCond15 Using cfiCommon0
          CFI (cfiCond15) Function shell_show_history
          CFI (cfiCond15) Conditional ??CrossCallReturnLabel_84, ??CrossCallReturnLabel_52
          CFI (cfiCond15) R6 load(1, XDATA, add(CFA_XSP16, literal(-14)))
          CFI (cfiCond15) VB load(1, XDATA, add(CFA_XSP16, literal(-13)))
          CFI (cfiCond15) V0 load(1, XDATA, add(CFA_XSP16, literal(-12)))
          CFI (cfiCond15) V1 load(1, XDATA, add(CFA_XSP16, literal(-11)))
          CFI (cfiCond15) V2 load(1, XDATA, add(CFA_XSP16, literal(-10)))
          CFI (cfiCond15) V3 load(1, XDATA, add(CFA_XSP16, literal(-9)))
          CFI (cfiCond15) V4 load(1, XDATA, add(CFA_XSP16, literal(-8)))
          CFI (cfiCond15) V5 load(1, XDATA, add(CFA_XSP16, literal(-7)))
          CFI (cfiCond15) V6 load(1, XDATA, add(CFA_XSP16, literal(-6)))
          CFI (cfiCond15) R7 load(1, XDATA, add(CFA_XSP16, literal(-5)))
          CFI (cfiCond15) ?RET_LOW load(1, XDATA, add(CFA_XSP16, literal(-4)))
          CFI (cfiCond15) ?RET_HIGH load(1, XDATA, add(CFA_XSP16, literal(-3)))
          CFI (cfiCond15) DPL0 load(1, XDATA, add(CFA_XSP16, literal(-2)))
          CFI (cfiCond15) DPH0 load(1, XDATA, add(CFA_XSP16, literal(-1)))
          CFI (cfiCond15) CFA_SP SP+-4
          CFI (cfiCond15) CFA_XSP16 add(XSP16, 14)
          CFI Block cfiCond16 Using cfiCommon0
          CFI (cfiCond16) Function shell_backspace
          CFI (cfiCond16) Conditional ??CrossCallReturnLabel_83, ??CrossCallReturnLabel_95
          CFI (cfiCond16) R6 load(1, XDATA, add(CFA_XSP16, literal(-15)))
          CFI (cfiCond16) VB load(1, XDATA, add(CFA_XSP16, literal(-14)))
          CFI (cfiCond16) V0 load(1, XDATA, add(CFA_XSP16, literal(-13)))
          CFI (cfiCond16) V1 load(1, XDATA, add(CFA_XSP16, literal(-12)))
          CFI (cfiCond16) V2 load(1, XDATA, add(CFA_XSP16, literal(-11)))
          CFI (cfiCond16) V3 load(1, XDATA, add(CFA_XSP16, literal(-10)))
          CFI (cfiCond16) V4 load(1, XDATA, add(CFA_XSP16, literal(-9)))
          CFI (cfiCond16) V5 load(1, XDATA, add(CFA_XSP16, literal(-8)))
          CFI (cfiCond16) V6 load(1, XDATA, add(CFA_XSP16, literal(-7)))
          CFI (cfiCond16) V7 load(1, XDATA, add(CFA_XSP16, literal(-6)))
          CFI (cfiCond16) R7 load(1, XDATA, add(CFA_XSP16, literal(-5)))
          CFI (cfiCond16) ?RET_LOW load(1, XDATA, add(CFA_XSP16, literal(-4)))
          CFI (cfiCond16) ?RET_HIGH load(1, XDATA, add(CFA_XSP16, literal(-3)))
          CFI (cfiCond16) DPL0 load(1, XDATA, add(CFA_XSP16, literal(-2)))
          CFI (cfiCond16) DPH0 load(1, XDATA, add(CFA_XSP16, literal(-1)))
          CFI (cfiCond16) CFA_SP SP+-4
          CFI (cfiCond16) CFA_XSP16 add(XSP16, 117)
          CFI Block cfiCond17 Using cfiCommon0
          CFI (cfiCond17) Function shell_getchar
          CFI (cfiCond17) Conditional ??CrossCallReturnLabel_83, ??CrossCallReturnLabel_96
          CFI (cfiCond17) R6 load(1, XDATA, add(CFA_XSP16, literal(-14)))
          CFI (cfiCond17) VB load(1, XDATA, add(CFA_XSP16, literal(-13)))
          CFI (cfiCond17) V0 load(1, XDATA, add(CFA_XSP16, literal(-12)))
          CFI (cfiCond17) V1 load(1, XDATA, add(CFA_XSP16, literal(-11)))
          CFI (cfiCond17) V2 load(1, XDATA, add(CFA_XSP16, literal(-10)))
          CFI (cfiCond17) V3 load(1, XDATA, add(CFA_XSP16, literal(-9)))
          CFI (cfiCond17) V4 load(1, XDATA, add(CFA_XSP16, literal(-8)))
          CFI (cfiCond17) V5 load(1, XDATA, add(CFA_XSP16, literal(-7)))
          CFI (cfiCond17) V6 load(1, XDATA, add(CFA_XSP16, literal(-6)))
          CFI (cfiCond17) R7 load(1, XDATA, add(CFA_XSP16, literal(-5)))
          CFI (cfiCond17) ?RET_LOW load(1, XDATA, add(CFA_XSP16, literal(-4)))
          CFI (cfiCond17) ?RET_HIGH load(1, XDATA, add(CFA_XSP16, literal(-3)))
          CFI (cfiCond17) DPL0 load(1, XDATA, add(CFA_XSP16, literal(-2)))
          CFI (cfiCond17) DPH0 load(1, XDATA, add(CFA_XSP16, literal(-1)))
          CFI (cfiCond17) CFA_SP SP+-4
          CFI (cfiCond17) CFA_XSP16 add(XSP16, 117)
          CFI Block cfiPicker18 Using cfiCommon1
          CFI (cfiPicker18) NoFunction
          CFI (cfiPicker18) Picker
        MOV     R1,A
        MOV     A,R0
        ADD     A,#0x38
        MOV     DPL,A
        CLR     A
        ADDC    A,R1
        MOV     DPH,A
        RET
          CFI EndBlock cfiCond14
          CFI EndBlock cfiCond15
          CFI EndBlock cfiCond16
          CFI EndBlock cfiCond17
          CFI EndBlock cfiPicker18
//  316 
//  317 #endif //#if (COMMANDLINE_MAX_RECORD) //如果定义了历史纪录
//  318 
//  319 
//  320 
//  321 /** 
//  322   * @brief    输入 table 键处理
//  323   * @param    input
//  324   * @return   don't care
//  325 */

        RSEG NEAR_CODE:CODE:NOROOT(0)
//  326 static void shell_tab(struct shell_input * shellin)
shell_tab:
          CFI Block cfiBlock19 Using cfiCommon0
          CFI Function shell_tab
        CODE
//  327 {
        FUNCALL shell_tab, checkout
        LOCFRAME ISTACK, 0, STACK
        LOCFRAME PSTACK, 0, STACK
        LOCFRAME XSTACK, 53, STACK
        LOCFRAME IOVERLAY, 0, STATIC
        LOCFRAME DOVERLAY, 0, STATIC
        ARGFRAME ISTACK, 0, STACK
        ARGFRAME PSTACK, 0, STACK
        ARGFRAME XSTACK, 53, STACK
        ARGFRAME IOVERLAY, 0, STATIC
        ARGFRAME DOVERLAY, 0, STATIC
        FUNCALL shell_tab, shell_getchar
        LOCFRAME ISTACK, 0, STACK
        LOCFRAME PSTACK, 0, STACK
        LOCFRAME XSTACK, 45, STACK
        LOCFRAME IOVERLAY, 0, STATIC
        LOCFRAME DOVERLAY, 0, STATIC
        ARGFRAME ISTACK, 0, STACK
        ARGFRAME PSTACK, 0, STACK
        ARGFRAME XSTACK, 45, STACK
        ARGFRAME IOVERLAY, 0, STATIC
        ARGFRAME DOVERLAY, 0, STATIC
        FUNCALL shell_tab, shell_getchar
        LOCFRAME ISTACK, 0, STACK
        LOCFRAME PSTACK, 0, STACK
        LOCFRAME XSTACK, 45, STACK
        LOCFRAME IOVERLAY, 0, STATIC
        LOCFRAME DOVERLAY, 0, STATIC
        ARGFRAME ISTACK, 0, STACK
        ARGFRAME PSTACK, 0, STACK
        ARGFRAME XSTACK, 45, STACK
        ARGFRAME IOVERLAY, 0, STATIC
        ARGFRAME DOVERLAY, 0, STATIC
        FUNCALL shell_tab, printf
        LOCFRAME ISTACK, 0, STACK
        LOCFRAME PSTACK, 0, STACK
        LOCFRAME XSTACK, 47, STACK
        LOCFRAME IOVERLAY, 0, STATIC
        LOCFRAME DOVERLAY, 0, STATIC
        ARGFRAME ISTACK, 0, STACK
        ARGFRAME PSTACK, 0, STACK
        ARGFRAME XSTACK, 47, STACK
        ARGFRAME IOVERLAY, 0, STATIC
        ARGFRAME DOVERLAY, 0, STATIC
        FUNCALL shell_tab, printf
        LOCFRAME ISTACK, 0, STACK
        LOCFRAME PSTACK, 0, STACK
        LOCFRAME XSTACK, 49, STACK
        LOCFRAME IOVERLAY, 0, STATIC
        LOCFRAME DOVERLAY, 0, STATIC
        ARGFRAME ISTACK, 0, STACK
        ARGFRAME PSTACK, 0, STACK
        ARGFRAME XSTACK, 49, STACK
        ARGFRAME IOVERLAY, 0, STATIC
        ARGFRAME DOVERLAY, 0, STATIC
        FUNCALL shell_tab, shell_getchar
        LOCFRAME ISTACK, 0, STACK
        LOCFRAME PSTACK, 0, STACK
        LOCFRAME XSTACK, 45, STACK
        LOCFRAME IOVERLAY, 0, STATIC
        LOCFRAME DOVERLAY, 0, STATIC
        ARGFRAME ISTACK, 0, STACK
        ARGFRAME PSTACK, 0, STACK
        ARGFRAME XSTACK, 45, STACK
        ARGFRAME IOVERLAY, 0, STATIC
        ARGFRAME DOVERLAY, 0, STATIC
        REQUIRE ?V0
        REQUIRE ?V1
        REQUIRE ?V2
        REQUIRE ?V3
        REQUIRE ?V4
        REQUIRE ?V5
        REQUIRE ?V6
        REQUIRE ?V7
        MOV     A,#-0xf
        LCALL   ?FUNC_ENTER_XDATA
          CFI DPH0 load(1, XDATA, add(CFA_XSP16, literal(-1)))
          CFI DPL0 load(1, XDATA, add(CFA_XSP16, literal(-2)))
          CFI ?RET_HIGH load(1, XDATA, add(CFA_XSP16, literal(-3)))
          CFI ?RET_LOW load(1, XDATA, add(CFA_XSP16, literal(-4)))
          CFI R7 load(1, XDATA, add(CFA_XSP16, literal(-5)))
          CFI V7 load(1, XDATA, add(CFA_XSP16, literal(-6)))
          CFI V6 load(1, XDATA, add(CFA_XSP16, literal(-7)))
          CFI V5 load(1, XDATA, add(CFA_XSP16, literal(-8)))
          CFI V4 load(1, XDATA, add(CFA_XSP16, literal(-9)))
          CFI V3 load(1, XDATA, add(CFA_XSP16, literal(-10)))
          CFI V2 load(1, XDATA, add(CFA_XSP16, literal(-11)))
          CFI V1 load(1, XDATA, add(CFA_XSP16, literal(-12)))
          CFI V0 load(1, XDATA, add(CFA_XSP16, literal(-13)))
          CFI VB load(1, XDATA, add(CFA_XSP16, literal(-14)))
          CFI R6 load(1, XDATA, add(CFA_XSP16, literal(-15)))
          CFI CFA_SP SP+0
          CFI CFA_XSP16 add(XSP16, 15)
        ; Saved register size: 15
        ; Auto size: 30
        MOV     A,#-0x1e
        LCALL   ?ALLOC_XSTACK8
          CFI CFA_XSP16 add(XSP16, 45)
        LCALL   ?Subroutine12
//  328 	struct shellcommand * match[10];  
//  329 	char  *  str = shellin->cmdline;
??CrossCallReturnLabel_92:
        MOV     DPL,?XSP + 0
        MOV     DPH,?XSP + 1
        LCALL   ?Subroutine29
??CrossCallReturnLabel_47:
        MOV     A,#0x8
        LCALL   ?XSTACK_DISP0_8
        LCALL   ??Subroutine57_0
??CrossCallReturnLabel_119:
        MOV     A,#0x8
        LCALL   ?XSTACK_DISP0_8
        LCALL   ??Subroutine55_0
//  330 	int32_t  len = shellin->tail;
??CrossCallReturnLabel_106:
        MOV     DPL,?XSP + 0
        MOV     DPH,?XSP + 1
        MOVX    A,@DPTR
        ADD     A,#0x6b
        MOV     R0,A
        INC     DPTR
        MOVX    A,@DPTR
        ADDC    A,#0x0
        MOV     R1,A
        MOV     A,#0x6
        LCALL   ?XSTACK_DISP0_8
        LCALL   ??Subroutine57_0
??CrossCallReturnLabel_120:
        MOV     A,#0x6
        LCALL   ?XSTACK_DISP0_8
        LCALL   ?Subroutine19
??CrossCallReturnLabel_29:
        MOV     A,#0x2
        LCALL   ?XSTACK_DISP0_8
        LCALL   ?Subroutine4
//  331 	int32_t matchnums = 0 ; 
??CrossCallReturnLabel_0:
        SJMP    ??shell_tab_0
//  332 	
//  333 	/* Shave off any leading spaces */
//  334 	for ( ; *str == ' ' ; ++str) {
//  335 		--len; 
??shell_tab_1:
        MOV     DPTR,#__Constant_ffffffff
        MOV     R0,#?V0
        LCALL   ?L_MOV_X
        MOV     A,#0x2
        LCALL   ?XSTACK_DISP0_8
        MOV     R0,#?V0
        LCALL   ?L_ADD_TO_X
//  336 	}
        MOV     DPL,R2
        MOV     DPH,R3
        INC     DPTR
        MOV     R2,DPL
        MOV     R3,DPH
??shell_tab_0:
        MOV     DPL,R2
        MOV     DPH,R3
        MOVX    A,@DPTR
        MOV     R0,A
        MOV     A,#0x20
        XRL     A,R0
        JZ      ??shell_tab_1
//  337 
//  338 	if (*str == 0 || len == 0 ){
        MOV     A,R0
        JZ      ??shell_tab_2
        MOV     A,#0x2
        LCALL   ?XSTACK_DISP0_8
        LCALL   ?XLOAD_R4567
        MOV     A,R4
        ORL     A,R5
        ORL     A,R6
        ORL     A,R7
        JNZ     ??shell_tab_3
//  339 		return ;
??shell_tab_2:
        LJMP    ??shell_tab_4
//  340 	}
//  341 
//  342 	/* 如果没有命令包含输入的字符串，返回 */
//  343 	matchnums = checkout(str,len,match,10);
??shell_tab_3:
        ; Setup parameters for call to function checkout
        MOV     DPTR,#__Constant_a
        LCALL   ?PUSH_XSTACK8_X_FOUR
          CFI CFA_XSP16 add(XSP16, 49)
        MOV     A,#0x6
        LCALL   ?XSTACK_DISP0_8
        LCALL   ?PUSH_XSTACK8_X_FOUR
          CFI CFA_XSP16 add(XSP16, 53)
        MOV     A,#0x12
        LCALL   ?XSTACK_DISP102_8
        LCALL   checkout
        MOV     A,#0x8
        LCALL   ?DEALLOC_XSTACK8
          CFI CFA_XSP16 add(XSP16, 45)
        MOV     ?V0,R2
        MOV     ?V1,R3
        MOV     ?V2,R4
        MOV     ?V3,R5
//  344 	if (!matchnums){ 
        MOV     A,R2
        ORL     A,?V1
        ORL     A,?V2
        ORL     A,?V3
        JNZ     $+5
        LJMP    ??shell_tab_4
//  345 		return ; 
//  346 	}
//  347 
//  348 	/* 如果编辑位置不是末端，先把光标移到末端 */
//  349 	if (shellin->edit != shellin->tail) { 
        MOV     A,#0x6
        LCALL   ?XSTACK_DISP0_8
        LCALL   ??Subroutine50_0
??CrossCallReturnLabel_85:
        MOV     DPL,?XSP + 0
        MOV     DPH,?XSP + 1
        MOVX    A,@DPTR
        ADD     A,#0x6a
        MOV     R6,A
        INC     DPTR
        MOVX    A,@DPTR
        ADDC    A,#0x0
        MOV     R7,A
        MOV     DPL,R6
        MOV     DPH,R7
        MOVX    A,@DPTR
        MOV     R0,A
        MOV     A,R2
        XRL     A,R0
        JZ      ??shell_tab_5
//  350 		printl(&shellin->cmdline[shellin->edit],shellin->tail - shellin->edit);
        MOV     DPTR,#current_puts
        LCALL   ?Subroutine26
??CrossCallReturnLabel_42:
        MOV     A,R4
        ORL     A,R5
        JZ      ??shell_tab_6
        ; Setup parameters for indirect call
        MOV     A,R2
        CLR     C
        SUBB    A,R0
        MOV     R4,A
        SUBB    A,0xE0 /* A   */
        MOV     R5,A
        MOV     DPL,?XSP + 0
        MOV     DPH,?XSP + 1
        MOVX    A,@DPTR
        ADD     A,R0
        MOV     R0,A
        INC     DPTR
        MOVX    A,@DPTR
        ADDC    A,#0x0
        MOV     R1,A
        MOV     A,R0
        ADD     A,#0x38
        MOV     R2,A
        CLR     A
        ADDC    A,R1
        MOV     R3,A
        LCALL   ?Subroutine22
??CrossCallReturnLabel_154:
        LCALL   ?CALL_IND
//  351 		shellin->edit = shellin->tail;
??shell_tab_6:
        MOV     A,#0x6
        LCALL   ?XSTACK_DISP0_8
        LCALL   ??Subroutine67_0
//  352 	}
??CrossCallReturnLabel_161:
        MOV     DPL,R6
        MOV     DPH,R7
        MOVX    @DPTR,A
//  353 
//  354 	if (1 == matchnums){
??shell_tab_5:
        MOV     DPTR,#__Constant_1
        MOV     R0,#?V0
        LCALL   ?L_EQ_X
        JNZ     ??shell_tab_7
//  355 		/* 如果只找到了一条命令包含当前输入的字符串，直接补全命令并打印 */
//  356 		for(char * fmt = match[0]->name + len ; *fmt ;++fmt){
        MOV     A,#0x2
        LCALL   ?XSTACK_DISP0_8
        MOV     R0,#?V0
        LCALL   ?L_MOV_X
        MOV     A,#0xa
        LCALL   ?XSTACK_DISP0_8
        LCALL   ??Subroutine63_0
??CrossCallReturnLabel_150:
        INC     DPTR
        INC     DPTR
        MOVX    A,@DPTR
        ADD     A,?V0
        MOV     R6,A
        INC     DPTR
        MOVX    A,@DPTR
        ADDC    A,?V1
        MOV     R7,A
        SJMP    ??shell_tab_8
//  357 			shell_getchar(shellin,*fmt);
??shell_tab_9:
        ; Setup parameters for call to function shell_getchar
        LCALL   ?Subroutine17
//  358 		}
??CrossCallReturnLabel_112:
        LCALL   shell_getchar
        MOV     DPL,R6
        MOV     DPH,R7
        INC     DPTR
        MOV     R6,DPL
        MOV     R7,DPH
??shell_tab_8:
        MOV     DPL,R6
        MOV     DPH,R7
        MOVX    A,@DPTR
        MOV     R1,A
        JNZ     ??shell_tab_9
//  359 		shell_getchar(shellin,' ');
        ; Setup parameters for call to function shell_getchar
        MOV     R1,#0x20
        LCALL   ?Subroutine17
//  360 	}
??CrossCallReturnLabel_113:
        LCALL   shell_getchar
//  361 	else {  
//  362 		/* 如果不止一条命令包含当前输入的字符串，打印含有相同
//  363 		  字符的命令列表，并补全字符串输出直到命令区分点 */
//  364 		for(int i = 0;i < matchnums; ++i) {
//  365 			printf("\r\n\t%s",match[i]->name); 
//  366 		}
//  367 
//  368 		printf("\r\n%s%s",shellin->sign,shellin->cmdline); 
//  369 		for ( ; ; ) {
//  370 			/* 把 match[] 中含有相同的字符补全到输入缓冲中 */
//  371 			for (int i = 1 ; i < matchnums ; ++i ) {
//  372 				if (match[0]->name[len] != match[i]->name[len]){
//  373 					return  ;
//  374 				}
//  375 			}
//  376 			shell_getchar(shellin,match[0]->name[len++]);
//  377 		}
//  378 	}
//  379 }
        LJMP    ??shell_tab_4
??shell_tab_7:
        MOV     R6,#0x0
        MOV     R7,#0x0
        SJMP    ??shell_tab_10
??shell_tab_11:
        ; Setup parameters for call to function printf
        MOV     A,R6
        MOV     R0,A
        MOV     A,R7
        MOV     R1,A
        MOV     A,R0
        ADD     A,R0
        MOV     R0,A
        MOV     A,R1
        RLC     A
        MOV     R1,A
        MOV     A,#0xa
        LCALL   ?XSTACK_DISP0_8
        LCALL   ?Subroutine37
??CrossCallReturnLabel_64:
        LCALL   ??Subroutine63_0
??CrossCallReturnLabel_151:
        INC     DPTR
        INC     DPTR
        LCALL   ?PUSH_XSTACK8_X_TWO
          CFI CFA_XSP16 add(XSP16, 47)
        MOV     R2,#`?<Constant "\\r\\n\\t%s">` & 0xff
        MOV     R3,#(`?<Constant "\\r\\n\\t%s">` >> 8) & 0xff
        LCALL   printf
        MOV     A,#0x2
        LCALL   ?DEALLOC_XSTACK8
          CFI CFA_XSP16 add(XSP16, 45)
        INC     R6
        MOV     A,R6
        JNZ     ??shell_tab_10
        INC     R7
??shell_tab_10:
        MOV     ?V4,R6
        MOV     A,R7
        LCALL   ?Subroutine33
??CrossCallReturnLabel_55:
        LCALL   ?SL_GT
        JC      ??shell_tab_11
        ; Setup parameters for call to function printf
        MOV     A,#0x8
        LCALL   ?XSTACK_DISP0_8
        LCALL   ?PUSH_XSTACK8_X_TWO
          CFI CFA_XSP16 add(XSP16, 47)
        MOV     A,#0x2
        LCALL   ?XSTACK_DISP0_8
        MOVX    A,@DPTR
        ADD     A,#0x6
        MOV     ?V4,A
        INC     DPTR
        MOVX    A,@DPTR
        ADDC    A,#0x0
        MOV     ?V5,A
        MOV     R0,#?V4
        LCALL   ?PUSH_XSTACK_I_TWO
          CFI CFA_XSP16 add(XSP16, 49)
        MOV     R2,#`?<Constant "\\r\\n%s%s">` & 0xff
        MOV     R3,#(`?<Constant "\\r\\n%s%s">` >> 8) & 0xff
        LCALL   printf
        MOV     A,#0x4
        LCALL   ?DEALLOC_XSTACK8
          CFI CFA_XSP16 add(XSP16, 45)
        SJMP    ??shell_tab_12
??shell_tab_13:
        ; Setup parameters for call to function shell_getchar
        MOV     A,R4
        MOV     R1,A
        LCALL   ?Subroutine17
??CrossCallReturnLabel_114:
        LCALL   shell_getchar
        MOV     DPTR,#__Constant_1
        MOV     R0,#?V4
        LCALL   ?L_MOV_X
        MOV     A,#0x2
        LCALL   ?XSTACK_DISP0_8
        MOV     R0,#?V4
        LCALL   ?L_ADD_TO_X
??shell_tab_12:
        MOV     R2,#0x1
        MOV     R3,#0x0
        SJMP    ??shell_tab_14
??shell_tab_15:
        INC     R2
        MOV     A,R2
        JNZ     ??shell_tab_14
        INC     R3
??shell_tab_14:
        MOV     A,#0x2
        LCALL   ?XSTACK_DISP0_8
        MOV     R0,#?V4
        LCALL   ?L_MOV_X
        MOV     A,#0xa
        LCALL   ?XSTACK_DISP0_8
        LCALL   ?Subroutine16
??CrossCallReturnLabel_25:
        MOV     R4,A
        MOV     ?V4,R2
        MOV     A,R3
        LCALL   ?Subroutine33
??CrossCallReturnLabel_56:
        LCALL   ?SL_GT
        JNC     ??shell_tab_13
        MOV     A,#0x2
        LCALL   ?XSTACK_DISP0_8
        MOV     R0,#?V4
        LCALL   ?L_MOV_X
        MOV     A,R2
        MOV     R0,A
        MOV     A,R3
        MOV     R1,A
        MOV     A,R0
        ADD     A,R0
        MOV     R0,A
        MOV     A,R1
        RLC     A
        MOV     R1,A
        MOV     A,#0xa
        LCALL   ?XSTACK_DISP0_8
        LCALL   ?Subroutine37
??CrossCallReturnLabel_65:
        LCALL   ?Subroutine16
??CrossCallReturnLabel_26:
        XRL     A,R4
        JZ      ??shell_tab_15
??shell_tab_4:
        MOV     A,#0x1e
        LJMP    ??Subroutine53_0
          CFI EndBlock cfiBlock19

        RSEG NEAR_CODE:CODE:NOROOT(0)
?Subroutine37:
          CFI Block cfiCond20 Using cfiCommon0
          CFI Function shell_tab
          CFI Conditional ??CrossCallReturnLabel_64
          CFI R6 load(1, XDATA, add(CFA_XSP16, literal(-15)))
          CFI VB load(1, XDATA, add(CFA_XSP16, literal(-14)))
          CFI V0 load(1, XDATA, add(CFA_XSP16, literal(-13)))
          CFI V1 load(1, XDATA, add(CFA_XSP16, literal(-12)))
          CFI V2 load(1, XDATA, add(CFA_XSP16, literal(-11)))
          CFI V3 load(1, XDATA, add(CFA_XSP16, literal(-10)))
          CFI V4 load(1, XDATA, add(CFA_XSP16, literal(-9)))
          CFI V5 load(1, XDATA, add(CFA_XSP16, literal(-8)))
          CFI V6 load(1, XDATA, add(CFA_XSP16, literal(-7)))
          CFI V7 load(1, XDATA, add(CFA_XSP16, literal(-6)))
          CFI R7 load(1, XDATA, add(CFA_XSP16, literal(-5)))
          CFI ?RET_LOW load(1, XDATA, add(CFA_XSP16, literal(-4)))
          CFI ?RET_HIGH load(1, XDATA, add(CFA_XSP16, literal(-3)))
          CFI DPL0 load(1, XDATA, add(CFA_XSP16, literal(-2)))
          CFI DPH0 load(1, XDATA, add(CFA_XSP16, literal(-1)))
          CFI CFA_XSP16 add(XSP16, 45)
          CFI Block cfiCond21 Using cfiCommon0
          CFI (cfiCond21) Function shell_tab
          CFI (cfiCond21) Conditional ??CrossCallReturnLabel_65
          CFI (cfiCond21) R6 load(1, XDATA, add(CFA_XSP16, literal(-15)))
          CFI (cfiCond21) VB load(1, XDATA, add(CFA_XSP16, literal(-14)))
          CFI (cfiCond21) V0 load(1, XDATA, add(CFA_XSP16, literal(-13)))
          CFI (cfiCond21) V1 load(1, XDATA, add(CFA_XSP16, literal(-12)))
          CFI (cfiCond21) V2 load(1, XDATA, add(CFA_XSP16, literal(-11)))
          CFI (cfiCond21) V3 load(1, XDATA, add(CFA_XSP16, literal(-10)))
          CFI (cfiCond21) V4 load(1, XDATA, add(CFA_XSP16, literal(-9)))
          CFI (cfiCond21) V5 load(1, XDATA, add(CFA_XSP16, literal(-8)))
          CFI (cfiCond21) V6 load(1, XDATA, add(CFA_XSP16, literal(-7)))
          CFI (cfiCond21) V7 load(1, XDATA, add(CFA_XSP16, literal(-6)))
          CFI (cfiCond21) R7 load(1, XDATA, add(CFA_XSP16, literal(-5)))
          CFI (cfiCond21) ?RET_LOW load(1, XDATA, add(CFA_XSP16, literal(-4)))
          CFI (cfiCond21) ?RET_HIGH load(1, XDATA, add(CFA_XSP16, literal(-3)))
          CFI (cfiCond21) DPL0 load(1, XDATA, add(CFA_XSP16, literal(-2)))
          CFI (cfiCond21) DPH0 load(1, XDATA, add(CFA_XSP16, literal(-1)))
          CFI (cfiCond21) CFA_XSP16 add(XSP16, 45)
          CFI Block cfiPicker22 Using cfiCommon1
          CFI (cfiPicker22) NoFunction
          CFI (cfiPicker22) Picker
        MOV     A,DPL
        ADD     A,R0
        MOV     DPL,A
        MOV     A,DPH
        ADDC    A,R1
        MOV     DPH,A
        RET
          CFI EndBlock cfiCond20
          CFI EndBlock cfiCond21
          CFI EndBlock cfiPicker22

        RSEG NEAR_CODE:CODE:NOROOT(0)
?Subroutine33:
          CFI Block cfiCond23 Using cfiCommon0
          CFI Function shell_tab
          CFI Conditional ??CrossCallReturnLabel_55
          CFI R6 load(1, XDATA, add(CFA_XSP16, literal(-15)))
          CFI VB load(1, XDATA, add(CFA_XSP16, literal(-14)))
          CFI V0 load(1, XDATA, add(CFA_XSP16, literal(-13)))
          CFI V1 load(1, XDATA, add(CFA_XSP16, literal(-12)))
          CFI V2 load(1, XDATA, add(CFA_XSP16, literal(-11)))
          CFI V3 load(1, XDATA, add(CFA_XSP16, literal(-10)))
          CFI V4 load(1, XDATA, add(CFA_XSP16, literal(-9)))
          CFI V5 load(1, XDATA, add(CFA_XSP16, literal(-8)))
          CFI V6 load(1, XDATA, add(CFA_XSP16, literal(-7)))
          CFI V7 load(1, XDATA, add(CFA_XSP16, literal(-6)))
          CFI R7 load(1, XDATA, add(CFA_XSP16, literal(-5)))
          CFI ?RET_LOW load(1, XDATA, add(CFA_XSP16, literal(-4)))
          CFI ?RET_HIGH load(1, XDATA, add(CFA_XSP16, literal(-3)))
          CFI DPL0 load(1, XDATA, add(CFA_XSP16, literal(-2)))
          CFI DPH0 load(1, XDATA, add(CFA_XSP16, literal(-1)))
          CFI CFA_XSP16 add(XSP16, 45)
          CFI Block cfiCond24 Using cfiCommon0
          CFI (cfiCond24) Function shell_tab
          CFI (cfiCond24) Conditional ??CrossCallReturnLabel_56
          CFI (cfiCond24) R6 load(1, XDATA, add(CFA_XSP16, literal(-15)))
          CFI (cfiCond24) VB load(1, XDATA, add(CFA_XSP16, literal(-14)))
          CFI (cfiCond24) V0 load(1, XDATA, add(CFA_XSP16, literal(-13)))
          CFI (cfiCond24) V1 load(1, XDATA, add(CFA_XSP16, literal(-12)))
          CFI (cfiCond24) V2 load(1, XDATA, add(CFA_XSP16, literal(-11)))
          CFI (cfiCond24) V3 load(1, XDATA, add(CFA_XSP16, literal(-10)))
          CFI (cfiCond24) V4 load(1, XDATA, add(CFA_XSP16, literal(-9)))
          CFI (cfiCond24) V5 load(1, XDATA, add(CFA_XSP16, literal(-8)))
          CFI (cfiCond24) V6 load(1, XDATA, add(CFA_XSP16, literal(-7)))
          CFI (cfiCond24) V7 load(1, XDATA, add(CFA_XSP16, literal(-6)))
          CFI (cfiCond24) R7 load(1, XDATA, add(CFA_XSP16, literal(-5)))
          CFI (cfiCond24) ?RET_LOW load(1, XDATA, add(CFA_XSP16, literal(-4)))
          CFI (cfiCond24) ?RET_HIGH load(1, XDATA, add(CFA_XSP16, literal(-3)))
          CFI (cfiCond24) DPL0 load(1, XDATA, add(CFA_XSP16, literal(-2)))
          CFI (cfiCond24) DPH0 load(1, XDATA, add(CFA_XSP16, literal(-1)))
          CFI (cfiCond24) CFA_XSP16 add(XSP16, 45)
          CFI Block cfiPicker25 Using cfiCommon1
          CFI (cfiPicker25) NoFunction
          CFI (cfiPicker25) Picker
        MOV     ?V5,A
        RLC     A
        SUBB    A,0xE0 /* A   */
        MOV     ?V6,A
        MOV     ?V7,A
        MOV     R0,#?V0
        MOV     R1,#?V4
        RET
          CFI EndBlock cfiCond23
          CFI EndBlock cfiCond24
          CFI EndBlock cfiPicker25

        RSEG NEAR_CODE:CODE:NOROOT(0)
?Subroutine16:
          CFI Block cfiCond26 Using cfiCommon0
          CFI Function shell_tab
          CFI Conditional ??CrossCallReturnLabel_25
          CFI R6 load(1, XDATA, add(CFA_XSP16, literal(-15)))
          CFI VB load(1, XDATA, add(CFA_XSP16, literal(-14)))
          CFI V0 load(1, XDATA, add(CFA_XSP16, literal(-13)))
          CFI V1 load(1, XDATA, add(CFA_XSP16, literal(-12)))
          CFI V2 load(1, XDATA, add(CFA_XSP16, literal(-11)))
          CFI V3 load(1, XDATA, add(CFA_XSP16, literal(-10)))
          CFI V4 load(1, XDATA, add(CFA_XSP16, literal(-9)))
          CFI V5 load(1, XDATA, add(CFA_XSP16, literal(-8)))
          CFI V6 load(1, XDATA, add(CFA_XSP16, literal(-7)))
          CFI V7 load(1, XDATA, add(CFA_XSP16, literal(-6)))
          CFI R7 load(1, XDATA, add(CFA_XSP16, literal(-5)))
          CFI ?RET_LOW load(1, XDATA, add(CFA_XSP16, literal(-4)))
          CFI ?RET_HIGH load(1, XDATA, add(CFA_XSP16, literal(-3)))
          CFI DPL0 load(1, XDATA, add(CFA_XSP16, literal(-2)))
          CFI DPH0 load(1, XDATA, add(CFA_XSP16, literal(-1)))
          CFI CFA_XSP16 add(XSP16, 45)
          CFI Block cfiCond27 Using cfiCommon0
          CFI (cfiCond27) Function shell_tab
          CFI (cfiCond27) Conditional ??CrossCallReturnLabel_26
          CFI (cfiCond27) R6 load(1, XDATA, add(CFA_XSP16, literal(-15)))
          CFI (cfiCond27) VB load(1, XDATA, add(CFA_XSP16, literal(-14)))
          CFI (cfiCond27) V0 load(1, XDATA, add(CFA_XSP16, literal(-13)))
          CFI (cfiCond27) V1 load(1, XDATA, add(CFA_XSP16, literal(-12)))
          CFI (cfiCond27) V2 load(1, XDATA, add(CFA_XSP16, literal(-11)))
          CFI (cfiCond27) V3 load(1, XDATA, add(CFA_XSP16, literal(-10)))
          CFI (cfiCond27) V4 load(1, XDATA, add(CFA_XSP16, literal(-9)))
          CFI (cfiCond27) V5 load(1, XDATA, add(CFA_XSP16, literal(-8)))
          CFI (cfiCond27) V6 load(1, XDATA, add(CFA_XSP16, literal(-7)))
          CFI (cfiCond27) V7 load(1, XDATA, add(CFA_XSP16, literal(-6)))
          CFI (cfiCond27) R7 load(1, XDATA, add(CFA_XSP16, literal(-5)))
          CFI (cfiCond27) ?RET_LOW load(1, XDATA, add(CFA_XSP16, literal(-4)))
          CFI (cfiCond27) ?RET_HIGH load(1, XDATA, add(CFA_XSP16, literal(-3)))
          CFI (cfiCond27) DPL0 load(1, XDATA, add(CFA_XSP16, literal(-2)))
          CFI (cfiCond27) DPH0 load(1, XDATA, add(CFA_XSP16, literal(-1)))
          CFI (cfiCond27) CFA_XSP16 add(XSP16, 45)
          CFI Block cfiPicker28 Using cfiCommon1
          CFI (cfiPicker28) NoFunction
          CFI (cfiPicker28) Picker
        LCALL   ?Subroutine49
??CrossCallReturnLabel_168:
        INC     DPTR
        INC     DPTR
        LCALL   ?Subroutine45
??CrossCallReturnLabel_80:
        MOVX    A,@DPTR
        RET
          CFI EndBlock cfiCond26
          CFI EndBlock cfiCond27
          CFI EndBlock cfiPicker28

        RSEG NEAR_CODE:CODE:NOROOT(0)
?Subroutine45:
          CFI Block cfiCond29 Using cfiCommon0
          CFI Function checkout
          CFI Conditional ??CrossCallReturnLabel_79
          CFI R6 load(1, XDATA, add(CFA_XSP16, literal(-15)))
          CFI VB load(1, XDATA, add(CFA_XSP16, literal(-14)))
          CFI V0 load(1, XDATA, add(CFA_XSP16, literal(-13)))
          CFI V1 load(1, XDATA, add(CFA_XSP16, literal(-12)))
          CFI V2 load(1, XDATA, add(CFA_XSP16, literal(-11)))
          CFI V3 load(1, XDATA, add(CFA_XSP16, literal(-10)))
          CFI V4 load(1, XDATA, add(CFA_XSP16, literal(-9)))
          CFI V5 load(1, XDATA, add(CFA_XSP16, literal(-8)))
          CFI V6 load(1, XDATA, add(CFA_XSP16, literal(-7)))
          CFI V7 load(1, XDATA, add(CFA_XSP16, literal(-6)))
          CFI R7 load(1, XDATA, add(CFA_XSP16, literal(-5)))
          CFI ?RET_LOW load(1, XDATA, add(CFA_XSP16, literal(-4)))
          CFI ?RET_HIGH load(1, XDATA, add(CFA_XSP16, literal(-3)))
          CFI DPL0 load(1, XDATA, add(CFA_XSP16, literal(-2)))
          CFI DPH0 load(1, XDATA, add(CFA_XSP16, literal(-1)))
          CFI CFA_XSP16 add(XSP16, 27)
          CFI Block cfiCond30 Using cfiCommon0
          CFI (cfiCond30) Function shell_tab
          CFI (cfiCond30) Conditional ??CrossCallReturnLabel_80, ??CrossCallReturnLabel_25
          CFI (cfiCond30) R6 load(1, XDATA, add(CFA_XSP16, literal(-15)))
          CFI (cfiCond30) VB load(1, XDATA, add(CFA_XSP16, literal(-14)))
          CFI (cfiCond30) V0 load(1, XDATA, add(CFA_XSP16, literal(-13)))
          CFI (cfiCond30) V1 load(1, XDATA, add(CFA_XSP16, literal(-12)))
          CFI (cfiCond30) V2 load(1, XDATA, add(CFA_XSP16, literal(-11)))
          CFI (cfiCond30) V3 load(1, XDATA, add(CFA_XSP16, literal(-10)))
          CFI (cfiCond30) V4 load(1, XDATA, add(CFA_XSP16, literal(-9)))
          CFI (cfiCond30) V5 load(1, XDATA, add(CFA_XSP16, literal(-8)))
          CFI (cfiCond30) V6 load(1, XDATA, add(CFA_XSP16, literal(-7)))
          CFI (cfiCond30) V7 load(1, XDATA, add(CFA_XSP16, literal(-6)))
          CFI (cfiCond30) R7 load(1, XDATA, add(CFA_XSP16, literal(-5)))
          CFI (cfiCond30) ?RET_LOW load(1, XDATA, add(CFA_XSP16, literal(-4)))
          CFI (cfiCond30) ?RET_HIGH load(1, XDATA, add(CFA_XSP16, literal(-3)))
          CFI (cfiCond30) DPL0 load(1, XDATA, add(CFA_XSP16, literal(-2)))
          CFI (cfiCond30) DPH0 load(1, XDATA, add(CFA_XSP16, literal(-1)))
          CFI (cfiCond30) CFA_SP SP+-4
          CFI (cfiCond30) CFA_XSP16 add(XSP16, 45)
          CFI Block cfiCond31 Using cfiCommon0
          CFI (cfiCond31) Function shell_tab
          CFI (cfiCond31) Conditional ??CrossCallReturnLabel_80, ??CrossCallReturnLabel_26
          CFI (cfiCond31) R6 load(1, XDATA, add(CFA_XSP16, literal(-15)))
          CFI (cfiCond31) VB load(1, XDATA, add(CFA_XSP16, literal(-14)))
          CFI (cfiCond31) V0 load(1, XDATA, add(CFA_XSP16, literal(-13)))
          CFI (cfiCond31) V1 load(1, XDATA, add(CFA_XSP16, literal(-12)))
          CFI (cfiCond31) V2 load(1, XDATA, add(CFA_XSP16, literal(-11)))
          CFI (cfiCond31) V3 load(1, XDATA, add(CFA_XSP16, literal(-10)))
          CFI (cfiCond31) V4 load(1, XDATA, add(CFA_XSP16, literal(-9)))
          CFI (cfiCond31) V5 load(1, XDATA, add(CFA_XSP16, literal(-8)))
          CFI (cfiCond31) V6 load(1, XDATA, add(CFA_XSP16, literal(-7)))
          CFI (cfiCond31) V7 load(1, XDATA, add(CFA_XSP16, literal(-6)))
          CFI (cfiCond31) R7 load(1, XDATA, add(CFA_XSP16, literal(-5)))
          CFI (cfiCond31) ?RET_LOW load(1, XDATA, add(CFA_XSP16, literal(-4)))
          CFI (cfiCond31) ?RET_HIGH load(1, XDATA, add(CFA_XSP16, literal(-3)))
          CFI (cfiCond31) DPL0 load(1, XDATA, add(CFA_XSP16, literal(-2)))
          CFI (cfiCond31) DPH0 load(1, XDATA, add(CFA_XSP16, literal(-1)))
          CFI (cfiCond31) CFA_SP SP+-4
          CFI (cfiCond31) CFA_XSP16 add(XSP16, 45)
          CFI Block cfiPicker32 Using cfiCommon1
          CFI (cfiPicker32) NoFunction
          CFI (cfiPicker32) Picker
        MOVX    A,@DPTR
        ADD     A,?V4
        MOV     R0,A
        INC     DPTR
        MOVX    A,@DPTR
        ADDC    A,?V5
        MOV     DPL,R0
        MOV     DPH,A
        RET
          CFI EndBlock cfiCond29
          CFI EndBlock cfiCond30
          CFI EndBlock cfiCond31
          CFI EndBlock cfiPicker32

        RSEG NEAR_CODE:CODE:NOROOT(0)
?Subroutine12:
          CFI Block cfiCond33 Using cfiCommon0
          CFI Function checkout
          CFI Conditional ??CrossCallReturnLabel_91
          CFI R6 load(1, XDATA, add(CFA_XSP16, literal(-15)))
          CFI VB load(1, XDATA, add(CFA_XSP16, literal(-14)))
          CFI V0 load(1, XDATA, add(CFA_XSP16, literal(-13)))
          CFI V1 load(1, XDATA, add(CFA_XSP16, literal(-12)))
          CFI V2 load(1, XDATA, add(CFA_XSP16, literal(-11)))
          CFI V3 load(1, XDATA, add(CFA_XSP16, literal(-10)))
          CFI V4 load(1, XDATA, add(CFA_XSP16, literal(-9)))
          CFI V5 load(1, XDATA, add(CFA_XSP16, literal(-8)))
          CFI V6 load(1, XDATA, add(CFA_XSP16, literal(-7)))
          CFI V7 load(1, XDATA, add(CFA_XSP16, literal(-6)))
          CFI R7 load(1, XDATA, add(CFA_XSP16, literal(-5)))
          CFI ?RET_LOW load(1, XDATA, add(CFA_XSP16, literal(-4)))
          CFI ?RET_HIGH load(1, XDATA, add(CFA_XSP16, literal(-3)))
          CFI DPL0 load(1, XDATA, add(CFA_XSP16, literal(-2)))
          CFI DPH0 load(1, XDATA, add(CFA_XSP16, literal(-1)))
          CFI CFA_XSP16 add(XSP16, 27)
          CFI Block cfiCond34 Using cfiCommon0
          CFI (cfiCond34) Function shell_tab
          CFI (cfiCond34) Conditional ??CrossCallReturnLabel_92
          CFI (cfiCond34) R6 load(1, XDATA, add(CFA_XSP16, literal(-15)))
          CFI (cfiCond34) VB load(1, XDATA, add(CFA_XSP16, literal(-14)))
          CFI (cfiCond34) V0 load(1, XDATA, add(CFA_XSP16, literal(-13)))
          CFI (cfiCond34) V1 load(1, XDATA, add(CFA_XSP16, literal(-12)))
          CFI (cfiCond34) V2 load(1, XDATA, add(CFA_XSP16, literal(-11)))
          CFI (cfiCond34) V3 load(1, XDATA, add(CFA_XSP16, literal(-10)))
          CFI (cfiCond34) V4 load(1, XDATA, add(CFA_XSP16, literal(-9)))
          CFI (cfiCond34) V5 load(1, XDATA, add(CFA_XSP16, literal(-8)))
          CFI (cfiCond34) V6 load(1, XDATA, add(CFA_XSP16, literal(-7)))
          CFI (cfiCond34) V7 load(1, XDATA, add(CFA_XSP16, literal(-6)))
          CFI (cfiCond34) R7 load(1, XDATA, add(CFA_XSP16, literal(-5)))
          CFI (cfiCond34) ?RET_LOW load(1, XDATA, add(CFA_XSP16, literal(-4)))
          CFI (cfiCond34) ?RET_HIGH load(1, XDATA, add(CFA_XSP16, literal(-3)))
          CFI (cfiCond34) DPL0 load(1, XDATA, add(CFA_XSP16, literal(-2)))
          CFI (cfiCond34) DPH0 load(1, XDATA, add(CFA_XSP16, literal(-1)))
          CFI (cfiCond34) CFA_XSP16 add(XSP16, 45)
          CFI Block cfiCond35 Using cfiCommon0
          CFI (cfiCond35) Function shell_list_cmd
          CFI (cfiCond35) Conditional ??CrossCallReturnLabel_93
          CFI (cfiCond35) R6 load(1, XDATA, add(CFA_XSP16, literal(-15)))
          CFI (cfiCond35) VB load(1, XDATA, add(CFA_XSP16, literal(-14)))
          CFI (cfiCond35) V0 load(1, XDATA, add(CFA_XSP16, literal(-13)))
          CFI (cfiCond35) V1 load(1, XDATA, add(CFA_XSP16, literal(-12)))
          CFI (cfiCond35) V2 load(1, XDATA, add(CFA_XSP16, literal(-11)))
          CFI (cfiCond35) V3 load(1, XDATA, add(CFA_XSP16, literal(-10)))
          CFI (cfiCond35) V4 load(1, XDATA, add(CFA_XSP16, literal(-9)))
          CFI (cfiCond35) V5 load(1, XDATA, add(CFA_XSP16, literal(-8)))
          CFI (cfiCond35) V6 load(1, XDATA, add(CFA_XSP16, literal(-7)))
          CFI (cfiCond35) V7 load(1, XDATA, add(CFA_XSP16, literal(-6)))
          CFI (cfiCond35) R7 load(1, XDATA, add(CFA_XSP16, literal(-5)))
          CFI (cfiCond35) ?RET_LOW load(1, XDATA, add(CFA_XSP16, literal(-4)))
          CFI (cfiCond35) ?RET_HIGH load(1, XDATA, add(CFA_XSP16, literal(-3)))
          CFI (cfiCond35) DPL0 load(1, XDATA, add(CFA_XSP16, literal(-2)))
          CFI (cfiCond35) DPH0 load(1, XDATA, add(CFA_XSP16, literal(-1)))
          CFI (cfiCond35) CFA_XSP16 add(XSP16, 17)
          CFI Block cfiCond36 Using cfiCommon0
          CFI (cfiCond36) Function _shell_register
          CFI (cfiCond36) Conditional ??CrossCallReturnLabel_94
          CFI (cfiCond36) R6 load(1, XDATA, add(CFA_XSP16, literal(-15)))
          CFI (cfiCond36) VB load(1, XDATA, add(CFA_XSP16, literal(-14)))
          CFI (cfiCond36) V0 load(1, XDATA, add(CFA_XSP16, literal(-13)))
          CFI (cfiCond36) V1 load(1, XDATA, add(CFA_XSP16, literal(-12)))
          CFI (cfiCond36) V2 load(1, XDATA, add(CFA_XSP16, literal(-11)))
          CFI (cfiCond36) V3 load(1, XDATA, add(CFA_XSP16, literal(-10)))
          CFI (cfiCond36) V4 load(1, XDATA, add(CFA_XSP16, literal(-9)))
          CFI (cfiCond36) V5 load(1, XDATA, add(CFA_XSP16, literal(-8)))
          CFI (cfiCond36) V6 load(1, XDATA, add(CFA_XSP16, literal(-7)))
          CFI (cfiCond36) V7 load(1, XDATA, add(CFA_XSP16, literal(-6)))
          CFI (cfiCond36) R7 load(1, XDATA, add(CFA_XSP16, literal(-5)))
          CFI (cfiCond36) ?RET_LOW load(1, XDATA, add(CFA_XSP16, literal(-4)))
          CFI (cfiCond36) ?RET_HIGH load(1, XDATA, add(CFA_XSP16, literal(-3)))
          CFI (cfiCond36) DPL0 load(1, XDATA, add(CFA_XSP16, literal(-2)))
          CFI (cfiCond36) DPH0 load(1, XDATA, add(CFA_XSP16, literal(-1)))
          CFI (cfiCond36) CFA_XSP16 add(XSP16, 37)
          CFI Block cfiPicker37 Using cfiCommon1
          CFI (cfiPicker37) NoFunction
          CFI (cfiPicker37) Picker
        MOV     DPL,?XSP + 0
        MOV     DPH,?XSP + 1
          CFI EndBlock cfiCond33
          CFI EndBlock cfiCond34
          CFI EndBlock cfiCond35
          CFI EndBlock cfiCond36
          CFI EndBlock cfiPicker37
        REQUIRE ??Subroutine51_0
        ; // Fall through to label ??Subroutine51_0

        RSEG NEAR_CODE:CODE:NOROOT(0)
??Subroutine51_0:
          CFI Block cfiCond38 Using cfiCommon0
          CFI Function shell_parse
          CFI Conditional ??CrossCallReturnLabel_89
          CFI R6 load(1, XDATA, add(CFA_XSP16, literal(-15)))
          CFI VB load(1, XDATA, add(CFA_XSP16, literal(-14)))
          CFI V0 load(1, XDATA, add(CFA_XSP16, literal(-13)))
          CFI V1 load(1, XDATA, add(CFA_XSP16, literal(-12)))
          CFI V2 load(1, XDATA, add(CFA_XSP16, literal(-11)))
          CFI V3 load(1, XDATA, add(CFA_XSP16, literal(-10)))
          CFI V4 load(1, XDATA, add(CFA_XSP16, literal(-9)))
          CFI V5 load(1, XDATA, add(CFA_XSP16, literal(-8)))
          CFI V6 load(1, XDATA, add(CFA_XSP16, literal(-7)))
          CFI V7 load(1, XDATA, add(CFA_XSP16, literal(-6)))
          CFI R7 load(1, XDATA, add(CFA_XSP16, literal(-5)))
          CFI ?RET_LOW load(1, XDATA, add(CFA_XSP16, literal(-4)))
          CFI ?RET_HIGH load(1, XDATA, add(CFA_XSP16, literal(-3)))
          CFI DPL0 load(1, XDATA, add(CFA_XSP16, literal(-2)))
          CFI DPH0 load(1, XDATA, add(CFA_XSP16, literal(-1)))
          CFI CFA_XSP16 add(XSP16, 43)
          CFI Block cfiCond39 Using cfiCommon0
          CFI (cfiCond39) Function cmdline_strtok
          CFI (cfiCond39) Conditional ??CrossCallReturnLabel_90
          CFI (cfiCond39) R6 load(1, XDATA, add(CFA_XSP16, literal(-9)))
          CFI (cfiCond39) VB load(1, XDATA, add(CFA_XSP16, literal(-8)))
          CFI (cfiCond39) V0 load(1, XDATA, add(CFA_XSP16, literal(-7)))
          CFI (cfiCond39) V1 load(1, XDATA, add(CFA_XSP16, literal(-6)))
          CFI (cfiCond39) R7 load(1, XDATA, add(CFA_XSP16, literal(-5)))
          CFI (cfiCond39) ?RET_LOW load(1, XDATA, add(CFA_XSP16, literal(-4)))
          CFI (cfiCond39) ?RET_HIGH load(1, XDATA, add(CFA_XSP16, literal(-3)))
          CFI (cfiCond39) DPL0 load(1, XDATA, add(CFA_XSP16, literal(-2)))
          CFI (cfiCond39) DPH0 load(1, XDATA, add(CFA_XSP16, literal(-1)))
          CFI (cfiCond39) CFA_XSP16 add(XSP16, 9)
          CFI Block cfiCond40 Using cfiCommon0
          CFI (cfiCond40) Function checkout
          CFI (cfiCond40) Conditional ??CrossCallReturnLabel_91
          CFI (cfiCond40) R6 load(1, XDATA, add(CFA_XSP16, literal(-15)))
          CFI (cfiCond40) VB load(1, XDATA, add(CFA_XSP16, literal(-14)))
          CFI (cfiCond40) V0 load(1, XDATA, add(CFA_XSP16, literal(-13)))
          CFI (cfiCond40) V1 load(1, XDATA, add(CFA_XSP16, literal(-12)))
          CFI (cfiCond40) V2 load(1, XDATA, add(CFA_XSP16, literal(-11)))
          CFI (cfiCond40) V3 load(1, XDATA, add(CFA_XSP16, literal(-10)))
          CFI (cfiCond40) V4 load(1, XDATA, add(CFA_XSP16, literal(-9)))
          CFI (cfiCond40) V5 load(1, XDATA, add(CFA_XSP16, literal(-8)))
          CFI (cfiCond40) V6 load(1, XDATA, add(CFA_XSP16, literal(-7)))
          CFI (cfiCond40) V7 load(1, XDATA, add(CFA_XSP16, literal(-6)))
          CFI (cfiCond40) R7 load(1, XDATA, add(CFA_XSP16, literal(-5)))
          CFI (cfiCond40) ?RET_LOW load(1, XDATA, add(CFA_XSP16, literal(-4)))
          CFI (cfiCond40) ?RET_HIGH load(1, XDATA, add(CFA_XSP16, literal(-3)))
          CFI (cfiCond40) DPL0 load(1, XDATA, add(CFA_XSP16, literal(-2)))
          CFI (cfiCond40) DPH0 load(1, XDATA, add(CFA_XSP16, literal(-1)))
          CFI (cfiCond40) CFA_XSP16 add(XSP16, 27)
          CFI Block cfiCond41 Using cfiCommon0
          CFI (cfiCond41) Function shell_tab
          CFI (cfiCond41) Conditional ??CrossCallReturnLabel_92
          CFI (cfiCond41) R6 load(1, XDATA, add(CFA_XSP16, literal(-15)))
          CFI (cfiCond41) VB load(1, XDATA, add(CFA_XSP16, literal(-14)))
          CFI (cfiCond41) V0 load(1, XDATA, add(CFA_XSP16, literal(-13)))
          CFI (cfiCond41) V1 load(1, XDATA, add(CFA_XSP16, literal(-12)))
          CFI (cfiCond41) V2 load(1, XDATA, add(CFA_XSP16, literal(-11)))
          CFI (cfiCond41) V3 load(1, XDATA, add(CFA_XSP16, literal(-10)))
          CFI (cfiCond41) V4 load(1, XDATA, add(CFA_XSP16, literal(-9)))
          CFI (cfiCond41) V5 load(1, XDATA, add(CFA_XSP16, literal(-8)))
          CFI (cfiCond41) V6 load(1, XDATA, add(CFA_XSP16, literal(-7)))
          CFI (cfiCond41) V7 load(1, XDATA, add(CFA_XSP16, literal(-6)))
          CFI (cfiCond41) R7 load(1, XDATA, add(CFA_XSP16, literal(-5)))
          CFI (cfiCond41) ?RET_LOW load(1, XDATA, add(CFA_XSP16, literal(-4)))
          CFI (cfiCond41) ?RET_HIGH load(1, XDATA, add(CFA_XSP16, literal(-3)))
          CFI (cfiCond41) DPL0 load(1, XDATA, add(CFA_XSP16, literal(-2)))
          CFI (cfiCond41) DPH0 load(1, XDATA, add(CFA_XSP16, literal(-1)))
          CFI (cfiCond41) CFA_XSP16 add(XSP16, 45)
          CFI Block cfiCond42 Using cfiCommon0
          CFI (cfiCond42) Function shell_list_cmd
          CFI (cfiCond42) Conditional ??CrossCallReturnLabel_93
          CFI (cfiCond42) R6 load(1, XDATA, add(CFA_XSP16, literal(-15)))
          CFI (cfiCond42) VB load(1, XDATA, add(CFA_XSP16, literal(-14)))
          CFI (cfiCond42) V0 load(1, XDATA, add(CFA_XSP16, literal(-13)))
          CFI (cfiCond42) V1 load(1, XDATA, add(CFA_XSP16, literal(-12)))
          CFI (cfiCond42) V2 load(1, XDATA, add(CFA_XSP16, literal(-11)))
          CFI (cfiCond42) V3 load(1, XDATA, add(CFA_XSP16, literal(-10)))
          CFI (cfiCond42) V4 load(1, XDATA, add(CFA_XSP16, literal(-9)))
          CFI (cfiCond42) V5 load(1, XDATA, add(CFA_XSP16, literal(-8)))
          CFI (cfiCond42) V6 load(1, XDATA, add(CFA_XSP16, literal(-7)))
          CFI (cfiCond42) V7 load(1, XDATA, add(CFA_XSP16, literal(-6)))
          CFI (cfiCond42) R7 load(1, XDATA, add(CFA_XSP16, literal(-5)))
          CFI (cfiCond42) ?RET_LOW load(1, XDATA, add(CFA_XSP16, literal(-4)))
          CFI (cfiCond42) ?RET_HIGH load(1, XDATA, add(CFA_XSP16, literal(-3)))
          CFI (cfiCond42) DPL0 load(1, XDATA, add(CFA_XSP16, literal(-2)))
          CFI (cfiCond42) DPH0 load(1, XDATA, add(CFA_XSP16, literal(-1)))
          CFI (cfiCond42) CFA_XSP16 add(XSP16, 17)
          CFI Block cfiCond43 Using cfiCommon0
          CFI (cfiCond43) Function _shell_register
          CFI (cfiCond43) Conditional ??CrossCallReturnLabel_94
          CFI (cfiCond43) R6 load(1, XDATA, add(CFA_XSP16, literal(-15)))
          CFI (cfiCond43) VB load(1, XDATA, add(CFA_XSP16, literal(-14)))
          CFI (cfiCond43) V0 load(1, XDATA, add(CFA_XSP16, literal(-13)))
          CFI (cfiCond43) V1 load(1, XDATA, add(CFA_XSP16, literal(-12)))
          CFI (cfiCond43) V2 load(1, XDATA, add(CFA_XSP16, literal(-11)))
          CFI (cfiCond43) V3 load(1, XDATA, add(CFA_XSP16, literal(-10)))
          CFI (cfiCond43) V4 load(1, XDATA, add(CFA_XSP16, literal(-9)))
          CFI (cfiCond43) V5 load(1, XDATA, add(CFA_XSP16, literal(-8)))
          CFI (cfiCond43) V6 load(1, XDATA, add(CFA_XSP16, literal(-7)))
          CFI (cfiCond43) V7 load(1, XDATA, add(CFA_XSP16, literal(-6)))
          CFI (cfiCond43) R7 load(1, XDATA, add(CFA_XSP16, literal(-5)))
          CFI (cfiCond43) ?RET_LOW load(1, XDATA, add(CFA_XSP16, literal(-4)))
          CFI (cfiCond43) ?RET_HIGH load(1, XDATA, add(CFA_XSP16, literal(-3)))
          CFI (cfiCond43) DPL0 load(1, XDATA, add(CFA_XSP16, literal(-2)))
          CFI (cfiCond43) DPH0 load(1, XDATA, add(CFA_XSP16, literal(-1)))
          CFI (cfiCond43) CFA_XSP16 add(XSP16, 37)
          CFI Block cfiPicker44 Using cfiCommon1
          CFI (cfiPicker44) NoFunction
          CFI (cfiPicker44) Picker
        MOV     A,R2
        MOVX    @DPTR,A
        INC     DPTR
        MOV     A,R3
        MOVX    @DPTR,A
        RET
          CFI EndBlock cfiCond38
          CFI EndBlock cfiCond39
          CFI EndBlock cfiCond40
          CFI EndBlock cfiCond41
          CFI EndBlock cfiCond42
          CFI EndBlock cfiCond43
          CFI EndBlock cfiPicker44
//  380 
//  381 
//  382 /**
//  383   * @author   古么宁
//  384   * @brief    如果当前打印行有输入内容，回退一个键位
//  385   * @param    shellin : 输入交互
//  386   * @return   don't care
//  387 */

        RSEG NEAR_CODE:CODE:NOROOT(0)
//  388 static void shell_backspace(struct shell_input * shellin)
shell_backspace:
          CFI Block cfiBlock45 Using cfiCommon0
          CFI Function shell_backspace
        CODE
//  389 {
        REQUIRE ?V0
        REQUIRE ?V1
        REQUIRE ?V2
        REQUIRE ?V3
        REQUIRE ?V4
        REQUIRE ?V5
        REQUIRE ?V6
        REQUIRE ?V7
        MOV     A,#-0xf
        LCALL   ?FUNC_ENTER_XDATA
          CFI DPH0 load(1, XDATA, add(CFA_XSP16, literal(-1)))
          CFI DPL0 load(1, XDATA, add(CFA_XSP16, literal(-2)))
          CFI ?RET_HIGH load(1, XDATA, add(CFA_XSP16, literal(-3)))
          CFI ?RET_LOW load(1, XDATA, add(CFA_XSP16, literal(-4)))
          CFI R7 load(1, XDATA, add(CFA_XSP16, literal(-5)))
          CFI V7 load(1, XDATA, add(CFA_XSP16, literal(-6)))
          CFI V6 load(1, XDATA, add(CFA_XSP16, literal(-7)))
          CFI V5 load(1, XDATA, add(CFA_XSP16, literal(-8)))
          CFI V4 load(1, XDATA, add(CFA_XSP16, literal(-9)))
          CFI V3 load(1, XDATA, add(CFA_XSP16, literal(-10)))
          CFI V2 load(1, XDATA, add(CFA_XSP16, literal(-11)))
          CFI V1 load(1, XDATA, add(CFA_XSP16, literal(-12)))
          CFI V0 load(1, XDATA, add(CFA_XSP16, literal(-13)))
          CFI VB load(1, XDATA, add(CFA_XSP16, literal(-14)))
          CFI R6 load(1, XDATA, add(CFA_XSP16, literal(-15)))
          CFI CFA_SP SP+0
          CFI CFA_XSP16 add(XSP16, 15)
        ; Saved register size: 15
        ; Auto size: 102
        MOV     A,#-0x66
        LCALL   ?ALLOC_XSTACK8
          CFI CFA_XSP16 add(XSP16, 117)
        MOV     A,R2
        MOV     R6,A
        MOV     A,R3
        MOV     R7,A
//  390 	char   printbuf[COMMANDLINE_MAX_LEN*2]={0};//中转内存
        MOV     DPTR,#`?<Constant {0}>`
        MOV     A,#0x2
        LCALL   ?XSTACK_DISP102_8
        MOV     A,#0x64
        LCALL   ?MOVE_LONG8_XDATA_XDATA
//  391 	char * print = &printbuf[1];
        MOV     A,#0x3
        LCALL   ?XSTACK_DISP0_8
        MOV     R4,DPL
        MOV     R5,DPH
//  392 	char * printend = print + (shellin->tail - shellin->edit) + 1;
        MOV     A,R6
        ADD     A,#0x6a
        MOV     R0,A
        CLR     A
        ADDC    A,R7
        MOV     R1,A
        MOV     DPL,R0
        MOV     DPH,R1
        MOVX    A,@DPTR
        MOV     ?V0,A
        MOV     A,R6
        ADD     A,#0x6b
        MOV     ?V2,A
        CLR     A
        ADDC    A,R7
        MOV     ?V3,A
        MOV     DPL,?V2
        MOV     DPH,A
        MOVX    A,@DPTR
        CLR     C
        SUBB    A,?V0
        MOV     R2,A
        SUBB    A,0xE0 /* A   */
        MOV     R3,A
        MOV     A,#0x2
        LCALL   ?XSTACK_DISP0_8
        MOV     A,DPL
        ADD     A,R2
        MOV     R2,A
        MOV     A,DPH
        ADDC    A,R3
        MOV     R3,A
        MOV     A,R2
        ADD     A,#0x2
        MOV     R2,A
        JNC     ??shell_backspace_0
        INC     R3
//  393 	char * edit = &shellin->cmdline[shellin->edit--] ;
??shell_backspace_0:
        MOV     A,R6
        ADD     A,?V0
        MOV     ?V0,A
        CLR     A
        ADDC    A,R7
        MOV     ?V1,A
        MOV     A,?V0
        ADD     A,#0x38
        MOV     ?V0,A
        JNC     ??shell_backspace_1
        INC     ?V1
??shell_backspace_1:
        MOV     DPL,R0
        MOV     DPH,R1
        MOVX    A,@DPTR
        DEC     A
        MOVX    @DPTR,A
//  394 	char * tail = &shellin->cmdline[shellin->tail--];
        MOV     DPL,?V2
        MOV     DPH,?V3
        MOVX    A,@DPTR
        MOV     R0,A
        MOV     A,R6
        ADD     A,R0
        MOV     R0,A
        CLR     A
        ADDC    A,R7
        MOV     R1,A
        MOV     A,R0
        ADD     A,#0x38
        JNC     ??shell_backspace_2
        INC     R1
??shell_backspace_2:
        MOV     DPL,?XSP + 0
        MOV     DPH,?XSP + 1
        LCALL   ??Subroutine58_0
??CrossCallReturnLabel_117:
        MOV     DPL,?V2
        MOV     DPH,?V3
        MOVX    A,@DPTR
        DEC     A
        MOVX    @DPTR,A
//  395 
//  396 	/* 当输入过左右箭头时，需要作字符串插入左移处理，并作反馈回显
//  397 	   如 abUcd 中删除U，需要左移cd，并打印两个 '\b' 使光标回到 ab 处 */
//  398 	for (char * cp = edit - 1 ; edit < tail ; *cp++ = *edit++) {
        MOV     A,?V0
        ADD     A,#-0x1
        MOV     ?V4,A
        MOV     A,?V1
        ADDC    A,#-0x1
        MOV     ?V5,A
        SJMP    ??shell_backspace_3
//  399 		*print++ = *edit;
??shell_backspace_4:
        MOV     DPL,?V0
        MOV     DPH,?V1
        MOVX    A,@DPTR
        MOV     DPL,R4
        MOV     DPH,R5
        MOVX    @DPTR,A
        INC     DPTR
        MOV     R4,DPL
        MOV     R5,DPH
//  400 		*printend++ = '\b';
        MOV     DPL,R2
        MOV     DPH,R3
        MOV     A,#0x8
        MOVX    @DPTR,A
        MOV     A,R0
        MOV     R2,A
        MOV     A,R1
        MOV     R3,A
//  401 	}
        MOV     DPL,?V0
        MOV     DPH,?V1
        LCALL   ?Subroutine23
??CrossCallReturnLabel_36:
        MOV     DPL,?V0
        MOV     DPH,?V1
        INC     DPTR
        MOV     ?V0,DPL
        MOV     ?V1,DPH
        MOV     DPL,?V4
        MOV     DPH,?V5
        INC     DPTR
        MOV     ?V4,DPL
        MOV     ?V5,DPH
??shell_backspace_3:
        MOV     DPL,R2
        MOV     DPH,R3
        INC     DPTR
        MOV     R0,DPL
        MOV     R1,DPH
        MOV     DPL,?XSP + 0
        MOV     DPH,?XSP + 1
        MOVX    A,@DPTR
        MOV     ?V6,A
        INC     DPTR
        MOVX    A,@DPTR
        MOV     ?V7,A
        CLR     C
        MOV     A,?V0
        SUBB    A,?V6
        MOV     A,?V1
        SUBB    A,?V7
        JC      ??shell_backspace_4
//  402 
//  403 	printbuf[0] = '\b';
        MOV     A,#0x2
        LCALL   ?XSTACK_DISP0_8
        MOV     A,#0x8
        MOVX    @DPTR,A
//  404 	*print = ' ';       //覆盖最后一个字符显示
        MOV     DPL,R4
        MOV     DPH,R5
        MOV     A,#0x20
        LCALL   ?Subroutine11
//  405 	*printend++ = '\b'; //光标回显
??CrossCallReturnLabel_16:
        MOV     A,#0x8
        MOVX    @DPTR,A
        MOV     A,R0
        MOV     R2,A
        MOV     A,R1
        MOV     R3,A
//  406 
//  407 	shellin->cmdline[shellin->tail] = 0;  //末端添加字符串结束符
        MOV     DPL,?V2
        MOV     DPH,?V3
        MOVX    A,@DPTR
        MOV     R0,A
        MOV     A,R6
        ADD     A,R0
        MOV     R0,A
        CLR     A
        ADDC    A,R7
        LCALL   ?Subroutine3
//  408 	printl(printbuf,printend-printbuf);
??CrossCallReturnLabel_95:
        JZ      ??shell_backspace_5
        ; Setup parameters for indirect call
        MOV     A,#0x2
        LCALL   ?XSTACK_DISP100_8
        MOV     ?V0,R0
        MOV     ?V1,R1
        MOV     A,R2
        CLR     C
        SUBB    A,?V0
        MOV     R4,A
        MOV     A,R3
        SUBB    A,?V1
        MOV     R5,A
        MOV     A,#0x2
        LCALL   ?XSTACK_DISP101_8
        LCALL   ?Subroutine22
??CrossCallReturnLabel_155:
        LCALL   ?CALL_IND
//  409 }
??shell_backspace_5:
        MOV     A,#0x66
        SJMP    ??Subroutine53_0
          CFI EndBlock cfiBlock45

        RSEG NEAR_CODE:CODE:NOROOT(0)
?Subroutine3:
          CFI Block cfiCond46 Using cfiCommon0
          CFI Function shell_backspace
          CFI Conditional ??CrossCallReturnLabel_95
          CFI R6 load(1, XDATA, add(CFA_XSP16, literal(-15)))
          CFI VB load(1, XDATA, add(CFA_XSP16, literal(-14)))
          CFI V0 load(1, XDATA, add(CFA_XSP16, literal(-13)))
          CFI V1 load(1, XDATA, add(CFA_XSP16, literal(-12)))
          CFI V2 load(1, XDATA, add(CFA_XSP16, literal(-11)))
          CFI V3 load(1, XDATA, add(CFA_XSP16, literal(-10)))
          CFI V4 load(1, XDATA, add(CFA_XSP16, literal(-9)))
          CFI V5 load(1, XDATA, add(CFA_XSP16, literal(-8)))
          CFI V6 load(1, XDATA, add(CFA_XSP16, literal(-7)))
          CFI V7 load(1, XDATA, add(CFA_XSP16, literal(-6)))
          CFI R7 load(1, XDATA, add(CFA_XSP16, literal(-5)))
          CFI ?RET_LOW load(1, XDATA, add(CFA_XSP16, literal(-4)))
          CFI ?RET_HIGH load(1, XDATA, add(CFA_XSP16, literal(-3)))
          CFI DPL0 load(1, XDATA, add(CFA_XSP16, literal(-2)))
          CFI DPH0 load(1, XDATA, add(CFA_XSP16, literal(-1)))
          CFI CFA_XSP16 add(XSP16, 117)
          CFI Block cfiCond47 Using cfiCommon0
          CFI (cfiCond47) Function shell_getchar
          CFI (cfiCond47) Conditional ??CrossCallReturnLabel_96
          CFI (cfiCond47) R6 load(1, XDATA, add(CFA_XSP16, literal(-14)))
          CFI (cfiCond47) VB load(1, XDATA, add(CFA_XSP16, literal(-13)))
          CFI (cfiCond47) V0 load(1, XDATA, add(CFA_XSP16, literal(-12)))
          CFI (cfiCond47) V1 load(1, XDATA, add(CFA_XSP16, literal(-11)))
          CFI (cfiCond47) V2 load(1, XDATA, add(CFA_XSP16, literal(-10)))
          CFI (cfiCond47) V3 load(1, XDATA, add(CFA_XSP16, literal(-9)))
          CFI (cfiCond47) V4 load(1, XDATA, add(CFA_XSP16, literal(-8)))
          CFI (cfiCond47) V5 load(1, XDATA, add(CFA_XSP16, literal(-7)))
          CFI (cfiCond47) V6 load(1, XDATA, add(CFA_XSP16, literal(-6)))
          CFI (cfiCond47) R7 load(1, XDATA, add(CFA_XSP16, literal(-5)))
          CFI (cfiCond47) ?RET_LOW load(1, XDATA, add(CFA_XSP16, literal(-4)))
          CFI (cfiCond47) ?RET_HIGH load(1, XDATA, add(CFA_XSP16, literal(-3)))
          CFI (cfiCond47) DPL0 load(1, XDATA, add(CFA_XSP16, literal(-2)))
          CFI (cfiCond47) DPH0 load(1, XDATA, add(CFA_XSP16, literal(-1)))
          CFI (cfiCond47) CFA_XSP16 add(XSP16, 117)
          CFI Block cfiPicker48 Using cfiCommon1
          CFI (cfiPicker48) NoFunction
          CFI (cfiPicker48) Picker
        LCALL   ?Subroutine48
??CrossCallReturnLabel_83:
        CLR     A
          CFI EndBlock cfiCond46
          CFI EndBlock cfiCond47
          CFI EndBlock cfiPicker48
        REQUIRE ??Subroutine52_0
        ; // Fall through to label ??Subroutine52_0

        RSEG NEAR_CODE:CODE:NOROOT(0)
??Subroutine52_0:
          CFI Block cfiCond49 Using cfiCommon0
          CFI Function cmdline_gets
          CFI Conditional ??CrossCallReturnLabel_97
          CFI R6 load(1, XDATA, add(CFA_XSP16, literal(-15)))
          CFI VB load(1, XDATA, add(CFA_XSP16, literal(-14)))
          CFI V0 load(1, XDATA, add(CFA_XSP16, literal(-13)))
          CFI V1 load(1, XDATA, add(CFA_XSP16, literal(-12)))
          CFI V2 load(1, XDATA, add(CFA_XSP16, literal(-11)))
          CFI V3 load(1, XDATA, add(CFA_XSP16, literal(-10)))
          CFI V4 load(1, XDATA, add(CFA_XSP16, literal(-9)))
          CFI V5 load(1, XDATA, add(CFA_XSP16, literal(-8)))
          CFI V6 load(1, XDATA, add(CFA_XSP16, literal(-7)))
          CFI V7 load(1, XDATA, add(CFA_XSP16, literal(-6)))
          CFI R7 load(1, XDATA, add(CFA_XSP16, literal(-5)))
          CFI ?RET_LOW load(1, XDATA, add(CFA_XSP16, literal(-4)))
          CFI ?RET_HIGH load(1, XDATA, add(CFA_XSP16, literal(-3)))
          CFI DPL0 load(1, XDATA, add(CFA_XSP16, literal(-2)))
          CFI DPH0 load(1, XDATA, add(CFA_XSP16, literal(-1)))
          CFI CFA_XSP16 add(XSP16, 19)
          CFI Block cfiCond50 Using cfiCommon0
          CFI (cfiCond50) Function confirm_gets
          CFI (cfiCond50) Conditional ??CrossCallReturnLabel_98
          CFI (cfiCond50) R6 load(1, XDATA, add(CFA_XSP16, literal(-13)))
          CFI (cfiCond50) VB load(1, XDATA, add(CFA_XSP16, literal(-12)))
          CFI (cfiCond50) V0 load(1, XDATA, add(CFA_XSP16, literal(-11)))
          CFI (cfiCond50) V1 load(1, XDATA, add(CFA_XSP16, literal(-10)))
          CFI (cfiCond50) V2 load(1, XDATA, add(CFA_XSP16, literal(-9)))
          CFI (cfiCond50) V3 load(1, XDATA, add(CFA_XSP16, literal(-8)))
          CFI (cfiCond50) V4 load(1, XDATA, add(CFA_XSP16, literal(-7)))
          CFI (cfiCond50) V5 load(1, XDATA, add(CFA_XSP16, literal(-6)))
          CFI (cfiCond50) R7 load(1, XDATA, add(CFA_XSP16, literal(-5)))
          CFI (cfiCond50) ?RET_LOW load(1, XDATA, add(CFA_XSP16, literal(-4)))
          CFI (cfiCond50) ?RET_HIGH load(1, XDATA, add(CFA_XSP16, literal(-3)))
          CFI (cfiCond50) DPL0 load(1, XDATA, add(CFA_XSP16, literal(-2)))
          CFI (cfiCond50) DPH0 load(1, XDATA, add(CFA_XSP16, literal(-1)))
          CFI (cfiCond50) CFA_XSP16 add(XSP16, 15)
          CFI Block cfiCond51 Using cfiCommon0
          CFI (cfiCond51) Function confirm_gets
          CFI (cfiCond51) Conditional ??CrossCallReturnLabel_99
          CFI (cfiCond51) R6 load(1, XDATA, add(CFA_XSP16, literal(-13)))
          CFI (cfiCond51) VB load(1, XDATA, add(CFA_XSP16, literal(-12)))
          CFI (cfiCond51) V0 load(1, XDATA, add(CFA_XSP16, literal(-11)))
          CFI (cfiCond51) V1 load(1, XDATA, add(CFA_XSP16, literal(-10)))
          CFI (cfiCond51) V2 load(1, XDATA, add(CFA_XSP16, literal(-9)))
          CFI (cfiCond51) V3 load(1, XDATA, add(CFA_XSP16, literal(-8)))
          CFI (cfiCond51) V4 load(1, XDATA, add(CFA_XSP16, literal(-7)))
          CFI (cfiCond51) V5 load(1, XDATA, add(CFA_XSP16, literal(-6)))
          CFI (cfiCond51) R7 load(1, XDATA, add(CFA_XSP16, literal(-5)))
          CFI (cfiCond51) ?RET_LOW load(1, XDATA, add(CFA_XSP16, literal(-4)))
          CFI (cfiCond51) ?RET_HIGH load(1, XDATA, add(CFA_XSP16, literal(-3)))
          CFI (cfiCond51) DPL0 load(1, XDATA, add(CFA_XSP16, literal(-2)))
          CFI (cfiCond51) DPH0 load(1, XDATA, add(CFA_XSP16, literal(-1)))
          CFI (cfiCond51) CFA_XSP16 add(XSP16, 15)
          CFI Block cfiCond52 Using cfiCommon0
          CFI (cfiCond52) Function shell_backspace
          CFI (cfiCond52) Conditional ??CrossCallReturnLabel_95
          CFI (cfiCond52) R6 load(1, XDATA, add(CFA_XSP16, literal(-15)))
          CFI (cfiCond52) VB load(1, XDATA, add(CFA_XSP16, literal(-14)))
          CFI (cfiCond52) V0 load(1, XDATA, add(CFA_XSP16, literal(-13)))
          CFI (cfiCond52) V1 load(1, XDATA, add(CFA_XSP16, literal(-12)))
          CFI (cfiCond52) V2 load(1, XDATA, add(CFA_XSP16, literal(-11)))
          CFI (cfiCond52) V3 load(1, XDATA, add(CFA_XSP16, literal(-10)))
          CFI (cfiCond52) V4 load(1, XDATA, add(CFA_XSP16, literal(-9)))
          CFI (cfiCond52) V5 load(1, XDATA, add(CFA_XSP16, literal(-8)))
          CFI (cfiCond52) V6 load(1, XDATA, add(CFA_XSP16, literal(-7)))
          CFI (cfiCond52) V7 load(1, XDATA, add(CFA_XSP16, literal(-6)))
          CFI (cfiCond52) R7 load(1, XDATA, add(CFA_XSP16, literal(-5)))
          CFI (cfiCond52) ?RET_LOW load(1, XDATA, add(CFA_XSP16, literal(-4)))
          CFI (cfiCond52) ?RET_HIGH load(1, XDATA, add(CFA_XSP16, literal(-3)))
          CFI (cfiCond52) DPL0 load(1, XDATA, add(CFA_XSP16, literal(-2)))
          CFI (cfiCond52) DPH0 load(1, XDATA, add(CFA_XSP16, literal(-1)))
          CFI (cfiCond52) CFA_XSP16 add(XSP16, 117)
          CFI Block cfiCond53 Using cfiCommon0
          CFI (cfiCond53) Function shell_getchar
          CFI (cfiCond53) Conditional ??CrossCallReturnLabel_96
          CFI (cfiCond53) R6 load(1, XDATA, add(CFA_XSP16, literal(-14)))
          CFI (cfiCond53) VB load(1, XDATA, add(CFA_XSP16, literal(-13)))
          CFI (cfiCond53) V0 load(1, XDATA, add(CFA_XSP16, literal(-12)))
          CFI (cfiCond53) V1 load(1, XDATA, add(CFA_XSP16, literal(-11)))
          CFI (cfiCond53) V2 load(1, XDATA, add(CFA_XSP16, literal(-10)))
          CFI (cfiCond53) V3 load(1, XDATA, add(CFA_XSP16, literal(-9)))
          CFI (cfiCond53) V4 load(1, XDATA, add(CFA_XSP16, literal(-8)))
          CFI (cfiCond53) V5 load(1, XDATA, add(CFA_XSP16, literal(-7)))
          CFI (cfiCond53) V6 load(1, XDATA, add(CFA_XSP16, literal(-6)))
          CFI (cfiCond53) R7 load(1, XDATA, add(CFA_XSP16, literal(-5)))
          CFI (cfiCond53) ?RET_LOW load(1, XDATA, add(CFA_XSP16, literal(-4)))
          CFI (cfiCond53) ?RET_HIGH load(1, XDATA, add(CFA_XSP16, literal(-3)))
          CFI (cfiCond53) DPL0 load(1, XDATA, add(CFA_XSP16, literal(-2)))
          CFI (cfiCond53) DPH0 load(1, XDATA, add(CFA_XSP16, literal(-1)))
          CFI (cfiCond53) CFA_XSP16 add(XSP16, 117)
          CFI Block cfiPicker54 Using cfiCommon1
          CFI (cfiPicker54) NoFunction
          CFI (cfiPicker54) Picker
        MOVX    @DPTR,A
        LCALL   ?Subroutine46
??CrossCallReturnLabel_159:
        MOV     A,R0
        ORL     A,R1
        RET
          CFI EndBlock cfiCond49
          CFI EndBlock cfiCond50
          CFI EndBlock cfiCond51
          CFI EndBlock cfiCond52
          CFI EndBlock cfiCond53
          CFI EndBlock cfiPicker54

        RSEG XDATA_I:XDATA:NOROOT(0)
        DATA8
??consolologo:
        DS 351
        REQUIRE `?<Initializer for consolologo>`
        REQUIRE __INIT_XDATA_I

        RSEG XDATA_I:XDATA:NOROOT(0)
        DATA32
__Constant_1:
        DS 4
        REQUIRE `?<Initializer for __Constant_1>`
        REQUIRE __INIT_XDATA_I

        RSEG XDATA_I:XDATA:NOROOT(0)
        DATA32
__Constant_ffffffff:
        DS 4
        REQUIRE `?<Initializer for __Constant_ffffffff>`
        REQUIRE __INIT_XDATA_I

        RSEG XDATA_I:XDATA:NOROOT(0)
        DATA32
__Constant_a:
        DS 4
        REQUIRE `?<Initializer for __Constant_a>`
        REQUIRE __INIT_XDATA_I

        RSEG XDATA_I:XDATA:NOROOT(0)
        DATA32
__Constant_3ffffff:
        DS 4
        REQUIRE `?<Initializer for __Constant_3ffffff>`
        REQUIRE __INIT_XDATA_I

        RSEG XDATA_I:XDATA:NOROOT(0)
        DATA32
__Constant_fc000000:
        DS 4
        REQUIRE `?<Initializer for __Constant_fc000000>`
        REQUIRE __INIT_XDATA_I

        RSEG XDATA_I:XDATA:NOROOT(0)
        DATA32
__Constant_3e00000:
        DS 4
        REQUIRE `?<Initializer for __Constant_3e00000>`
        REQUIRE __INIT_XDATA_I

        RSEG XDATA_I:XDATA:NOROOT(0)
        DATA32
__Constant_1f0000:
        DS 4
        REQUIRE `?<Initializer for __Constant_1f0000>`
        REQUIRE __INIT_XDATA_I

        RSEG XDATA_I:XDATA:NOROOT(0)
        DATA32
__Constant_ff00:
        DS 4
        REQUIRE `?<Initializer for __Constant_ff00>`
        REQUIRE __INIT_XDATA_I

        RSEG XDATA_I:XDATA:NOROOT(0)
        DATA32
__Constant_ff:
        DS 4
        REQUIRE `?<Initializer for __Constant_ff>`
        REQUIRE __INIT_XDATA_I

        RSEG XDATA_I:XDATA:NOROOT(0)
        DATA32
__Constant_87654321:
        DS 4
        REQUIRE `?<Initializer for __Constant_87654321>`
        REQUIRE __INIT_XDATA_I

        RSEG XDATA_I:XDATA:NOROOT(0)
        DATA32
__Constant_0:
        DS 4
        REQUIRE `?<Initializer for __Constant_0>`
        REQUIRE __INIT_XDATA_I

        RSEG XDATA_I:XDATA:NOROOT(0)
        DATA32
__Constant_3e0ffff:
        DS 4
        REQUIRE `?<Initializer for __Constant_3e0ffff>`
        REQUIRE __INIT_XDATA_I

        RSEG XDATA_I:XDATA:NOROOT(0)
        DATA32
__Constant_abcd4322:
        DS 4
        REQUIRE `?<Initializer for __Constant_abcd4322>`
        REQUIRE __INIT_XDATA_I

        RSEG XDATA_I:XDATA:NOROOT(0)
        DATA32
__Constant_fffffff0:
        DS 4
        REQUIRE `?<Initializer for __Constant_fffffff0>`
        REQUIRE __INIT_XDATA_I

        RSEG XDATA_I:XDATA:NOROOT(0)
        DATA32
__Constant_abcd4320:
        DS 4
        REQUIRE `?<Initializer for __Constant_abcd4320>`
        REQUIRE __INIT_XDATA_I

        RSEG XDATA_I:XDATA:NOROOT(0)
        DATA32
__Constant_abcd4321:
        DS 4
        REQUIRE `?<Initializer for __Constant_abcd4321>`
        REQUIRE __INIT_XDATA_I

        RSEG NEAR_CODE:CODE:NOROOT(0)
?Subroutine0:
          CFI Block cfiBlock55 Using cfiCommon0
          CFI NoFunction
          CFI CFA_SP SP+0
          CFI CFA_XSP16 add(XSP16, 19)
          CFI VB load(1, XDATA, add(CFA_XSP16, literal(-14)))
          CFI DPL0 load(1, XDATA, add(CFA_XSP16, literal(-2)))
          CFI DPH0 load(1, XDATA, add(CFA_XSP16, literal(-1)))
          CFI R6 load(1, XDATA, add(CFA_XSP16, literal(-15)))
          CFI R7 load(1, XDATA, add(CFA_XSP16, literal(-5)))
          CFI V0 load(1, XDATA, add(CFA_XSP16, literal(-13)))
          CFI V1 load(1, XDATA, add(CFA_XSP16, literal(-12)))
          CFI V2 load(1, XDATA, add(CFA_XSP16, literal(-11)))
          CFI V3 load(1, XDATA, add(CFA_XSP16, literal(-10)))
          CFI V4 load(1, XDATA, add(CFA_XSP16, literal(-9)))
          CFI V5 load(1, XDATA, add(CFA_XSP16, literal(-8)))
          CFI V6 load(1, XDATA, add(CFA_XSP16, literal(-7)))
          CFI V7 load(1, XDATA, add(CFA_XSP16, literal(-6)))
          CFI ?RET_HIGH load(1, XDATA, add(CFA_XSP16, literal(-3)))
          CFI ?RET_LOW load(1, XDATA, add(CFA_XSP16, literal(-4)))
        MOV     A,#0x4
          CFI EndBlock cfiBlock55
        REQUIRE ??Subroutine53_0
        ; // Fall through to label ??Subroutine53_0

        RSEG NEAR_CODE:CODE:NOROOT(0)
??Subroutine53_0:
          CFI Block cfiBlock56 Using cfiCommon0
          CFI NoFunction
          CFI CFA_SP SP+0
          CFI CFA_XSP16 add(XSP16, 27)
          CFI VB load(1, XDATA, add(CFA_XSP16, literal(-14)))
          CFI DPL0 load(1, XDATA, add(CFA_XSP16, literal(-2)))
          CFI DPH0 load(1, XDATA, add(CFA_XSP16, literal(-1)))
          CFI R6 load(1, XDATA, add(CFA_XSP16, literal(-15)))
          CFI R7 load(1, XDATA, add(CFA_XSP16, literal(-5)))
          CFI V0 load(1, XDATA, add(CFA_XSP16, literal(-13)))
          CFI V1 load(1, XDATA, add(CFA_XSP16, literal(-12)))
          CFI V2 load(1, XDATA, add(CFA_XSP16, literal(-11)))
          CFI V3 load(1, XDATA, add(CFA_XSP16, literal(-10)))
          CFI V4 load(1, XDATA, add(CFA_XSP16, literal(-9)))
          CFI V5 load(1, XDATA, add(CFA_XSP16, literal(-8)))
          CFI V6 load(1, XDATA, add(CFA_XSP16, literal(-7)))
          CFI V7 load(1, XDATA, add(CFA_XSP16, literal(-6)))
          CFI ?RET_HIGH load(1, XDATA, add(CFA_XSP16, literal(-3)))
          CFI ?RET_LOW load(1, XDATA, add(CFA_XSP16, literal(-4)))
          CFI Invalid
        LCALL   ?DEALLOC_XSTACK8
          CFI CFA_XSP16 add(XSP16, 15)
          CFI Valid
        MOV     R7,#0x8
        LJMP    ?FUNC_LEAVE_XDATA
          CFI EndBlock cfiBlock56
//  410 
//  411 /**
//  412   * @author   古么宁
//  413   * @brief    命令行记录输入一个字符
//  414   * @param    shellin : 输入交互
//  415   * @param    ascii   : 键盘输入字符
//  416   * @return   don't care
//  417 */

        RSEG NEAR_CODE:CODE:NOROOT(0)
//  418 static void shell_getchar(struct shell_input * shellin , char ascii)
shell_getchar:
          CFI Block cfiBlock57 Using cfiCommon0
          CFI Function shell_getchar
        CODE
//  419 {
        REQUIRE ?V0
        REQUIRE ?V1
        REQUIRE ?V2
        REQUIRE ?V3
        REQUIRE ?V4
        REQUIRE ?V5
        REQUIRE ?V6
        MOV     A,#-0xe
        LCALL   ?FUNC_ENTER_XDATA
          CFI DPH0 load(1, XDATA, add(CFA_XSP16, literal(-1)))
          CFI DPL0 load(1, XDATA, add(CFA_XSP16, literal(-2)))
          CFI ?RET_HIGH load(1, XDATA, add(CFA_XSP16, literal(-3)))
          CFI ?RET_LOW load(1, XDATA, add(CFA_XSP16, literal(-4)))
          CFI R7 load(1, XDATA, add(CFA_XSP16, literal(-5)))
          CFI V6 load(1, XDATA, add(CFA_XSP16, literal(-6)))
          CFI V5 load(1, XDATA, add(CFA_XSP16, literal(-7)))
          CFI V4 load(1, XDATA, add(CFA_XSP16, literal(-8)))
          CFI V3 load(1, XDATA, add(CFA_XSP16, literal(-9)))
          CFI V2 load(1, XDATA, add(CFA_XSP16, literal(-10)))
          CFI V1 load(1, XDATA, add(CFA_XSP16, literal(-11)))
          CFI V0 load(1, XDATA, add(CFA_XSP16, literal(-12)))
          CFI VB load(1, XDATA, add(CFA_XSP16, literal(-13)))
          CFI R6 load(1, XDATA, add(CFA_XSP16, literal(-14)))
          CFI CFA_SP SP+0
          CFI CFA_XSP16 add(XSP16, 14)
        ; Saved register size: 14
        ; Auto size: 103
        MOV     A,#-0x67
        LCALL   ?ALLOC_XSTACK8
          CFI CFA_XSP16 add(XSP16, 117)
        MOV     A,R1
        MOV     DPL,?XSP + 0
        MOV     DPH,?XSP + 1
        MOVX    @DPTR,A
//  420 	if (shellin->tail + 1 >= COMMANDLINE_MAX_LEN){
        MOV     A,R2
        ADD     A,#0x6b
        MOV     ?V0,A
        CLR     A
        ADDC    A,R3
        MOV     ?V1,A
        MOV     DPL,?V0
        MOV     DPH,A
        MOVX    A,@DPTR
        MOV     R5,A
        MOV     R1,#0x0
        ADD     A,#0x1
        JNC     ??shell_getchar_0
        INC     R1
??shell_getchar_0:
        CLR     C
        SUBB    A,#0x32
        MOV     A,R1
        SUBB    A,#0x0
        MOV     C,0xD0 /* PSW */.2
        XRL     A,PSW
        RLC     A
        JC      $+5
        LJMP    ??shell_getchar_1
//  421 		return ;
//  422 	}
//  423 
//  424 	if (shellin->tail == shellin->edit) {
        MOV     A,R2
        ADD     A,#0x6a
        MOV     R0,A
        CLR     A
        ADDC    A,R3
        MOV     R1,A
        MOV     DPL,R0
        MOV     DPH,R1
        MOVX    A,@DPTR
        MOV     R4,A
        XRL     A,R5
        JNZ     ??shell_getchar_2
//  425 		shellin->cmdline[shellin->edit++] = ascii;
        MOV     DPL,?XSP + 0
        MOV     DPH,?XSP + 1
        MOVX    A,@DPTR
        PUSH    A
          CFI CFA_SP SP+-1
        LCALL   ?Subroutine41
??CrossCallReturnLabel_74:
        MOV     DPL,A
        CLR     A
        ADDC    A,R5
        MOV     DPH,A
        POP     A
          CFI CFA_SP SP+0
        LCALL   ?Subroutine14
??CrossCallReturnLabel_23:
        INC     A
        LCALL   ?Subroutine13
//  426 		shellin->cmdline[++shellin->tail] = 0;
??CrossCallReturnLabel_20:
        INC     A
        MOVX    @DPTR,A
        MOV     R0,A
        MOV     A,R2
        ADD     A,R0
        MOV     R0,A
        CLR     A
        ADDC    A,R3
        LCALL   ?Subroutine3
//  427 		printl(&ascii,1);
??CrossCallReturnLabel_96:
        JNZ     $+5
        LJMP    ??shell_getchar_1
        ; Setup parameters for indirect call
        MOV     R4,#0x1
        MOV     R5,#0x0
        MOV     R2,?XSP + 0
        MOV     R3,?XSP + 1
        LJMP    ??shell_getchar_3
//  428 	}
//  429 	else {
//  430 		/* 其实 else 分支完全可以处理 tail == edit 的情况 */
//  431 		char  printbuf[COMMANDLINE_MAX_LEN*2]={0};
??shell_getchar_2:
        MOV     DPTR,#`?<Constant {0}>_1`
        MOV     A,#0x3
        LCALL   ?XSTACK_DISP102_8
        MOV     A,#0x64
        LCALL   ?MOVE_LONG8_XDATA_XDATA
//  432 		char *tail = &shellin->cmdline[shellin->tail++];
        MOV     DPL,?V0
        MOV     DPH,?V1
        MOVX    A,@DPTR
        MOV     R4,A
        LCALL   ?Subroutine41
??CrossCallReturnLabel_75:
        MOV     R4,A
        JNC     ??shell_getchar_4
        INC     R5
??shell_getchar_4:
        MOVX    A,@DPTR
        INC     A
        LCALL   ?Subroutine14
//  433 		char *edit = &shellin->cmdline[shellin->edit++];
??CrossCallReturnLabel_22:
        MOV     R6,A
        MOV     A,R2
        ADD     A,R6
        MOV     R6,A
        CLR     A
        ADDC    A,R3
        MOV     R7,A
        MOV     A,R6
        ADD     A,#0x38
        MOV     R6,A
        JNC     ??shell_getchar_5
        INC     R7
??shell_getchar_5:
        MOV     A,#0x1
        LCALL   ?XSTACK_DISP0_8
        MOV     A,R6
        MOVX    @DPTR,A
        INC     DPTR
        MOV     A,R7
        LCALL   ?Subroutine14
??CrossCallReturnLabel_24:
        INC     A
        MOVX    @DPTR,A
//  434 		char *print = printbuf + (tail - edit);
        MOV     A,#0x1
        LCALL   ?XSTACK_DISP0_8
        LCALL   ??Subroutine54_0
??CrossCallReturnLabel_101:
        MOV     A,R4
        CLR     C
        SUBB    A,R6
        MOV     R0,A
        MOV     A,R5
        SUBB    A,R7
        MOV     R1,A
        MOV     A,#0x3
        LCALL   ?XSTACK_DISP0_8
        MOV     A,DPL
        ADD     A,R0
        MOV     ?V4,A
        MOV     A,DPH
        ADDC    A,R1
        MOV     ?V5,A
//  435 		char *printend = print + 1;
        MOV     DPL,?V4
        MOV     DPH,A
        INC     DPTR
        MOV     R0,DPL
        MOV     R1,DPH
//  436 
//  437 		/* 当输入过左右箭头时，需要作字符串插入右移处理，并作反馈回显
//  438 		   如 abcd 中在bc插入U，需要右移cd，并打印两个 '\b' 使光标回到 abU 处 */
//  439 		for (char *cp = tail - 1; cp >= edit ; *tail-- = *cp--) {
        MOV     A,R4
        ADD     A,#-0x1
        MOV     ?V2,A
        MOV     A,R5
        ADDC    A,#-0x1
        MOV     ?V3,A
        SJMP    ??shell_getchar_6
//  440 			*print-- = *cp;
??shell_getchar_7:
        MOV     DPL,?V2
        MOV     DPH,?V3
        LCALL   ?Subroutine23
??CrossCallReturnLabel_37:
        MOV     A,?V4
        ADD     A,#-0x1
        MOV     ?V4,A
        MOV     A,?V5
        ADDC    A,#-0x1
        MOV     ?V5,A
//  441 			*printend++ = '\b';
        MOV     DPL,R0
        MOV     DPH,R1
        MOV     A,#0x8
        MOVX    @DPTR,A
        INC     DPTR
        MOV     R0,DPL
        MOV     R1,DPH
//  442 		}
        MOV     DPL,?V2
        MOV     DPH,?V3
        MOVX    A,@DPTR
        MOV     DPL,R4
        MOV     DPH,R5
        MOVX    @DPTR,A
        MOV     A,?V2
        ADD     A,#-0x1
        MOV     ?V2,A
        MOV     A,?V3
        ADDC    A,#-0x1
        MOV     ?V3,A
        MOV     A,R4
        ADD     A,#-0x1
        DEC     R4
        MOV     A,R5
        ADDC    A,#-0x1
        MOV     R5,A
??shell_getchar_6:
        CLR     C
        MOV     A,?V2
        SUBB    A,R6
        MOV     A,?V3
        SUBB    A,R7
        JNC     ??shell_getchar_7
//  443 
//  444 		/* 插入字符 */
//  445 		*print = ascii; 
        MOV     DPL,?XSP + 0
        MOV     DPH,?XSP + 1
        LCALL   ?Subroutine23
//  446 		*edit  = ascii;
??CrossCallReturnLabel_38:
        MOV     DPL,?XSP + 0
        MOV     DPH,?XSP + 1
        MOVX    A,@DPTR
        PUSH    A
          CFI CFA_SP SP+-1
        MOV     A,#0x1
        LCALL   ?XSTACK_DISP0_8
        LCALL   ?Subroutine30
??CrossCallReturnLabel_49:
        POP     A
          CFI CFA_SP SP+0
        LCALL   ?Subroutine13
//  447 		shellin->cmdline[shellin->tail] = 0 ;
??CrossCallReturnLabel_21:
        MOV     R4,A
        MOV     A,R2
        ADD     A,R4
        MOV     R2,A
        CLR     A
        ADDC    A,R3
        MOV     R3,A
        MOV     A,R2
        ADD     A,#0x38
        LCALL   ?Subroutine40
//  448 		printl(printbuf,printend - printbuf);
??CrossCallReturnLabel_70:
        MOV     DPTR,#current_puts
        LCALL   ??Subroutine55_0
??CrossCallReturnLabel_107:
        MOV     A,R2
        ORL     A,R3
        JZ      ??shell_getchar_1
        ; Setup parameters for indirect call
        MOV     A,#0x3
        LCALL   ?XSTACK_DISP101_8
        MOV     ?V0,R2
        MOV     ?V1,R3
        MOV     A,R0
        CLR     C
        SUBB    A,?V0
        MOV     R4,A
        MOV     A,R1
        SUBB    A,?V1
        MOV     R5,A
        MOV     DPTR,#current_puts
        MOVX    A,@DPTR
        MOV     R0,A
        INC     DPTR
//  449 	}
??shell_getchar_3:
        LCALL   ??Subroutine65_0
??CrossCallReturnLabel_143:
        LCALL   ?CALL_IND
//  450 }
??shell_getchar_1:
        MOV     A,#0x67
        LCALL   ?DEALLOC_XSTACK8
          CFI CFA_XSP16 add(XSP16, 14)
        LJMP    ?Subroutine1
          CFI EndBlock cfiBlock57

        RSEG NEAR_CODE:CODE:NOROOT(0)
?Subroutine41:
          CFI Block cfiCond58 Using cfiCommon0
          CFI Function shell_getchar
          CFI Conditional ??CrossCallReturnLabel_74
          CFI R6 load(1, XDATA, add(CFA_XSP16, literal(-14)))
          CFI VB load(1, XDATA, add(CFA_XSP16, literal(-13)))
          CFI V0 load(1, XDATA, add(CFA_XSP16, literal(-12)))
          CFI V1 load(1, XDATA, add(CFA_XSP16, literal(-11)))
          CFI V2 load(1, XDATA, add(CFA_XSP16, literal(-10)))
          CFI V3 load(1, XDATA, add(CFA_XSP16, literal(-9)))
          CFI V4 load(1, XDATA, add(CFA_XSP16, literal(-8)))
          CFI V5 load(1, XDATA, add(CFA_XSP16, literal(-7)))
          CFI V6 load(1, XDATA, add(CFA_XSP16, literal(-6)))
          CFI R7 load(1, XDATA, add(CFA_XSP16, literal(-5)))
          CFI ?RET_LOW load(1, XDATA, add(CFA_XSP16, literal(-4)))
          CFI ?RET_HIGH load(1, XDATA, add(CFA_XSP16, literal(-3)))
          CFI DPL0 load(1, XDATA, add(CFA_XSP16, literal(-2)))
          CFI DPH0 load(1, XDATA, add(CFA_XSP16, literal(-1)))
          CFI CFA_SP SP+-3
          CFI CFA_XSP16 add(XSP16, 117)
          CFI Block cfiCond59 Using cfiCommon0
          CFI (cfiCond59) Function shell_getchar
          CFI (cfiCond59) Conditional ??CrossCallReturnLabel_75
          CFI (cfiCond59) R6 load(1, XDATA, add(CFA_XSP16, literal(-14)))
          CFI (cfiCond59) VB load(1, XDATA, add(CFA_XSP16, literal(-13)))
          CFI (cfiCond59) V0 load(1, XDATA, add(CFA_XSP16, literal(-12)))
          CFI (cfiCond59) V1 load(1, XDATA, add(CFA_XSP16, literal(-11)))
          CFI (cfiCond59) V2 load(1, XDATA, add(CFA_XSP16, literal(-10)))
          CFI (cfiCond59) V3 load(1, XDATA, add(CFA_XSP16, literal(-9)))
          CFI (cfiCond59) V4 load(1, XDATA, add(CFA_XSP16, literal(-8)))
          CFI (cfiCond59) V5 load(1, XDATA, add(CFA_XSP16, literal(-7)))
          CFI (cfiCond59) V6 load(1, XDATA, add(CFA_XSP16, literal(-6)))
          CFI (cfiCond59) R7 load(1, XDATA, add(CFA_XSP16, literal(-5)))
          CFI (cfiCond59) ?RET_LOW load(1, XDATA, add(CFA_XSP16, literal(-4)))
          CFI (cfiCond59) ?RET_HIGH load(1, XDATA, add(CFA_XSP16, literal(-3)))
          CFI (cfiCond59) DPL0 load(1, XDATA, add(CFA_XSP16, literal(-2)))
          CFI (cfiCond59) DPH0 load(1, XDATA, add(CFA_XSP16, literal(-1)))
          CFI (cfiCond59) CFA_XSP16 add(XSP16, 117)
          CFI Block cfiPicker60 Using cfiCommon1
          CFI (cfiPicker60) NoFunction
          CFI (cfiPicker60) Picker
        MOV     A,R2
        ADD     A,R4
        MOV     R4,A
        CLR     A
        ADDC    A,R3
        MOV     R5,A
        MOV     A,R4
        ADD     A,#0x38
        RET
          CFI EndBlock cfiCond58
          CFI EndBlock cfiCond59
          CFI EndBlock cfiPicker60

        RSEG NEAR_CODE:CODE:NOROOT(0)
?Subroutine24:
          CFI Block cfiCond61 Using cfiCommon0
          CFI Function checkout
          CFI Conditional ??CrossCallReturnLabel_103
          CFI R6 load(1, XDATA, add(CFA_XSP16, literal(-15)))
          CFI VB load(1, XDATA, add(CFA_XSP16, literal(-14)))
          CFI V0 load(1, XDATA, add(CFA_XSP16, literal(-13)))
          CFI V1 load(1, XDATA, add(CFA_XSP16, literal(-12)))
          CFI V2 load(1, XDATA, add(CFA_XSP16, literal(-11)))
          CFI V3 load(1, XDATA, add(CFA_XSP16, literal(-10)))
          CFI V4 load(1, XDATA, add(CFA_XSP16, literal(-9)))
          CFI V5 load(1, XDATA, add(CFA_XSP16, literal(-8)))
          CFI V6 load(1, XDATA, add(CFA_XSP16, literal(-7)))
          CFI V7 load(1, XDATA, add(CFA_XSP16, literal(-6)))
          CFI R7 load(1, XDATA, add(CFA_XSP16, literal(-5)))
          CFI ?RET_LOW load(1, XDATA, add(CFA_XSP16, literal(-4)))
          CFI ?RET_HIGH load(1, XDATA, add(CFA_XSP16, literal(-3)))
          CFI DPL0 load(1, XDATA, add(CFA_XSP16, literal(-2)))
          CFI DPH0 load(1, XDATA, add(CFA_XSP16, literal(-1)))
          CFI CFA_XSP16 add(XSP16, 27)
          CFI Block cfiCond62 Using cfiCommon0
          CFI (cfiCond62) Function checkout
          CFI (cfiCond62) Conditional ??CrossCallReturnLabel_104
          CFI (cfiCond62) R6 load(1, XDATA, add(CFA_XSP16, literal(-15)))
          CFI (cfiCond62) VB load(1, XDATA, add(CFA_XSP16, literal(-14)))
          CFI (cfiCond62) V0 load(1, XDATA, add(CFA_XSP16, literal(-13)))
          CFI (cfiCond62) V1 load(1, XDATA, add(CFA_XSP16, literal(-12)))
          CFI (cfiCond62) V2 load(1, XDATA, add(CFA_XSP16, literal(-11)))
          CFI (cfiCond62) V3 load(1, XDATA, add(CFA_XSP16, literal(-10)))
          CFI (cfiCond62) V4 load(1, XDATA, add(CFA_XSP16, literal(-9)))
          CFI (cfiCond62) V5 load(1, XDATA, add(CFA_XSP16, literal(-8)))
          CFI (cfiCond62) V6 load(1, XDATA, add(CFA_XSP16, literal(-7)))
          CFI (cfiCond62) V7 load(1, XDATA, add(CFA_XSP16, literal(-6)))
          CFI (cfiCond62) R7 load(1, XDATA, add(CFA_XSP16, literal(-5)))
          CFI (cfiCond62) ?RET_LOW load(1, XDATA, add(CFA_XSP16, literal(-4)))
          CFI (cfiCond62) ?RET_HIGH load(1, XDATA, add(CFA_XSP16, literal(-3)))
          CFI (cfiCond62) DPL0 load(1, XDATA, add(CFA_XSP16, literal(-2)))
          CFI (cfiCond62) DPH0 load(1, XDATA, add(CFA_XSP16, literal(-1)))
          CFI (cfiCond62) CFA_XSP16 add(XSP16, 27)
          CFI Block cfiPicker63 Using cfiCommon1
          CFI (cfiPicker63) NoFunction
          CFI (cfiPicker63) Picker
        MOV     DPL,R6
        MOV     DPH,R7
          CFI EndBlock cfiCond61
          CFI EndBlock cfiCond62
          CFI EndBlock cfiPicker63
        REQUIRE ??Subroutine54_0
        ; // Fall through to label ??Subroutine54_0

        RSEG NEAR_CODE:CODE:NOROOT(0)
??Subroutine54_0:
          CFI Block cfiCond64 Using cfiCommon0
          CFI Function checkout
          CFI Conditional ??CrossCallReturnLabel_100
          CFI R6 load(1, XDATA, add(CFA_XSP16, literal(-15)))
          CFI VB load(1, XDATA, add(CFA_XSP16, literal(-14)))
          CFI V0 load(1, XDATA, add(CFA_XSP16, literal(-13)))
          CFI V1 load(1, XDATA, add(CFA_XSP16, literal(-12)))
          CFI V2 load(1, XDATA, add(CFA_XSP16, literal(-11)))
          CFI V3 load(1, XDATA, add(CFA_XSP16, literal(-10)))
          CFI V4 load(1, XDATA, add(CFA_XSP16, literal(-9)))
          CFI V5 load(1, XDATA, add(CFA_XSP16, literal(-8)))
          CFI V6 load(1, XDATA, add(CFA_XSP16, literal(-7)))
          CFI V7 load(1, XDATA, add(CFA_XSP16, literal(-6)))
          CFI R7 load(1, XDATA, add(CFA_XSP16, literal(-5)))
          CFI ?RET_LOW load(1, XDATA, add(CFA_XSP16, literal(-4)))
          CFI ?RET_HIGH load(1, XDATA, add(CFA_XSP16, literal(-3)))
          CFI DPL0 load(1, XDATA, add(CFA_XSP16, literal(-2)))
          CFI DPH0 load(1, XDATA, add(CFA_XSP16, literal(-1)))
          CFI CFA_XSP16 add(XSP16, 27)
          CFI Block cfiCond65 Using cfiCommon0
          CFI (cfiCond65) Function shell_getchar
          CFI (cfiCond65) Conditional ??CrossCallReturnLabel_101
          CFI (cfiCond65) R6 load(1, XDATA, add(CFA_XSP16, literal(-14)))
          CFI (cfiCond65) VB load(1, XDATA, add(CFA_XSP16, literal(-13)))
          CFI (cfiCond65) V0 load(1, XDATA, add(CFA_XSP16, literal(-12)))
          CFI (cfiCond65) V1 load(1, XDATA, add(CFA_XSP16, literal(-11)))
          CFI (cfiCond65) V2 load(1, XDATA, add(CFA_XSP16, literal(-10)))
          CFI (cfiCond65) V3 load(1, XDATA, add(CFA_XSP16, literal(-9)))
          CFI (cfiCond65) V4 load(1, XDATA, add(CFA_XSP16, literal(-8)))
          CFI (cfiCond65) V5 load(1, XDATA, add(CFA_XSP16, literal(-7)))
          CFI (cfiCond65) V6 load(1, XDATA, add(CFA_XSP16, literal(-6)))
          CFI (cfiCond65) R7 load(1, XDATA, add(CFA_XSP16, literal(-5)))
          CFI (cfiCond65) ?RET_LOW load(1, XDATA, add(CFA_XSP16, literal(-4)))
          CFI (cfiCond65) ?RET_HIGH load(1, XDATA, add(CFA_XSP16, literal(-3)))
          CFI (cfiCond65) DPL0 load(1, XDATA, add(CFA_XSP16, literal(-2)))
          CFI (cfiCond65) DPH0 load(1, XDATA, add(CFA_XSP16, literal(-1)))
          CFI (cfiCond65) CFA_XSP16 add(XSP16, 117)
          CFI Block cfiCond66 Using cfiCommon0
          CFI (cfiCond66) Function shell_list_cmd
          CFI (cfiCond66) Conditional ??CrossCallReturnLabel_102
          CFI (cfiCond66) R6 load(1, XDATA, add(CFA_XSP16, literal(-15)))
          CFI (cfiCond66) VB load(1, XDATA, add(CFA_XSP16, literal(-14)))
          CFI (cfiCond66) V0 load(1, XDATA, add(CFA_XSP16, literal(-13)))
          CFI (cfiCond66) V1 load(1, XDATA, add(CFA_XSP16, literal(-12)))
          CFI (cfiCond66) V2 load(1, XDATA, add(CFA_XSP16, literal(-11)))
          CFI (cfiCond66) V3 load(1, XDATA, add(CFA_XSP16, literal(-10)))
          CFI (cfiCond66) V4 load(1, XDATA, add(CFA_XSP16, literal(-9)))
          CFI (cfiCond66) V5 load(1, XDATA, add(CFA_XSP16, literal(-8)))
          CFI (cfiCond66) V6 load(1, XDATA, add(CFA_XSP16, literal(-7)))
          CFI (cfiCond66) V7 load(1, XDATA, add(CFA_XSP16, literal(-6)))
          CFI (cfiCond66) R7 load(1, XDATA, add(CFA_XSP16, literal(-5)))
          CFI (cfiCond66) ?RET_LOW load(1, XDATA, add(CFA_XSP16, literal(-4)))
          CFI (cfiCond66) ?RET_HIGH load(1, XDATA, add(CFA_XSP16, literal(-3)))
          CFI (cfiCond66) DPL0 load(1, XDATA, add(CFA_XSP16, literal(-2)))
          CFI (cfiCond66) DPH0 load(1, XDATA, add(CFA_XSP16, literal(-1)))
          CFI (cfiCond66) CFA_XSP16 add(XSP16, 17)
          CFI Block cfiCond67 Using cfiCommon0
          CFI (cfiCond67) Function checkout
          CFI (cfiCond67) Conditional ??CrossCallReturnLabel_103
          CFI (cfiCond67) R6 load(1, XDATA, add(CFA_XSP16, literal(-15)))
          CFI (cfiCond67) VB load(1, XDATA, add(CFA_XSP16, literal(-14)))
          CFI (cfiCond67) V0 load(1, XDATA, add(CFA_XSP16, literal(-13)))
          CFI (cfiCond67) V1 load(1, XDATA, add(CFA_XSP16, literal(-12)))
          CFI (cfiCond67) V2 load(1, XDATA, add(CFA_XSP16, literal(-11)))
          CFI (cfiCond67) V3 load(1, XDATA, add(CFA_XSP16, literal(-10)))
          CFI (cfiCond67) V4 load(1, XDATA, add(CFA_XSP16, literal(-9)))
          CFI (cfiCond67) V5 load(1, XDATA, add(CFA_XSP16, literal(-8)))
          CFI (cfiCond67) V6 load(1, XDATA, add(CFA_XSP16, literal(-7)))
          CFI (cfiCond67) V7 load(1, XDATA, add(CFA_XSP16, literal(-6)))
          CFI (cfiCond67) R7 load(1, XDATA, add(CFA_XSP16, literal(-5)))
          CFI (cfiCond67) ?RET_LOW load(1, XDATA, add(CFA_XSP16, literal(-4)))
          CFI (cfiCond67) ?RET_HIGH load(1, XDATA, add(CFA_XSP16, literal(-3)))
          CFI (cfiCond67) DPL0 load(1, XDATA, add(CFA_XSP16, literal(-2)))
          CFI (cfiCond67) DPH0 load(1, XDATA, add(CFA_XSP16, literal(-1)))
          CFI (cfiCond67) CFA_XSP16 add(XSP16, 27)
          CFI Block cfiCond68 Using cfiCommon0
          CFI (cfiCond68) Function checkout
          CFI (cfiCond68) Conditional ??CrossCallReturnLabel_104
          CFI (cfiCond68) R6 load(1, XDATA, add(CFA_XSP16, literal(-15)))
          CFI (cfiCond68) VB load(1, XDATA, add(CFA_XSP16, literal(-14)))
          CFI (cfiCond68) V0 load(1, XDATA, add(CFA_XSP16, literal(-13)))
          CFI (cfiCond68) V1 load(1, XDATA, add(CFA_XSP16, literal(-12)))
          CFI (cfiCond68) V2 load(1, XDATA, add(CFA_XSP16, literal(-11)))
          CFI (cfiCond68) V3 load(1, XDATA, add(CFA_XSP16, literal(-10)))
          CFI (cfiCond68) V4 load(1, XDATA, add(CFA_XSP16, literal(-9)))
          CFI (cfiCond68) V5 load(1, XDATA, add(CFA_XSP16, literal(-8)))
          CFI (cfiCond68) V6 load(1, XDATA, add(CFA_XSP16, literal(-7)))
          CFI (cfiCond68) V7 load(1, XDATA, add(CFA_XSP16, literal(-6)))
          CFI (cfiCond68) R7 load(1, XDATA, add(CFA_XSP16, literal(-5)))
          CFI (cfiCond68) ?RET_LOW load(1, XDATA, add(CFA_XSP16, literal(-4)))
          CFI (cfiCond68) ?RET_HIGH load(1, XDATA, add(CFA_XSP16, literal(-3)))
          CFI (cfiCond68) DPL0 load(1, XDATA, add(CFA_XSP16, literal(-2)))
          CFI (cfiCond68) DPH0 load(1, XDATA, add(CFA_XSP16, literal(-1)))
          CFI (cfiCond68) CFA_XSP16 add(XSP16, 27)
          CFI Block cfiPicker69 Using cfiCommon1
          CFI (cfiPicker69) NoFunction
          CFI (cfiPicker69) Picker
        MOVX    A,@DPTR
        MOV     R6,A
        INC     DPTR
        MOVX    A,@DPTR
        MOV     R7,A
        RET
          CFI EndBlock cfiCond64
          CFI EndBlock cfiCond65
          CFI EndBlock cfiCond66
          CFI EndBlock cfiCond67
          CFI EndBlock cfiCond68
          CFI EndBlock cfiPicker69

        RSEG NEAR_CODE:CODE:NOROOT(0)
?Subroutine23:
          CFI Block cfiCond70 Using cfiCommon0
          CFI Function shell_backspace
          CFI Conditional ??CrossCallReturnLabel_36
          CFI R6 load(1, XDATA, add(CFA_XSP16, literal(-15)))
          CFI VB load(1, XDATA, add(CFA_XSP16, literal(-14)))
          CFI V0 load(1, XDATA, add(CFA_XSP16, literal(-13)))
          CFI V1 load(1, XDATA, add(CFA_XSP16, literal(-12)))
          CFI V2 load(1, XDATA, add(CFA_XSP16, literal(-11)))
          CFI V3 load(1, XDATA, add(CFA_XSP16, literal(-10)))
          CFI V4 load(1, XDATA, add(CFA_XSP16, literal(-9)))
          CFI V5 load(1, XDATA, add(CFA_XSP16, literal(-8)))
          CFI V6 load(1, XDATA, add(CFA_XSP16, literal(-7)))
          CFI V7 load(1, XDATA, add(CFA_XSP16, literal(-6)))
          CFI R7 load(1, XDATA, add(CFA_XSP16, literal(-5)))
          CFI ?RET_LOW load(1, XDATA, add(CFA_XSP16, literal(-4)))
          CFI ?RET_HIGH load(1, XDATA, add(CFA_XSP16, literal(-3)))
          CFI DPL0 load(1, XDATA, add(CFA_XSP16, literal(-2)))
          CFI DPH0 load(1, XDATA, add(CFA_XSP16, literal(-1)))
          CFI CFA_XSP16 add(XSP16, 117)
          CFI Block cfiCond71 Using cfiCommon0
          CFI (cfiCond71) Function shell_getchar
          CFI (cfiCond71) Conditional ??CrossCallReturnLabel_37
          CFI (cfiCond71) R6 load(1, XDATA, add(CFA_XSP16, literal(-14)))
          CFI (cfiCond71) VB load(1, XDATA, add(CFA_XSP16, literal(-13)))
          CFI (cfiCond71) V0 load(1, XDATA, add(CFA_XSP16, literal(-12)))
          CFI (cfiCond71) V1 load(1, XDATA, add(CFA_XSP16, literal(-11)))
          CFI (cfiCond71) V2 load(1, XDATA, add(CFA_XSP16, literal(-10)))
          CFI (cfiCond71) V3 load(1, XDATA, add(CFA_XSP16, literal(-9)))
          CFI (cfiCond71) V4 load(1, XDATA, add(CFA_XSP16, literal(-8)))
          CFI (cfiCond71) V5 load(1, XDATA, add(CFA_XSP16, literal(-7)))
          CFI (cfiCond71) V6 load(1, XDATA, add(CFA_XSP16, literal(-6)))
          CFI (cfiCond71) R7 load(1, XDATA, add(CFA_XSP16, literal(-5)))
          CFI (cfiCond71) ?RET_LOW load(1, XDATA, add(CFA_XSP16, literal(-4)))
          CFI (cfiCond71) ?RET_HIGH load(1, XDATA, add(CFA_XSP16, literal(-3)))
          CFI (cfiCond71) DPL0 load(1, XDATA, add(CFA_XSP16, literal(-2)))
          CFI (cfiCond71) DPH0 load(1, XDATA, add(CFA_XSP16, literal(-1)))
          CFI (cfiCond71) CFA_XSP16 add(XSP16, 117)
          CFI Block cfiCond72 Using cfiCommon0
          CFI (cfiCond72) Function shell_getchar
          CFI (cfiCond72) Conditional ??CrossCallReturnLabel_38
          CFI (cfiCond72) R6 load(1, XDATA, add(CFA_XSP16, literal(-14)))
          CFI (cfiCond72) VB load(1, XDATA, add(CFA_XSP16, literal(-13)))
          CFI (cfiCond72) V0 load(1, XDATA, add(CFA_XSP16, literal(-12)))
          CFI (cfiCond72) V1 load(1, XDATA, add(CFA_XSP16, literal(-11)))
          CFI (cfiCond72) V2 load(1, XDATA, add(CFA_XSP16, literal(-10)))
          CFI (cfiCond72) V3 load(1, XDATA, add(CFA_XSP16, literal(-9)))
          CFI (cfiCond72) V4 load(1, XDATA, add(CFA_XSP16, literal(-8)))
          CFI (cfiCond72) V5 load(1, XDATA, add(CFA_XSP16, literal(-7)))
          CFI (cfiCond72) V6 load(1, XDATA, add(CFA_XSP16, literal(-6)))
          CFI (cfiCond72) R7 load(1, XDATA, add(CFA_XSP16, literal(-5)))
          CFI (cfiCond72) ?RET_LOW load(1, XDATA, add(CFA_XSP16, literal(-4)))
          CFI (cfiCond72) ?RET_HIGH load(1, XDATA, add(CFA_XSP16, literal(-3)))
          CFI (cfiCond72) DPL0 load(1, XDATA, add(CFA_XSP16, literal(-2)))
          CFI (cfiCond72) DPH0 load(1, XDATA, add(CFA_XSP16, literal(-1)))
          CFI (cfiCond72) CFA_XSP16 add(XSP16, 117)
          CFI Block cfiPicker73 Using cfiCommon1
          CFI (cfiPicker73) NoFunction
          CFI (cfiPicker73) Picker
        MOVX    A,@DPTR
        MOV     DPL,?V4
        MOV     DPH,?V5
        MOVX    @DPTR,A
        RET
          CFI EndBlock cfiCond70
          CFI EndBlock cfiCond71
          CFI EndBlock cfiCond72
          CFI EndBlock cfiPicker73

        RSEG NEAR_CODE:CODE:NOROOT(0)
?Subroutine17:
          CFI Block cfiCond74 Using cfiCommon0
          CFI Function shell_tab
          CFI Conditional ??CrossCallReturnLabel_112
          CFI R6 load(1, XDATA, add(CFA_XSP16, literal(-15)))
          CFI VB load(1, XDATA, add(CFA_XSP16, literal(-14)))
          CFI V0 load(1, XDATA, add(CFA_XSP16, literal(-13)))
          CFI V1 load(1, XDATA, add(CFA_XSP16, literal(-12)))
          CFI V2 load(1, XDATA, add(CFA_XSP16, literal(-11)))
          CFI V3 load(1, XDATA, add(CFA_XSP16, literal(-10)))
          CFI V4 load(1, XDATA, add(CFA_XSP16, literal(-9)))
          CFI V5 load(1, XDATA, add(CFA_XSP16, literal(-8)))
          CFI V6 load(1, XDATA, add(CFA_XSP16, literal(-7)))
          CFI V7 load(1, XDATA, add(CFA_XSP16, literal(-6)))
          CFI R7 load(1, XDATA, add(CFA_XSP16, literal(-5)))
          CFI ?RET_LOW load(1, XDATA, add(CFA_XSP16, literal(-4)))
          CFI ?RET_HIGH load(1, XDATA, add(CFA_XSP16, literal(-3)))
          CFI DPL0 load(1, XDATA, add(CFA_XSP16, literal(-2)))
          CFI DPH0 load(1, XDATA, add(CFA_XSP16, literal(-1)))
          CFI CFA_XSP16 add(XSP16, 45)
          CFI Block cfiCond75 Using cfiCommon0
          CFI (cfiCond75) Function shell_tab
          CFI (cfiCond75) Conditional ??CrossCallReturnLabel_113
          CFI (cfiCond75) R6 load(1, XDATA, add(CFA_XSP16, literal(-15)))
          CFI (cfiCond75) VB load(1, XDATA, add(CFA_XSP16, literal(-14)))
          CFI (cfiCond75) V0 load(1, XDATA, add(CFA_XSP16, literal(-13)))
          CFI (cfiCond75) V1 load(1, XDATA, add(CFA_XSP16, literal(-12)))
          CFI (cfiCond75) V2 load(1, XDATA, add(CFA_XSP16, literal(-11)))
          CFI (cfiCond75) V3 load(1, XDATA, add(CFA_XSP16, literal(-10)))
          CFI (cfiCond75) V4 load(1, XDATA, add(CFA_XSP16, literal(-9)))
          CFI (cfiCond75) V5 load(1, XDATA, add(CFA_XSP16, literal(-8)))
          CFI (cfiCond75) V6 load(1, XDATA, add(CFA_XSP16, literal(-7)))
          CFI (cfiCond75) V7 load(1, XDATA, add(CFA_XSP16, literal(-6)))
          CFI (cfiCond75) R7 load(1, XDATA, add(CFA_XSP16, literal(-5)))
          CFI (cfiCond75) ?RET_LOW load(1, XDATA, add(CFA_XSP16, literal(-4)))
          CFI (cfiCond75) ?RET_HIGH load(1, XDATA, add(CFA_XSP16, literal(-3)))
          CFI (cfiCond75) DPL0 load(1, XDATA, add(CFA_XSP16, literal(-2)))
          CFI (cfiCond75) DPH0 load(1, XDATA, add(CFA_XSP16, literal(-1)))
          CFI (cfiCond75) CFA_XSP16 add(XSP16, 45)
          CFI Block cfiCond76 Using cfiCommon0
          CFI (cfiCond76) Function shell_tab
          CFI (cfiCond76) Conditional ??CrossCallReturnLabel_114
          CFI (cfiCond76) R6 load(1, XDATA, add(CFA_XSP16, literal(-15)))
          CFI (cfiCond76) VB load(1, XDATA, add(CFA_XSP16, literal(-14)))
          CFI (cfiCond76) V0 load(1, XDATA, add(CFA_XSP16, literal(-13)))
          CFI (cfiCond76) V1 load(1, XDATA, add(CFA_XSP16, literal(-12)))
          CFI (cfiCond76) V2 load(1, XDATA, add(CFA_XSP16, literal(-11)))
          CFI (cfiCond76) V3 load(1, XDATA, add(CFA_XSP16, literal(-10)))
          CFI (cfiCond76) V4 load(1, XDATA, add(CFA_XSP16, literal(-9)))
          CFI (cfiCond76) V5 load(1, XDATA, add(CFA_XSP16, literal(-8)))
          CFI (cfiCond76) V6 load(1, XDATA, add(CFA_XSP16, literal(-7)))
          CFI (cfiCond76) V7 load(1, XDATA, add(CFA_XSP16, literal(-6)))
          CFI (cfiCond76) R7 load(1, XDATA, add(CFA_XSP16, literal(-5)))
          CFI (cfiCond76) ?RET_LOW load(1, XDATA, add(CFA_XSP16, literal(-4)))
          CFI (cfiCond76) ?RET_HIGH load(1, XDATA, add(CFA_XSP16, literal(-3)))
          CFI (cfiCond76) DPL0 load(1, XDATA, add(CFA_XSP16, literal(-2)))
          CFI (cfiCond76) DPH0 load(1, XDATA, add(CFA_XSP16, literal(-1)))
          CFI (cfiCond76) CFA_XSP16 add(XSP16, 45)
          CFI Block cfiPicker77 Using cfiCommon1
          CFI (cfiPicker77) NoFunction
          CFI (cfiPicker77) Picker
        MOV     DPL,?XSP + 0
        MOV     DPH,?XSP + 1
          CFI EndBlock cfiCond74
          CFI EndBlock cfiCond75
          CFI EndBlock cfiCond76
          CFI EndBlock cfiPicker77
        REQUIRE ??Subroutine55_0
        ; // Fall through to label ??Subroutine55_0

        RSEG NEAR_CODE:CODE:NOROOT(0)
??Subroutine55_0:
          CFI Block cfiCond78 Using cfiCommon0
          CFI Function checkout
          CFI Conditional ??CrossCallReturnLabel_105
          CFI R6 load(1, XDATA, add(CFA_XSP16, literal(-15)))
          CFI VB load(1, XDATA, add(CFA_XSP16, literal(-14)))
          CFI V0 load(1, XDATA, add(CFA_XSP16, literal(-13)))
          CFI V1 load(1, XDATA, add(CFA_XSP16, literal(-12)))
          CFI V2 load(1, XDATA, add(CFA_XSP16, literal(-11)))
          CFI V3 load(1, XDATA, add(CFA_XSP16, literal(-10)))
          CFI V4 load(1, XDATA, add(CFA_XSP16, literal(-9)))
          CFI V5 load(1, XDATA, add(CFA_XSP16, literal(-8)))
          CFI V6 load(1, XDATA, add(CFA_XSP16, literal(-7)))
          CFI V7 load(1, XDATA, add(CFA_XSP16, literal(-6)))
          CFI R7 load(1, XDATA, add(CFA_XSP16, literal(-5)))
          CFI ?RET_LOW load(1, XDATA, add(CFA_XSP16, literal(-4)))
          CFI ?RET_HIGH load(1, XDATA, add(CFA_XSP16, literal(-3)))
          CFI DPL0 load(1, XDATA, add(CFA_XSP16, literal(-2)))
          CFI DPH0 load(1, XDATA, add(CFA_XSP16, literal(-1)))
          CFI CFA_XSP16 add(XSP16, 29)
          CFI Block cfiCond79 Using cfiCommon0
          CFI (cfiCond79) Function shell_tab
          CFI (cfiCond79) Conditional ??CrossCallReturnLabel_106
          CFI (cfiCond79) R6 load(1, XDATA, add(CFA_XSP16, literal(-15)))
          CFI (cfiCond79) VB load(1, XDATA, add(CFA_XSP16, literal(-14)))
          CFI (cfiCond79) V0 load(1, XDATA, add(CFA_XSP16, literal(-13)))
          CFI (cfiCond79) V1 load(1, XDATA, add(CFA_XSP16, literal(-12)))
          CFI (cfiCond79) V2 load(1, XDATA, add(CFA_XSP16, literal(-11)))
          CFI (cfiCond79) V3 load(1, XDATA, add(CFA_XSP16, literal(-10)))
          CFI (cfiCond79) V4 load(1, XDATA, add(CFA_XSP16, literal(-9)))
          CFI (cfiCond79) V5 load(1, XDATA, add(CFA_XSP16, literal(-8)))
          CFI (cfiCond79) V6 load(1, XDATA, add(CFA_XSP16, literal(-7)))
          CFI (cfiCond79) V7 load(1, XDATA, add(CFA_XSP16, literal(-6)))
          CFI (cfiCond79) R7 load(1, XDATA, add(CFA_XSP16, literal(-5)))
          CFI (cfiCond79) ?RET_LOW load(1, XDATA, add(CFA_XSP16, literal(-4)))
          CFI (cfiCond79) ?RET_HIGH load(1, XDATA, add(CFA_XSP16, literal(-3)))
          CFI (cfiCond79) DPL0 load(1, XDATA, add(CFA_XSP16, literal(-2)))
          CFI (cfiCond79) DPH0 load(1, XDATA, add(CFA_XSP16, literal(-1)))
          CFI (cfiCond79) CFA_XSP16 add(XSP16, 45)
          CFI Block cfiCond80 Using cfiCommon0
          CFI (cfiCond80) Function shell_getchar
          CFI (cfiCond80) Conditional ??CrossCallReturnLabel_107
          CFI (cfiCond80) R6 load(1, XDATA, add(CFA_XSP16, literal(-14)))
          CFI (cfiCond80) VB load(1, XDATA, add(CFA_XSP16, literal(-13)))
          CFI (cfiCond80) V0 load(1, XDATA, add(CFA_XSP16, literal(-12)))
          CFI (cfiCond80) V1 load(1, XDATA, add(CFA_XSP16, literal(-11)))
          CFI (cfiCond80) V2 load(1, XDATA, add(CFA_XSP16, literal(-10)))
          CFI (cfiCond80) V3 load(1, XDATA, add(CFA_XSP16, literal(-9)))
          CFI (cfiCond80) V4 load(1, XDATA, add(CFA_XSP16, literal(-8)))
          CFI (cfiCond80) V5 load(1, XDATA, add(CFA_XSP16, literal(-7)))
          CFI (cfiCond80) V6 load(1, XDATA, add(CFA_XSP16, literal(-6)))
          CFI (cfiCond80) R7 load(1, XDATA, add(CFA_XSP16, literal(-5)))
          CFI (cfiCond80) ?RET_LOW load(1, XDATA, add(CFA_XSP16, literal(-4)))
          CFI (cfiCond80) ?RET_HIGH load(1, XDATA, add(CFA_XSP16, literal(-3)))
          CFI (cfiCond80) DPL0 load(1, XDATA, add(CFA_XSP16, literal(-2)))
          CFI (cfiCond80) DPH0 load(1, XDATA, add(CFA_XSP16, literal(-1)))
          CFI (cfiCond80) CFA_XSP16 add(XSP16, 117)
          CFI Block cfiCond81 Using cfiCommon0
          CFI (cfiCond81) Function shell_parse
          CFI (cfiCond81) Conditional ??CrossCallReturnLabel_108
          CFI (cfiCond81) R6 load(1, XDATA, add(CFA_XSP16, literal(-15)))
          CFI (cfiCond81) VB load(1, XDATA, add(CFA_XSP16, literal(-14)))
          CFI (cfiCond81) V0 load(1, XDATA, add(CFA_XSP16, literal(-13)))
          CFI (cfiCond81) V1 load(1, XDATA, add(CFA_XSP16, literal(-12)))
          CFI (cfiCond81) V2 load(1, XDATA, add(CFA_XSP16, literal(-11)))
          CFI (cfiCond81) V3 load(1, XDATA, add(CFA_XSP16, literal(-10)))
          CFI (cfiCond81) V4 load(1, XDATA, add(CFA_XSP16, literal(-9)))
          CFI (cfiCond81) V5 load(1, XDATA, add(CFA_XSP16, literal(-8)))
          CFI (cfiCond81) V6 load(1, XDATA, add(CFA_XSP16, literal(-7)))
          CFI (cfiCond81) V7 load(1, XDATA, add(CFA_XSP16, literal(-6)))
          CFI (cfiCond81) R7 load(1, XDATA, add(CFA_XSP16, literal(-5)))
          CFI (cfiCond81) ?RET_LOW load(1, XDATA, add(CFA_XSP16, literal(-4)))
          CFI (cfiCond81) ?RET_HIGH load(1, XDATA, add(CFA_XSP16, literal(-3)))
          CFI (cfiCond81) DPL0 load(1, XDATA, add(CFA_XSP16, literal(-2)))
          CFI (cfiCond81) DPH0 load(1, XDATA, add(CFA_XSP16, literal(-1)))
          CFI (cfiCond81) CFA_XSP16 add(XSP16, 43)
          CFI Block cfiCond82 Using cfiCommon0
          CFI (cfiCond82) Function shell_parse
          CFI (cfiCond82) Conditional ??CrossCallReturnLabel_109
          CFI (cfiCond82) R6 load(1, XDATA, add(CFA_XSP16, literal(-15)))
          CFI (cfiCond82) VB load(1, XDATA, add(CFA_XSP16, literal(-14)))
          CFI (cfiCond82) V0 load(1, XDATA, add(CFA_XSP16, literal(-13)))
          CFI (cfiCond82) V1 load(1, XDATA, add(CFA_XSP16, literal(-12)))
          CFI (cfiCond82) V2 load(1, XDATA, add(CFA_XSP16, literal(-11)))
          CFI (cfiCond82) V3 load(1, XDATA, add(CFA_XSP16, literal(-10)))
          CFI (cfiCond82) V4 load(1, XDATA, add(CFA_XSP16, literal(-9)))
          CFI (cfiCond82) V5 load(1, XDATA, add(CFA_XSP16, literal(-8)))
          CFI (cfiCond82) V6 load(1, XDATA, add(CFA_XSP16, literal(-7)))
          CFI (cfiCond82) V7 load(1, XDATA, add(CFA_XSP16, literal(-6)))
          CFI (cfiCond82) R7 load(1, XDATA, add(CFA_XSP16, literal(-5)))
          CFI (cfiCond82) ?RET_LOW load(1, XDATA, add(CFA_XSP16, literal(-4)))
          CFI (cfiCond82) ?RET_HIGH load(1, XDATA, add(CFA_XSP16, literal(-3)))
          CFI (cfiCond82) DPL0 load(1, XDATA, add(CFA_XSP16, literal(-2)))
          CFI (cfiCond82) DPH0 load(1, XDATA, add(CFA_XSP16, literal(-1)))
          CFI (cfiCond82) CFA_XSP16 add(XSP16, 45)
          CFI Block cfiCond83 Using cfiCommon0
          CFI (cfiCond83) Function shell_parse
          CFI (cfiCond83) Conditional ??CrossCallReturnLabel_110
          CFI (cfiCond83) R6 load(1, XDATA, add(CFA_XSP16, literal(-15)))
          CFI (cfiCond83) VB load(1, XDATA, add(CFA_XSP16, literal(-14)))
          CFI (cfiCond83) V0 load(1, XDATA, add(CFA_XSP16, literal(-13)))
          CFI (cfiCond83) V1 load(1, XDATA, add(CFA_XSP16, literal(-12)))
          CFI (cfiCond83) V2 load(1, XDATA, add(CFA_XSP16, literal(-11)))
          CFI (cfiCond83) V3 load(1, XDATA, add(CFA_XSP16, literal(-10)))
          CFI (cfiCond83) V4 load(1, XDATA, add(CFA_XSP16, literal(-9)))
          CFI (cfiCond83) V5 load(1, XDATA, add(CFA_XSP16, literal(-8)))
          CFI (cfiCond83) V6 load(1, XDATA, add(CFA_XSP16, literal(-7)))
          CFI (cfiCond83) V7 load(1, XDATA, add(CFA_XSP16, literal(-6)))
          CFI (cfiCond83) R7 load(1, XDATA, add(CFA_XSP16, literal(-5)))
          CFI (cfiCond83) ?RET_LOW load(1, XDATA, add(CFA_XSP16, literal(-4)))
          CFI (cfiCond83) ?RET_HIGH load(1, XDATA, add(CFA_XSP16, literal(-3)))
          CFI (cfiCond83) DPL0 load(1, XDATA, add(CFA_XSP16, literal(-2)))
          CFI (cfiCond83) DPH0 load(1, XDATA, add(CFA_XSP16, literal(-1)))
          CFI (cfiCond83) CFA_XSP16 add(XSP16, 43)
          CFI Block cfiCond84 Using cfiCommon0
          CFI (cfiCond84) Function cmdline_gets
          CFI (cfiCond84) Conditional ??CrossCallReturnLabel_111
          CFI (cfiCond84) R6 load(1, XDATA, add(CFA_XSP16, literal(-15)))
          CFI (cfiCond84) VB load(1, XDATA, add(CFA_XSP16, literal(-14)))
          CFI (cfiCond84) V0 load(1, XDATA, add(CFA_XSP16, literal(-13)))
          CFI (cfiCond84) V1 load(1, XDATA, add(CFA_XSP16, literal(-12)))
          CFI (cfiCond84) V2 load(1, XDATA, add(CFA_XSP16, literal(-11)))
          CFI (cfiCond84) V3 load(1, XDATA, add(CFA_XSP16, literal(-10)))
          CFI (cfiCond84) V4 load(1, XDATA, add(CFA_XSP16, literal(-9)))
          CFI (cfiCond84) V5 load(1, XDATA, add(CFA_XSP16, literal(-8)))
          CFI (cfiCond84) V6 load(1, XDATA, add(CFA_XSP16, literal(-7)))
          CFI (cfiCond84) V7 load(1, XDATA, add(CFA_XSP16, literal(-6)))
          CFI (cfiCond84) R7 load(1, XDATA, add(CFA_XSP16, literal(-5)))
          CFI (cfiCond84) ?RET_LOW load(1, XDATA, add(CFA_XSP16, literal(-4)))
          CFI (cfiCond84) ?RET_HIGH load(1, XDATA, add(CFA_XSP16, literal(-3)))
          CFI (cfiCond84) DPL0 load(1, XDATA, add(CFA_XSP16, literal(-2)))
          CFI (cfiCond84) DPH0 load(1, XDATA, add(CFA_XSP16, literal(-1)))
          CFI (cfiCond84) CFA_XSP16 add(XSP16, 21)
          CFI Block cfiCond85 Using cfiCommon0
          CFI (cfiCond85) Function shell_tab
          CFI (cfiCond85) Conditional ??CrossCallReturnLabel_112
          CFI (cfiCond85) R6 load(1, XDATA, add(CFA_XSP16, literal(-15)))
          CFI (cfiCond85) VB load(1, XDATA, add(CFA_XSP16, literal(-14)))
          CFI (cfiCond85) V0 load(1, XDATA, add(CFA_XSP16, literal(-13)))
          CFI (cfiCond85) V1 load(1, XDATA, add(CFA_XSP16, literal(-12)))
          CFI (cfiCond85) V2 load(1, XDATA, add(CFA_XSP16, literal(-11)))
          CFI (cfiCond85) V3 load(1, XDATA, add(CFA_XSP16, literal(-10)))
          CFI (cfiCond85) V4 load(1, XDATA, add(CFA_XSP16, literal(-9)))
          CFI (cfiCond85) V5 load(1, XDATA, add(CFA_XSP16, literal(-8)))
          CFI (cfiCond85) V6 load(1, XDATA, add(CFA_XSP16, literal(-7)))
          CFI (cfiCond85) V7 load(1, XDATA, add(CFA_XSP16, literal(-6)))
          CFI (cfiCond85) R7 load(1, XDATA, add(CFA_XSP16, literal(-5)))
          CFI (cfiCond85) ?RET_LOW load(1, XDATA, add(CFA_XSP16, literal(-4)))
          CFI (cfiCond85) ?RET_HIGH load(1, XDATA, add(CFA_XSP16, literal(-3)))
          CFI (cfiCond85) DPL0 load(1, XDATA, add(CFA_XSP16, literal(-2)))
          CFI (cfiCond85) DPH0 load(1, XDATA, add(CFA_XSP16, literal(-1)))
          CFI (cfiCond85) CFA_XSP16 add(XSP16, 45)
          CFI Block cfiCond86 Using cfiCommon0
          CFI (cfiCond86) Function shell_tab
          CFI (cfiCond86) Conditional ??CrossCallReturnLabel_113
          CFI (cfiCond86) R6 load(1, XDATA, add(CFA_XSP16, literal(-15)))
          CFI (cfiCond86) VB load(1, XDATA, add(CFA_XSP16, literal(-14)))
          CFI (cfiCond86) V0 load(1, XDATA, add(CFA_XSP16, literal(-13)))
          CFI (cfiCond86) V1 load(1, XDATA, add(CFA_XSP16, literal(-12)))
          CFI (cfiCond86) V2 load(1, XDATA, add(CFA_XSP16, literal(-11)))
          CFI (cfiCond86) V3 load(1, XDATA, add(CFA_XSP16, literal(-10)))
          CFI (cfiCond86) V4 load(1, XDATA, add(CFA_XSP16, literal(-9)))
          CFI (cfiCond86) V5 load(1, XDATA, add(CFA_XSP16, literal(-8)))
          CFI (cfiCond86) V6 load(1, XDATA, add(CFA_XSP16, literal(-7)))
          CFI (cfiCond86) V7 load(1, XDATA, add(CFA_XSP16, literal(-6)))
          CFI (cfiCond86) R7 load(1, XDATA, add(CFA_XSP16, literal(-5)))
          CFI (cfiCond86) ?RET_LOW load(1, XDATA, add(CFA_XSP16, literal(-4)))
          CFI (cfiCond86) ?RET_HIGH load(1, XDATA, add(CFA_XSP16, literal(-3)))
          CFI (cfiCond86) DPL0 load(1, XDATA, add(CFA_XSP16, literal(-2)))
          CFI (cfiCond86) DPH0 load(1, XDATA, add(CFA_XSP16, literal(-1)))
          CFI (cfiCond86) CFA_XSP16 add(XSP16, 45)
          CFI Block cfiCond87 Using cfiCommon0
          CFI (cfiCond87) Function shell_tab
          CFI (cfiCond87) Conditional ??CrossCallReturnLabel_114
          CFI (cfiCond87) R6 load(1, XDATA, add(CFA_XSP16, literal(-15)))
          CFI (cfiCond87) VB load(1, XDATA, add(CFA_XSP16, literal(-14)))
          CFI (cfiCond87) V0 load(1, XDATA, add(CFA_XSP16, literal(-13)))
          CFI (cfiCond87) V1 load(1, XDATA, add(CFA_XSP16, literal(-12)))
          CFI (cfiCond87) V2 load(1, XDATA, add(CFA_XSP16, literal(-11)))
          CFI (cfiCond87) V3 load(1, XDATA, add(CFA_XSP16, literal(-10)))
          CFI (cfiCond87) V4 load(1, XDATA, add(CFA_XSP16, literal(-9)))
          CFI (cfiCond87) V5 load(1, XDATA, add(CFA_XSP16, literal(-8)))
          CFI (cfiCond87) V6 load(1, XDATA, add(CFA_XSP16, literal(-7)))
          CFI (cfiCond87) V7 load(1, XDATA, add(CFA_XSP16, literal(-6)))
          CFI (cfiCond87) R7 load(1, XDATA, add(CFA_XSP16, literal(-5)))
          CFI (cfiCond87) ?RET_LOW load(1, XDATA, add(CFA_XSP16, literal(-4)))
          CFI (cfiCond87) ?RET_HIGH load(1, XDATA, add(CFA_XSP16, literal(-3)))
          CFI (cfiCond87) DPL0 load(1, XDATA, add(CFA_XSP16, literal(-2)))
          CFI (cfiCond87) DPH0 load(1, XDATA, add(CFA_XSP16, literal(-1)))
          CFI (cfiCond87) CFA_XSP16 add(XSP16, 45)
          CFI Block cfiPicker88 Using cfiCommon1
          CFI (cfiPicker88) NoFunction
          CFI (cfiPicker88) Picker
        MOVX    A,@DPTR
        MOV     R2,A
        INC     DPTR
        MOVX    A,@DPTR
        MOV     R3,A
        RET
          CFI EndBlock cfiCond78
          CFI EndBlock cfiCond79
          CFI EndBlock cfiCond80
          CFI EndBlock cfiCond81
          CFI EndBlock cfiCond82
          CFI EndBlock cfiCond83
          CFI EndBlock cfiCond84
          CFI EndBlock cfiCond85
          CFI EndBlock cfiCond86
          CFI EndBlock cfiCond87
          CFI EndBlock cfiPicker88

        RSEG NEAR_CODE:CODE:NOROOT(0)
?Subroutine14:
          CFI Block cfiCond89 Using cfiCommon0
          CFI Function shell_getchar
          CFI Conditional ??CrossCallReturnLabel_23
          CFI R6 load(1, XDATA, add(CFA_XSP16, literal(-14)))
          CFI VB load(1, XDATA, add(CFA_XSP16, literal(-13)))
          CFI V0 load(1, XDATA, add(CFA_XSP16, literal(-12)))
          CFI V1 load(1, XDATA, add(CFA_XSP16, literal(-11)))
          CFI V2 load(1, XDATA, add(CFA_XSP16, literal(-10)))
          CFI V3 load(1, XDATA, add(CFA_XSP16, literal(-9)))
          CFI V4 load(1, XDATA, add(CFA_XSP16, literal(-8)))
          CFI V5 load(1, XDATA, add(CFA_XSP16, literal(-7)))
          CFI V6 load(1, XDATA, add(CFA_XSP16, literal(-6)))
          CFI R7 load(1, XDATA, add(CFA_XSP16, literal(-5)))
          CFI ?RET_LOW load(1, XDATA, add(CFA_XSP16, literal(-4)))
          CFI ?RET_HIGH load(1, XDATA, add(CFA_XSP16, literal(-3)))
          CFI DPL0 load(1, XDATA, add(CFA_XSP16, literal(-2)))
          CFI DPH0 load(1, XDATA, add(CFA_XSP16, literal(-1)))
          CFI CFA_XSP16 add(XSP16, 117)
          CFI Block cfiCond90 Using cfiCommon0
          CFI (cfiCond90) Function shell_getchar
          CFI (cfiCond90) Conditional ??CrossCallReturnLabel_22
          CFI (cfiCond90) R6 load(1, XDATA, add(CFA_XSP16, literal(-14)))
          CFI (cfiCond90) VB load(1, XDATA, add(CFA_XSP16, literal(-13)))
          CFI (cfiCond90) V0 load(1, XDATA, add(CFA_XSP16, literal(-12)))
          CFI (cfiCond90) V1 load(1, XDATA, add(CFA_XSP16, literal(-11)))
          CFI (cfiCond90) V2 load(1, XDATA, add(CFA_XSP16, literal(-10)))
          CFI (cfiCond90) V3 load(1, XDATA, add(CFA_XSP16, literal(-9)))
          CFI (cfiCond90) V4 load(1, XDATA, add(CFA_XSP16, literal(-8)))
          CFI (cfiCond90) V5 load(1, XDATA, add(CFA_XSP16, literal(-7)))
          CFI (cfiCond90) V6 load(1, XDATA, add(CFA_XSP16, literal(-6)))
          CFI (cfiCond90) R7 load(1, XDATA, add(CFA_XSP16, literal(-5)))
          CFI (cfiCond90) ?RET_LOW load(1, XDATA, add(CFA_XSP16, literal(-4)))
          CFI (cfiCond90) ?RET_HIGH load(1, XDATA, add(CFA_XSP16, literal(-3)))
          CFI (cfiCond90) DPL0 load(1, XDATA, add(CFA_XSP16, literal(-2)))
          CFI (cfiCond90) DPH0 load(1, XDATA, add(CFA_XSP16, literal(-1)))
          CFI (cfiCond90) CFA_XSP16 add(XSP16, 117)
          CFI Block cfiCond91 Using cfiCommon0
          CFI (cfiCond91) Function shell_getchar
          CFI (cfiCond91) Conditional ??CrossCallReturnLabel_24
          CFI (cfiCond91) R6 load(1, XDATA, add(CFA_XSP16, literal(-14)))
          CFI (cfiCond91) VB load(1, XDATA, add(CFA_XSP16, literal(-13)))
          CFI (cfiCond91) V0 load(1, XDATA, add(CFA_XSP16, literal(-12)))
          CFI (cfiCond91) V1 load(1, XDATA, add(CFA_XSP16, literal(-11)))
          CFI (cfiCond91) V2 load(1, XDATA, add(CFA_XSP16, literal(-10)))
          CFI (cfiCond91) V3 load(1, XDATA, add(CFA_XSP16, literal(-9)))
          CFI (cfiCond91) V4 load(1, XDATA, add(CFA_XSP16, literal(-8)))
          CFI (cfiCond91) V5 load(1, XDATA, add(CFA_XSP16, literal(-7)))
          CFI (cfiCond91) V6 load(1, XDATA, add(CFA_XSP16, literal(-6)))
          CFI (cfiCond91) R7 load(1, XDATA, add(CFA_XSP16, literal(-5)))
          CFI (cfiCond91) ?RET_LOW load(1, XDATA, add(CFA_XSP16, literal(-4)))
          CFI (cfiCond91) ?RET_HIGH load(1, XDATA, add(CFA_XSP16, literal(-3)))
          CFI (cfiCond91) DPL0 load(1, XDATA, add(CFA_XSP16, literal(-2)))
          CFI (cfiCond91) DPH0 load(1, XDATA, add(CFA_XSP16, literal(-1)))
          CFI (cfiCond91) CFA_XSP16 add(XSP16, 117)
          CFI Block cfiPicker92 Using cfiCommon1
          CFI (cfiPicker92) NoFunction
          CFI (cfiPicker92) Picker
        MOVX    @DPTR,A
        MOV     DPL,R0
        MOV     DPH,R1
        MOVX    A,@DPTR
        RET
          CFI EndBlock cfiCond89
          CFI EndBlock cfiCond90
          CFI EndBlock cfiCond91
          CFI EndBlock cfiPicker92

        RSEG NEAR_CODE:CODE:NOROOT(0)
?Subroutine13:
          CFI Block cfiCond93 Using cfiCommon0
          CFI Function shell_getchar
          CFI Conditional ??CrossCallReturnLabel_20
          CFI R6 load(1, XDATA, add(CFA_XSP16, literal(-14)))
          CFI VB load(1, XDATA, add(CFA_XSP16, literal(-13)))
          CFI V0 load(1, XDATA, add(CFA_XSP16, literal(-12)))
          CFI V1 load(1, XDATA, add(CFA_XSP16, literal(-11)))
          CFI V2 load(1, XDATA, add(CFA_XSP16, literal(-10)))
          CFI V3 load(1, XDATA, add(CFA_XSP16, literal(-9)))
          CFI V4 load(1, XDATA, add(CFA_XSP16, literal(-8)))
          CFI V5 load(1, XDATA, add(CFA_XSP16, literal(-7)))
          CFI V6 load(1, XDATA, add(CFA_XSP16, literal(-6)))
          CFI R7 load(1, XDATA, add(CFA_XSP16, literal(-5)))
          CFI ?RET_LOW load(1, XDATA, add(CFA_XSP16, literal(-4)))
          CFI ?RET_HIGH load(1, XDATA, add(CFA_XSP16, literal(-3)))
          CFI DPL0 load(1, XDATA, add(CFA_XSP16, literal(-2)))
          CFI DPH0 load(1, XDATA, add(CFA_XSP16, literal(-1)))
          CFI CFA_XSP16 add(XSP16, 117)
          CFI Block cfiCond94 Using cfiCommon0
          CFI (cfiCond94) Function shell_getchar
          CFI (cfiCond94) Conditional ??CrossCallReturnLabel_21
          CFI (cfiCond94) R6 load(1, XDATA, add(CFA_XSP16, literal(-14)))
          CFI (cfiCond94) VB load(1, XDATA, add(CFA_XSP16, literal(-13)))
          CFI (cfiCond94) V0 load(1, XDATA, add(CFA_XSP16, literal(-12)))
          CFI (cfiCond94) V1 load(1, XDATA, add(CFA_XSP16, literal(-11)))
          CFI (cfiCond94) V2 load(1, XDATA, add(CFA_XSP16, literal(-10)))
          CFI (cfiCond94) V3 load(1, XDATA, add(CFA_XSP16, literal(-9)))
          CFI (cfiCond94) V4 load(1, XDATA, add(CFA_XSP16, literal(-8)))
          CFI (cfiCond94) V5 load(1, XDATA, add(CFA_XSP16, literal(-7)))
          CFI (cfiCond94) V6 load(1, XDATA, add(CFA_XSP16, literal(-6)))
          CFI (cfiCond94) R7 load(1, XDATA, add(CFA_XSP16, literal(-5)))
          CFI (cfiCond94) ?RET_LOW load(1, XDATA, add(CFA_XSP16, literal(-4)))
          CFI (cfiCond94) ?RET_HIGH load(1, XDATA, add(CFA_XSP16, literal(-3)))
          CFI (cfiCond94) DPL0 load(1, XDATA, add(CFA_XSP16, literal(-2)))
          CFI (cfiCond94) DPH0 load(1, XDATA, add(CFA_XSP16, literal(-1)))
          CFI (cfiCond94) CFA_XSP16 add(XSP16, 117)
          CFI Block cfiPicker95 Using cfiCommon1
          CFI (cfiPicker95) NoFunction
          CFI (cfiPicker95) Picker
        MOVX    @DPTR,A
        MOV     DPL,?V0
        MOV     DPH,?V1
        MOVX    A,@DPTR
        RET
          CFI EndBlock cfiCond93
          CFI EndBlock cfiCond94
          CFI EndBlock cfiPicker95
//  451 
//  452 /**
//  453   * @author   古么宁
//  454   * @brief    命令行解析输入
//  455   * @param    cmdroot : 检索根，起始检索点
//  456   * @param    shellin : 输入交互
//  457   * @return   don't care
//  458 */

        RSEG NEAR_CODE:CODE:NOROOT(0)
//  459 static void shell_parse(cmd_root_t * cmdroot , struct shell_input * shellin)
shell_parse:
          CFI Block cfiBlock96 Using cfiCommon0
          CFI Function shell_parse
        CODE
//  460 {
        FUNCALL shell_parse, shell_confirm
        LOCFRAME ISTACK, 0, STACK
        LOCFRAME PSTACK, 0, STACK
        LOCFRAME XSTACK, 45, STACK
        LOCFRAME IOVERLAY, 0, STATIC
        LOCFRAME DOVERLAY, 0, STATIC
        ARGFRAME ISTACK, 0, STACK
        ARGFRAME PSTACK, 0, STACK
        ARGFRAME XSTACK, 45, STACK
        ARGFRAME IOVERLAY, 0, STATIC
        ARGFRAME DOVERLAY, 0, STATIC
        FUNCALL shell_parse, printf
        LOCFRAME ISTACK, 0, STACK
        LOCFRAME PSTACK, 0, STACK
        LOCFRAME XSTACK, 45, STACK
        LOCFRAME IOVERLAY, 0, STATIC
        LOCFRAME DOVERLAY, 0, STATIC
        ARGFRAME ISTACK, 0, STACK
        ARGFRAME PSTACK, 0, STACK
        ARGFRAME XSTACK, 45, STACK
        ARGFRAME IOVERLAY, 0, STATIC
        ARGFRAME DOVERLAY, 0, STATIC
        REQUIRE ?V0
        REQUIRE ?V1
        REQUIRE ?V2
        REQUIRE ?V3
        REQUIRE ?V4
        REQUIRE ?V5
        REQUIRE ?V6
        REQUIRE ?V7
        MOV     A,#-0xf
        LCALL   ?FUNC_ENTER_XDATA
          CFI DPH0 load(1, XDATA, add(CFA_XSP16, literal(-1)))
          CFI DPL0 load(1, XDATA, add(CFA_XSP16, literal(-2)))
          CFI ?RET_HIGH load(1, XDATA, add(CFA_XSP16, literal(-3)))
          CFI ?RET_LOW load(1, XDATA, add(CFA_XSP16, literal(-4)))
          CFI R7 load(1, XDATA, add(CFA_XSP16, literal(-5)))
          CFI V7 load(1, XDATA, add(CFA_XSP16, literal(-6)))
          CFI V6 load(1, XDATA, add(CFA_XSP16, literal(-7)))
          CFI V5 load(1, XDATA, add(CFA_XSP16, literal(-8)))
          CFI V4 load(1, XDATA, add(CFA_XSP16, literal(-9)))
          CFI V3 load(1, XDATA, add(CFA_XSP16, literal(-10)))
          CFI V2 load(1, XDATA, add(CFA_XSP16, literal(-11)))
          CFI V1 load(1, XDATA, add(CFA_XSP16, literal(-12)))
          CFI V0 load(1, XDATA, add(CFA_XSP16, literal(-13)))
          CFI VB load(1, XDATA, add(CFA_XSP16, literal(-14)))
          CFI R6 load(1, XDATA, add(CFA_XSP16, literal(-15)))
          CFI CFA_SP SP+0
          CFI CFA_XSP16 add(XSP16, 15)
        ; Saved register size: 15
        ; Auto size: 28
        MOV     A,#-0x1c
        LCALL   ?ALLOC_XSTACK8
          CFI CFA_XSP16 add(XSP16, 43)
        MOV     A,#0x12
        LCALL   ?XSTACK_DISP0_8
        LCALL   ??Subroutine51_0
??CrossCallReturnLabel_89:
        MOV     A,#0x2
        LCALL   ?XSTACK_DISP0_8
        MOV     A,R4
        MOVX    @DPTR,A
        INC     DPTR
        MOV     A,R5
        MOVX    @DPTR,A
//  461 	union uncmd unCmd ;
//  462 	uint32_t len = 0;
        MOV     A,#0x18
        LCALL   ?XSTACK_DISP0_8
        LCALL   ?Subroutine10
//  463 	uint32_t sum = 0;
??CrossCallReturnLabel_12:
        MOV     A,#0x14
        LCALL   ?XSTACK_DISP0_8
        LCALL   ?Subroutine9
//  464 	uint32_t fcrc8 = 0;
??CrossCallReturnLabel_9:
        LCALL   ?XSTACK_DISP0_8
        LCALL   ?Subroutine10
//  465 	uint32_t bcrc8 = 0;
??CrossCallReturnLabel_13:
        MOV     A,#0x6
        LCALL   ?XSTACK_DISP0_8
        LCALL   ?Subroutine10
//  466 	char  *  str = shellin->cmdline;
??CrossCallReturnLabel_14:
        MOV     A,#0x2
        LCALL   ?XSTACK_DISP0_8
        LCALL   ?Subroutine29
??CrossCallReturnLabel_48:
        MOV     A,#0x4
        LCALL   ?XSTACK_DISP0_8
        LCALL   ??Subroutine57_0
??CrossCallReturnLabel_121:
        MOV     A,#0x4
        LCALL   ?XSTACK_DISP0_8
        MOVX    A,@DPTR
        MOV     DPL,?XSP + 0
        MOV     DPH,?XSP + 1
        SJMP    ??shell_parse_0
//  467 	struct shellcommand * cmdmatch;
//  468 
//  469 	/* Shave off any leading spaces */
//  470 	for ( ; ' ' == *str ; ++str) ;	
??shell_parse_1:
        MOVX    A,@DPTR
        ADD     A,#0x1
        INC     R0
        LCALL   ?Subroutine43
??CrossCallReturnLabel_115:
        MOV     A,R0
??shell_parse_0:
        LCALL   ?Subroutine5
??CrossCallReturnLabel_5:
        XRL     A,#0x20
        MOV     DPL,?XSP + 0
        MOV     DPH,?XSP + 1
        JZ      ??shell_parse_1
//  471 
//  472 	if (0 == *str)
        LCALL   ??Subroutine64_0
??CrossCallReturnLabel_149:
        MOVX    A,@DPTR
        MOV     R1,A
        JNZ     $+5
        LJMP    ??shell_parse_2
//  473 		goto PARSE_END;
//  474 
//  475 	unCmd.part.FirstChar = *str ;
        MOV     A,#0xe
        LCALL   ?XSTACK_DISP0_8
        MOV     R0,#?V0
        LCALL   ?L_MOV_X
        MOV     DPTR,#__Constant_3ffffff
        MOV     R0,#?V0
        LCALL   ?L_AND_X
        MOV     ?V4,R1
        CLR     A
        MOV     ?V5,A
        MOV     ?V6,A
        MOV     ?V7,A
        MOV     A,#0x1a
        MOV     R0,#?V4
        LCALL   ?L_SHL
        MOV     R0,#?V0
        MOV     R1,#?V4
        LCALL   ?L_IOR
        MOV     A,#0xe
        LCALL   ?XSTACK_DISP0_8
        MOV     R0,#?V0
        LCALL   ?L_MOV_TO_X
        SJMP    ??shell_parse_3
//  476 	for (; (*str) && (*str != ' ') ; ++str ,++len) {
//  477 		sum += *str;
??shell_parse_4:
        MOV     ?V0,R2
        CLR     A
        MOV     ?V1,A
        MOV     ?V2,A
        MOV     ?V3,A
        MOV     A,#0x14
        LCALL   ?XSTACK_DISP0_8
        MOV     R0,#?V0
        LCALL   ?L_ADD_TO_X
//  478 		fcrc8 = F_CRC8_Table[fcrc8^*str];
        MOV     A,#0xa
        LCALL   ?XSTACK_DISP0_8
        MOV     R0,#?V0
        LCALL   ?L_MOV_X
        MOV     A,?V0
        XRL     A,R2
        MOV     R0,A
        MOV     R1,?V1
        MOV     A,#F_CRC8_Table & 0xff
        ADD     A,R0
        MOV     DPL,A
        MOV     A,#(F_CRC8_Table >> 8) & 0xff
        ADDC    A,R1
        MOV     DPH,A
        MOVX    A,@DPTR
        MOV     R4,A
        MOV     A,#0xa
        LCALL   ?XSTACK_DISP0_8
        LCALL   ?Subroutine4
//  479 		bcrc8 = B_CRC8_Table[bcrc8^*str];
??CrossCallReturnLabel_1:
        MOV     A,#0x6
        LCALL   ?XSTACK_DISP0_8
        MOV     R0,#?V0
        LCALL   ?L_MOV_X
        LCALL   ?Subroutine36
//  480 	}
??CrossCallReturnLabel_62:
        LCALL   ?XSTACK_DISP0_8
        LCALL   ?Subroutine4
??CrossCallReturnLabel_2:
        MOV     DPL,?XSP + 0
        MOV     DPH,?XSP + 1
        MOVX    A,@DPTR
        ADD     A,#0x1
        LCALL   ??Subroutine56_0
??CrossCallReturnLabel_130:
        MOV     DPTR,#__Constant_1
        MOV     R0,#?V0
        LCALL   ?L_MOV_X
        MOV     A,#0x18
        LCALL   ?XSTACK_DISP0_8
        MOV     R0,#?V0
        LCALL   ?L_ADD_TO_X
??shell_parse_3:
        LCALL   ?Subroutine15
??CrossCallReturnLabel_88:
        JZ      ??shell_parse_5
        MOV     A,#0x20
        XRL     A,R2
        JNZ     ??shell_parse_4
//  481 
//  482 	unCmd.part.Len = len;
//  483 	unCmd.part.Sum = sum;
//  484 	unCmd.part.CRC1 = fcrc8;
//  485 	unCmd.part.CRC2 = bcrc8;
//  486 
//  487 	cmdmatch = shell_search_cmd(cmdroot,unCmd.ID);
??shell_parse_5:
        MOV     A,#0xe
        LCALL   ?XSTACK_DISP0_8
        MOV     R0,#?V4
        LCALL   ?L_MOV_X
        MOV     DPTR,#__Constant_fc000000
        MOV     R0,#?V4
        LCALL   ?L_AND_X
        MOV     A,#0x18
        LCALL   ?XSTACK_DISP0_8
        MOV     R0,#?V0
        LCALL   ?L_MOV_X
        MOV     A,#0x15
        MOV     R0,#?V0
        LCALL   ?L_SHL
        MOV     DPTR,#__Constant_3e00000
        MOV     R0,#?V0
        LCALL   ?L_AND_X
        MOV     R0,#?V4
        MOV     R1,#?V0
        LCALL   ?L_IOR
        MOV     A,#0x14
        LCALL   ?XSTACK_DISP0_8
        MOV     R0,#?V0
        LCALL   ?L_MOV_X
        MOV     A,#0x10
        MOV     R0,#?V0
        LCALL   ?L_SHL
        MOV     DPTR,#__Constant_1f0000
        MOV     R0,#?V0
        LCALL   ?L_AND_X
        MOV     R0,#?V4
        MOV     R1,#?V0
        LCALL   ?L_IOR
        MOV     A,#0xa
        LCALL   ?XSTACK_DISP0_8
        MOV     R0,#?V0
        LCALL   ?L_MOV_X
        MOV     A,#0x8
        MOV     R0,#?V0
        LCALL   ?L_SHL
        MOV     DPTR,#__Constant_ff00
        MOV     R0,#?V0
        LCALL   ?L_AND_X
        MOV     R0,#?V4
        MOV     R1,#?V0
        LCALL   ?L_IOR
        MOV     A,#0x6
        LCALL   ?XSTACK_DISP0_8
        MOV     R0,#?V0
        LCALL   ?L_MOV_X
        MOV     DPTR,#__Constant_ff
        MOV     R0,#?V0
        LCALL   ?L_AND_X
        MOV     R0,#?V4
        MOV     R1,#?V0
        LCALL   ?L_IOR
        MOV     A,#0x12
        LCALL   ?XSTACK_DISP0_8
        LCALL   ??Subroutine63_0
??CrossCallReturnLabel_152:
        SJMP    ??shell_parse_6
??shell_parse_7:
        MOV     DPL,R2
        MOV     DPH,R3
??shell_parse_6:
        LCALL   ??Subroutine55_0
??CrossCallReturnLabel_108:
        MOV     A,R2
        ORL     A,R3
        JNZ     $+5
        LJMP    ??shell_parse_8
        MOV     DPL,R2
        MOV     DPH,R3
        INC     DPTR
        INC     DPTR
        INC     DPTR
        INC     DPTR
        INC     DPTR
        INC     DPTR
        MOV     R0,#?V0
        LCALL   ?L_MOV_X
        MOV     R0,#?V0
        MOV     R1,#?V4
        LCALL   ?UL_GT
        JC      ??shell_parse_8
        MOV     R0,#?V0
        MOV     R1,#?V4
        LCALL   ?L_EQ
        JNZ     ??shell_parse_7
        MOV     A,R2
        MOV     R4,A
        MOV     A,R3
        MOV     R5,A
//  488 	if (cmdmatch != NULL) {
        MOV     A,R4
        ORL     A,R5
        JZ      ??shell_parse_8
//  489 		/* 判断是否为有选项的命令 */
//  490 		shellcfm_t * confirm ;
//  491 		confirm = container_of(cmdmatch, struct shellconfirm, cmd);
//  492 		if (confirm->flag == CONFIRM_FLAG) {
        MOV     DPTR,#__Constant_87654321
        MOV     R0,#?V0
        LCALL   ?L_MOV_X
        MOV     A,R4
        ADD     A,#0xc
        MOV     DPL,A
        CLR     A
        ADDC    A,R5
        MOV     DPH,A
        MOV     R0,#?V0
        LCALL   ?L_EQ_X
        JNZ     ??shell_parse_9
//  493 			shell_confirm(shellin,confirm->prompt,cmdmatch->func);
        ; Setup parameters for call to function shell_confirm
        MOV     DPL,R4
        MOV     DPH,R5
        INC     DPTR
        INC     DPTR
        INC     DPTR
        INC     DPTR
        LCALL   ?PUSH_XSTACK8_X_TWO
          CFI CFA_XSP16 add(XSP16, 45)
        MOV     DPL,R4
        MOV     DPH,R5
        INC     DPTR
        INC     DPTR
        INC     DPTR
        INC     DPTR
        INC     DPTR
        INC     DPTR
        INC     DPTR
        INC     DPTR
        INC     DPTR
        INC     DPTR
        LCALL   ?Subroutine26
//  494 		}
??CrossCallReturnLabel_43:
        MOV     A,#0x4
        LCALL   ?XSTACK_DISP0_8
        LCALL   ??Subroutine55_0
??CrossCallReturnLabel_109:
        LCALL   shell_confirm
        SJMP    ??shell_parse_10
          CFI CFA_XSP16 add(XSP16, 43)
//  495 		else {
//  496 			cmdmatch->func(shellin->cmdline);
??shell_parse_9:
        ; Setup parameters for indirect call
        MOV     A,#0x4
        LCALL   ?XSTACK_DISP0_8
        LCALL   ??Subroutine55_0
//  497 		}
//  498 	}
??CrossCallReturnLabel_110:
        MOV     DPL,R4
        MOV     DPH,R5
        INC     DPTR
        INC     DPTR
        INC     DPTR
        INC     DPTR
        LCALL   ??Subroutine63_0
??CrossCallReturnLabel_153:
        LCALL   ?CALL_IND
        SJMP    ??shell_parse_2
//  499 	else {
//  500 		printf("\r\n\tno reply:%s\r\n",shellin->cmdline);
??shell_parse_8:
        ; Setup parameters for call to function printf
        MOV     A,#0x4
        LCALL   ?XSTACK_DISP0_8
        LCALL   ?PUSH_XSTACK8_X_TWO
          CFI CFA_XSP16 add(XSP16, 45)
        MOV     R2,#`?<Constant "\\r\\n\\tno reply:%s\\r\\n">` & 0xff
        MOV     R3,#(`?<Constant "\\r\\n\\tno reply:%s\\r\\n">` >> 8) & 0xff
        LCALL   printf
??shell_parse_10:
        MOV     A,#0x2
        LCALL   ?DEALLOC_XSTACK8
          CFI CFA_XSP16 add(XSP16, 43)
//  501 	}
//  502 	
//  503 PARSE_END:
//  504 	shellin->tail = 0;//清空当前命令行输入
??shell_parse_2:
        MOV     A,#0x2
        LCALL   ?XSTACK_DISP0_8
        MOVX    A,@DPTR
        MOV     R0,A
        INC     DPTR
        MOVX    A,@DPTR
        XCH     A,R0
        ADD     A,#0x6b
        MOV     DPL,A
        CLR     A
        ADDC    A,R0
        MOV     DPH,A
        CLR     A
        MOVX    @DPTR,A
//  505 	shellin->edit = 0;
        MOV     A,#0x2
        LCALL   ?XSTACK_DISP0_8
        MOVX    A,@DPTR
        MOV     R0,A
        INC     DPTR
        MOVX    A,@DPTR
        XCH     A,R0
        ADD     A,#0x6a
        MOV     DPL,A
        CLR     A
        ADDC    A,R0
        MOV     DPH,A
        CLR     A
        MOVX    @DPTR,A
//  506 	return ;
        MOV     A,#0x1c
        LJMP    ??Subroutine53_0
          CFI EndBlock cfiBlock96
//  507 }

        RSEG NEAR_CODE:CODE:NOROOT(0)
?Subroutine29:
          CFI Block cfiCond97 Using cfiCommon0
          CFI Function shell_tab
          CFI Conditional ??CrossCallReturnLabel_47
          CFI R6 load(1, XDATA, add(CFA_XSP16, literal(-15)))
          CFI VB load(1, XDATA, add(CFA_XSP16, literal(-14)))
          CFI V0 load(1, XDATA, add(CFA_XSP16, literal(-13)))
          CFI V1 load(1, XDATA, add(CFA_XSP16, literal(-12)))
          CFI V2 load(1, XDATA, add(CFA_XSP16, literal(-11)))
          CFI V3 load(1, XDATA, add(CFA_XSP16, literal(-10)))
          CFI V4 load(1, XDATA, add(CFA_XSP16, literal(-9)))
          CFI V5 load(1, XDATA, add(CFA_XSP16, literal(-8)))
          CFI V6 load(1, XDATA, add(CFA_XSP16, literal(-7)))
          CFI V7 load(1, XDATA, add(CFA_XSP16, literal(-6)))
          CFI R7 load(1, XDATA, add(CFA_XSP16, literal(-5)))
          CFI ?RET_LOW load(1, XDATA, add(CFA_XSP16, literal(-4)))
          CFI ?RET_HIGH load(1, XDATA, add(CFA_XSP16, literal(-3)))
          CFI DPL0 load(1, XDATA, add(CFA_XSP16, literal(-2)))
          CFI DPH0 load(1, XDATA, add(CFA_XSP16, literal(-1)))
          CFI CFA_XSP16 add(XSP16, 45)
          CFI Block cfiCond98 Using cfiCommon0
          CFI (cfiCond98) Function shell_parse
          CFI (cfiCond98) Conditional ??CrossCallReturnLabel_48
          CFI (cfiCond98) R6 load(1, XDATA, add(CFA_XSP16, literal(-15)))
          CFI (cfiCond98) VB load(1, XDATA, add(CFA_XSP16, literal(-14)))
          CFI (cfiCond98) V0 load(1, XDATA, add(CFA_XSP16, literal(-13)))
          CFI (cfiCond98) V1 load(1, XDATA, add(CFA_XSP16, literal(-12)))
          CFI (cfiCond98) V2 load(1, XDATA, add(CFA_XSP16, literal(-11)))
          CFI (cfiCond98) V3 load(1, XDATA, add(CFA_XSP16, literal(-10)))
          CFI (cfiCond98) V4 load(1, XDATA, add(CFA_XSP16, literal(-9)))
          CFI (cfiCond98) V5 load(1, XDATA, add(CFA_XSP16, literal(-8)))
          CFI (cfiCond98) V6 load(1, XDATA, add(CFA_XSP16, literal(-7)))
          CFI (cfiCond98) V7 load(1, XDATA, add(CFA_XSP16, literal(-6)))
          CFI (cfiCond98) R7 load(1, XDATA, add(CFA_XSP16, literal(-5)))
          CFI (cfiCond98) ?RET_LOW load(1, XDATA, add(CFA_XSP16, literal(-4)))
          CFI (cfiCond98) ?RET_HIGH load(1, XDATA, add(CFA_XSP16, literal(-3)))
          CFI (cfiCond98) DPL0 load(1, XDATA, add(CFA_XSP16, literal(-2)))
          CFI (cfiCond98) DPH0 load(1, XDATA, add(CFA_XSP16, literal(-1)))
          CFI (cfiCond98) CFA_XSP16 add(XSP16, 43)
          CFI Block cfiPicker99 Using cfiCommon1
          CFI (cfiPicker99) NoFunction
          CFI (cfiPicker99) Picker
        MOVX    A,@DPTR
        ADD     A,#0x38
        MOV     R0,A
        INC     DPTR
        MOVX    A,@DPTR
        ADDC    A,#0x0
        MOV     R1,A
        RET
          CFI EndBlock cfiCond97
          CFI EndBlock cfiCond98
          CFI EndBlock cfiPicker99

        RSEG NEAR_CODE:CODE:NOROOT(0)
?Subroutine26:
          CFI Block cfiCond100 Using cfiCommon0
          CFI Function checkout
          CFI Conditional ??CrossCallReturnLabel_41
          CFI R6 load(1, XDATA, add(CFA_XSP16, literal(-15)))
          CFI VB load(1, XDATA, add(CFA_XSP16, literal(-14)))
          CFI V0 load(1, XDATA, add(CFA_XSP16, literal(-13)))
          CFI V1 load(1, XDATA, add(CFA_XSP16, literal(-12)))
          CFI V2 load(1, XDATA, add(CFA_XSP16, literal(-11)))
          CFI V3 load(1, XDATA, add(CFA_XSP16, literal(-10)))
          CFI V4 load(1, XDATA, add(CFA_XSP16, literal(-9)))
          CFI V5 load(1, XDATA, add(CFA_XSP16, literal(-8)))
          CFI V6 load(1, XDATA, add(CFA_XSP16, literal(-7)))
          CFI V7 load(1, XDATA, add(CFA_XSP16, literal(-6)))
          CFI R7 load(1, XDATA, add(CFA_XSP16, literal(-5)))
          CFI ?RET_LOW load(1, XDATA, add(CFA_XSP16, literal(-4)))
          CFI ?RET_HIGH load(1, XDATA, add(CFA_XSP16, literal(-3)))
          CFI DPL0 load(1, XDATA, add(CFA_XSP16, literal(-2)))
          CFI DPH0 load(1, XDATA, add(CFA_XSP16, literal(-1)))
          CFI CFA_XSP16 add(XSP16, 29)
          CFI Block cfiCond101 Using cfiCommon0
          CFI (cfiCond101) Function shell_tab
          CFI (cfiCond101) Conditional ??CrossCallReturnLabel_42
          CFI (cfiCond101) R6 load(1, XDATA, add(CFA_XSP16, literal(-15)))
          CFI (cfiCond101) VB load(1, XDATA, add(CFA_XSP16, literal(-14)))
          CFI (cfiCond101) V0 load(1, XDATA, add(CFA_XSP16, literal(-13)))
          CFI (cfiCond101) V1 load(1, XDATA, add(CFA_XSP16, literal(-12)))
          CFI (cfiCond101) V2 load(1, XDATA, add(CFA_XSP16, literal(-11)))
          CFI (cfiCond101) V3 load(1, XDATA, add(CFA_XSP16, literal(-10)))
          CFI (cfiCond101) V4 load(1, XDATA, add(CFA_XSP16, literal(-9)))
          CFI (cfiCond101) V5 load(1, XDATA, add(CFA_XSP16, literal(-8)))
          CFI (cfiCond101) V6 load(1, XDATA, add(CFA_XSP16, literal(-7)))
          CFI (cfiCond101) V7 load(1, XDATA, add(CFA_XSP16, literal(-6)))
          CFI (cfiCond101) R7 load(1, XDATA, add(CFA_XSP16, literal(-5)))
          CFI (cfiCond101) ?RET_LOW load(1, XDATA, add(CFA_XSP16, literal(-4)))
          CFI (cfiCond101) ?RET_HIGH load(1, XDATA, add(CFA_XSP16, literal(-3)))
          CFI (cfiCond101) DPL0 load(1, XDATA, add(CFA_XSP16, literal(-2)))
          CFI (cfiCond101) DPH0 load(1, XDATA, add(CFA_XSP16, literal(-1)))
          CFI (cfiCond101) CFA_XSP16 add(XSP16, 45)
          CFI Block cfiCond102 Using cfiCommon0
          CFI (cfiCond102) Function shell_parse
          CFI (cfiCond102) Conditional ??CrossCallReturnLabel_43
          CFI (cfiCond102) R6 load(1, XDATA, add(CFA_XSP16, literal(-15)))
          CFI (cfiCond102) VB load(1, XDATA, add(CFA_XSP16, literal(-14)))
          CFI (cfiCond102) V0 load(1, XDATA, add(CFA_XSP16, literal(-13)))
          CFI (cfiCond102) V1 load(1, XDATA, add(CFA_XSP16, literal(-12)))
          CFI (cfiCond102) V2 load(1, XDATA, add(CFA_XSP16, literal(-11)))
          CFI (cfiCond102) V3 load(1, XDATA, add(CFA_XSP16, literal(-10)))
          CFI (cfiCond102) V4 load(1, XDATA, add(CFA_XSP16, literal(-9)))
          CFI (cfiCond102) V5 load(1, XDATA, add(CFA_XSP16, literal(-8)))
          CFI (cfiCond102) V6 load(1, XDATA, add(CFA_XSP16, literal(-7)))
          CFI (cfiCond102) V7 load(1, XDATA, add(CFA_XSP16, literal(-6)))
          CFI (cfiCond102) R7 load(1, XDATA, add(CFA_XSP16, literal(-5)))
          CFI (cfiCond102) ?RET_LOW load(1, XDATA, add(CFA_XSP16, literal(-4)))
          CFI (cfiCond102) ?RET_HIGH load(1, XDATA, add(CFA_XSP16, literal(-3)))
          CFI (cfiCond102) DPL0 load(1, XDATA, add(CFA_XSP16, literal(-2)))
          CFI (cfiCond102) DPH0 load(1, XDATA, add(CFA_XSP16, literal(-1)))
          CFI (cfiCond102) CFA_XSP16 add(XSP16, 45)
          CFI Block cfiCond103 Using cfiCommon0
          CFI (cfiCond103) Function _shell_register
          CFI (cfiCond103) Conditional ??CrossCallReturnLabel_44
          CFI (cfiCond103) R6 load(1, XDATA, add(CFA_XSP16, literal(-15)))
          CFI (cfiCond103) VB load(1, XDATA, add(CFA_XSP16, literal(-14)))
          CFI (cfiCond103) V0 load(1, XDATA, add(CFA_XSP16, literal(-13)))
          CFI (cfiCond103) V1 load(1, XDATA, add(CFA_XSP16, literal(-12)))
          CFI (cfiCond103) V2 load(1, XDATA, add(CFA_XSP16, literal(-11)))
          CFI (cfiCond103) V3 load(1, XDATA, add(CFA_XSP16, literal(-10)))
          CFI (cfiCond103) V4 load(1, XDATA, add(CFA_XSP16, literal(-9)))
          CFI (cfiCond103) V5 load(1, XDATA, add(CFA_XSP16, literal(-8)))
          CFI (cfiCond103) V6 load(1, XDATA, add(CFA_XSP16, literal(-7)))
          CFI (cfiCond103) V7 load(1, XDATA, add(CFA_XSP16, literal(-6)))
          CFI (cfiCond103) R7 load(1, XDATA, add(CFA_XSP16, literal(-5)))
          CFI (cfiCond103) ?RET_LOW load(1, XDATA, add(CFA_XSP16, literal(-4)))
          CFI (cfiCond103) ?RET_HIGH load(1, XDATA, add(CFA_XSP16, literal(-3)))
          CFI (cfiCond103) DPL0 load(1, XDATA, add(CFA_XSP16, literal(-2)))
          CFI (cfiCond103) DPH0 load(1, XDATA, add(CFA_XSP16, literal(-1)))
          CFI (cfiCond103) CFA_XSP16 add(XSP16, 37)
          CFI Block cfiPicker104 Using cfiCommon1
          CFI (cfiPicker104) NoFunction
          CFI (cfiPicker104) Picker
        MOVX    A,@DPTR
        MOV     R4,A
        INC     DPTR
        MOVX    A,@DPTR
        MOV     R5,A
        RET
          CFI EndBlock cfiCond100
          CFI EndBlock cfiCond101
          CFI EndBlock cfiCond102
          CFI EndBlock cfiCond103
          CFI EndBlock cfiPicker104

        RSEG NEAR_CODE:CODE:NOROOT(0)
?Subroutine10:
          CFI Block cfiCond105 Using cfiCommon0
          CFI Function checkout
          CFI Conditional ??CrossCallReturnLabel_11
          CFI R6 load(1, XDATA, add(CFA_XSP16, literal(-15)))
          CFI VB load(1, XDATA, add(CFA_XSP16, literal(-14)))
          CFI V0 load(1, XDATA, add(CFA_XSP16, literal(-13)))
          CFI V1 load(1, XDATA, add(CFA_XSP16, literal(-12)))
          CFI V2 load(1, XDATA, add(CFA_XSP16, literal(-11)))
          CFI V3 load(1, XDATA, add(CFA_XSP16, literal(-10)))
          CFI V4 load(1, XDATA, add(CFA_XSP16, literal(-9)))
          CFI V5 load(1, XDATA, add(CFA_XSP16, literal(-8)))
          CFI V6 load(1, XDATA, add(CFA_XSP16, literal(-7)))
          CFI V7 load(1, XDATA, add(CFA_XSP16, literal(-6)))
          CFI R7 load(1, XDATA, add(CFA_XSP16, literal(-5)))
          CFI ?RET_LOW load(1, XDATA, add(CFA_XSP16, literal(-4)))
          CFI ?RET_HIGH load(1, XDATA, add(CFA_XSP16, literal(-3)))
          CFI DPL0 load(1, XDATA, add(CFA_XSP16, literal(-2)))
          CFI DPH0 load(1, XDATA, add(CFA_XSP16, literal(-1)))
          CFI CFA_XSP16 add(XSP16, 27)
          CFI Block cfiCond106 Using cfiCommon0
          CFI (cfiCond106) Function shell_parse
          CFI (cfiCond106) Conditional ??CrossCallReturnLabel_12
          CFI (cfiCond106) R6 load(1, XDATA, add(CFA_XSP16, literal(-15)))
          CFI (cfiCond106) VB load(1, XDATA, add(CFA_XSP16, literal(-14)))
          CFI (cfiCond106) V0 load(1, XDATA, add(CFA_XSP16, literal(-13)))
          CFI (cfiCond106) V1 load(1, XDATA, add(CFA_XSP16, literal(-12)))
          CFI (cfiCond106) V2 load(1, XDATA, add(CFA_XSP16, literal(-11)))
          CFI (cfiCond106) V3 load(1, XDATA, add(CFA_XSP16, literal(-10)))
          CFI (cfiCond106) V4 load(1, XDATA, add(CFA_XSP16, literal(-9)))
          CFI (cfiCond106) V5 load(1, XDATA, add(CFA_XSP16, literal(-8)))
          CFI (cfiCond106) V6 load(1, XDATA, add(CFA_XSP16, literal(-7)))
          CFI (cfiCond106) V7 load(1, XDATA, add(CFA_XSP16, literal(-6)))
          CFI (cfiCond106) R7 load(1, XDATA, add(CFA_XSP16, literal(-5)))
          CFI (cfiCond106) ?RET_LOW load(1, XDATA, add(CFA_XSP16, literal(-4)))
          CFI (cfiCond106) ?RET_HIGH load(1, XDATA, add(CFA_XSP16, literal(-3)))
          CFI (cfiCond106) DPL0 load(1, XDATA, add(CFA_XSP16, literal(-2)))
          CFI (cfiCond106) DPH0 load(1, XDATA, add(CFA_XSP16, literal(-1)))
          CFI (cfiCond106) CFA_XSP16 add(XSP16, 43)
          CFI Block cfiCond107 Using cfiCommon0
          CFI (cfiCond107) Function shell_parse
          CFI (cfiCond107) Conditional ??CrossCallReturnLabel_13
          CFI (cfiCond107) R6 load(1, XDATA, add(CFA_XSP16, literal(-15)))
          CFI (cfiCond107) VB load(1, XDATA, add(CFA_XSP16, literal(-14)))
          CFI (cfiCond107) V0 load(1, XDATA, add(CFA_XSP16, literal(-13)))
          CFI (cfiCond107) V1 load(1, XDATA, add(CFA_XSP16, literal(-12)))
          CFI (cfiCond107) V2 load(1, XDATA, add(CFA_XSP16, literal(-11)))
          CFI (cfiCond107) V3 load(1, XDATA, add(CFA_XSP16, literal(-10)))
          CFI (cfiCond107) V4 load(1, XDATA, add(CFA_XSP16, literal(-9)))
          CFI (cfiCond107) V5 load(1, XDATA, add(CFA_XSP16, literal(-8)))
          CFI (cfiCond107) V6 load(1, XDATA, add(CFA_XSP16, literal(-7)))
          CFI (cfiCond107) V7 load(1, XDATA, add(CFA_XSP16, literal(-6)))
          CFI (cfiCond107) R7 load(1, XDATA, add(CFA_XSP16, literal(-5)))
          CFI (cfiCond107) ?RET_LOW load(1, XDATA, add(CFA_XSP16, literal(-4)))
          CFI (cfiCond107) ?RET_HIGH load(1, XDATA, add(CFA_XSP16, literal(-3)))
          CFI (cfiCond107) DPL0 load(1, XDATA, add(CFA_XSP16, literal(-2)))
          CFI (cfiCond107) DPH0 load(1, XDATA, add(CFA_XSP16, literal(-1)))
          CFI (cfiCond107) CFA_XSP16 add(XSP16, 43)
          CFI Block cfiCond108 Using cfiCommon0
          CFI (cfiCond108) Function shell_parse
          CFI (cfiCond108) Conditional ??CrossCallReturnLabel_14
          CFI (cfiCond108) R6 load(1, XDATA, add(CFA_XSP16, literal(-15)))
          CFI (cfiCond108) VB load(1, XDATA, add(CFA_XSP16, literal(-14)))
          CFI (cfiCond108) V0 load(1, XDATA, add(CFA_XSP16, literal(-13)))
          CFI (cfiCond108) V1 load(1, XDATA, add(CFA_XSP16, literal(-12)))
          CFI (cfiCond108) V2 load(1, XDATA, add(CFA_XSP16, literal(-11)))
          CFI (cfiCond108) V3 load(1, XDATA, add(CFA_XSP16, literal(-10)))
          CFI (cfiCond108) V4 load(1, XDATA, add(CFA_XSP16, literal(-9)))
          CFI (cfiCond108) V5 load(1, XDATA, add(CFA_XSP16, literal(-8)))
          CFI (cfiCond108) V6 load(1, XDATA, add(CFA_XSP16, literal(-7)))
          CFI (cfiCond108) V7 load(1, XDATA, add(CFA_XSP16, literal(-6)))
          CFI (cfiCond108) R7 load(1, XDATA, add(CFA_XSP16, literal(-5)))
          CFI (cfiCond108) ?RET_LOW load(1, XDATA, add(CFA_XSP16, literal(-4)))
          CFI (cfiCond108) ?RET_HIGH load(1, XDATA, add(CFA_XSP16, literal(-3)))
          CFI (cfiCond108) DPL0 load(1, XDATA, add(CFA_XSP16, literal(-2)))
          CFI (cfiCond108) DPH0 load(1, XDATA, add(CFA_XSP16, literal(-1)))
          CFI (cfiCond108) CFA_XSP16 add(XSP16, 43)
          CFI Block cfiCond109 Using cfiCommon0
          CFI (cfiCond109) Function _shell_register
          CFI (cfiCond109) Conditional ??CrossCallReturnLabel_15
          CFI (cfiCond109) R6 load(1, XDATA, add(CFA_XSP16, literal(-15)))
          CFI (cfiCond109) VB load(1, XDATA, add(CFA_XSP16, literal(-14)))
          CFI (cfiCond109) V0 load(1, XDATA, add(CFA_XSP16, literal(-13)))
          CFI (cfiCond109) V1 load(1, XDATA, add(CFA_XSP16, literal(-12)))
          CFI (cfiCond109) V2 load(1, XDATA, add(CFA_XSP16, literal(-11)))
          CFI (cfiCond109) V3 load(1, XDATA, add(CFA_XSP16, literal(-10)))
          CFI (cfiCond109) V4 load(1, XDATA, add(CFA_XSP16, literal(-9)))
          CFI (cfiCond109) V5 load(1, XDATA, add(CFA_XSP16, literal(-8)))
          CFI (cfiCond109) V6 load(1, XDATA, add(CFA_XSP16, literal(-7)))
          CFI (cfiCond109) V7 load(1, XDATA, add(CFA_XSP16, literal(-6)))
          CFI (cfiCond109) R7 load(1, XDATA, add(CFA_XSP16, literal(-5)))
          CFI (cfiCond109) ?RET_LOW load(1, XDATA, add(CFA_XSP16, literal(-4)))
          CFI (cfiCond109) ?RET_HIGH load(1, XDATA, add(CFA_XSP16, literal(-3)))
          CFI (cfiCond109) DPL0 load(1, XDATA, add(CFA_XSP16, literal(-2)))
          CFI (cfiCond109) DPH0 load(1, XDATA, add(CFA_XSP16, literal(-1)))
          CFI (cfiCond109) CFA_XSP16 add(XSP16, 37)
          CFI Block cfiPicker110 Using cfiCommon1
          CFI (cfiPicker110) NoFunction
          CFI (cfiPicker110) Picker
        LCALL   ?Subroutine42
??CrossCallReturnLabel_78:
        MOVX    @DPTR,A
        RET
          CFI EndBlock cfiCond105
          CFI EndBlock cfiCond106
          CFI EndBlock cfiCond107
          CFI EndBlock cfiCond108
          CFI EndBlock cfiCond109
          CFI EndBlock cfiPicker110

        RSEG NEAR_CODE:CODE:NOROOT(0)
?Subroutine7:
          CFI Block cfiCond111 Using cfiCommon0
          CFI Function shell_input_init
          CFI Conditional ??CrossCallReturnLabel_131
          CFI R6 load(1, XDATA, add(CFA_XSP16, literal(-15)))
          CFI VB load(1, XDATA, add(CFA_XSP16, literal(-14)))
          CFI V0 load(1, XDATA, add(CFA_XSP16, literal(-13)))
          CFI V1 load(1, XDATA, add(CFA_XSP16, literal(-12)))
          CFI V2 load(1, XDATA, add(CFA_XSP16, literal(-11)))
          CFI V3 load(1, XDATA, add(CFA_XSP16, literal(-10)))
          CFI V4 load(1, XDATA, add(CFA_XSP16, literal(-9)))
          CFI V5 load(1, XDATA, add(CFA_XSP16, literal(-8)))
          CFI V6 load(1, XDATA, add(CFA_XSP16, literal(-7)))
          CFI V7 load(1, XDATA, add(CFA_XSP16, literal(-6)))
          CFI R7 load(1, XDATA, add(CFA_XSP16, literal(-5)))
          CFI ?RET_LOW load(1, XDATA, add(CFA_XSP16, literal(-4)))
          CFI ?RET_HIGH load(1, XDATA, add(CFA_XSP16, literal(-3)))
          CFI DPL0 load(1, XDATA, add(CFA_XSP16, literal(-2)))
          CFI DPH0 load(1, XDATA, add(CFA_XSP16, literal(-1)))
          CFI CFA_XSP16 add(XSP16, 19)
          CFI Block cfiCond112 Using cfiCommon0
          CFI (cfiCond112) Function shell_input_init
          CFI (cfiCond112) Conditional ??CrossCallReturnLabel_132
          CFI (cfiCond112) R6 load(1, XDATA, add(CFA_XSP16, literal(-15)))
          CFI (cfiCond112) VB load(1, XDATA, add(CFA_XSP16, literal(-14)))
          CFI (cfiCond112) V0 load(1, XDATA, add(CFA_XSP16, literal(-13)))
          CFI (cfiCond112) V1 load(1, XDATA, add(CFA_XSP16, literal(-12)))
          CFI (cfiCond112) V2 load(1, XDATA, add(CFA_XSP16, literal(-11)))
          CFI (cfiCond112) V3 load(1, XDATA, add(CFA_XSP16, literal(-10)))
          CFI (cfiCond112) V4 load(1, XDATA, add(CFA_XSP16, literal(-9)))
          CFI (cfiCond112) V5 load(1, XDATA, add(CFA_XSP16, literal(-8)))
          CFI (cfiCond112) V6 load(1, XDATA, add(CFA_XSP16, literal(-7)))
          CFI (cfiCond112) V7 load(1, XDATA, add(CFA_XSP16, literal(-6)))
          CFI (cfiCond112) R7 load(1, XDATA, add(CFA_XSP16, literal(-5)))
          CFI (cfiCond112) ?RET_LOW load(1, XDATA, add(CFA_XSP16, literal(-4)))
          CFI (cfiCond112) ?RET_HIGH load(1, XDATA, add(CFA_XSP16, literal(-3)))
          CFI (cfiCond112) DPL0 load(1, XDATA, add(CFA_XSP16, literal(-2)))
          CFI (cfiCond112) DPH0 load(1, XDATA, add(CFA_XSP16, literal(-1)))
          CFI (cfiCond112) CFA_XSP16 add(XSP16, 19)
          CFI Block cfiPicker113 Using cfiCommon1
          CFI (cfiPicker113) NoFunction
          CFI (cfiPicker113) Picker
        MOV     DPL,?XSP + 0
        MOV     DPH,?XSP + 1
        MOVX    A,@DPTR
        ADD     A,#0x2
          CFI EndBlock cfiCond111
          CFI EndBlock cfiCond112
          CFI EndBlock cfiPicker113
        REQUIRE ??Subroutine56_0
        ; // Fall through to label ??Subroutine56_0

        RSEG NEAR_CODE:CODE:NOROOT(0)
??Subroutine56_0:
          CFI Block cfiCond114 Using cfiCommon0
          CFI Function shell_parse
          CFI Conditional ??CrossCallReturnLabel_130
          CFI R6 load(1, XDATA, add(CFA_XSP16, literal(-15)))
          CFI VB load(1, XDATA, add(CFA_XSP16, literal(-14)))
          CFI V0 load(1, XDATA, add(CFA_XSP16, literal(-13)))
          CFI V1 load(1, XDATA, add(CFA_XSP16, literal(-12)))
          CFI V2 load(1, XDATA, add(CFA_XSP16, literal(-11)))
          CFI V3 load(1, XDATA, add(CFA_XSP16, literal(-10)))
          CFI V4 load(1, XDATA, add(CFA_XSP16, literal(-9)))
          CFI V5 load(1, XDATA, add(CFA_XSP16, literal(-8)))
          CFI V6 load(1, XDATA, add(CFA_XSP16, literal(-7)))
          CFI V7 load(1, XDATA, add(CFA_XSP16, literal(-6)))
          CFI R7 load(1, XDATA, add(CFA_XSP16, literal(-5)))
          CFI ?RET_LOW load(1, XDATA, add(CFA_XSP16, literal(-4)))
          CFI ?RET_HIGH load(1, XDATA, add(CFA_XSP16, literal(-3)))
          CFI DPL0 load(1, XDATA, add(CFA_XSP16, literal(-2)))
          CFI DPH0 load(1, XDATA, add(CFA_XSP16, literal(-1)))
          CFI CFA_XSP16 add(XSP16, 43)
          CFI Block cfiCond115 Using cfiCommon0
          CFI (cfiCond115) Function shell_input_init
          CFI (cfiCond115) Conditional ??CrossCallReturnLabel_131
          CFI (cfiCond115) R6 load(1, XDATA, add(CFA_XSP16, literal(-15)))
          CFI (cfiCond115) VB load(1, XDATA, add(CFA_XSP16, literal(-14)))
          CFI (cfiCond115) V0 load(1, XDATA, add(CFA_XSP16, literal(-13)))
          CFI (cfiCond115) V1 load(1, XDATA, add(CFA_XSP16, literal(-12)))
          CFI (cfiCond115) V2 load(1, XDATA, add(CFA_XSP16, literal(-11)))
          CFI (cfiCond115) V3 load(1, XDATA, add(CFA_XSP16, literal(-10)))
          CFI (cfiCond115) V4 load(1, XDATA, add(CFA_XSP16, literal(-9)))
          CFI (cfiCond115) V5 load(1, XDATA, add(CFA_XSP16, literal(-8)))
          CFI (cfiCond115) V6 load(1, XDATA, add(CFA_XSP16, literal(-7)))
          CFI (cfiCond115) V7 load(1, XDATA, add(CFA_XSP16, literal(-6)))
          CFI (cfiCond115) R7 load(1, XDATA, add(CFA_XSP16, literal(-5)))
          CFI (cfiCond115) ?RET_LOW load(1, XDATA, add(CFA_XSP16, literal(-4)))
          CFI (cfiCond115) ?RET_HIGH load(1, XDATA, add(CFA_XSP16, literal(-3)))
          CFI (cfiCond115) DPL0 load(1, XDATA, add(CFA_XSP16, literal(-2)))
          CFI (cfiCond115) DPH0 load(1, XDATA, add(CFA_XSP16, literal(-1)))
          CFI (cfiCond115) CFA_XSP16 add(XSP16, 19)
          CFI Block cfiCond116 Using cfiCommon0
          CFI (cfiCond116) Function shell_input_init
          CFI (cfiCond116) Conditional ??CrossCallReturnLabel_132
          CFI (cfiCond116) R6 load(1, XDATA, add(CFA_XSP16, literal(-15)))
          CFI (cfiCond116) VB load(1, XDATA, add(CFA_XSP16, literal(-14)))
          CFI (cfiCond116) V0 load(1, XDATA, add(CFA_XSP16, literal(-13)))
          CFI (cfiCond116) V1 load(1, XDATA, add(CFA_XSP16, literal(-12)))
          CFI (cfiCond116) V2 load(1, XDATA, add(CFA_XSP16, literal(-11)))
          CFI (cfiCond116) V3 load(1, XDATA, add(CFA_XSP16, literal(-10)))
          CFI (cfiCond116) V4 load(1, XDATA, add(CFA_XSP16, literal(-9)))
          CFI (cfiCond116) V5 load(1, XDATA, add(CFA_XSP16, literal(-8)))
          CFI (cfiCond116) V6 load(1, XDATA, add(CFA_XSP16, literal(-7)))
          CFI (cfiCond116) V7 load(1, XDATA, add(CFA_XSP16, literal(-6)))
          CFI (cfiCond116) R7 load(1, XDATA, add(CFA_XSP16, literal(-5)))
          CFI (cfiCond116) ?RET_LOW load(1, XDATA, add(CFA_XSP16, literal(-4)))
          CFI (cfiCond116) ?RET_HIGH load(1, XDATA, add(CFA_XSP16, literal(-3)))
          CFI (cfiCond116) DPL0 load(1, XDATA, add(CFA_XSP16, literal(-2)))
          CFI (cfiCond116) DPH0 load(1, XDATA, add(CFA_XSP16, literal(-1)))
          CFI (cfiCond116) CFA_XSP16 add(XSP16, 19)
          CFI Block cfiPicker117 Using cfiCommon1
          CFI (cfiPicker117) NoFunction
          CFI (cfiPicker117) Picker
        MOV     R0,A
        LCALL   ?Subroutine43
          CFI EndBlock cfiCond114
          CFI EndBlock cfiCond115
          CFI EndBlock cfiCond116
          CFI EndBlock cfiPicker117
??CrossCallReturnLabel_116:
        REQUIRE ??Subroutine57_0
        ; // Fall through to label ??Subroutine57_0

        RSEG NEAR_CODE:CODE:NOROOT(0)
??Subroutine57_0:
          CFI Block cfiCond118 Using cfiCommon0
          CFI Function shell_tab
          CFI Conditional ??CrossCallReturnLabel_119
          CFI R6 load(1, XDATA, add(CFA_XSP16, literal(-15)))
          CFI VB load(1, XDATA, add(CFA_XSP16, literal(-14)))
          CFI V0 load(1, XDATA, add(CFA_XSP16, literal(-13)))
          CFI V1 load(1, XDATA, add(CFA_XSP16, literal(-12)))
          CFI V2 load(1, XDATA, add(CFA_XSP16, literal(-11)))
          CFI V3 load(1, XDATA, add(CFA_XSP16, literal(-10)))
          CFI V4 load(1, XDATA, add(CFA_XSP16, literal(-9)))
          CFI V5 load(1, XDATA, add(CFA_XSP16, literal(-8)))
          CFI V6 load(1, XDATA, add(CFA_XSP16, literal(-7)))
          CFI V7 load(1, XDATA, add(CFA_XSP16, literal(-6)))
          CFI R7 load(1, XDATA, add(CFA_XSP16, literal(-5)))
          CFI ?RET_LOW load(1, XDATA, add(CFA_XSP16, literal(-4)))
          CFI ?RET_HIGH load(1, XDATA, add(CFA_XSP16, literal(-3)))
          CFI DPL0 load(1, XDATA, add(CFA_XSP16, literal(-2)))
          CFI DPH0 load(1, XDATA, add(CFA_XSP16, literal(-1)))
          CFI CFA_XSP16 add(XSP16, 45)
          CFI Block cfiCond119 Using cfiCommon0
          CFI (cfiCond119) Function shell_tab
          CFI (cfiCond119) Conditional ??CrossCallReturnLabel_120
          CFI (cfiCond119) R6 load(1, XDATA, add(CFA_XSP16, literal(-15)))
          CFI (cfiCond119) VB load(1, XDATA, add(CFA_XSP16, literal(-14)))
          CFI (cfiCond119) V0 load(1, XDATA, add(CFA_XSP16, literal(-13)))
          CFI (cfiCond119) V1 load(1, XDATA, add(CFA_XSP16, literal(-12)))
          CFI (cfiCond119) V2 load(1, XDATA, add(CFA_XSP16, literal(-11)))
          CFI (cfiCond119) V3 load(1, XDATA, add(CFA_XSP16, literal(-10)))
          CFI (cfiCond119) V4 load(1, XDATA, add(CFA_XSP16, literal(-9)))
          CFI (cfiCond119) V5 load(1, XDATA, add(CFA_XSP16, literal(-8)))
          CFI (cfiCond119) V6 load(1, XDATA, add(CFA_XSP16, literal(-7)))
          CFI (cfiCond119) V7 load(1, XDATA, add(CFA_XSP16, literal(-6)))
          CFI (cfiCond119) R7 load(1, XDATA, add(CFA_XSP16, literal(-5)))
          CFI (cfiCond119) ?RET_LOW load(1, XDATA, add(CFA_XSP16, literal(-4)))
          CFI (cfiCond119) ?RET_HIGH load(1, XDATA, add(CFA_XSP16, literal(-3)))
          CFI (cfiCond119) DPL0 load(1, XDATA, add(CFA_XSP16, literal(-2)))
          CFI (cfiCond119) DPH0 load(1, XDATA, add(CFA_XSP16, literal(-1)))
          CFI (cfiCond119) CFA_XSP16 add(XSP16, 45)
          CFI Block cfiCond120 Using cfiCommon0
          CFI (cfiCond120) Function shell_parse
          CFI (cfiCond120) Conditional ??CrossCallReturnLabel_121
          CFI (cfiCond120) R6 load(1, XDATA, add(CFA_XSP16, literal(-15)))
          CFI (cfiCond120) VB load(1, XDATA, add(CFA_XSP16, literal(-14)))
          CFI (cfiCond120) V0 load(1, XDATA, add(CFA_XSP16, literal(-13)))
          CFI (cfiCond120) V1 load(1, XDATA, add(CFA_XSP16, literal(-12)))
          CFI (cfiCond120) V2 load(1, XDATA, add(CFA_XSP16, literal(-11)))
          CFI (cfiCond120) V3 load(1, XDATA, add(CFA_XSP16, literal(-10)))
          CFI (cfiCond120) V4 load(1, XDATA, add(CFA_XSP16, literal(-9)))
          CFI (cfiCond120) V5 load(1, XDATA, add(CFA_XSP16, literal(-8)))
          CFI (cfiCond120) V6 load(1, XDATA, add(CFA_XSP16, literal(-7)))
          CFI (cfiCond120) V7 load(1, XDATA, add(CFA_XSP16, literal(-6)))
          CFI (cfiCond120) R7 load(1, XDATA, add(CFA_XSP16, literal(-5)))
          CFI (cfiCond120) ?RET_LOW load(1, XDATA, add(CFA_XSP16, literal(-4)))
          CFI (cfiCond120) ?RET_HIGH load(1, XDATA, add(CFA_XSP16, literal(-3)))
          CFI (cfiCond120) DPL0 load(1, XDATA, add(CFA_XSP16, literal(-2)))
          CFI (cfiCond120) DPH0 load(1, XDATA, add(CFA_XSP16, literal(-1)))
          CFI (cfiCond120) CFA_XSP16 add(XSP16, 43)
          CFI Block cfiCond121 Using cfiCommon0
          CFI (cfiCond121) Function _shell_register
          CFI (cfiCond121) Conditional ??CrossCallReturnLabel_122
          CFI (cfiCond121) R6 load(1, XDATA, add(CFA_XSP16, literal(-15)))
          CFI (cfiCond121) VB load(1, XDATA, add(CFA_XSP16, literal(-14)))
          CFI (cfiCond121) V0 load(1, XDATA, add(CFA_XSP16, literal(-13)))
          CFI (cfiCond121) V1 load(1, XDATA, add(CFA_XSP16, literal(-12)))
          CFI (cfiCond121) V2 load(1, XDATA, add(CFA_XSP16, literal(-11)))
          CFI (cfiCond121) V3 load(1, XDATA, add(CFA_XSP16, literal(-10)))
          CFI (cfiCond121) V4 load(1, XDATA, add(CFA_XSP16, literal(-9)))
          CFI (cfiCond121) V5 load(1, XDATA, add(CFA_XSP16, literal(-8)))
          CFI (cfiCond121) V6 load(1, XDATA, add(CFA_XSP16, literal(-7)))
          CFI (cfiCond121) V7 load(1, XDATA, add(CFA_XSP16, literal(-6)))
          CFI (cfiCond121) R7 load(1, XDATA, add(CFA_XSP16, literal(-5)))
          CFI (cfiCond121) ?RET_LOW load(1, XDATA, add(CFA_XSP16, literal(-4)))
          CFI (cfiCond121) ?RET_HIGH load(1, XDATA, add(CFA_XSP16, literal(-3)))
          CFI (cfiCond121) DPL0 load(1, XDATA, add(CFA_XSP16, literal(-2)))
          CFI (cfiCond121) DPH0 load(1, XDATA, add(CFA_XSP16, literal(-1)))
          CFI (cfiCond121) CFA_XSP16 add(XSP16, 37)
          CFI Block cfiCond122 Using cfiCommon0
          CFI (cfiCond122) Function _shell_register
          CFI (cfiCond122) Conditional ??CrossCallReturnLabel_123
          CFI (cfiCond122) R6 load(1, XDATA, add(CFA_XSP16, literal(-15)))
          CFI (cfiCond122) VB load(1, XDATA, add(CFA_XSP16, literal(-14)))
          CFI (cfiCond122) V0 load(1, XDATA, add(CFA_XSP16, literal(-13)))
          CFI (cfiCond122) V1 load(1, XDATA, add(CFA_XSP16, literal(-12)))
          CFI (cfiCond122) V2 load(1, XDATA, add(CFA_XSP16, literal(-11)))
          CFI (cfiCond122) V3 load(1, XDATA, add(CFA_XSP16, literal(-10)))
          CFI (cfiCond122) V4 load(1, XDATA, add(CFA_XSP16, literal(-9)))
          CFI (cfiCond122) V5 load(1, XDATA, add(CFA_XSP16, literal(-8)))
          CFI (cfiCond122) V6 load(1, XDATA, add(CFA_XSP16, literal(-7)))
          CFI (cfiCond122) V7 load(1, XDATA, add(CFA_XSP16, literal(-6)))
          CFI (cfiCond122) R7 load(1, XDATA, add(CFA_XSP16, literal(-5)))
          CFI (cfiCond122) ?RET_LOW load(1, XDATA, add(CFA_XSP16, literal(-4)))
          CFI (cfiCond122) ?RET_HIGH load(1, XDATA, add(CFA_XSP16, literal(-3)))
          CFI (cfiCond122) DPL0 load(1, XDATA, add(CFA_XSP16, literal(-2)))
          CFI (cfiCond122) DPH0 load(1, XDATA, add(CFA_XSP16, literal(-1)))
          CFI (cfiCond122) CFA_XSP16 add(XSP16, 37)
          CFI Block cfiCond123 Using cfiCommon0
          CFI (cfiCond123) Function _shell_register
          CFI (cfiCond123) Conditional ??CrossCallReturnLabel_124
          CFI (cfiCond123) R6 load(1, XDATA, add(CFA_XSP16, literal(-15)))
          CFI (cfiCond123) VB load(1, XDATA, add(CFA_XSP16, literal(-14)))
          CFI (cfiCond123) V0 load(1, XDATA, add(CFA_XSP16, literal(-13)))
          CFI (cfiCond123) V1 load(1, XDATA, add(CFA_XSP16, literal(-12)))
          CFI (cfiCond123) V2 load(1, XDATA, add(CFA_XSP16, literal(-11)))
          CFI (cfiCond123) V3 load(1, XDATA, add(CFA_XSP16, literal(-10)))
          CFI (cfiCond123) V4 load(1, XDATA, add(CFA_XSP16, literal(-9)))
          CFI (cfiCond123) V5 load(1, XDATA, add(CFA_XSP16, literal(-8)))
          CFI (cfiCond123) V6 load(1, XDATA, add(CFA_XSP16, literal(-7)))
          CFI (cfiCond123) V7 load(1, XDATA, add(CFA_XSP16, literal(-6)))
          CFI (cfiCond123) R7 load(1, XDATA, add(CFA_XSP16, literal(-5)))
          CFI (cfiCond123) ?RET_LOW load(1, XDATA, add(CFA_XSP16, literal(-4)))
          CFI (cfiCond123) ?RET_HIGH load(1, XDATA, add(CFA_XSP16, literal(-3)))
          CFI (cfiCond123) DPL0 load(1, XDATA, add(CFA_XSP16, literal(-2)))
          CFI (cfiCond123) DPH0 load(1, XDATA, add(CFA_XSP16, literal(-1)))
          CFI (cfiCond123) CFA_XSP16 add(XSP16, 37)
          CFI Block cfiCond124 Using cfiCommon0
          CFI (cfiCond124) Function _shell_register
          CFI (cfiCond124) Conditional ??CrossCallReturnLabel_125
          CFI (cfiCond124) R6 load(1, XDATA, add(CFA_XSP16, literal(-15)))
          CFI (cfiCond124) VB load(1, XDATA, add(CFA_XSP16, literal(-14)))
          CFI (cfiCond124) V0 load(1, XDATA, add(CFA_XSP16, literal(-13)))
          CFI (cfiCond124) V1 load(1, XDATA, add(CFA_XSP16, literal(-12)))
          CFI (cfiCond124) V2 load(1, XDATA, add(CFA_XSP16, literal(-11)))
          CFI (cfiCond124) V3 load(1, XDATA, add(CFA_XSP16, literal(-10)))
          CFI (cfiCond124) V4 load(1, XDATA, add(CFA_XSP16, literal(-9)))
          CFI (cfiCond124) V5 load(1, XDATA, add(CFA_XSP16, literal(-8)))
          CFI (cfiCond124) V6 load(1, XDATA, add(CFA_XSP16, literal(-7)))
          CFI (cfiCond124) V7 load(1, XDATA, add(CFA_XSP16, literal(-6)))
          CFI (cfiCond124) R7 load(1, XDATA, add(CFA_XSP16, literal(-5)))
          CFI (cfiCond124) ?RET_LOW load(1, XDATA, add(CFA_XSP16, literal(-4)))
          CFI (cfiCond124) ?RET_HIGH load(1, XDATA, add(CFA_XSP16, literal(-3)))
          CFI (cfiCond124) DPL0 load(1, XDATA, add(CFA_XSP16, literal(-2)))
          CFI (cfiCond124) DPH0 load(1, XDATA, add(CFA_XSP16, literal(-1)))
          CFI (cfiCond124) CFA_XSP16 add(XSP16, 37)
          CFI Block cfiCond125 Using cfiCommon0
          CFI (cfiCond125) Function _shell_register
          CFI (cfiCond125) Conditional ??CrossCallReturnLabel_126
          CFI (cfiCond125) R6 load(1, XDATA, add(CFA_XSP16, literal(-15)))
          CFI (cfiCond125) VB load(1, XDATA, add(CFA_XSP16, literal(-14)))
          CFI (cfiCond125) V0 load(1, XDATA, add(CFA_XSP16, literal(-13)))
          CFI (cfiCond125) V1 load(1, XDATA, add(CFA_XSP16, literal(-12)))
          CFI (cfiCond125) V2 load(1, XDATA, add(CFA_XSP16, literal(-11)))
          CFI (cfiCond125) V3 load(1, XDATA, add(CFA_XSP16, literal(-10)))
          CFI (cfiCond125) V4 load(1, XDATA, add(CFA_XSP16, literal(-9)))
          CFI (cfiCond125) V5 load(1, XDATA, add(CFA_XSP16, literal(-8)))
          CFI (cfiCond125) V6 load(1, XDATA, add(CFA_XSP16, literal(-7)))
          CFI (cfiCond125) V7 load(1, XDATA, add(CFA_XSP16, literal(-6)))
          CFI (cfiCond125) R7 load(1, XDATA, add(CFA_XSP16, literal(-5)))
          CFI (cfiCond125) ?RET_LOW load(1, XDATA, add(CFA_XSP16, literal(-4)))
          CFI (cfiCond125) ?RET_HIGH load(1, XDATA, add(CFA_XSP16, literal(-3)))
          CFI (cfiCond125) DPL0 load(1, XDATA, add(CFA_XSP16, literal(-2)))
          CFI (cfiCond125) DPH0 load(1, XDATA, add(CFA_XSP16, literal(-1)))
          CFI (cfiCond125) CFA_XSP16 add(XSP16, 37)
          CFI Block cfiCond126 Using cfiCommon0
          CFI (cfiCond126) Function cmdline_param
          CFI (cfiCond126) Conditional ??CrossCallReturnLabel_127
          CFI (cfiCond126) R6 load(1, XDATA, add(CFA_XSP16, literal(-14)))
          CFI (cfiCond126) VB load(1, XDATA, add(CFA_XSP16, literal(-13)))
          CFI (cfiCond126) V0 load(1, XDATA, add(CFA_XSP16, literal(-12)))
          CFI (cfiCond126) V1 load(1, XDATA, add(CFA_XSP16, literal(-11)))
          CFI (cfiCond126) V2 load(1, XDATA, add(CFA_XSP16, literal(-10)))
          CFI (cfiCond126) V3 load(1, XDATA, add(CFA_XSP16, literal(-9)))
          CFI (cfiCond126) V4 load(1, XDATA, add(CFA_XSP16, literal(-8)))
          CFI (cfiCond126) V5 load(1, XDATA, add(CFA_XSP16, literal(-7)))
          CFI (cfiCond126) V6 load(1, XDATA, add(CFA_XSP16, literal(-6)))
          CFI (cfiCond126) R7 load(1, XDATA, add(CFA_XSP16, literal(-5)))
          CFI (cfiCond126) ?RET_LOW load(1, XDATA, add(CFA_XSP16, literal(-4)))
          CFI (cfiCond126) ?RET_HIGH load(1, XDATA, add(CFA_XSP16, literal(-3)))
          CFI (cfiCond126) DPL0 load(1, XDATA, add(CFA_XSP16, literal(-2)))
          CFI (cfiCond126) DPH0 load(1, XDATA, add(CFA_XSP16, literal(-1)))
          CFI (cfiCond126) CFA_XSP16 add(XSP16, 14)
          CFI Block cfiCond127 Using cfiCommon0
          CFI (cfiCond127) Function cmdline_gets
          CFI (cfiCond127) Conditional ??CrossCallReturnLabel_128
          CFI (cfiCond127) R6 load(1, XDATA, add(CFA_XSP16, literal(-15)))
          CFI (cfiCond127) VB load(1, XDATA, add(CFA_XSP16, literal(-14)))
          CFI (cfiCond127) V0 load(1, XDATA, add(CFA_XSP16, literal(-13)))
          CFI (cfiCond127) V1 load(1, XDATA, add(CFA_XSP16, literal(-12)))
          CFI (cfiCond127) V2 load(1, XDATA, add(CFA_XSP16, literal(-11)))
          CFI (cfiCond127) V3 load(1, XDATA, add(CFA_XSP16, literal(-10)))
          CFI (cfiCond127) V4 load(1, XDATA, add(CFA_XSP16, literal(-9)))
          CFI (cfiCond127) V5 load(1, XDATA, add(CFA_XSP16, literal(-8)))
          CFI (cfiCond127) V6 load(1, XDATA, add(CFA_XSP16, literal(-7)))
          CFI (cfiCond127) V7 load(1, XDATA, add(CFA_XSP16, literal(-6)))
          CFI (cfiCond127) R7 load(1, XDATA, add(CFA_XSP16, literal(-5)))
          CFI (cfiCond127) ?RET_LOW load(1, XDATA, add(CFA_XSP16, literal(-4)))
          CFI (cfiCond127) ?RET_HIGH load(1, XDATA, add(CFA_XSP16, literal(-3)))
          CFI (cfiCond127) DPL0 load(1, XDATA, add(CFA_XSP16, literal(-2)))
          CFI (cfiCond127) DPH0 load(1, XDATA, add(CFA_XSP16, literal(-1)))
          CFI (cfiCond127) CFA_XSP16 add(XSP16, 19)
          CFI Block cfiCond128 Using cfiCommon0
          CFI (cfiCond128) Function shell_input_init
          CFI (cfiCond128) Conditional ??CrossCallReturnLabel_129
          CFI (cfiCond128) R6 load(1, XDATA, add(CFA_XSP16, literal(-15)))
          CFI (cfiCond128) VB load(1, XDATA, add(CFA_XSP16, literal(-14)))
          CFI (cfiCond128) V0 load(1, XDATA, add(CFA_XSP16, literal(-13)))
          CFI (cfiCond128) V1 load(1, XDATA, add(CFA_XSP16, literal(-12)))
          CFI (cfiCond128) V2 load(1, XDATA, add(CFA_XSP16, literal(-11)))
          CFI (cfiCond128) V3 load(1, XDATA, add(CFA_XSP16, literal(-10)))
          CFI (cfiCond128) V4 load(1, XDATA, add(CFA_XSP16, literal(-9)))
          CFI (cfiCond128) V5 load(1, XDATA, add(CFA_XSP16, literal(-8)))
          CFI (cfiCond128) V6 load(1, XDATA, add(CFA_XSP16, literal(-7)))
          CFI (cfiCond128) V7 load(1, XDATA, add(CFA_XSP16, literal(-6)))
          CFI (cfiCond128) R7 load(1, XDATA, add(CFA_XSP16, literal(-5)))
          CFI (cfiCond128) ?RET_LOW load(1, XDATA, add(CFA_XSP16, literal(-4)))
          CFI (cfiCond128) ?RET_HIGH load(1, XDATA, add(CFA_XSP16, literal(-3)))
          CFI (cfiCond128) DPL0 load(1, XDATA, add(CFA_XSP16, literal(-2)))
          CFI (cfiCond128) DPH0 load(1, XDATA, add(CFA_XSP16, literal(-1)))
          CFI (cfiCond128) CFA_XSP16 add(XSP16, 19)
          CFI Block cfiCond129 Using cfiCommon0
          CFI (cfiCond129) Function shell_parse
          CFI (cfiCond129) Conditional ??CrossCallReturnLabel_130
          CFI (cfiCond129) R6 load(1, XDATA, add(CFA_XSP16, literal(-15)))
          CFI (cfiCond129) VB load(1, XDATA, add(CFA_XSP16, literal(-14)))
          CFI (cfiCond129) V0 load(1, XDATA, add(CFA_XSP16, literal(-13)))
          CFI (cfiCond129) V1 load(1, XDATA, add(CFA_XSP16, literal(-12)))
          CFI (cfiCond129) V2 load(1, XDATA, add(CFA_XSP16, literal(-11)))
          CFI (cfiCond129) V3 load(1, XDATA, add(CFA_XSP16, literal(-10)))
          CFI (cfiCond129) V4 load(1, XDATA, add(CFA_XSP16, literal(-9)))
          CFI (cfiCond129) V5 load(1, XDATA, add(CFA_XSP16, literal(-8)))
          CFI (cfiCond129) V6 load(1, XDATA, add(CFA_XSP16, literal(-7)))
          CFI (cfiCond129) V7 load(1, XDATA, add(CFA_XSP16, literal(-6)))
          CFI (cfiCond129) R7 load(1, XDATA, add(CFA_XSP16, literal(-5)))
          CFI (cfiCond129) ?RET_LOW load(1, XDATA, add(CFA_XSP16, literal(-4)))
          CFI (cfiCond129) ?RET_HIGH load(1, XDATA, add(CFA_XSP16, literal(-3)))
          CFI (cfiCond129) DPL0 load(1, XDATA, add(CFA_XSP16, literal(-2)))
          CFI (cfiCond129) DPH0 load(1, XDATA, add(CFA_XSP16, literal(-1)))
          CFI (cfiCond129) CFA_XSP16 add(XSP16, 43)
          CFI Block cfiCond130 Using cfiCommon0
          CFI (cfiCond130) Function shell_input_init
          CFI (cfiCond130) Conditional ??CrossCallReturnLabel_131
          CFI (cfiCond130) R6 load(1, XDATA, add(CFA_XSP16, literal(-15)))
          CFI (cfiCond130) VB load(1, XDATA, add(CFA_XSP16, literal(-14)))
          CFI (cfiCond130) V0 load(1, XDATA, add(CFA_XSP16, literal(-13)))
          CFI (cfiCond130) V1 load(1, XDATA, add(CFA_XSP16, literal(-12)))
          CFI (cfiCond130) V2 load(1, XDATA, add(CFA_XSP16, literal(-11)))
          CFI (cfiCond130) V3 load(1, XDATA, add(CFA_XSP16, literal(-10)))
          CFI (cfiCond130) V4 load(1, XDATA, add(CFA_XSP16, literal(-9)))
          CFI (cfiCond130) V5 load(1, XDATA, add(CFA_XSP16, literal(-8)))
          CFI (cfiCond130) V6 load(1, XDATA, add(CFA_XSP16, literal(-7)))
          CFI (cfiCond130) V7 load(1, XDATA, add(CFA_XSP16, literal(-6)))
          CFI (cfiCond130) R7 load(1, XDATA, add(CFA_XSP16, literal(-5)))
          CFI (cfiCond130) ?RET_LOW load(1, XDATA, add(CFA_XSP16, literal(-4)))
          CFI (cfiCond130) ?RET_HIGH load(1, XDATA, add(CFA_XSP16, literal(-3)))
          CFI (cfiCond130) DPL0 load(1, XDATA, add(CFA_XSP16, literal(-2)))
          CFI (cfiCond130) DPH0 load(1, XDATA, add(CFA_XSP16, literal(-1)))
          CFI (cfiCond130) CFA_XSP16 add(XSP16, 19)
          CFI Block cfiCond131 Using cfiCommon0
          CFI (cfiCond131) Function shell_input_init
          CFI (cfiCond131) Conditional ??CrossCallReturnLabel_132
          CFI (cfiCond131) R6 load(1, XDATA, add(CFA_XSP16, literal(-15)))
          CFI (cfiCond131) VB load(1, XDATA, add(CFA_XSP16, literal(-14)))
          CFI (cfiCond131) V0 load(1, XDATA, add(CFA_XSP16, literal(-13)))
          CFI (cfiCond131) V1 load(1, XDATA, add(CFA_XSP16, literal(-12)))
          CFI (cfiCond131) V2 load(1, XDATA, add(CFA_XSP16, literal(-11)))
          CFI (cfiCond131) V3 load(1, XDATA, add(CFA_XSP16, literal(-10)))
          CFI (cfiCond131) V4 load(1, XDATA, add(CFA_XSP16, literal(-9)))
          CFI (cfiCond131) V5 load(1, XDATA, add(CFA_XSP16, literal(-8)))
          CFI (cfiCond131) V6 load(1, XDATA, add(CFA_XSP16, literal(-7)))
          CFI (cfiCond131) V7 load(1, XDATA, add(CFA_XSP16, literal(-6)))
          CFI (cfiCond131) R7 load(1, XDATA, add(CFA_XSP16, literal(-5)))
          CFI (cfiCond131) ?RET_LOW load(1, XDATA, add(CFA_XSP16, literal(-4)))
          CFI (cfiCond131) ?RET_HIGH load(1, XDATA, add(CFA_XSP16, literal(-3)))
          CFI (cfiCond131) DPL0 load(1, XDATA, add(CFA_XSP16, literal(-2)))
          CFI (cfiCond131) DPH0 load(1, XDATA, add(CFA_XSP16, literal(-1)))
          CFI (cfiCond131) CFA_XSP16 add(XSP16, 19)
          CFI Block cfiPicker132 Using cfiCommon1
          CFI (cfiPicker132) NoFunction
          CFI (cfiPicker132) Picker
        MOV     A,R0
          CFI EndBlock cfiCond118
          CFI EndBlock cfiCond119
          CFI EndBlock cfiCond120
          CFI EndBlock cfiCond121
          CFI EndBlock cfiCond122
          CFI EndBlock cfiCond123
          CFI EndBlock cfiCond124
          CFI EndBlock cfiCond125
          CFI EndBlock cfiCond126
          CFI EndBlock cfiCond127
          CFI EndBlock cfiCond128
          CFI EndBlock cfiCond129
          CFI EndBlock cfiCond130
          CFI EndBlock cfiCond131
          CFI EndBlock cfiPicker132
        REQUIRE ??Subroutine58_0
        ; // Fall through to label ??Subroutine58_0

        RSEG NEAR_CODE:CODE:NOROOT(0)
??Subroutine58_0:
          CFI Block cfiCond133 Using cfiCommon0
          CFI Function shell_backspace
          CFI Conditional ??CrossCallReturnLabel_117
          CFI R6 load(1, XDATA, add(CFA_XSP16, literal(-15)))
          CFI VB load(1, XDATA, add(CFA_XSP16, literal(-14)))
          CFI V0 load(1, XDATA, add(CFA_XSP16, literal(-13)))
          CFI V1 load(1, XDATA, add(CFA_XSP16, literal(-12)))
          CFI V2 load(1, XDATA, add(CFA_XSP16, literal(-11)))
          CFI V3 load(1, XDATA, add(CFA_XSP16, literal(-10)))
          CFI V4 load(1, XDATA, add(CFA_XSP16, literal(-9)))
          CFI V5 load(1, XDATA, add(CFA_XSP16, literal(-8)))
          CFI V6 load(1, XDATA, add(CFA_XSP16, literal(-7)))
          CFI V7 load(1, XDATA, add(CFA_XSP16, literal(-6)))
          CFI R7 load(1, XDATA, add(CFA_XSP16, literal(-5)))
          CFI ?RET_LOW load(1, XDATA, add(CFA_XSP16, literal(-4)))
          CFI ?RET_HIGH load(1, XDATA, add(CFA_XSP16, literal(-3)))
          CFI DPL0 load(1, XDATA, add(CFA_XSP16, literal(-2)))
          CFI DPH0 load(1, XDATA, add(CFA_XSP16, literal(-1)))
          CFI CFA_XSP16 add(XSP16, 117)
          CFI Block cfiCond134 Using cfiCommon0
          CFI (cfiCond134) Function cmdline_gets
          CFI (cfiCond134) Conditional ??CrossCallReturnLabel_118
          CFI (cfiCond134) R6 load(1, XDATA, add(CFA_XSP16, literal(-15)))
          CFI (cfiCond134) VB load(1, XDATA, add(CFA_XSP16, literal(-14)))
          CFI (cfiCond134) V0 load(1, XDATA, add(CFA_XSP16, literal(-13)))
          CFI (cfiCond134) V1 load(1, XDATA, add(CFA_XSP16, literal(-12)))
          CFI (cfiCond134) V2 load(1, XDATA, add(CFA_XSP16, literal(-11)))
          CFI (cfiCond134) V3 load(1, XDATA, add(CFA_XSP16, literal(-10)))
          CFI (cfiCond134) V4 load(1, XDATA, add(CFA_XSP16, literal(-9)))
          CFI (cfiCond134) V5 load(1, XDATA, add(CFA_XSP16, literal(-8)))
          CFI (cfiCond134) V6 load(1, XDATA, add(CFA_XSP16, literal(-7)))
          CFI (cfiCond134) V7 load(1, XDATA, add(CFA_XSP16, literal(-6)))
          CFI (cfiCond134) R7 load(1, XDATA, add(CFA_XSP16, literal(-5)))
          CFI (cfiCond134) ?RET_LOW load(1, XDATA, add(CFA_XSP16, literal(-4)))
          CFI (cfiCond134) ?RET_HIGH load(1, XDATA, add(CFA_XSP16, literal(-3)))
          CFI (cfiCond134) DPL0 load(1, XDATA, add(CFA_XSP16, literal(-2)))
          CFI (cfiCond134) DPH0 load(1, XDATA, add(CFA_XSP16, literal(-1)))
          CFI (cfiCond134) CFA_XSP16 add(XSP16, 19)
          CFI Block cfiCond135 Using cfiCommon0
          CFI (cfiCond135) Function shell_tab
          CFI (cfiCond135) Conditional ??CrossCallReturnLabel_119
          CFI (cfiCond135) R6 load(1, XDATA, add(CFA_XSP16, literal(-15)))
          CFI (cfiCond135) VB load(1, XDATA, add(CFA_XSP16, literal(-14)))
          CFI (cfiCond135) V0 load(1, XDATA, add(CFA_XSP16, literal(-13)))
          CFI (cfiCond135) V1 load(1, XDATA, add(CFA_XSP16, literal(-12)))
          CFI (cfiCond135) V2 load(1, XDATA, add(CFA_XSP16, literal(-11)))
          CFI (cfiCond135) V3 load(1, XDATA, add(CFA_XSP16, literal(-10)))
          CFI (cfiCond135) V4 load(1, XDATA, add(CFA_XSP16, literal(-9)))
          CFI (cfiCond135) V5 load(1, XDATA, add(CFA_XSP16, literal(-8)))
          CFI (cfiCond135) V6 load(1, XDATA, add(CFA_XSP16, literal(-7)))
          CFI (cfiCond135) V7 load(1, XDATA, add(CFA_XSP16, literal(-6)))
          CFI (cfiCond135) R7 load(1, XDATA, add(CFA_XSP16, literal(-5)))
          CFI (cfiCond135) ?RET_LOW load(1, XDATA, add(CFA_XSP16, literal(-4)))
          CFI (cfiCond135) ?RET_HIGH load(1, XDATA, add(CFA_XSP16, literal(-3)))
          CFI (cfiCond135) DPL0 load(1, XDATA, add(CFA_XSP16, literal(-2)))
          CFI (cfiCond135) DPH0 load(1, XDATA, add(CFA_XSP16, literal(-1)))
          CFI (cfiCond135) CFA_XSP16 add(XSP16, 45)
          CFI Block cfiCond136 Using cfiCommon0
          CFI (cfiCond136) Function shell_tab
          CFI (cfiCond136) Conditional ??CrossCallReturnLabel_120
          CFI (cfiCond136) R6 load(1, XDATA, add(CFA_XSP16, literal(-15)))
          CFI (cfiCond136) VB load(1, XDATA, add(CFA_XSP16, literal(-14)))
          CFI (cfiCond136) V0 load(1, XDATA, add(CFA_XSP16, literal(-13)))
          CFI (cfiCond136) V1 load(1, XDATA, add(CFA_XSP16, literal(-12)))
          CFI (cfiCond136) V2 load(1, XDATA, add(CFA_XSP16, literal(-11)))
          CFI (cfiCond136) V3 load(1, XDATA, add(CFA_XSP16, literal(-10)))
          CFI (cfiCond136) V4 load(1, XDATA, add(CFA_XSP16, literal(-9)))
          CFI (cfiCond136) V5 load(1, XDATA, add(CFA_XSP16, literal(-8)))
          CFI (cfiCond136) V6 load(1, XDATA, add(CFA_XSP16, literal(-7)))
          CFI (cfiCond136) V7 load(1, XDATA, add(CFA_XSP16, literal(-6)))
          CFI (cfiCond136) R7 load(1, XDATA, add(CFA_XSP16, literal(-5)))
          CFI (cfiCond136) ?RET_LOW load(1, XDATA, add(CFA_XSP16, literal(-4)))
          CFI (cfiCond136) ?RET_HIGH load(1, XDATA, add(CFA_XSP16, literal(-3)))
          CFI (cfiCond136) DPL0 load(1, XDATA, add(CFA_XSP16, literal(-2)))
          CFI (cfiCond136) DPH0 load(1, XDATA, add(CFA_XSP16, literal(-1)))
          CFI (cfiCond136) CFA_XSP16 add(XSP16, 45)
          CFI Block cfiCond137 Using cfiCommon0
          CFI (cfiCond137) Function shell_parse
          CFI (cfiCond137) Conditional ??CrossCallReturnLabel_121
          CFI (cfiCond137) R6 load(1, XDATA, add(CFA_XSP16, literal(-15)))
          CFI (cfiCond137) VB load(1, XDATA, add(CFA_XSP16, literal(-14)))
          CFI (cfiCond137) V0 load(1, XDATA, add(CFA_XSP16, literal(-13)))
          CFI (cfiCond137) V1 load(1, XDATA, add(CFA_XSP16, literal(-12)))
          CFI (cfiCond137) V2 load(1, XDATA, add(CFA_XSP16, literal(-11)))
          CFI (cfiCond137) V3 load(1, XDATA, add(CFA_XSP16, literal(-10)))
          CFI (cfiCond137) V4 load(1, XDATA, add(CFA_XSP16, literal(-9)))
          CFI (cfiCond137) V5 load(1, XDATA, add(CFA_XSP16, literal(-8)))
          CFI (cfiCond137) V6 load(1, XDATA, add(CFA_XSP16, literal(-7)))
          CFI (cfiCond137) V7 load(1, XDATA, add(CFA_XSP16, literal(-6)))
          CFI (cfiCond137) R7 load(1, XDATA, add(CFA_XSP16, literal(-5)))
          CFI (cfiCond137) ?RET_LOW load(1, XDATA, add(CFA_XSP16, literal(-4)))
          CFI (cfiCond137) ?RET_HIGH load(1, XDATA, add(CFA_XSP16, literal(-3)))
          CFI (cfiCond137) DPL0 load(1, XDATA, add(CFA_XSP16, literal(-2)))
          CFI (cfiCond137) DPH0 load(1, XDATA, add(CFA_XSP16, literal(-1)))
          CFI (cfiCond137) CFA_XSP16 add(XSP16, 43)
          CFI Block cfiCond138 Using cfiCommon0
          CFI (cfiCond138) Function _shell_register
          CFI (cfiCond138) Conditional ??CrossCallReturnLabel_122
          CFI (cfiCond138) R6 load(1, XDATA, add(CFA_XSP16, literal(-15)))
          CFI (cfiCond138) VB load(1, XDATA, add(CFA_XSP16, literal(-14)))
          CFI (cfiCond138) V0 load(1, XDATA, add(CFA_XSP16, literal(-13)))
          CFI (cfiCond138) V1 load(1, XDATA, add(CFA_XSP16, literal(-12)))
          CFI (cfiCond138) V2 load(1, XDATA, add(CFA_XSP16, literal(-11)))
          CFI (cfiCond138) V3 load(1, XDATA, add(CFA_XSP16, literal(-10)))
          CFI (cfiCond138) V4 load(1, XDATA, add(CFA_XSP16, literal(-9)))
          CFI (cfiCond138) V5 load(1, XDATA, add(CFA_XSP16, literal(-8)))
          CFI (cfiCond138) V6 load(1, XDATA, add(CFA_XSP16, literal(-7)))
          CFI (cfiCond138) V7 load(1, XDATA, add(CFA_XSP16, literal(-6)))
          CFI (cfiCond138) R7 load(1, XDATA, add(CFA_XSP16, literal(-5)))
          CFI (cfiCond138) ?RET_LOW load(1, XDATA, add(CFA_XSP16, literal(-4)))
          CFI (cfiCond138) ?RET_HIGH load(1, XDATA, add(CFA_XSP16, literal(-3)))
          CFI (cfiCond138) DPL0 load(1, XDATA, add(CFA_XSP16, literal(-2)))
          CFI (cfiCond138) DPH0 load(1, XDATA, add(CFA_XSP16, literal(-1)))
          CFI (cfiCond138) CFA_XSP16 add(XSP16, 37)
          CFI Block cfiCond139 Using cfiCommon0
          CFI (cfiCond139) Function _shell_register
          CFI (cfiCond139) Conditional ??CrossCallReturnLabel_123
          CFI (cfiCond139) R6 load(1, XDATA, add(CFA_XSP16, literal(-15)))
          CFI (cfiCond139) VB load(1, XDATA, add(CFA_XSP16, literal(-14)))
          CFI (cfiCond139) V0 load(1, XDATA, add(CFA_XSP16, literal(-13)))
          CFI (cfiCond139) V1 load(1, XDATA, add(CFA_XSP16, literal(-12)))
          CFI (cfiCond139) V2 load(1, XDATA, add(CFA_XSP16, literal(-11)))
          CFI (cfiCond139) V3 load(1, XDATA, add(CFA_XSP16, literal(-10)))
          CFI (cfiCond139) V4 load(1, XDATA, add(CFA_XSP16, literal(-9)))
          CFI (cfiCond139) V5 load(1, XDATA, add(CFA_XSP16, literal(-8)))
          CFI (cfiCond139) V6 load(1, XDATA, add(CFA_XSP16, literal(-7)))
          CFI (cfiCond139) V7 load(1, XDATA, add(CFA_XSP16, literal(-6)))
          CFI (cfiCond139) R7 load(1, XDATA, add(CFA_XSP16, literal(-5)))
          CFI (cfiCond139) ?RET_LOW load(1, XDATA, add(CFA_XSP16, literal(-4)))
          CFI (cfiCond139) ?RET_HIGH load(1, XDATA, add(CFA_XSP16, literal(-3)))
          CFI (cfiCond139) DPL0 load(1, XDATA, add(CFA_XSP16, literal(-2)))
          CFI (cfiCond139) DPH0 load(1, XDATA, add(CFA_XSP16, literal(-1)))
          CFI (cfiCond139) CFA_XSP16 add(XSP16, 37)
          CFI Block cfiCond140 Using cfiCommon0
          CFI (cfiCond140) Function _shell_register
          CFI (cfiCond140) Conditional ??CrossCallReturnLabel_124
          CFI (cfiCond140) R6 load(1, XDATA, add(CFA_XSP16, literal(-15)))
          CFI (cfiCond140) VB load(1, XDATA, add(CFA_XSP16, literal(-14)))
          CFI (cfiCond140) V0 load(1, XDATA, add(CFA_XSP16, literal(-13)))
          CFI (cfiCond140) V1 load(1, XDATA, add(CFA_XSP16, literal(-12)))
          CFI (cfiCond140) V2 load(1, XDATA, add(CFA_XSP16, literal(-11)))
          CFI (cfiCond140) V3 load(1, XDATA, add(CFA_XSP16, literal(-10)))
          CFI (cfiCond140) V4 load(1, XDATA, add(CFA_XSP16, literal(-9)))
          CFI (cfiCond140) V5 load(1, XDATA, add(CFA_XSP16, literal(-8)))
          CFI (cfiCond140) V6 load(1, XDATA, add(CFA_XSP16, literal(-7)))
          CFI (cfiCond140) V7 load(1, XDATA, add(CFA_XSP16, literal(-6)))
          CFI (cfiCond140) R7 load(1, XDATA, add(CFA_XSP16, literal(-5)))
          CFI (cfiCond140) ?RET_LOW load(1, XDATA, add(CFA_XSP16, literal(-4)))
          CFI (cfiCond140) ?RET_HIGH load(1, XDATA, add(CFA_XSP16, literal(-3)))
          CFI (cfiCond140) DPL0 load(1, XDATA, add(CFA_XSP16, literal(-2)))
          CFI (cfiCond140) DPH0 load(1, XDATA, add(CFA_XSP16, literal(-1)))
          CFI (cfiCond140) CFA_XSP16 add(XSP16, 37)
          CFI Block cfiCond141 Using cfiCommon0
          CFI (cfiCond141) Function _shell_register
          CFI (cfiCond141) Conditional ??CrossCallReturnLabel_125
          CFI (cfiCond141) R6 load(1, XDATA, add(CFA_XSP16, literal(-15)))
          CFI (cfiCond141) VB load(1, XDATA, add(CFA_XSP16, literal(-14)))
          CFI (cfiCond141) V0 load(1, XDATA, add(CFA_XSP16, literal(-13)))
          CFI (cfiCond141) V1 load(1, XDATA, add(CFA_XSP16, literal(-12)))
          CFI (cfiCond141) V2 load(1, XDATA, add(CFA_XSP16, literal(-11)))
          CFI (cfiCond141) V3 load(1, XDATA, add(CFA_XSP16, literal(-10)))
          CFI (cfiCond141) V4 load(1, XDATA, add(CFA_XSP16, literal(-9)))
          CFI (cfiCond141) V5 load(1, XDATA, add(CFA_XSP16, literal(-8)))
          CFI (cfiCond141) V6 load(1, XDATA, add(CFA_XSP16, literal(-7)))
          CFI (cfiCond141) V7 load(1, XDATA, add(CFA_XSP16, literal(-6)))
          CFI (cfiCond141) R7 load(1, XDATA, add(CFA_XSP16, literal(-5)))
          CFI (cfiCond141) ?RET_LOW load(1, XDATA, add(CFA_XSP16, literal(-4)))
          CFI (cfiCond141) ?RET_HIGH load(1, XDATA, add(CFA_XSP16, literal(-3)))
          CFI (cfiCond141) DPL0 load(1, XDATA, add(CFA_XSP16, literal(-2)))
          CFI (cfiCond141) DPH0 load(1, XDATA, add(CFA_XSP16, literal(-1)))
          CFI (cfiCond141) CFA_XSP16 add(XSP16, 37)
          CFI Block cfiCond142 Using cfiCommon0
          CFI (cfiCond142) Function _shell_register
          CFI (cfiCond142) Conditional ??CrossCallReturnLabel_126
          CFI (cfiCond142) R6 load(1, XDATA, add(CFA_XSP16, literal(-15)))
          CFI (cfiCond142) VB load(1, XDATA, add(CFA_XSP16, literal(-14)))
          CFI (cfiCond142) V0 load(1, XDATA, add(CFA_XSP16, literal(-13)))
          CFI (cfiCond142) V1 load(1, XDATA, add(CFA_XSP16, literal(-12)))
          CFI (cfiCond142) V2 load(1, XDATA, add(CFA_XSP16, literal(-11)))
          CFI (cfiCond142) V3 load(1, XDATA, add(CFA_XSP16, literal(-10)))
          CFI (cfiCond142) V4 load(1, XDATA, add(CFA_XSP16, literal(-9)))
          CFI (cfiCond142) V5 load(1, XDATA, add(CFA_XSP16, literal(-8)))
          CFI (cfiCond142) V6 load(1, XDATA, add(CFA_XSP16, literal(-7)))
          CFI (cfiCond142) V7 load(1, XDATA, add(CFA_XSP16, literal(-6)))
          CFI (cfiCond142) R7 load(1, XDATA, add(CFA_XSP16, literal(-5)))
          CFI (cfiCond142) ?RET_LOW load(1, XDATA, add(CFA_XSP16, literal(-4)))
          CFI (cfiCond142) ?RET_HIGH load(1, XDATA, add(CFA_XSP16, literal(-3)))
          CFI (cfiCond142) DPL0 load(1, XDATA, add(CFA_XSP16, literal(-2)))
          CFI (cfiCond142) DPH0 load(1, XDATA, add(CFA_XSP16, literal(-1)))
          CFI (cfiCond142) CFA_XSP16 add(XSP16, 37)
          CFI Block cfiCond143 Using cfiCommon0
          CFI (cfiCond143) Function cmdline_param
          CFI (cfiCond143) Conditional ??CrossCallReturnLabel_127
          CFI (cfiCond143) R6 load(1, XDATA, add(CFA_XSP16, literal(-14)))
          CFI (cfiCond143) VB load(1, XDATA, add(CFA_XSP16, literal(-13)))
          CFI (cfiCond143) V0 load(1, XDATA, add(CFA_XSP16, literal(-12)))
          CFI (cfiCond143) V1 load(1, XDATA, add(CFA_XSP16, literal(-11)))
          CFI (cfiCond143) V2 load(1, XDATA, add(CFA_XSP16, literal(-10)))
          CFI (cfiCond143) V3 load(1, XDATA, add(CFA_XSP16, literal(-9)))
          CFI (cfiCond143) V4 load(1, XDATA, add(CFA_XSP16, literal(-8)))
          CFI (cfiCond143) V5 load(1, XDATA, add(CFA_XSP16, literal(-7)))
          CFI (cfiCond143) V6 load(1, XDATA, add(CFA_XSP16, literal(-6)))
          CFI (cfiCond143) R7 load(1, XDATA, add(CFA_XSP16, literal(-5)))
          CFI (cfiCond143) ?RET_LOW load(1, XDATA, add(CFA_XSP16, literal(-4)))
          CFI (cfiCond143) ?RET_HIGH load(1, XDATA, add(CFA_XSP16, literal(-3)))
          CFI (cfiCond143) DPL0 load(1, XDATA, add(CFA_XSP16, literal(-2)))
          CFI (cfiCond143) DPH0 load(1, XDATA, add(CFA_XSP16, literal(-1)))
          CFI (cfiCond143) CFA_XSP16 add(XSP16, 14)
          CFI Block cfiCond144 Using cfiCommon0
          CFI (cfiCond144) Function cmdline_gets
          CFI (cfiCond144) Conditional ??CrossCallReturnLabel_128
          CFI (cfiCond144) R6 load(1, XDATA, add(CFA_XSP16, literal(-15)))
          CFI (cfiCond144) VB load(1, XDATA, add(CFA_XSP16, literal(-14)))
          CFI (cfiCond144) V0 load(1, XDATA, add(CFA_XSP16, literal(-13)))
          CFI (cfiCond144) V1 load(1, XDATA, add(CFA_XSP16, literal(-12)))
          CFI (cfiCond144) V2 load(1, XDATA, add(CFA_XSP16, literal(-11)))
          CFI (cfiCond144) V3 load(1, XDATA, add(CFA_XSP16, literal(-10)))
          CFI (cfiCond144) V4 load(1, XDATA, add(CFA_XSP16, literal(-9)))
          CFI (cfiCond144) V5 load(1, XDATA, add(CFA_XSP16, literal(-8)))
          CFI (cfiCond144) V6 load(1, XDATA, add(CFA_XSP16, literal(-7)))
          CFI (cfiCond144) V7 load(1, XDATA, add(CFA_XSP16, literal(-6)))
          CFI (cfiCond144) R7 load(1, XDATA, add(CFA_XSP16, literal(-5)))
          CFI (cfiCond144) ?RET_LOW load(1, XDATA, add(CFA_XSP16, literal(-4)))
          CFI (cfiCond144) ?RET_HIGH load(1, XDATA, add(CFA_XSP16, literal(-3)))
          CFI (cfiCond144) DPL0 load(1, XDATA, add(CFA_XSP16, literal(-2)))
          CFI (cfiCond144) DPH0 load(1, XDATA, add(CFA_XSP16, literal(-1)))
          CFI (cfiCond144) CFA_XSP16 add(XSP16, 19)
          CFI Block cfiCond145 Using cfiCommon0
          CFI (cfiCond145) Function shell_input_init
          CFI (cfiCond145) Conditional ??CrossCallReturnLabel_129
          CFI (cfiCond145) R6 load(1, XDATA, add(CFA_XSP16, literal(-15)))
          CFI (cfiCond145) VB load(1, XDATA, add(CFA_XSP16, literal(-14)))
          CFI (cfiCond145) V0 load(1, XDATA, add(CFA_XSP16, literal(-13)))
          CFI (cfiCond145) V1 load(1, XDATA, add(CFA_XSP16, literal(-12)))
          CFI (cfiCond145) V2 load(1, XDATA, add(CFA_XSP16, literal(-11)))
          CFI (cfiCond145) V3 load(1, XDATA, add(CFA_XSP16, literal(-10)))
          CFI (cfiCond145) V4 load(1, XDATA, add(CFA_XSP16, literal(-9)))
          CFI (cfiCond145) V5 load(1, XDATA, add(CFA_XSP16, literal(-8)))
          CFI (cfiCond145) V6 load(1, XDATA, add(CFA_XSP16, literal(-7)))
          CFI (cfiCond145) V7 load(1, XDATA, add(CFA_XSP16, literal(-6)))
          CFI (cfiCond145) R7 load(1, XDATA, add(CFA_XSP16, literal(-5)))
          CFI (cfiCond145) ?RET_LOW load(1, XDATA, add(CFA_XSP16, literal(-4)))
          CFI (cfiCond145) ?RET_HIGH load(1, XDATA, add(CFA_XSP16, literal(-3)))
          CFI (cfiCond145) DPL0 load(1, XDATA, add(CFA_XSP16, literal(-2)))
          CFI (cfiCond145) DPH0 load(1, XDATA, add(CFA_XSP16, literal(-1)))
          CFI (cfiCond145) CFA_XSP16 add(XSP16, 19)
          CFI Block cfiCond146 Using cfiCommon0
          CFI (cfiCond146) Function shell_parse
          CFI (cfiCond146) Conditional ??CrossCallReturnLabel_130
          CFI (cfiCond146) R6 load(1, XDATA, add(CFA_XSP16, literal(-15)))
          CFI (cfiCond146) VB load(1, XDATA, add(CFA_XSP16, literal(-14)))
          CFI (cfiCond146) V0 load(1, XDATA, add(CFA_XSP16, literal(-13)))
          CFI (cfiCond146) V1 load(1, XDATA, add(CFA_XSP16, literal(-12)))
          CFI (cfiCond146) V2 load(1, XDATA, add(CFA_XSP16, literal(-11)))
          CFI (cfiCond146) V3 load(1, XDATA, add(CFA_XSP16, literal(-10)))
          CFI (cfiCond146) V4 load(1, XDATA, add(CFA_XSP16, literal(-9)))
          CFI (cfiCond146) V5 load(1, XDATA, add(CFA_XSP16, literal(-8)))
          CFI (cfiCond146) V6 load(1, XDATA, add(CFA_XSP16, literal(-7)))
          CFI (cfiCond146) V7 load(1, XDATA, add(CFA_XSP16, literal(-6)))
          CFI (cfiCond146) R7 load(1, XDATA, add(CFA_XSP16, literal(-5)))
          CFI (cfiCond146) ?RET_LOW load(1, XDATA, add(CFA_XSP16, literal(-4)))
          CFI (cfiCond146) ?RET_HIGH load(1, XDATA, add(CFA_XSP16, literal(-3)))
          CFI (cfiCond146) DPL0 load(1, XDATA, add(CFA_XSP16, literal(-2)))
          CFI (cfiCond146) DPH0 load(1, XDATA, add(CFA_XSP16, literal(-1)))
          CFI (cfiCond146) CFA_XSP16 add(XSP16, 43)
          CFI Block cfiCond147 Using cfiCommon0
          CFI (cfiCond147) Function shell_input_init
          CFI (cfiCond147) Conditional ??CrossCallReturnLabel_131
          CFI (cfiCond147) R6 load(1, XDATA, add(CFA_XSP16, literal(-15)))
          CFI (cfiCond147) VB load(1, XDATA, add(CFA_XSP16, literal(-14)))
          CFI (cfiCond147) V0 load(1, XDATA, add(CFA_XSP16, literal(-13)))
