///////////////////////////////////////////////////////////////////////////////
//
// IAR C/C++ Compiler V9.10.1.2146 for 8051               07/Jul/2023  16:40:19
// Copyright 2004-2014 IAR Systems AB.
// Standalone license - IAR Embedded Workbench for 8051
//
//    Core               =  plain
//    Code model         =  near
//    Data model         =  large
//    Calling convention =  xdata reentrant
//    Constant location  =  data
//    Dptr setup         =  1,16
//                          
//    Source file        =  
//        I:\1_git_code\EPnode_OTA\CC2530
//        IAP\CC2530_stack\zstack-2.4.0-1.4.0x\Projects\zstack\Samples\CC2530-IAP\Source\shell\shell.c
//    Command line       =  
//        "I:\1_git_code\EPnode_OTA\CC2530
//        IAP\CC2530_stack\zstack-2.4.0-1.4.0x\Projects\zstack\Samples\CC2530-IAP\Source\shell\shell.c"
//        -D HAL_SB_BOOT_CODE -D HAL_UART=TRUE -D HAL_UART_DMA=0 -D
//        HAL_UART_ISR=1 -D HAL_UART_ISR_RX_MAX=254 -lC
//        "I:\1_git_code\EPnode_OTA\CC2530
//        IAP\CC2530_stack\zstack-2.4.0-1.4.0x\Projects\zstack\Samples\CC2530-IAP\CC2530\CC2530BL\List\"
//        -lA "I:\1_git_code\EPnode_OTA\CC2530
//        IAP\CC2530_stack\zstack-2.4.0-1.4.0x\Projects\zstack\Samples\CC2530-IAP\CC2530\CC2530BL\List\"
//        --diag_suppress Pe001,Pa010,Pa050 -o "I:\1_git_code\EPnode_OTA\CC2530
//        IAP\CC2530_stack\zstack-2.4.0-1.4.0x\Projects\zstack\Samples\CC2530-IAP\CC2530\CC2530BL\Obj\"
//        -e --debug --core=plain --dptr=16,1 --data_model=large
//        --code_model=near --calling_convention=xdata_reentrant
//        --place_constants=data --nr_virtual_regs 8 -I
//        "I:\1_git_code\EPnode_OTA\CC2530
//        IAP\CC2530_stack\zstack-2.4.0-1.4.0x\Projects\zstack\Samples\CC2530-IAP\CC2530\..\Source\drive\"
//        -I "I:\1_git_code\EPnode_OTA\CC2530
//        IAP\CC2530_stack\zstack-2.4.0-1.4.0x\Projects\zstack\Samples\CC2530-IAP\CC2530\..\Source\iap\"
//        -I "I:\1_git_code\EPnode_OTA\CC2530
//        IAP\CC2530_stack\zstack-2.4.0-1.4.0x\Projects\zstack\Samples\CC2530-IAP\CC2530\..\Source\shell\"
//        -I "I:\1_git_code\EPnode_OTA\CC2530
//        IAP\CC2530_stack\zstack-2.4.0-1.4.0x\Projects\zstack\Samples\CC2530-IAP\CC2530\..\Source\sys\"
//        -I "I:\1_git_code\EPnode_OTA\CC2530
//        IAP\CC2530_stack\zstack-2.4.0-1.4.0x\Projects\zstack\Samples\CC2530-IAP\CC2530\..\Source\"
//        -I "I:\1_git_code\EPnode_OTA\CC2530
//        IAP\CC2530_stack\zstack-2.4.0-1.4.0x\Projects\zstack\Samples\CC2530-IAP\CC2530\source\"
//        -I "I:\1_git_code\EPnode_OTA\CC2530
//        IAP\CC2530_stack\zstack-2.4.0-1.4.0x\Projects\zstack\Samples\CC2530-IAP\CC2530\..\..\common\"
//        -I "I:\1_git_code\EPnode_OTA\CC2530
//        IAP\CC2530_stack\zstack-2.4.0-1.4.0x\Projects\zstack\Samples\CC2530-IAP\CC2530\..\..\..\ZMain\TI2530DB\"
//        -I "I:\1_git_code\EPnode_OTA\CC2530
//        IAP\CC2530_stack\zstack-2.4.0-1.4.0x\Projects\zstack\Samples\CC2530-IAP\CC2530\..\..\..\..\..\Components\hal\include\"
//        -I "I:\1_git_code\EPnode_OTA\CC2530
//        IAP\CC2530_stack\zstack-2.4.0-1.4.0x\Projects\zstack\Samples\CC2530-IAP\CC2530\..\..\..\..\..\Components\hal\target\_COMMON\CC2530\"
//        -I "I:\1_git_code\EPnode_OTA\CC2530
//        IAP\CC2530_stack\zstack-2.4.0-1.4.0x\Projects\zstack\Samples\CC2530-IAP\CC2530\..\..\..\..\..\Components\hal\target\CC2530EB\"
//        -I "I:\1_git_code\EPnode_OTA\CC2530
//        IAP\CC2530_stack\zstack-2.4.0-1.4.0x\Projects\zstack\Samples\CC2530-IAP\CC2530\..\..\..\..\..\Components\osal\include\"
//        -I "I:\1_git_code\EPnode_OTA\CC2530
//        IAP\CC2530_stack\zstack-2.4.0-1.4.0x\Projects\zstack\Samples\CC2530-IAP\CC2530\..\..\..\..\..\Components\services\saddr\"
//        -Ohz
//    List file          =  
//        I:\1_git_code\EPnode_OTA\CC2530
//        IAP\CC2530_stack\zstack-2.4.0-1.4.0x\Projects\zstack\Samples\CC2530-IAP\CC2530\CC2530BL\List\shell.s51
//
///////////////////////////////////////////////////////////////////////////////

        NAME shell

        RTMODEL "__SystemLibrary", "CLib"
        RTMODEL "__calling_convention", "xdata_reentrant"
        RTMODEL "__code_model", "near"
        RTMODEL "__core", "plain"
        RTMODEL "__data_model", "large"
        RTMODEL "__dptr_size", "16"
        RTMODEL "__extended_stack", "disabled"
        RTMODEL "__iar_require _formatted_write", "qualifiers"
        RTMODEL "__location_for_constants", "data"
        RTMODEL "__number_of_dptrs", "1"
        RTMODEL "__rt_version", "1"

        RSEG DOVERLAY:DATA:NOROOT(0)
        RSEG IOVERLAY:IDATA:NOROOT(0)
        RSEG ISTACK:IDATA:NOROOT(0)
        RSEG PSTACK:XDATA:NOROOT(0)
        RSEG XSTACK:XDATA:NOROOT(0)

        EXTERN ?V0
        EXTERN ?V1
        EXTERN ?V2
        EXTERN ?V3
        EXTERN ?V4
        EXTERN ?V5
        EXTERN ?V6
        EXTERN ?V7
        EXTERN ?ALLOC_XSTACK8
        EXTERN ?CALL_IND
        EXTERN ?DEALLOC_XSTACK8
        EXTERN ?FUNC_ENTER_XDATA
        EXTERN ?FUNC_LEAVE_XDATA
        EXTERN ?L_ADD_TO_X
        EXTERN ?L_ADD_X
        EXTERN ?L_AND_X
        EXTERN ?L_EQ
        EXTERN ?L_EQ_X
        EXTERN ?L_IOR
        EXTERN ?L_IOR_X
        EXTERN ?L_MOV_TO_X
        EXTERN ?L_MOV_X
        EXTERN ?L_SHL
        EXTERN ?MOVE_LONG8_XDATA_XDATA
        EXTERN ?PUSH_XSTACK8_X_FOUR
        EXTERN ?PUSH_XSTACK8_X_TWO
        EXTERN ?PUSH_XSTACK_I_TWO
        EXTERN ?SL_GE_X
        EXTERN ?SL_GT
        EXTERN ?S_DIV_MOD
        EXTERN ?S_SHL
        EXTERN ?UL_GE_X
        EXTERN ?UL_GT
        EXTERN ?UL_GT_X
        EXTERN ?UL_SHR
        EXTERN ?XLOAD_R0123
        EXTERN ?XLOAD_R2345
        EXTERN ?XLOAD_R4567
        EXTERN ?XSP
        EXTERN ?XSTACK_DISP0_8
        EXTERN ?XSTACK_DISP100_8
        EXTERN ?XSTACK_DISP101_8
        EXTERN ?XSTACK_DISP102_8
        EXTERN __INIT_XDATA_I
        EXTERN __INIT_XDATA_Z

        PUBLIC DEFAULT_INPUTSIGN
        PUBWEAK __Constant_0
        PUBWEAK __Constant_1
        PUBWEAK __Constant_1f0000
        PUBWEAK __Constant_3e00000
        PUBWEAK __Constant_3e0ffff
        PUBWEAK __Constant_3ffffff
        PUBWEAK __Constant_87654321
        PUBWEAK __Constant_a
        PUBWEAK __Constant_abcd4320
        PUBWEAK __Constant_abcd4321
        PUBWEAK __Constant_abcd4322
        PUBWEAK __Constant_fc000000
        PUBWEAK __Constant_ff
        PUBWEAK __Constant_ff00
        PUBWEAK __Constant_fffffff0
        PUBWEAK __Constant_ffffffff
        PUBLIC _shell_register
        FUNCTION _shell_register,080203H
        ARGFRAME XSTACK, 11, STACK
        ARGFRAME IOVERLAY, 0, STATIC
        ARGFRAME DOVERLAY, 0, STATIC
        LOCFRAME XSTACK, 37, STACK
        FUNCTION checkout,0a1203H
        ARGFRAME XSTACK, 53, STACK
        ARGFRAME IOVERLAY, 0, STATIC
        ARGFRAME DOVERLAY, 0, STATIC
        LOCFRAME XSTACK, 29, STACK
        PUBLIC cmdline_gets
        FUNCTION cmdline_gets,0a1603H
        ARGFRAME XSTACK, 11, STACK
        ARGFRAME IOVERLAY, 0, STATIC
        ARGFRAME DOVERLAY, 0, STATIC
        LOCFRAME ISTACK, 1, STACK
        LOCFRAME XSTACK, 23, STACK
        PUBLIC cmdline_param
        FUNCTION cmdline_param,080203H
        ARGFRAME XSTACK, 2, STACK
        LOCFRAME XSTACK, 14, STACK
        PUBLIC cmdline_strtok
        FUNCTION cmdline_strtok,080203H
        ARGFRAME XSTACK, 2, STACK
        LOCFRAME XSTACK, 9, STACK
        FUNCTION confirm_gets,0a1603H
        ARGFRAME XSTACK, 2, STACK
        LOCFRAME ISTACK, 1, STACK
        LOCFRAME XSTACK, 17, STACK
        PUBLIC current_puts
        PUBLIC default_puts
        FUNCTION shell_backspace,080203H
        ARGFRAME XSTACK, 19, STACK
        ARGFRAME IOVERLAY, 0, STATIC
        ARGFRAME DOVERLAY, 0, STATIC
        LOCFRAME ISTACK, 1, STACK
        LOCFRAME XSTACK, 117, STACK
        FUNCTION shell_clean_screen,0a1603H
        ARGFRAME XSTACK, 0, STACK
        LOCFRAME XSTACK, 19, STACK
        PUBLIC shell_confirm
        FUNCTION shell_confirm,0a1203H
        ARGFRAME XSTACK, 45, STACK
        ARGFRAME IOVERLAY, 0, STATIC
        ARGFRAME DOVERLAY, 0, STATIC
        LOCFRAME XSTACK, 11, STACK
        FUNCTION shell_getchar,080203H
        ARGFRAME XSTACK, 45, STACK
        ARGFRAME IOVERLAY, 0, STATIC
        ARGFRAME DOVERLAY, 0, STATIC
        LOCFRAME ISTACK, 1, STACK
        LOCFRAME XSTACK, 117, STACK
        PUBLIC shell_init
        FUNCTION shell_init,0a1203H
        ARGFRAME XSTACK, 0, STACK
        LOCFRAME XSTACK, 11, STACK
        PUBLIC shell_input_init
        FUNCTION shell_input_init,0a1203H
        ARGFRAME XSTACK, 0, STACK
        LOCFRAME ISTACK, 2, STACK
        LOCFRAME XSTACK, 19, STACK
        FUNCTION shell_list_cmd,0a1603H
        ARGFRAME XSTACK, 0, STACK
        LOCFRAME XSTACK, 19, STACK
        FUNCTION shell_parse,0a1203H
        ARGFRAME XSTACK, 19, STACK
        ARGFRAME IOVERLAY, 0, STATIC
        ARGFRAME DOVERLAY, 0, STATIC
        LOCFRAME XSTACK, 45, STACK
        FUNCTION shell_show_history,0a1203H
        ARGFRAME XSTACK, 23, STACK
        ARGFRAME IOVERLAY, 0, STATIC
        ARGFRAME DOVERLAY, 0, STATIC
        LOCFRAME ISTACK, 1, STACK
        LOCFRAME XSTACK, 16, STACK
        FUNCTION shell_tab,0a1203H
        ARGFRAME XSTACK, 19, STACK
        ARGFRAME IOVERLAY, 0, STATIC
        ARGFRAME DOVERLAY, 0, STATIC
        LOCFRAME ISTACK, 1, STACK
        LOCFRAME XSTACK, 53, STACK
        PUBLIC welcome_gets
        FUNCTION welcome_gets,0a1603H
        ARGFRAME XSTACK, 2, STACK
        LOCFRAME XSTACK, 11, STACK
        
          CFI Names cfiNames0
          CFI StackFrame CFA_SP SP IDATA
          CFI StackFrame CFA_PSP16 PSP16 XDATA
          CFI StackFrame CFA_XSP16 XSP16 XDATA
          CFI StaticOverlayFrame CFA_IOVERLAY IOVERLAY
          CFI StaticOverlayFrame CFA_DOVERLAY DOVERLAY
          CFI Resource `PSW.CY`:1, `B.BR0`:1, `B.BR1`:1, `B.BR2`:1, `B.BR3`:1
          CFI Resource `B.BR4`:1, `B.BR5`:1, `B.BR6`:1, `B.BR7`:1, `VB.BR8`:1
          CFI Resource `VB.BR9`:1, `VB.BR10`:1, `VB.BR11`:1, `VB.BR12`:1
          CFI Resource `VB.BR13`:1, `VB.BR14`:1, `VB.BR15`:1, VB:8, B:8, A:8
          CFI Resource PSW:8, DPL0:8, DPH0:8, R0:8, R1:8, R2:8, R3:8, R4:8, R5:8
          CFI Resource R6:8, R7:8, V0:8, V1:8, V2:8, V3:8, V4:8, V5:8, V6:8, V7:8
          CFI Resource SP:8, PSPH:8, PSPL:8, PSP16:16, XSPH:8, XSPL:8, XSP16:16
          CFI VirtualResource ?RET:16, ?RET_HIGH:8, ?RET_LOW:8
          CFI ResourceParts PSP16 PSPH, PSPL
          CFI ResourceParts XSP16 XSPH, XSPL
          CFI ResourceParts ?RET ?RET_HIGH, ?RET_LOW
          CFI EndNames cfiNames0
        
          CFI Common cfiCommon0 Using cfiNames0
          CFI CodeAlign 1
          CFI DataAlign -1
          CFI ReturnAddress ?RET CODE
          CFI CFA_DOVERLAY Used
          CFI CFA_IOVERLAY Used
          CFI CFA_SP SP+-2
          CFI CFA_PSP16 PSP16+0
          CFI CFA_XSP16 XSP16+0
          CFI `PSW.CY` SameValue
          CFI `B.BR0` SameValue
          CFI `B.BR1` SameValue
          CFI `B.BR2` SameValue
          CFI `B.BR3` SameValue
          CFI `B.BR4` SameValue
          CFI `B.BR5` SameValue
          CFI `B.BR6` SameValue
          CFI `B.BR7` SameValue
          CFI `VB.BR8` SameValue
          CFI `VB.BR9` SameValue
          CFI `VB.BR10` SameValue
          CFI `VB.BR11` SameValue
          CFI `VB.BR12` SameValue
          CFI `VB.BR13` SameValue
          CFI `VB.BR14` SameValue
          CFI `VB.BR15` SameValue
          CFI VB SameValue
          CFI B Undefined
          CFI A Undefined
          CFI PSW SameValue
          CFI DPL0 SameValue
          CFI DPH0 SameValue
          CFI R0 Undefined
          CFI R1 Undefined
          CFI R2 Undefined
          CFI R3 Undefined
          CFI R4 Undefined
          CFI R5 Undefined
          CFI R6 SameValue
          CFI R7 SameValue
          CFI V0 SameValue
          CFI V1 SameValue
          CFI V2 SameValue
          CFI V3 SameValue
          CFI V4 SameValue
          CFI V5 SameValue
          CFI V6 SameValue
          CFI V7 SameValue
          CFI PSPH Undefined
          CFI PSPL Undefined
          CFI XSPH Undefined
          CFI XSPL Undefined
          CFI ?RET Concat
          CFI ?RET_HIGH Frame(CFA_SP, 2)
          CFI ?RET_LOW Frame(CFA_SP, 1)
          CFI EndCommon cfiCommon0
        
        
          CFI Common cfiCommon1 Using cfiNames0
          CFI CodeAlign 1
          CFI DataAlign -1
          CFI ReturnAddress ?RET CODE
          CFI CFA_DOVERLAY Used
          CFI CFA_IOVERLAY Used
          CFI CFA_SP SP+-2
          CFI CFA_PSP16 PSP16+0
          CFI CFA_XSP16 XSP16+0
          CFI `PSW.CY` SameValue
          CFI `B.BR0` SameValue
          CFI `B.BR1` SameValue
          CFI `B.BR2` SameValue
          CFI `B.BR3` SameValue
          CFI `B.BR4` SameValue
          CFI `B.BR5` SameValue
          CFI `B.BR6` SameValue
          CFI `B.BR7` SameValue
          CFI `VB.BR8` SameValue
          CFI `VB.BR9` SameValue
          CFI `VB.BR10` SameValue
          CFI `VB.BR11` SameValue
          CFI `VB.BR12` SameValue
          CFI `VB.BR13` SameValue
          CFI `VB.BR14` SameValue
          CFI `VB.BR15` SameValue
          CFI VB SameValue
          CFI B SameValue
          CFI A SameValue
          CFI PSW SameValue
          CFI DPL0 SameValue
          CFI DPH0 SameValue
          CFI R0 SameValue
          CFI R1 SameValue
          CFI R2 SameValue
          CFI R3 SameValue
          CFI R4 SameValue
          CFI R5 SameValue
          CFI R6 SameValue
          CFI R7 SameValue
          CFI V0 SameValue
          CFI V1 SameValue
          CFI V2 SameValue
          CFI V3 SameValue
          CFI V4 SameValue
          CFI V5 SameValue
          CFI V6 SameValue
          CFI V7 SameValue
          CFI PSPH Undefined
          CFI PSPL Undefined
          CFI XSPH Undefined
          CFI XSPL Undefined
          CFI ?RET Concat
          CFI ?RET_HIGH Frame(CFA_SP, 2)
          CFI ?RET_LOW Frame(CFA_SP, 1)
          CFI EndCommon cfiCommon1
        
        EXTERN memcmp
        FUNCTION memcmp,010202H
        ARGFRAME ISTACK, 0, STACK
        ARGFRAME PSTACK, 0, STACK
        ARGFRAME XSTACK, 29, STACK
        ARGFRAME IOVERLAY, 0, STATIC
        ARGFRAME DOVERLAY, 0, STATIC
        EXTERN memcpy
        FUNCTION memcpy,010202H
        ARGFRAME ISTACK, 0, STACK
        ARGFRAME PSTACK, 0, STACK
        ARGFRAME XSTACK, 21, STACK
        ARGFRAME IOVERLAY, 0, STATIC
        ARGFRAME DOVERLAY, 0, STATIC
        EXTERN printf
        FUNCTION printf,0202H
        ARGFRAME ISTACK, 0, STACK
        ARGFRAME PSTACK, 0, STACK
        ARGFRAME XSTACK, 49, STACK
        ARGFRAME IOVERLAY, 0, STATIC
        ARGFRAME DOVERLAY, 0, STATIC
        EXTERN strcpy
        FUNCTION strcpy,010202H
        ARGFRAME ISTACK, 0, STACK
        ARGFRAME PSTACK, 0, STACK
        ARGFRAME XSTACK, 19, STACK
        ARGFRAME IOVERLAY, 0, STATIC
        ARGFRAME DOVERLAY, 0, STATIC
        EXTERN strncpy
        FUNCTION strncpy,010202H
        ARGFRAME ISTACK, 0, STACK
        ARGFRAME PSTACK, 0, STACK
        ARGFRAME XSTACK, 11, STACK
        ARGFRAME IOVERLAY, 0, STATIC
        ARGFRAME DOVERLAY, 0, STATIC

// I:\1_git_code\EPnode_OTA\CC2530 IAP\CC2530_stack\zstack-2.4.0-1.4.0x\Projects\zstack\Samples\CC2530-IAP\Source\shell\shell.c
//    1 /**
//    2   ******************************************************************************
//    3   * @file           shell.c
//    4   * @author         古么宁
//    5   * @brief          shell 命令解释器，支持  TAB 键命令补全，上下左右箭头 ，BACKSPACE回删
//    6   * @note
//    7   * <pre>
//    8   * 使用步骤:
//    9   *    0.初始化硬件部分。
//   10   *    1.编写硬件对应的void puts(char * buf , uint16_t len) 发送函数。
//   11   *    2.shell_init(sign,puts) 初始化输入标志和默认输出。
//   12   *    3.新建一个  shellinput_t shellx , 初始化输出 shell_input_init(&shellx,puts,...);
//   13   *    4.接收到一包数据后，调用 shell_input(shellx,buf,len)
//   14   *    *.  需要注册命令则调用宏 shell_register_command 进行注册。
//   15   *    *.. shell_register_confirm() 可注册带选项命令([Y/N]选项)
//   16   * </pre>
//   17   ******************************************************************************
//   18   *
//   19   * COPYRIGHT(c) 2019 GoodMorning
//   20   *
//   21   ******************************************************************************
//   22   */
//   23 /* Includes ---------------------------------------------------*/
//   24 #include <string.h>
//   25 #include <stdarg.h>
//   26 #include <stdio.h>
//   27 #include "shell.h"
//   28 #include "containerof.h"
//   29 

        RSEG XDATA_Z:XDATA:NOROOT(0)
        DATA16
//   30 fmt_puts_t current_puts = NULL;
current_puts:
        DS 2
        REQUIRE __INIT_XDATA_Z

        RSEG XDATA_Z:XDATA:NOROOT(0)
        DATA16
//   31 fmt_puts_t default_puts = NULL;
default_puts:
        DS 2
        REQUIRE __INIT_XDATA_Z

        RSEG XDATA_I:XDATA:NOROOT(0)
        DATA8
`?<Constant "\\033[2K\\r%s">`:
        DS 8
        REQUIRE `?<Initializer for <Constant "\\033[2K\\r%s">>`
        REQUIRE __INIT_XDATA_I

        RSEG XDATA_I:XDATA:NOROOT(0)
        DATA8
`?<Constant "\\r\\n\\t%s">`:
        DS 6
        REQUIRE `?<Initializer for <Constant "\\r\\n\\t%s">>`
        REQUIRE __INIT_XDATA_I

        RSEG XDATA_I:XDATA:NOROOT(0)
        DATA8
`?<Constant "\\r\\n%s%s">`:
        DS 7
        REQUIRE `?<Initializer for <Constant "\\r\\n%s%s">>`
        REQUIRE __INIT_XDATA_I

        RSEG XDATA_I:XDATA:NOROOT(0)
        DATA8
`?<Constant {0}>`:
        DS 100
        REQUIRE `?<Initializer for <Constant {0}>>`
        REQUIRE __INIT_XDATA_I

        RSEG XDATA_I:XDATA:NOROOT(0)
        DATA8
`?<Constant {0}>_1`:
        DS 100
        REQUIRE `?<Initializer for <Constant {0}>>_1`
        REQUIRE __INIT_XDATA_I

        RSEG XDATA_I:XDATA:NOROOT(0)
        DATA8
`?<Constant "\\r\\n\\tno reply:%s\\r\\n">`:
        DS 17
        REQUIRE `?<Initializer for <Constant "\\r\\n\\tno reply:%s`
        REQUIRE __INIT_XDATA_I

        RSEG XDATA_I:XDATA:NOROOT(0)
        DATA8
`?<Constant "\\033[2J\\033[%ld;%ldH%s">`:
        DS 17
        REQUIRE `?<Initializer for <Constant "\\033[2J\\033[%ld;%`
        REQUIRE __INIT_XDATA_I

        RSEG XDATA_I:XDATA:NOROOT(0)
        DATA8
`?<Constant "\\r\\n(%c)------">`:
        DS 13
        REQUIRE `?<Initializer for <Constant "\\r\\n(%c)------">>`
        REQUIRE __INIT_XDATA_I

        RSEG XDATA_I:XDATA:NOROOT(0)
        DATA8
`?<Constant "\\r\\n\\r\\n%s">`:
        DS 7
        REQUIRE `?<Initializer for <Constant "\\r\\n\\r\\n%s">>`
        REQUIRE __INIT_XDATA_I

        RSEG XDATA_I:XDATA:NOROOT(0)
        DATA8
`?<Constant "\\r\\n">`:
        DS 3
        REQUIRE `?<Initializer for <Constant "\\r\\n">>`
        REQUIRE __INIT_XDATA_I

        RSEG XDATA_I:XDATA:NOROOT(0)
        DATA8
`?<Constant "\\r\\n%s">`:
        DS 5
        REQUIRE `?<Initializer for <Constant "\\r\\n%s">>`
        REQUIRE __INIT_XDATA_I

        RSEG XDATA_I:XDATA:NOROOT(0)
        DATA8
`?<Constant "^C\\r\\n%s">`:
        DS 7
        REQUIRE `?<Initializer for <Constant "^C\\r\\n%s">>`
        REQUIRE __INIT_XDATA_I

        RSEG XDATA_I:XDATA:NOROOT(0)
        DATA16
`?<Constant "\\b">`:
        DS 2
        REQUIRE `?<Initializer for <Constant "\\b">>`
        REQUIRE __INIT_XDATA_I

        RSEG XDATA_I:XDATA:NOROOT(0)
        DATA32
`?<Constant "\\b \\b">`:
        DS 4
        REQUIRE `?<Initializer for <Constant "\\b \\b">>`
        REQUIRE __INIT_XDATA_I

        RSEG XDATA_I:XDATA:NOROOT(0)
        DATA8
`?<Constant "cancel this operation\\r\\n">`:
        DS 24
        REQUIRE `?<Initializer for <Constant "cancel this opera`
        REQUIRE __INIT_XDATA_I

        RSEG XDATA_I:XDATA:NOROOT(0)
        DATA8
`?<Constant "%s [Y/N] ">`:
        DS 10
        REQUIRE `?<Initializer for <Constant "%s [Y/N] ">>`
        REQUIRE __INIT_XDATA_I

        RSEG XDATA_I:XDATA:NOROOT(0)
        DATA8
`?<Constant "help">`:
        DS 5
        REQUIRE `?<Initializer for <Constant "help">>`
        REQUIRE __INIT_XDATA_I

        RSEG XDATA_I:XDATA:NOROOT(0)
        DATA8
`?<Constant "clear">`:
        DS 6
        REQUIRE `?<Initializer for <Constant "clear">>`
        REQUIRE __INIT_XDATA_I
//   32 
//   33 /* Private types ------------------------------------------------------------*/
//   34 
//   35 union uncmd {
//   36 	struct {// 命令号分为以下五个部分  
//   37 		uint32_t CRC2      : 8;
//   38 		uint32_t CRC1      : 8;///< 低十六位为两个 crc 校验码
//   39 		uint32_t Sum       : 5;///< 命令字符的总和
//   40 		uint32_t Len       : 5;///< 命令字符的长度，5 bit ，即命令长度不能超过31个字符
//   41 		uint32_t FirstChar : 6;///< 命令字符的第一个字符
//   42 	}part;
//   43 	uint32_t ID;               ///< 由此合并为 32 位的命令码
//   44 };
//   45 
//   46 /* Private macro ------------------------------------------------------------*/
//   47 
//   48 #define VERSION      "V2.0.4"
//   49 
//   50 #if USE_AVL_TREE 
//   51 	#define NEXT(x)          avl_next(x)
//   52 	#define FIRST(root)      avl_first(root)
//   53 	#define ROOT(root)       ((root)->avl_node)
//   54 #else 
//   55 	#define NEXT(x)          ((x)->next)
//   56 	#define FIRST(root)      ((root)->next)
//   57 	#define ROOT(root)       ((root)->next)
//   58 #endif
//   59 
//   60 /* Private variables --------------------------------------------------------*/
//   61 

        RSEG XDATA_I:XDATA:NOROOT(0)
        DATA8
//   62 static const  unsigned char F_CRC8_Table[256] = {//正序,高位先行 x^8+x^5+x^4+1
F_CRC8_Table:
        DS 256
        REQUIRE `?<Initializer for F_CRC8_Table>`
        REQUIRE __INIT_XDATA_I
//   63 	0x00, 0x31, 0x62, 0x53, 0xc4, 0xf5, 0xa6, 0x97, 0xb9, 0x88, 0xdb, 0xea, 0x7d, 0x4c, 0x1f, 0x2e,
//   64 	0x43, 0x72, 0x21, 0x10, 0x87, 0xb6, 0xe5, 0xd4, 0xfa, 0xcb, 0x98, 0xa9, 0x3e, 0x0f, 0x5c, 0x6d,
//   65 	0x86, 0xb7, 0xe4, 0xd5, 0x42, 0x73, 0x20, 0x11, 0x3f, 0x0e, 0x5d, 0x6c, 0xfb, 0xca, 0x99, 0xa8,
//   66 	0xc5, 0xf4, 0xa7, 0x96, 0x01, 0x30, 0x63, 0x52, 0x7c, 0x4d, 0x1e, 0x2f, 0xb8, 0x89, 0xda, 0xeb,
//   67 	0x3d, 0x0c, 0x5f, 0x6e, 0xf9, 0xc8, 0x9b, 0xaa, 0x84, 0xb5, 0xe6, 0xd7, 0x40, 0x71, 0x22, 0x13,
//   68 	0x7e, 0x4f, 0x1c, 0x2d, 0xba, 0x8b, 0xd8, 0xe9, 0xc7, 0xf6, 0xa5, 0x94, 0x03, 0x32, 0x61, 0x50,
//   69 	0xbb, 0x8a, 0xd9, 0xe8, 0x7f, 0x4e, 0x1d, 0x2c, 0x02, 0x33, 0x60, 0x51, 0xc6, 0xf7, 0xa4, 0x95,
//   70 	0xf8, 0xc9, 0x9a, 0xab, 0x3c, 0x0d, 0x5e, 0x6f, 0x41, 0x70, 0x23, 0x12, 0x85, 0xb4, 0xe7, 0xd6,
//   71 	0x7a, 0x4b, 0x18, 0x29, 0xbe, 0x8f, 0xdc, 0xed, 0xc3, 0xf2, 0xa1, 0x90, 0x07, 0x36, 0x65, 0x54,
//   72 	0x39, 0x08, 0x5b, 0x6a, 0xfd, 0xcc, 0x9f, 0xae, 0x80, 0xb1, 0xe2, 0xd3, 0x44, 0x75, 0x26, 0x17,
//   73 	0xfc, 0xcd, 0x9e, 0xaf, 0x38, 0x09, 0x5a, 0x6b, 0x45, 0x74, 0x27, 0x16, 0x81, 0xb0, 0xe3, 0xd2,
//   74 	0xbf, 0x8e, 0xdd, 0xec, 0x7b, 0x4a, 0x19, 0x28, 0x06, 0x37, 0x64, 0x55, 0xc2, 0xf3, 0xa0, 0x91,
//   75 	0x47, 0x76, 0x25, 0x14, 0x83, 0xb2, 0xe1, 0xd0, 0xfe, 0xcf, 0x9c, 0xad, 0x3a, 0x0b, 0x58, 0x69,
//   76 	0x04, 0x35, 0x66, 0x57, 0xc0, 0xf1, 0xa2, 0x93, 0xbd, 0x8c, 0xdf, 0xee, 0x79, 0x48, 0x1b, 0x2a,
//   77 	0xc1, 0xf0, 0xa3, 0x92, 0x05, 0x34, 0x67, 0x56, 0x78, 0x49, 0x1a, 0x2b, 0xbc, 0x8d, 0xde, 0xef,
//   78 	0x82, 0xb3, 0xe0, 0xd1, 0x46, 0x77, 0x24, 0x15, 0x3b, 0x0a, 0x59, 0x68, 0xff, 0xce, 0x9d, 0xac
//   79 };
//   80 

        RSEG XDATA_I:XDATA:NOROOT(0)
        DATA8
//   81 static const  unsigned char B_CRC8_Table[256] = {//反序,低位先行 x^8+x^5+x^4+1
B_CRC8_Table:
        DS 256
        REQUIRE `?<Initializer for B_CRC8_Table>`
        REQUIRE __INIT_XDATA_I
//   82 	0x00, 0x5e, 0xbc, 0xe2, 0x61, 0x3f, 0xdd, 0x83, 0xc2, 0x9c, 0x7e, 0x20, 0xa3, 0xfd, 0x1f, 0x41,
//   83 	0x9d, 0xc3, 0x21, 0x7f, 0xfc, 0xa2, 0x40, 0x1e, 0x5f, 0x01, 0xe3, 0xbd, 0x3e, 0x60, 0x82, 0xdc,
//   84 	0x23, 0x7d, 0x9f, 0xc1, 0x42, 0x1c, 0xfe, 0xa0, 0xe1, 0xbf, 0x5d, 0x03, 0x80, 0xde, 0x3c, 0x62,
//   85 	0xbe, 0xe0, 0x02, 0x5c, 0xdf, 0x81, 0x63, 0x3d, 0x7c, 0x22, 0xc0, 0x9e, 0x1d, 0x43, 0xa1, 0xff,
//   86 	0x46, 0x18, 0xfa, 0xa4, 0x27, 0x79, 0x9b, 0xc5, 0x84, 0xda, 0x38, 0x66, 0xe5, 0xbb, 0x59, 0x07,
//   87 	0xdb, 0x85, 0x67, 0x39, 0xba, 0xe4, 0x06, 0x58, 0x19, 0x47, 0xa5, 0xfb, 0x78, 0x26, 0xc4, 0x9a,
//   88 	0x65, 0x3b, 0xd9, 0x87, 0x04, 0x5a, 0xb8, 0xe6, 0xa7, 0xf9, 0x1b, 0x45, 0xc6, 0x98, 0x7a, 0x24,
//   89 	0xf8, 0xa6, 0x44, 0x1a, 0x99, 0xc7, 0x25, 0x7b, 0x3a, 0x64, 0x86, 0xd8, 0x5b, 0x05, 0xe7, 0xb9,
//   90 	0x8c, 0xd2, 0x30, 0x6e, 0xed, 0xb3, 0x51, 0x0f, 0x4e, 0x10, 0xf2, 0xac, 0x2f, 0x71, 0x93, 0xcd,
//   91 	0x11, 0x4f, 0xad, 0xf3, 0x70, 0x2e, 0xcc, 0x92, 0xd3, 0x8d, 0x6f, 0x31, 0xb2, 0xec, 0x0e, 0x50,
//   92 	0xaf, 0xf1, 0x13, 0x4d, 0xce, 0x90, 0x72, 0x2c, 0x6d, 0x33, 0xd1, 0x8f, 0x0c, 0x52, 0xb0, 0xee,
//   93 	0x32, 0x6c, 0x8e, 0xd0, 0x53, 0x0d, 0xef, 0xb1, 0xf0, 0xae, 0x4c, 0x12, 0x91, 0xcf, 0x2d, 0x73,
//   94 	0xca, 0x94, 0x76, 0x28, 0xab, 0xf5, 0x17, 0x49, 0x08, 0x56, 0xb4, 0xea, 0x69, 0x37, 0xd5, 0x8b,
//   95 	0x57, 0x09, 0xeb, 0xb5, 0x36, 0x68, 0x8a, 0xd4, 0x95, 0xcb, 0x29, 0x77, 0xf4, 0xaa, 0x48, 0x16,
//   96 	0xe9, 0xb7, 0x55, 0x0b, 0x88, 0xd6, 0x34, 0x6a, 0x2b, 0x75, 0x97, 0xc9, 0x4a, 0x14, 0xf6, 0xa8,
//   97 	0x74, 0x2a, 0xc8, 0x96, 0x15, 0x4b, 0xa9, 0xf7, 0xb6, 0xe8, 0x0a, 0x54, 0xd7, 0x89, 0x6b, 0x35
//   98 };
//   99 
//  100 /// 索引起始点，目录根

        RSEG XDATA_Z:XDATA:NOROOT(0)
        DATA16
//  101 static cmd_root_t shellcmdroot = {0};
shellcmdroot:
        DS 2
        REQUIRE __INIT_XDATA_Z
//  102 
//  103 /* Global variables ---------------------------------------------------------*/
//  104 
//  105 /// 默认输出标志，可修改

        RSEG XDATA_I:XDATA:NOROOT(0)
//  106 char DEFAULT_INPUTSIGN[COMMANDLINE_MAX_LEN] = "~ # ";
DEFAULT_INPUTSIGN:
        DATA8
        DS 50
        REQUIRE `?<Initializer for DEFAULT_INPUTSIGN>`
        REQUIRE __INIT_XDATA_I
//  107 
//  108 /* Private function prototypes -----------------------------------------------*/
//  109 static void   shell_getchar     (struct shell_input * shellin , char ch);
//  110 static void   shell_backspace   (struct shell_input * shellin) ;
//  111 static void   shell_tab         (struct shell_input * shellin) ;
//  112        void   shell_confirm     (struct shell_input * shellin ,char * info ,cmd_fn_t yestodo);
//  113 
//  114 #if (COMMANDLINE_MAX_RECORD)//如果定义了历史纪录
//  115 	static char * shell_record(struct shell_input * shellin);
//  116 	static void   shell_show_history(struct shell_input * shellin,int32_t LastOrNext);
//  117 #else
//  118 #	define shell_record(x)
//  119 #	define shell_show_history(x,y)
//  120 #endif //#if (COMMANDLINE_MAX_RECORD)//如果定义了历史纪录
//  121 
//  122 /* Gorgeous Split-line ------------------------------------------------------*/
//  123 
//  124 /**
//  125   * @brief    命令匹配，根据 cmd 找到对应的控制块
//  126   * @param    cmdindex : 命令号
//  127   * @param    root     : 检索根，起始检索点
//  128   * @return   返回 cmd 命令字符串对应的控制块
//  129 */
//  130 static struct shellcommand *shell_search_cmd(cmd_root_t * root , uint32_t cmdindex)
//  131 {
//  132 	struct shellcommand * command ;
//  133 	cmd_entry_t *node = ROOT(root);
//  134 
//  135 	#if USE_AVL_TREE 
//  136 		while (node) {
//  137 			command = container_of(node, struct shellcommand, node);
//  138 			if (cmdindex < command->ID)
//  139 				node = node->avl_left;
//  140 			else 
//  141 			if (cmdindex > command->ID)
//  142 				node = node->avl_right;
//  143 			else 
//  144 				return command;
//  145 		}
//  146 	#else 
//  147 		for ( ; node ; node = node->next ) {
//  148 			command = container_of(node, struct shellcommand, node);
//  149 			if (command->ID > cmdindex)
//  150 				return NULL;
//  151 			else
//  152 			if (command->ID == cmdindex)
//  153 				return command;
//  154 		}
//  155 	#endif 
//  156   
//  157 	return NULL;
//  158 }
//  159 
//  160 /**
//  161   * @brief    新命令插入记录
//  162   * @param    root     : 检索根，起始检索点
//  163   * @param    newcmd   : 新命令控制块
//  164   * @return   成功返回 0
//  165 */
//  166 static int32_t shell_insert_cmd(cmd_root_t * root , struct shellcommand * newcmd)
//  167 {
//  168 	struct shellcommand * command ;
//  169 	cmd_entry_t **node = &ROOT(root) ;
//  170 
//  171 	#if USE_AVL_TREE 
//  172 		/* 用平衡二叉树构建查询系统 */
//  173 		cmd_entry_t *parent = NULL;
//  174 
//  175 		/* Figure out where to put new node */
//  176 		while (*node) {
//  177 			command = container_of(*node, struct shellcommand, node);
//  178 			parent = *node;
//  179 			if (newcmd->ID < command->ID)
//  180 				node = &((*node)->avl_left);
//  181 			else 
//  182 			if (newcmd->ID > command->ID)
//  183 				node = &((*node)->avl_right);
//  184 			else
//  185 				return 1;
//  186 		}
//  187 
//  188 		/* Add new node and rebalance tree. */
//  189 		avl_insert(root,&newcmd->node,parent,node);
//  190 	#else 
//  191 		/* 用单链表构建查询系统 */
//  192 		for ( ; *node ; node = &((*node)->next) ) {
//  193 			command = container_of(*node, struct shellcommand, node);
//  194 			if (newcmd->ID == command->ID) 
//  195 				return -1;
//  196 			else
//  197 			if (command->ID > newcmd->ID)
//  198 				break ;
//  199 		}
//  200 		newcmd->node.next = *node; 
//  201 		*node = &newcmd->node;
//  202 	#endif 
//  203 	return 0;
//  204 }
//  205 
//  206 
//  207 /** 
//  208   * @brief  检出命令起始字符串为 str 的所有命令 
//  209   * @param  str      : 起始字符串
//  210   * @param  len      : 起始字符串长度
//  211   * @param  checkout : 检出内存
//  212   * @param  checkmax : 最大检出数，如果超出此数则返回 0 
//  213   * @return 返回检出命令的条目数
//  214 */

        RSEG NEAR_CODE:CODE:NOROOT(0)
//  215 static int32_t checkout(char * str,int32_t len,struct shellcommand ** checkout , int32_t checkmax)
checkout:
          CFI Block cfiBlock0 Using cfiCommon0
          CFI Function checkout
        CODE
//  216 {
        FUNCALL checkout, memcmp
        LOCFRAME ISTACK, 0, STACK
        LOCFRAME PSTACK, 0, STACK
        LOCFRAME XSTACK, 29, STACK
        LOCFRAME IOVERLAY, 0, STATIC
        LOCFRAME DOVERLAY, 0, STATIC
        ARGFRAME ISTACK, 0, STACK
        ARGFRAME PSTACK, 0, STACK
        ARGFRAME XSTACK, 29, STACK
        ARGFRAME IOVERLAY, 0, STATIC
        ARGFRAME DOVERLAY, 0, STATIC
        REQUIRE ?V0
        REQUIRE ?V1
        REQUIRE ?V2
        REQUIRE ?V3
        REQUIRE ?V4
        REQUIRE ?V5
        REQUIRE ?V6
        REQUIRE ?V7
        MOV     A,#-0xf
        LCALL   ?FUNC_ENTER_XDATA
          CFI DPH0 load(1, XDATA, add(CFA_XSP16, literal(-1)))
          CFI DPL0 load(1, XDATA, add(CFA_XSP16, literal(-2)))
          CFI ?RET_HIGH load(1, XDATA, add(CFA_XSP16, literal(-3)))
          CFI ?RET_LOW load(1, XDATA, add(CFA_XSP16, literal(-4)))
          CFI R7 load(1, XDATA, add(CFA_XSP16, literal(-5)))
          CFI V7 load(1, XDATA, add(CFA_XSP16, literal(-6)))
          CFI V6 load(1, XDATA, add(CFA_XSP16, literal(-7)))
          CFI V5 load(1, XDATA, add(CFA_XSP16, literal(-8)))
          CFI V4 load(1, XDATA, add(CFA_XSP16, literal(-9)))
          CFI V3 load(1, XDATA, add(CFA_XSP16, literal(-10)))
          CFI V2 load(1, XDATA, add(CFA_XSP16, literal(-11)))
          CFI V1 load(1, XDATA, add(CFA_XSP16, literal(-12)))
          CFI V0 load(1, XDATA, add(CFA_XSP16, literal(-13)))
          CFI VB load(1, XDATA, add(CFA_XSP16, literal(-14)))
          CFI R6 load(1, XDATA, add(CFA_XSP16, literal(-15)))
          CFI CFA_SP SP+0
          CFI CFA_XSP16 add(XSP16, 15)
        ; Saved register size: 15
        ; Auto size: 12
        MOV     A,#-0xc
        LCALL   ?ALLOC_XSTACK8
          CFI CFA_XSP16 add(XSP16, 27)
        LCALL   ?Subroutine12
??CrossCallReturnLabel_91:
        MOV     A,#0x6
        LCALL   ?XSTACK_DISP0_8
        MOV     A,R4
        MOVX    @DPTR,A
        INC     DPTR
        MOV     A,R5
        MOVX    @DPTR,A
//  217 	uint32_t index , end;
//  218 	int32_t      matchnums = 0;
        MOV     A,#0x2
        LCALL   ?XSTACK_DISP0_8
        LCALL   ?Subroutine10
//  219 	struct shellcommand * shellcmd = NULL;
//  220 	cmd_entry_t  * node = ROOT(&shellcmdroot);
??CrossCallReturnLabel_11:
        MOV     DPTR,#shellcmdroot
        LCALL   ??Subroutine54_0
//  221 
//  222 	/* 首字母相同并且长度不小于 len 的点作为起始点，下一个字母开头的点作为结束点 */
//  223 	index = ((uint32_t)(*str)<<26) | (len << 21) ;
??CrossCallReturnLabel_100:
        LCALL   ?Subroutine15
??CrossCallReturnLabel_87:
        MOV     ?V4,R2
        CLR     A
        MOV     ?V5,A
        MOV     ?V6,A
        MOV     ?V7,A
        MOV     A,#0x1a
        MOV     R0,#?V4
        LCALL   ?L_SHL
        MOV     A,#0x1b
        LCALL   ?XSTACK_DISP0_8
        MOV     R0,#?V0
        LCALL   ?L_MOV_X
        MOV     A,#0x15
        MOV     R0,#?V0
        LCALL   ?L_SHL
        MOV     R0,#?V4
        MOV     R1,#?V0
        LCALL   ?L_IOR
//  224 	end = (uint32_t)(*str + 1)<<26 ; 
        MOV     A,R2
        ADD     A,#0x1
        MOV     ?V0,A
        CLR     A
        ADDC    A,#0x0
        MOV     ?V1,A
        SUBB    A,0xE0 /* A   */
        MOV     ?V2,A
        MOV     ?V3,A
        MOV     A,#0x1a
        MOV     R0,#?V0
        LCALL   ?L_SHL
        MOV     A,#0x8
        LCALL   ?XSTACK_DISP0_8
        MOV     R0,#?V0
        LCALL   ?L_MOV_TO_X
        SJMP    ??CrossCallReturnLabel_103
//  225 
//  226 	/* 先找到起始匹配点 */
//  227 	#if USE_AVL_TREE 
//  228 		/* index 不存在，查找结束后的 shell_cmd 最靠近 index 用此作为起始匹配点 */
//  229 		while ( node ){
//  230 			shellcmd = container_of(node,struct shellcommand, node);	
//  231 			node = (index < shellcmd->ID) ? node->avl_left : node->avl_right;
//  232 		}
//  233 
//  234 		if (shellcmd)
//  235 		   node = &shellcmd->node ;
//  236 	#else 
//  237 		/* 查找到首字母相同的点作为起始点 */
//  238 		for ( ; node ; node = NEXT(node)) { 
??checkout_0:
        LCALL   ?Subroutine24
??CrossCallReturnLabel_103:
        MOV     A,R6
        ORL     A,R7
        JNZ     $+5
        LJMP    ??checkout_1
//  239 			shellcmd = container_of(node, struct shellcommand, node);
//  240 			if (shellcmd->ID > index)
        MOV     DPL,R6
        MOV     DPH,R7
        INC     DPTR
        INC     DPTR
        INC     DPTR
        INC     DPTR
        INC     DPTR
        INC     DPTR
        MOV     R0,#?V4
        LCALL   ?UL_GE_X
        JC      ??checkout_0
        MOV     A,#0x1f
        LCALL   ?XSTACK_DISP0_8
        MOV     R0,#?V0
        LCALL   ?L_MOV_X
//  241 				break;
//  242 		}
//  243 	#endif
//  244 
//  245 	for( ; node ; node = NEXT(node) ) {
//  246 		/* 对比输入的字符串，如果前 len 个字符与 str 相同,把命令块记下来 */
//  247 		shellcmd = container_of(node,struct shellcommand, node);
//  248 		if (shellcmd->ID > end) {
??checkout_2:
        MOV     DPL,R6
        MOV     DPH,R7
        INC     DPTR
        INC     DPTR
        INC     DPTR
        INC     DPTR
        INC     DPTR
        INC     DPTR
        MOV     R0,#?V4
        LCALL   ?L_MOV_X
        MOV     A,#0x8
        LCALL   ?XSTACK_DISP0_8
        MOV     R0,#?V4
        LCALL   ?UL_GT_X
        JNC     $+5
        LJMP    ??checkout_1
//  249 			break ;
//  250 		}
//  251 
//  252 		if (0 == memcmp(shellcmd->name, str, len)){ 
        ; Setup parameters for call to function memcmp
        MOV     A,#0x1b
        LCALL   ?XSTACK_DISP0_8
        MOV     R0,#?V4
        LCALL   ?L_MOV_X
        MOV     R0,#?V4
        LCALL   ?PUSH_XSTACK_I_TWO
          CFI CFA_XSP16 add(XSP16, 29)
        MOV     A,#0x2
        LCALL   ?XSTACK_DISP0_8
        LCALL   ?Subroutine26
??CrossCallReturnLabel_41:
        MOV     DPL,R6
        MOV     DPH,R7
        INC     DPTR
        INC     DPTR
        LCALL   ??Subroutine55_0
??CrossCallReturnLabel_105:
        LCALL   memcmp
        MOV     A,#0x2
        LCALL   ?DEALLOC_XSTACK8
          CFI CFA_XSP16 add(XSP16, 27)
        MOV     ?V5,R3
        MOV     A,R2
        ORL     A,?V5
        JNZ     ??checkout_3
//  253 			checkout[matchnums] = shellcmd;
        MOV     A,#0x2
        LCALL   ?XSTACK_DISP0_8
        MOV     R0,#?V4
        LCALL   ?L_MOV_X
        MOV     A,?V4
        ADD     A,0xE0 /* A   */
        MOV     ?V4,A
        MOV     A,?V5
        RLC     A
        MOV     ?V5,A
        MOV     A,#0x6
        LCALL   ?XSTACK_DISP0_8
        LCALL   ?Subroutine45
??CrossCallReturnLabel_79:
        MOV     A,R6
        MOVX    @DPTR,A
        INC     DPTR
        MOV     A,R7
        MOVX    @DPTR,A
//  254 			if (++matchnums > checkmax) {
        MOV     DPTR,#__Constant_1
        MOV     R0,#?V4
        LCALL   ?L_MOV_X
        MOV     A,#0x2
        LCALL   ?XSTACK_DISP0_8
        MOV     R0,#?V4
        LCALL   ?L_ADD_TO_X
        MOV     A,#0x2
        LCALL   ?XSTACK_DISP0_8
        MOV     R0,#?V0
        LCALL   ?SL_GE_X
        JC      ??checkout_3
//  255 				return 0;    
        MOV     R2,#0x0
        MOV     R3,#0x0
        MOV     R4,#0x0
        MOV     R5,#0x0
        SJMP    ??checkout_4
//  256 			}
//  257 		}
//  258 	}
??checkout_3:
        LCALL   ?Subroutine24
??CrossCallReturnLabel_104:
        MOV     A,R6
        ORL     A,R7
        JZ      $+5
        LJMP    ??checkout_2
//  259 
//  260 	return matchnums;
??checkout_1:
        MOV     A,#0x2
        LCALL   ?XSTACK_DISP0_8
        LCALL   ?XLOAD_R2345
??checkout_4:
        MOV     A,#0xc
        LJMP    ??Subroutine53_0
          CFI EndBlock cfiBlock0
//  261 }

        RSEG NEAR_CODE:CODE:NOROOT(0)
?Subroutine15:
          CFI Block cfiCond1 Using cfiCommon0
          CFI Function checkout
          CFI Conditional ??CrossCallReturnLabel_87
          CFI R6 load(1, XDATA, add(CFA_XSP16, literal(-15)))
          CFI VB load(1, XDATA, add(CFA_XSP16, literal(-14)))
          CFI V0 load(1, XDATA, add(CFA_XSP16, literal(-13)))
          CFI V1 load(1, XDATA, add(CFA_XSP16, literal(-12)))
          CFI V2 load(1, XDATA, add(CFA_XSP16, literal(-11)))
          CFI V3 load(1, XDATA, add(CFA_XSP16, literal(-10)))
          CFI V4 load(1, XDATA, add(CFA_XSP16, literal(-9)))
          CFI V5 load(1, XDATA, add(CFA_XSP16, literal(-8)))
          CFI V6 load(1, XDATA, add(CFA_XSP16, literal(-7)))
          CFI V7 load(1, XDATA, add(CFA_XSP16, literal(-6)))
          CFI R7 load(1, XDATA, add(CFA_XSP16, literal(-5)))
          CFI ?RET_LOW load(1, XDATA, add(CFA_XSP16, literal(-4)))
          CFI ?RET_HIGH load(1, XDATA, add(CFA_XSP16, literal(-3)))
          CFI DPL0 load(1, XDATA, add(CFA_XSP16, literal(-2)))
          CFI DPH0 load(1, XDATA, add(CFA_XSP16, literal(-1)))
          CFI CFA_XSP16 add(XSP16, 27)
          CFI Block cfiCond2 Using cfiCommon0
          CFI (cfiCond2) Function shell_parse
          CFI (cfiCond2) Conditional ??CrossCallReturnLabel_88
          CFI (cfiCond2) R6 load(1, XDATA, add(CFA_XSP16, literal(-15)))
          CFI (cfiCond2) VB load(1, XDATA, add(CFA_XSP16, literal(-14)))
          CFI (cfiCond2) V0 load(1, XDATA, add(CFA_XSP16, literal(-13)))
          CFI (cfiCond2) V1 load(1, XDATA, add(CFA_XSP16, literal(-12)))
          CFI (cfiCond2) V2 load(1, XDATA, add(CFA_XSP16, literal(-11)))
          CFI (cfiCond2) V3 load(1, XDATA, add(CFA_XSP16, literal(-10)))
          CFI (cfiCond2) V4 load(1, XDATA, add(CFA_XSP16, literal(-9)))
          CFI (cfiCond2) V5 load(1, XDATA, add(CFA_XSP16, literal(-8)))
          CFI (cfiCond2) V6 load(1, XDATA, add(CFA_XSP16, literal(-7)))
          CFI (cfiCond2) V7 load(1, XDATA, add(CFA_XSP16, literal(-6)))
          CFI (cfiCond2) R7 load(1, XDATA, add(CFA_XSP16, literal(-5)))
          CFI (cfiCond2) ?RET_LOW load(1, XDATA, add(CFA_XSP16, literal(-4)))
          CFI (cfiCond2) ?RET_HIGH load(1, XDATA, add(CFA_XSP16, literal(-3)))
          CFI (cfiCond2) DPL0 load(1, XDATA, add(CFA_XSP16, literal(-2)))
          CFI (cfiCond2) DPH0 load(1, XDATA, add(CFA_XSP16, literal(-1)))
          CFI (cfiCond2) CFA_XSP16 add(XSP16, 43)
          CFI Block cfiPicker3 Using cfiCommon1
          CFI (cfiPicker3) NoFunction
          CFI (cfiPicker3) Picker
        MOV     DPL,?XSP + 0
        MOV     DPH,?XSP + 1
          CFI EndBlock cfiCond1
          CFI EndBlock cfiCond2
          CFI EndBlock cfiPicker3
        REQUIRE ??Subroutine50_0
        ; // Fall through to label ??Subroutine50_0

        RSEG NEAR_CODE:CODE:NOROOT(0)
??Subroutine50_0:
          CFI Block cfiCond4 Using cfiCommon0
          CFI Function shell_tab
          CFI Conditional ??CrossCallReturnLabel_85
          CFI R6 load(1, XDATA, add(CFA_XSP16, literal(-15)))
          CFI VB load(1, XDATA, add(CFA_XSP16, literal(-14)))
          CFI V0 load(1, XDATA, add(CFA_XSP16, literal(-13)))
          CFI V1 load(1, XDATA, add(CFA_XSP16, literal(-12)))
          CFI V2 load(1, XDATA, add(CFA_XSP16, literal(-11)))
          CFI V3 load(1, XDATA, add(CFA_XSP16, literal(-10)))
          CFI V4 load(1, XDATA, add(CFA_XSP16, literal(-9)))
          CFI V5 load(1, XDATA, add(CFA_XSP16, literal(-8)))
          CFI V6 load(1, XDATA, add(CFA_XSP16, literal(-7)))
          CFI V7 load(1, XDATA, add(CFA_XSP16, literal(-6)))
          CFI R7 load(1, XDATA, add(CFA_XSP16, literal(-5)))
          CFI ?RET_LOW load(1, XDATA, add(CFA_XSP16, literal(-4)))
          CFI ?RET_HIGH load(1, XDATA, add(CFA_XSP16, literal(-3)))
          CFI DPL0 load(1, XDATA, add(CFA_XSP16, literal(-2)))
          CFI DPH0 load(1, XDATA, add(CFA_XSP16, literal(-1)))
          CFI CFA_XSP16 add(XSP16, 45)
          CFI Block cfiCond5 Using cfiCommon0
          CFI (cfiCond5) Function _shell_register
          CFI (cfiCond5) Conditional ??CrossCallReturnLabel_86
          CFI (cfiCond5) R6 load(1, XDATA, add(CFA_XSP16, literal(-15)))
          CFI (cfiCond5) VB load(1, XDATA, add(CFA_XSP16, literal(-14)))
          CFI (cfiCond5) V0 load(1, XDATA, add(CFA_XSP16, literal(-13)))
          CFI (cfiCond5) V1 load(1, XDATA, add(CFA_XSP16, literal(-12)))
          CFI (cfiCond5) V2 load(1, XDATA, add(CFA_XSP16, literal(-11)))
          CFI (cfiCond5) V3 load(1, XDATA, add(CFA_XSP16, literal(-10)))
          CFI (cfiCond5) V4 load(1, XDATA, add(CFA_XSP16, literal(-9)))
          CFI (cfiCond5) V5 load(1, XDATA, add(CFA_XSP16, literal(-8)))
          CFI (cfiCond5) V6 load(1, XDATA, add(CFA_XSP16, literal(-7)))
          CFI (cfiCond5) V7 load(1, XDATA, add(CFA_XSP16, literal(-6)))
          CFI (cfiCond5) R7 load(1, XDATA, add(CFA_XSP16, literal(-5)))
          CFI (cfiCond5) ?RET_LOW load(1, XDATA, add(CFA_XSP16, literal(-4)))
          CFI (cfiCond5) ?RET_HIGH load(1, XDATA, add(CFA_XSP16, literal(-3)))
          CFI (cfiCond5) DPL0 load(1, XDATA, add(CFA_XSP16, literal(-2)))
          CFI (cfiCond5) DPH0 load(1, XDATA, add(CFA_XSP16, literal(-1)))
          CFI (cfiCond5) CFA_XSP16 add(XSP16, 37)
          CFI Block cfiCond6 Using cfiCommon0
          CFI (cfiCond6) Function checkout
          CFI (cfiCond6) Conditional ??CrossCallReturnLabel_87
          CFI (cfiCond6) R6 load(1, XDATA, add(CFA_XSP16, literal(-15)))
          CFI (cfiCond6) VB load(1, XDATA, add(CFA_XSP16, literal(-14)))
          CFI (cfiCond6) V0 load(1, XDATA, add(CFA_XSP16, literal(-13)))
          CFI (cfiCond6) V1 load(1, XDATA, add(CFA_XSP16, literal(-12)))
          CFI (cfiCond6) V2 load(1, XDATA, add(CFA_XSP16, literal(-11)))
          CFI (cfiCond6) V3 load(1, XDATA, add(CFA_XSP16, literal(-10)))
          CFI (cfiCond6) V4 load(1, XDATA, add(CFA_XSP16, literal(-9)))
          CFI (cfiCond6) V5 load(1, XDATA, add(CFA_XSP16, literal(-8)))
          CFI (cfiCond6) V6 load(1, XDATA, add(CFA_XSP16, literal(-7)))
          CFI (cfiCond6) V7 load(1, XDATA, add(CFA_XSP16, literal(-6)))
          CFI (cfiCond6) R7 load(1, XDATA, add(CFA_XSP16, literal(-5)))
          CFI (cfiCond6) ?RET_LOW load(1, XDATA, add(CFA_XSP16, literal(-4)))
          CFI (cfiCond6) ?RET_HIGH load(1, XDATA, add(CFA_XSP16, literal(-3)))
          CFI (cfiCond6) DPL0 load(1, XDATA, add(CFA_XSP16, literal(-2)))
          CFI (cfiCond6) DPH0 load(1, XDATA, add(CFA_XSP16, literal(-1)))
          CFI (cfiCond6) CFA_XSP16 add(XSP16, 27)
          CFI Block cfiCond7 Using cfiCommon0
          CFI (cfiCond7) Function shell_parse
          CFI (cfiCond7) Conditional ??CrossCallReturnLabel_88
          CFI (cfiCond7) R6 load(1, XDATA, add(CFA_XSP16, literal(-15)))
          CFI (cfiCond7) VB load(1, XDATA, add(CFA_XSP16, literal(-14)))
          CFI (cfiCond7) V0 load(1, XDATA, add(CFA_XSP16, literal(-13)))
          CFI (cfiCond7) V1 load(1, XDATA, add(CFA_XSP16, literal(-12)))
          CFI (cfiCond7) V2 load(1, XDATA, add(CFA_XSP16, literal(-11)))
          CFI (cfiCond7) V3 load(1, XDATA, add(CFA_XSP16, literal(-10)))
          CFI (cfiCond7) V4 load(1, XDATA, add(CFA_XSP16, literal(-9)))
          CFI (cfiCond7) V5 load(1, XDATA, add(CFA_XSP16, literal(-8)))
          CFI (cfiCond7) V6 load(1, XDATA, add(CFA_XSP16, literal(-7)))
          CFI (cfiCond7) V7 load(1, XDATA, add(CFA_XSP16, literal(-6)))
          CFI (cfiCond7) R7 load(1, XDATA, add(CFA_XSP16, literal(-5)))
          CFI (cfiCond7) ?RET_LOW load(1, XDATA, add(CFA_XSP16, literal(-4)))
          CFI (cfiCond7) ?RET_HIGH load(1, XDATA, add(CFA_XSP16, literal(-3)))
          CFI (cfiCond7) DPL0 load(1, XDATA, add(CFA_XSP16, literal(-2)))
          CFI (cfiCond7) DPH0 load(1, XDATA, add(CFA_XSP16, literal(-1)))
          CFI (cfiCond7) CFA_XSP16 add(XSP16, 43)
          CFI Block cfiPicker8 Using cfiCommon1
          CFI (cfiPicker8) NoFunction
          CFI (cfiPicker8) Picker
        LCALL   ?Subroutine44
??CrossCallReturnLabel_166:
        MOV     R2,A
        RET
          CFI EndBlock cfiCond4
          CFI EndBlock cfiCond5
          CFI EndBlock cfiCond6
          CFI EndBlock cfiCond7
          CFI EndBlock cfiPicker8
//  262 
//  263 
//  264 #if (COMMANDLINE_MAX_RECORD) //如果定义了历史纪录
//  265 
//  266 /**
//  267   * @author   古么宁
//  268   * @brief    记录此次运行的命令及参数
//  269   * @param    
//  270   * @return   返回记录地址
//  271 */
//  272 static char * shell_record(struct shell_input * shellin)
//  273 {	
//  274 	char *  history = &shellin->history[shellin->htywrt][0];
//  275 	
//  276 	shellin->htywrt  = (shellin->htywrt + 1) % COMMANDLINE_MAX_RECORD;
//  277 	shellin->htyread = shellin->htywrt;
//  278 
//  279 	memcpy(history,shellin->cmdline,shellin->tail);
//  280 	history[shellin->tail] = 0;
//  281 	
//  282 	return history;
//  283 }
//  284 
//  285 
//  286 /**
//  287   * @author   古么宁
//  288   * @brief    按上下箭头键显示以往输入过的命令，此处只记录最近几次的命令
//  289   * @param    void
//  290   * @return   don't care
//  291 */

        RSEG NEAR_CODE:CODE:NOROOT(0)
//  292 static void shell_show_history(struct shell_input * shellin,int32_t LastOrNext)
shell_show_history:
          CFI Block cfiBlock9 Using cfiCommon0
          CFI Function shell_show_history
        CODE
//  293 {
        FUNCALL shell_show_history, printf
        LOCFRAME ISTACK, 0, STACK
        LOCFRAME PSTACK, 0, STACK
        LOCFRAME XSTACK, 16, STACK
        LOCFRAME IOVERLAY, 0, STATIC
        LOCFRAME DOVERLAY, 0, STATIC
        ARGFRAME ISTACK, 0, STACK
        ARGFRAME PSTACK, 0, STACK
        ARGFRAME XSTACK, 16, STACK
        ARGFRAME IOVERLAY, 0, STATIC
        ARGFRAME DOVERLAY, 0, STATIC
        REQUIRE ?V0
        REQUIRE ?V1
        REQUIRE ?V2
        REQUIRE ?V3
        REQUIRE ?V4
        REQUIRE ?V5
        REQUIRE ?V6
        MOV     A,#-0xe
        LCALL   ?FUNC_ENTER_XDATA
          CFI DPH0 load(1, XDATA, add(CFA_XSP16, literal(-1)))
          CFI DPL0 load(1, XDATA, add(CFA_XSP16, literal(-2)))
          CFI ?RET_HIGH load(1, XDATA, add(CFA_XSP16, literal(-3)))
          CFI ?RET_LOW load(1, XDATA, add(CFA_XSP16, literal(-4)))
          CFI R7 load(1, XDATA, add(CFA_XSP16, literal(-5)))
          CFI V6 load(1, XDATA, add(CFA_XSP16, literal(-6)))
          CFI V5 load(1, XDATA, add(CFA_XSP16, literal(-7)))
          CFI V4 load(1, XDATA, add(CFA_XSP16, literal(-8)))
          CFI V3 load(1, XDATA, add(CFA_XSP16, literal(-9)))
          CFI V2 load(1, XDATA, add(CFA_XSP16, literal(-10)))
          CFI V1 load(1, XDATA, add(CFA_XSP16, literal(-11)))
          CFI V0 load(1, XDATA, add(CFA_XSP16, literal(-12)))
          CFI VB load(1, XDATA, add(CFA_XSP16, literal(-13)))
          CFI R6 load(1, XDATA, add(CFA_XSP16, literal(-14)))
          CFI CFA_SP SP+0
          CFI CFA_XSP16 add(XSP16, 14)
        ; Saved register size: 14
        ; Auto size: 0
        MOV     A,R2
        MOV     R6,A
        MOV     A,R3
        MOV     R7,A
//  294 	int32_t len = 0;
        MOV     ?V0,#0x0
        MOV     ?V1,#0x0
        MOV     ?V2,#0x0
        MOV     ?V3,#0x0
//  295 	
//  296 	printf("\33[2K\r%s",shellin->sign);//"\33[2K\r" 表示清除当前行
        ; Setup parameters for call to function printf
        MOV     A,R6
        ADD     A,#0x6
        MOV     ?V4,A
        CLR     A
        ADDC    A,R7
        MOV     ?V5,A
        MOV     R0,#?V4
        LCALL   ?PUSH_XSTACK_I_TWO
          CFI CFA_XSP16 add(XSP16, 16)
        MOV     R2,#`?<Constant "\\033[2K\\r%s">` & 0xff
        MOV     R3,#(`?<Constant "\\033[2K\\r%s">` >> 8) & 0xff
        LCALL   printf
        MOV     A,#0x2
        LCALL   ?DEALLOC_XSTACK8
          CFI CFA_XSP16 add(XSP16, 14)
//  297 
//  298 	if (!LastOrNext) //上箭头，上一条命令
        MOV     A,R6
        ADD     A,#0x6d
        MOV     R4,A
        CLR     A
        ADDC    A,R7
        MOV     R5,A
        MOV     DPL,R4
        MOV     DPH,R5
        MOVX    A,@DPTR
        MOV     ?V6,A
        MOV     A,R6
        ADD     A,#0x6c
        MOV     ?V4,A
        CLR     A
        ADDC    A,R7
        MOV     ?V5,A
        MOV     A,#0xe
        LCALL   ?XSTACK_DISP0_8
        LCALL   ?XLOAD_R0123
        MOV     A,R0
        ORL     A,R1
        ORL     A,R2
        ORL     A,R3
        JNZ     ??shell_show_history_0
//  299 		shellin->htyread = (!shellin->htyread) ? (COMMANDLINE_MAX_RECORD - 1) : (shellin->htyread - 1);
        MOV     A,?V6
        JNZ     ??shell_show_history_1
        MOV     R0,#0x3
        SJMP    ??shell_show_history_2
??shell_show_history_1:
        MOV     A,#-0x1
        ADD     A,?V6
        MOV     R0,A
??shell_show_history_2:
        MOV     A,R0
        SJMP    ??shell_show_history_3
//  300 	else       //下箭头
//  301 	if (shellin->htyread != shellin->htywrt)
??shell_show_history_0:
        MOV     DPL,?V4
        MOV     DPH,?V5
        MOVX    A,@DPTR
        XRL     A,?V6
        JZ      ??shell_show_history_4
//  302 		shellin->htyread = (shellin->htyread + 1) % COMMANDLINE_MAX_RECORD;
        MOV     R1,#0x0
        MOV     A,?V6
        ADD     A,#0x1
        MOV     R0,A
        JNC     ??shell_show_history_5
        INC     R1
??shell_show_history_5:
        MOV     R2,#0x4
        MOV     R3,#0x0
        LCALL   ?S_DIV_MOD
        MOV     A,R2
??shell_show_history_3:
        MOV     DPL,R4
        MOV     DPH,R5
        MOVX    @DPTR,A
//  303 
//  304 	if (shellin->htyread != shellin->htywrt){ //把历史记录考到命令行内存 
??shell_show_history_4:
        MOV     DPL,R4
        MOV     DPH,R5
        MOVX    A,@DPTR
        MOV     R0,A
        MOV     DPL,?V4
        MOV     DPH,?V5
        MOVX    A,@DPTR
        XRL     A,R0
        JZ      ??shell_show_history_6
//  305 		for (char * history = &shellin->history[shellin->htyread][0]; *history ; ++len)
        MOV     A,R0
        MOV     B,#0x32
        MUL     AB
        MOV     R0,A
        MOV     R1,B
        MOV     A,R6
        ADD     A,R0
        MOV     R0,A
        MOV     A,R7
        ADDC    A,R1
        MOV     R1,A
        MOV     A,R0
        ADD     A,#0x6e
        MOV     R2,A
        CLR     A
        ADDC    A,R1
        MOV     R3,A
        SJMP    ??shell_show_history_7
//  306 			shellin->cmdline[len] = *history++;
??shell_show_history_8:
        PUSH    A
          CFI CFA_SP SP+-1
        LCALL   ?Subroutine31
??CrossCallReturnLabel_51:
        POP     A
          CFI CFA_SP SP+0
        LCALL   ??Subroutine61_0
??CrossCallReturnLabel_135:
        MOV     DPTR,#__Constant_1
        MOV     R0,#?V0
        LCALL   ?L_ADD_X
??shell_show_history_7:
        MOV     DPL,R2
        MOV     DPH,R3
        MOVX    A,@DPTR
        JNZ     ??shell_show_history_8
//  307 	}
//  308 	
//  309 	shellin->cmdline[len] = 0; //添加结束符
??shell_show_history_6:
        LCALL   ?Subroutine31
??CrossCallReturnLabel_52:
        CLR     A
        MOVX    @DPTR,A
//  310 	shellin->tail = len ;
        MOV     A,R6
        ADD     A,#0x6b
        MOV     DPL,A
        CLR     A
        ADDC    A,R7
        MOV     DPH,A
        MOV     A,?V0
        MOVX    @DPTR,A
//  311 	shellin->edit = len ;
        MOV     A,R6
        ADD     A,#0x6a
        MOV     DPL,A
        CLR     A
        ADDC    A,R7
        MOV     DPH,A
        MOV     A,?V0
        MOVX    @DPTR,A
//  312 
//  313 	if (len)
        ORL     A,?V1
        ORL     A,?V2
        ORL     A,?V3
        JZ      ??shell_show_history_9
//  314 		printl(shellin->cmdline,len); //打印命令行内容
        LCALL   ?Subroutine20
??CrossCallReturnLabel_32:
        JZ      ??shell_show_history_9
        ; Setup parameters for indirect call
        MOV     R4,?V0
        MOV     R5,?V1
        MOV     A,R6
        ADD     A,#0x38
        MOV     R2,A
        CLR     A
        ADDC    A,R7
        MOV     R3,A
        LCALL   ??Subroutine65_0
??CrossCallReturnLabel_142:
        LCALL   ?CALL_IND
          CFI EndBlock cfiBlock9
//  315 }
??shell_show_history_9:
        REQUIRE ?Subroutine1
        ; // Fall through to label ?Subroutine1

        RSEG NEAR_CODE:CODE:NOROOT(0)
?Subroutine1:
          CFI Block cfiBlock10 Using cfiCommon0
          CFI NoFunction
          CFI CFA_SP SP+0
          CFI CFA_XSP16 add(XSP16, 14)
          CFI VB load(1, XDATA, add(CFA_XSP16, literal(-13)))
          CFI DPL0 load(1, XDATA, add(CFA_XSP16, literal(-2)))
          CFI DPH0 load(1, XDATA, add(CFA_XSP16, literal(-1)))
          CFI R6 load(1, XDATA, add(CFA_XSP16, literal(-14)))
          CFI R7 load(1, XDATA, add(CFA_XSP16, literal(-5)))
          CFI V0 load(1, XDATA, add(CFA_XSP16, literal(-12)))
          CFI V1 load(1, XDATA, add(CFA_XSP16, literal(-11)))
          CFI V2 load(1, XDATA, add(CFA_XSP16, literal(-10)))
          CFI V3 load(1, XDATA, add(CFA_XSP16, literal(-9)))
          CFI V4 load(1, XDATA, add(CFA_XSP16, literal(-8)))
          CFI V5 load(1, XDATA, add(CFA_XSP16, literal(-7)))
          CFI V6 load(1, XDATA, add(CFA_XSP16, literal(-6)))
          CFI ?RET_HIGH load(1, XDATA, add(CFA_XSP16, literal(-3)))
          CFI ?RET_LOW load(1, XDATA, add(CFA_XSP16, literal(-4)))
        MOV     R7,#0x7
        LJMP    ?FUNC_LEAVE_XDATA
          CFI EndBlock cfiBlock10

        RSEG NEAR_CODE:CODE:NOROOT(0)
?Subroutine31:
          CFI Block cfiCond11 Using cfiCommon0
          CFI Function shell_show_history
          CFI Conditional ??CrossCallReturnLabel_51
          CFI R6 load(1, XDATA, add(CFA_XSP16, literal(-14)))
          CFI VB load(1, XDATA, add(CFA_XSP16, literal(-13)))
          CFI V0 load(1, XDATA, add(CFA_XSP16, literal(-12)))
          CFI V1 load(1, XDATA, add(CFA_XSP16, literal(-11)))
          CFI V2 load(1, XDATA, add(CFA_XSP16, literal(-10)))
          CFI V3 load(1, XDATA, add(CFA_XSP16, literal(-9)))
          CFI V4 load(1, XDATA, add(CFA_XSP16, literal(-8)))
          CFI V5 load(1, XDATA, add(CFA_XSP16, literal(-7)))
          CFI V6 load(1, XDATA, add(CFA_XSP16, literal(-6)))
          CFI R7 load(1, XDATA, add(CFA_XSP16, literal(-5)))
          CFI ?RET_LOW load(1, XDATA, add(CFA_XSP16, literal(-4)))
          CFI ?RET_HIGH load(1, XDATA, add(CFA_XSP16, literal(-3)))
          CFI DPL0 load(1, XDATA, add(CFA_XSP16, literal(-2)))
          CFI DPH0 load(1, XDATA, add(CFA_XSP16, literal(-1)))
          CFI CFA_SP SP+-3
          CFI CFA_XSP16 add(XSP16, 14)
          CFI Block cfiCond12 Using cfiCommon0
          CFI (cfiCond12) Function shell_show_history
          CFI (cfiCond12) Conditional ??CrossCallReturnLabel_52
          CFI (cfiCond12) R6 load(1, XDATA, add(CFA_XSP16, literal(-14)))
          CFI (cfiCond12) VB load(1, XDATA, add(CFA_XSP16, literal(-13)))
          CFI (cfiCond12) V0 load(1, XDATA, add(CFA_XSP16, literal(-12)))
          CFI (cfiCond12) V1 load(1, XDATA, add(CFA_XSP16, literal(-11)))
          CFI (cfiCond12) V2 load(1, XDATA, add(CFA_XSP16, literal(-10)))
          CFI (cfiCond12) V3 load(1, XDATA, add(CFA_XSP16, literal(-9)))
          CFI (cfiCond12) V4 load(1, XDATA, add(CFA_XSP16, literal(-8)))
          CFI (cfiCond12) V5 load(1, XDATA, add(CFA_XSP16, literal(-7)))
          CFI (cfiCond12) V6 load(1, XDATA, add(CFA_XSP16, literal(-6)))
          CFI (cfiCond12) R7 load(1, XDATA, add(CFA_XSP16, literal(-5)))
          CFI (cfiCond12) ?RET_LOW load(1, XDATA, add(CFA_XSP16, literal(-4)))
          CFI (cfiCond12) ?RET_HIGH load(1, XDATA, add(CFA_XSP16, literal(-3)))
          CFI (cfiCond12) DPL0 load(1, XDATA, add(CFA_XSP16, literal(-2)))
          CFI (cfiCond12) DPH0 load(1, XDATA, add(CFA_XSP16, literal(-1)))
          CFI (cfiCond12) CFA_XSP16 add(XSP16, 14)
          CFI Block cfiPicker13 Using cfiCommon1
          CFI (cfiPicker13) NoFunction
          CFI (cfiPicker13) Picker
        MOV     ?V4,?V0
        MOV     ?V5,?V1
        MOV     A,R6
        ADD     A,?V4
        MOV     R0,A
        MOV     A,R7
        ADDC    A,?V5
        LCALL   ?Subroutine48
??CrossCallReturnLabel_84:
        RET
          CFI EndBlock cfiCond11
          CFI EndBlock cfiCond12
          CFI EndBlock cfiPicker13

        RSEG NEAR_CODE:CODE:NOROOT(0)
?Subroutine48:
          CFI Block cfiCond14 Using cfiCommon0
          CFI Function shell_show_history
          CFI Conditional ??CrossCallReturnLabel_84, ??CrossCallReturnLabel_51
          CFI R6 load(1, XDATA, add(CFA_XSP16, literal(-14)))
          CFI VB load(1, XDATA, add(CFA_XSP16, literal(-13)))
          CFI V0 load(1, XDATA, add(CFA_XSP16, literal(-12)))
          CFI V1 load(1, XDATA, add(CFA_XSP16, literal(-11)))
          CFI V2 load(1, XDATA, add(CFA_XSP16, literal(-10)))
          CFI V3 load(1, XDATA, add(CFA_XSP16, literal(-9)))
          CFI V4 load(1, XDATA, add(CFA_XSP16, literal(-8)))
          CFI V5 load(1, XDATA, add(CFA_XSP16, literal(-7)))
          CFI V6 load(1, XDATA, add(CFA_XSP16, literal(-6)))
          CFI R7 load(1, XDATA, add(CFA_XSP16, literal(-5)))
          CFI ?RET_LOW load(1, XDATA, add(CFA_XSP16, literal(-4)))
          CFI ?RET_HIGH load(1, XDATA, add(CFA_XSP16, literal(-3)))
          CFI DPL0 load(1, XDATA, add(CFA_XSP16, literal(-2)))
          CFI DPH0 load(1, XDATA, add(CFA_XSP16, literal(-1)))
          CFI CFA_SP SP+-5
          CFI CFA_XSP16 add(XSP16, 14)
          CFI Block cfiCond15 Using cfiCommon0
          CFI (cfiCond15) Function shell_show_history
          CFI (cfiCond15) Conditional ??CrossCallReturnLabel_84, ??CrossCallReturnLabel_52
          CFI (cfiCond15) R6 load(1, XDATA, add(CFA_XSP16, literal(-14)))
          CFI (cfiCond15) VB load(1, XDATA, add(CFA_XSP16, literal(-13)))
          CFI (cfiCond15) V0 load(1, XDATA, add(CFA_XSP16, literal(-12)))
          CFI (cfiCond15) V1 load(1, XDATA, add(CFA_XSP16, literal(-11)))
          CFI (cfiCond15) V2 load(1, XDATA, add(CFA_XSP16, literal(-10)))
          CFI (cfiCond15) V3 load(1, XDATA, add(CFA_XSP16, literal(-9)))
          CFI (cfiCond15) V4 load(1, XDATA, add(CFA_XSP16, literal(-8)))
          CFI (cfiCond15) V5 load(1, XDATA, add(CFA_XSP16, literal(-7)))
          CFI (cfiCond15) V6 load(1, XDATA, add(CFA_XSP16, literal(-6)))
          CFI (cfiCond15) R7 load(1, XDATA, add(CFA_XSP16, literal(-5)))
          CFI (cfiCond15) ?RET_LOW load(1, XDATA, add(CFA_XSP16, literal(-4)))
          CFI (cfiCond15) ?RET_HIGH load(1, XDATA, add(CFA_XSP16, literal(-3)))
          CFI (cfiCond15) DPL0 load(1, XDATA, add(CFA_XSP16, literal(-2)))
          CFI (cfiCond15) DPH0 load(1, XDATA, add(CFA_XSP16, literal(-1)))
          CFI (cfiCond15) CFA_SP SP+-4
          CFI (cfiCond15) CFA_XSP16 add(XSP16, 14)
          CFI Block cfiCond16 Using cfiCommon0
          CFI (cfiCond16) Function shell_backspace
          CFI (cfiCond16) Conditional ??CrossCallReturnLabel_83, ??CrossCallReturnLabel_95
          CFI (cfiCond16) R6 load(1, XDATA, add(CFA_XSP16, literal(-15)))
          CFI (cfiCond16) VB load(1, XDATA, add(CFA_XSP16, literal(-14)))
          CFI (cfiCond16) V0 load(1, XDATA, add(CFA_XSP16, literal(-13)))
          CFI (cfiCond16) V1 load(1, XDATA, add(CFA_XSP16, literal(-12)))
          CFI (cfiCond16) V2 load(1, XDATA, add(CFA_XSP16, literal(-11)))
          CFI (cfiCond16) V3 load(1, XDATA, add(CFA_XSP16, literal(-10)))
          CFI (cfiCond16) V4 load(1, XDATA, add(CFA_XSP16, literal(-9)))
          CFI (cfiCond16) V5 load(1, XDATA, add(CFA_XSP16, literal(-8)))
          CFI (cfiCond16) V6 load(1, XDATA, add(CFA_XSP16, literal(-7)))
          CFI (cfiCond16) V7 load(1, XDATA, add(CFA_XSP16, literal(-6)))
          CFI (cfiCond16) R7 load(1, XDATA, add(CFA_XSP16, literal(-5)))
          CFI (cfiCond16) ?RET_LOW load(1, XDATA, add(CFA_XSP16, literal(-4)))
          CFI (cfiCond16) ?RET_HIGH load(1, XDATA, add(CFA_XSP16, literal(-3)))
          CFI (cfiCond16) DPL0 load(1, XDATA, add(CFA_XSP16, literal(-2)))
          CFI (cfiCond16) DPH0 load(1, XDATA, add(CFA_XSP16, literal(-1)))
          CFI (cfiCond16) CFA_SP SP+-4
          CFI (cfiCond16) CFA_XSP16 add(XSP16, 117)
          CFI Block cfiCond17 Using cfiCommon0
          CFI (cfiCond17) Function shell_getchar
          CFI (cfiCond17) Conditional ??CrossCallReturnLabel_83, ??CrossCallReturnLabel_96
          CFI (cfiCond17) R6 load(1, XDATA, add(CFA_XSP16, literal(-14)))
          CFI (cfiCond17) VB load(1, XDATA, add(CFA_XSP16, literal(-13)))
          CFI (cfiCond17) V0 load(1, XDATA, add(CFA_XSP16, literal(-12)))
          CFI (cfiCond17) V1 load(1, XDATA, add(CFA_XSP16, literal(-11)))
          CFI (cfiCond17) V2 load(1, XDATA, add(CFA_XSP16, literal(-10)))
          CFI (cfiCond17) V3 load(1, XDATA, add(CFA_XSP16, literal(-9)))
          CFI (cfiCond17) V4 load(1, XDATA, add(CFA_XSP16, literal(-8)))
          CFI (cfiCond17) V5 load(1, XDATA, add(CFA_XSP16, literal(-7)))
          CFI (cfiCond17) V6 load(1, XDATA, add(CFA_XSP16, literal(-6)))
          CFI (cfiCond17) R7 load(1, XDATA, add(CFA_XSP16, literal(-5)))
          CFI (cfiCond17) ?RET_LOW load(1, XDATA, add(CFA_XSP16, literal(-4)))
          CFI (cfiCond17) ?RET_HIGH load(1, XDATA, add(CFA_XSP16, literal(-3)))
          CFI (cfiCond17) DPL0 load(1, XDATA, add(CFA_XSP16, literal(-2)))
          CFI (cfiCond17) DPH0 load(1, XDATA, add(CFA_XSP16, literal(-1)))
          CFI (cfiCond17) CFA_SP SP+-4
          CFI (cfiCond17) CFA_XSP16 add(XSP16, 117)
          CFI Block cfiPicker18 Using cfiCommon1
          CFI (cfiPicker18) NoFunction
          CFI (cfiPicker18) Picker
        MOV     R1,A
        MOV     A,R0
        ADD     A,#0x38
        MOV     DPL,A
        CLR     A
        ADDC    A,R1
        MOV     DPH,A
        RET
          CFI EndBlock cfiCond14
          CFI EndBlock cfiCond15
          CFI EndBlock cfiCond16
          CFI EndBlock cfiCond17
          CFI EndBlock cfiPicker18
//  316 
//  317 #endif //#if (COMMANDLINE_MAX_RECORD) //如果定义了历史纪录
//  318 
//  319 
//  320 
//  321 /** 
//  322   * @brief    输入 table 键处理
//  323   * @param    input
//  324   * @return   don't care
//  325 */

        RSEG NEAR_CODE:CODE:NOROOT(0)
//  326 static void shell_tab(struct shell_input * shellin)
shell_tab:
          CFI Block cfiBlock19 Using cfiCommon0
          CFI Function shell_tab
        CODE
//  327 {
        FUNCALL shell_tab, checkout
        LOCFRAME ISTACK, 0, STACK
        LOCFRAME PSTACK, 0, STACK
        LOCFRAME XSTACK, 53, STACK
        LOCFRAME IOVERLAY, 0, STATIC
        LOCFRAME DOVERLAY, 0, STATIC
        ARGFRAME ISTACK, 0, STACK
        ARGFRAME PSTACK, 0, STACK
        ARGFRAME XSTACK, 53, STACK
        ARGFRAME IOVERLAY, 0, STATIC
        ARGFRAME DOVERLAY, 0, STATIC
        FUNCALL shell_tab, shell_getchar
        LOCFRAME ISTACK, 0, STACK
        LOCFRAME PSTACK, 0, STACK
        LOCFRAME XSTACK, 45, STACK
        LOCFRAME IOVERLAY, 0, STATIC
        LOCFRAME DOVERLAY, 0, STATIC
        ARGFRAME ISTACK, 0, STACK
        ARGFRAME PSTACK, 0, STACK
        ARGFRAME XSTACK, 45, STACK
        ARGFRAME IOVERLAY, 0, STATIC
        ARGFRAME DOVERLAY, 0, STATIC
        FUNCALL shell_tab, shell_getchar
        LOCFRAME ISTACK, 0, STACK
        LOCFRAME PSTACK, 0, STACK
        LOCFRAME XSTACK, 45, STACK
        LOCFRAME IOVERLAY, 0, STATIC
        LOCFRAME DOVERLAY, 0, STATIC
        ARGFRAME ISTACK, 0, STACK
        ARGFRAME PSTACK, 0, STACK
        ARGFRAME XSTACK, 45, STACK
        ARGFRAME IOVERLAY, 0, STATIC
        ARGFRAME DOVERLAY, 0, STATIC
        FUNCALL shell_tab, printf
        LOCFRAME ISTACK, 0, STACK
        LOCFRAME PSTACK, 0, STACK
        LOCFRAME XSTACK, 47, STACK
        LOCFRAME IOVERLAY, 0, STATIC
        LOCFRAME DOVERLAY, 0, STATIC
        ARGFRAME ISTACK, 0, STACK
        ARGFRAME PSTACK, 0, STACK
        ARGFRAME XSTACK, 47, STACK
        ARGFRAME IOVERLAY, 0, STATIC
        ARGFRAME DOVERLAY, 0, STATIC
        FUNCALL shell_tab, printf
        LOCFRAME ISTACK, 0, STACK
        LOCFRAME PSTACK, 0, STACK
        LOCFRAME XSTACK, 49, STACK
        LOCFRAME IOVERLAY, 0, STATIC
        LOCFRAME DOVERLAY, 0, STATIC
        ARGFRAME ISTACK, 0, STACK
        ARGFRAME PSTACK, 0, STACK
        ARGFRAME XSTACK, 49, STACK
        ARGFRAME IOVERLAY, 0, STATIC
        ARGFRAME DOVERLAY, 0, STATIC
        FUNCALL shell_tab, shell_getchar
        LOCFRAME ISTACK, 0, STACK
        LOCFRAME PSTACK, 0, STACK
        LOCFRAME XSTACK, 45, STACK
        LOCFRAME IOVERLAY, 0, STATIC
        LOCFRAME DOVERLAY, 0, STATIC
        ARGFRAME ISTACK, 0, STACK
        ARGFRAME PSTACK, 0, STACK
        ARGFRAME XSTACK, 45, STACK
        ARGFRAME IOVERLAY, 0, STATIC
        ARGFRAME DOVERLAY, 0, STATIC
        REQUIRE ?V0
        REQUIRE ?V1
        REQUIRE ?V2
        REQUIRE ?V3
        REQUIRE ?V4
        REQUIRE ?V5
        REQUIRE ?V6
        REQUIRE ?V7
        MOV     A,#-0xf
        LCALL   ?FUNC_ENTER_XDATA
          CFI DPH0 load(1, XDATA, add(CFA_XSP16, literal(-1)))
          CFI DPL0 load(1, XDATA, add(CFA_XSP16, literal(-2)))
          CFI ?RET_HIGH load(1, XDATA, add(CFA_XSP16, literal(-3)))
          CFI ?RET_LOW load(1, XDATA, add(CFA_XSP16, literal(-4)))
          CFI R7 load(1, XDATA, add(CFA_XSP16, literal(-5)))
          CFI V7 load(1, XDATA, add(CFA_XSP16, literal(-6)))
          CFI V6 load(1, XDATA, add(CFA_XSP16, literal(-7)))
          CFI V5 load(1, XDATA, add(CFA_XSP16, literal(-8)))
          CFI V4 load(1, XDATA, add(CFA_XSP16, literal(-9)))
          CFI V3 load(1, XDATA, add(CFA_XSP16, literal(-10)))
          CFI V2 load(1, XDATA, add(CFA_XSP16, literal(-11)))
          CFI V1 load(1, XDATA, add(CFA_XSP16, literal(-12)))
          CFI V0 load(1, XDATA, add(CFA_XSP16, literal(-13)))
          CFI VB load(1, XDATA, add(CFA_XSP16, literal(-14)))
          CFI R6 load(1, XDATA, add(CFA_XSP16, literal(-15)))
          CFI CFA_SP SP+0
          CFI CFA_XSP16 add(XSP16, 15)
        ; Saved register size: 15
        ; Auto size: 30
        MOV     A,#-0x1e
        LCALL   ?ALLOC_XSTACK8
          CFI CFA_XSP16 add(XSP16, 45)
        LCALL   ?Subroutine12
//  328 	struct shellcommand * match[10];  
//  329 	char  *  str = shellin->cmdline;
??CrossCallReturnLabel_92:
        MOV     DPL,?XSP + 0
        MOV     DPH,?XSP + 1
        LCALL   ?Subroutine29
??CrossCallReturnLabel_47:
        MOV     A,#0x8
        LCALL   ?XSTACK_DISP0_8
        LCALL   ??Subroutine57_0
??CrossCallReturnLabel_119:
        MOV     A,#0x8
        LCALL   ?XSTACK_DISP0_8
        LCALL   ??Subroutine55_0
//  330 	int32_t  len = shellin->tail;
??CrossCallReturnLabel_106:
        MOV     DPL,?XSP + 0
        MOV     DPH,?XSP + 1
        MOVX    A,@DPTR
        ADD     A,#0x6b
        MOV     R0,A
        INC     DPTR
        MOVX    A,@DPTR
        ADDC    A,#0x0
        MOV     R1,A
        MOV     A,#0x6
        LCALL   ?XSTACK_DISP0_8
        LCALL   ??Subroutine57_0
??CrossCallReturnLabel_120:
        MOV     A,#0x6
        LCALL   ?XSTACK_DISP0_8
        LCALL   ?Subroutine19
??CrossCallReturnLabel_29:
        MOV     A,#0x2
        LCALL   ?XSTACK_DISP0_8
        LCALL   ?Subroutine4
//  331 	int32_t matchnums = 0 ; 
??CrossCallReturnLabel_0:
        SJMP    ??shell_tab_0
//  332 	
//  333 	/* Shave off any leading spaces */
//  334 	for ( ; *str == ' ' ; ++str) {
//  335 		--len; 
??shell_tab_1:
        MOV     DPTR,#__Constant_ffffffff
        MOV     R0,#?V0
        LCALL   ?L_MOV_X
        MOV     A,#0x2
        LCALL   ?XSTACK_DISP0_8
        MOV     R0,#?V0
        LCALL   ?L_ADD_TO_X
//  336 	}
        MOV     DPL,R2
        MOV     DPH,R3
        INC     DPTR
        MOV     R2,DPL
        MOV     R3,DPH
??shell_tab_0:
        MOV     DPL,R2
        MOV     DPH,R3
        MOVX    A,@DPTR
        MOV     R0,A
        MOV     A,#0x20
        XRL     A,R0
        JZ      ??shell_tab_1
//  337 
//  338 	if (*str == 0 || len == 0 ){
        MOV     A,R0
        JZ      ??shell_tab_2
        MOV     A,#0x2
        LCALL   ?XSTACK_DISP0_8
        LCALL   ?XLOAD_R4567
        MOV     A,R4
        ORL     A,R5
        ORL     A,R6
        ORL     A,R7
        JNZ     ??shell_tab_3
//  339 		return ;
??shell_tab_2:
        LJMP    ??shell_tab_4
//  340 	}
//  341 
//  342 	/* 如果没有命令包含输入的字符串，返回 */
//  343 	matchnums = checkout(str,len,match,10);
??shell_tab_3:
        ; Setup parameters for call to function checkout
        MOV     DPTR,#__Constant_a
        LCALL   ?PUSH_XSTACK8_X_FOUR
          CFI CFA_XSP16 add(XSP16, 49)
        MOV     A,#0x6
        LCALL   ?XSTACK_DISP0_8
        LCALL   ?PUSH_XSTACK8_X_FOUR
          CFI CFA_XSP16 add(XSP16, 53)
        MOV     A,#0x12
        LCALL   ?XSTACK_DISP102_8
        LCALL   checkout
        MOV     A,#0x8
        LCALL   ?DEALLOC_XSTACK8
          CFI CFA_XSP16 add(XSP16, 45)
        MOV     ?V0,R2
        MOV     ?V1,R3
        MOV     ?V2,R4
        MOV     ?V3,R5
//  344 	if (!matchnums){ 
        MOV     A,R2
        ORL     A,?V1
        ORL     A,?V2
        ORL     A,?V3
        JNZ     $+5
        LJMP    ??shell_tab_4
//  345 		return ; 
//  346 	}
//  347 
//  348 	/* 如果编辑位置不是末端，先把光标移到末端 */
//  349 	if (shellin->edit != shellin->tail) { 
        MOV     A,#0x6
        LCALL   ?XSTACK_DISP0_8
        LCALL   ??Subroutine50_0
??CrossCallReturnLabel_85:
        MOV     DPL,?XSP + 0
        MOV     DPH,?XSP + 1
        MOVX    A,@DPTR
        ADD     A,#0x6a
        MOV     R6,A
        INC     DPTR
        MOVX    A,@DPTR
        ADDC    A,#0x0
        MOV     R7,A
        MOV     DPL,R6
        MOV     DPH,R7
        MOVX    A,@DPTR
        MOV     R0,A
        MOV     A,R2
        XRL     A,R0
        JZ      ??shell_tab_5
//  350 		printl(&shellin->cmdline[shellin->edit],shellin->tail - shellin->edit);
        MOV     DPTR,#current_puts
        LCALL   ?Subroutine26
??CrossCallReturnLabel_42:
        MOV     A,R4
        ORL     A,R5
        JZ      ??shell_tab_6
        ; Setup parameters for indirect call
        MOV     A,R2
        CLR     C
        SUBB    A,R0
        MOV     R4,A
        SUBB    A,0xE0 /* A   */
        MOV     R5,A
        MOV     DPL,?XSP + 0
        MOV     DPH,?XSP + 1
        MOVX    A,@DPTR
        ADD     A,R0
        MOV     R0,A
        INC     DPTR
        MOVX    A,@DPTR
        ADDC    A,#0x0
        MOV     R1,A
        MOV     A,R0
        ADD     A,#0x38
        MOV     R2,A
        CLR     A
        ADDC    A,R1
        MOV     R3,A
        LCALL   ?Subroutine22
??CrossCallReturnLabel_154:
        LCALL   ?CALL_IND
//  351 		shellin->edit = shellin->tail;
??shell_tab_6:
        MOV     A,#0x6
        LCALL   ?XSTACK_DISP0_8
        LCALL   ??Subroutine67_0
//  352 	}
??CrossCallReturnLabel_161:
        MOV     DPL,R6
        MOV     DPH,R7
        MOVX    @DPTR,A
//  353 
//  354 	if (1 == matchnums){
??shell_tab_5:
        MOV     DPTR,#__Constant_1
        MOV     R0,#?V0
        LCALL   ?L_EQ_X
        JNZ     ??shell_tab_7
//  355 		/* 如果只找到了一条命令包含当前输入的字符串，直接补全命令并打印 */
//  356 		for(char * fmt = match[0]->name + len ; *fmt ;++fmt){
        MOV     A,#0x2
        LCALL   ?XSTACK_DISP0_8
        MOV     R0,#?V0
        LCALL   ?L_MOV_X
        MOV     A,#0xa
        LCALL   ?XSTACK_DISP0_8
        LCALL   ??Subroutine63_0
??CrossCallReturnLabel_150:
        INC     DPTR
        INC     DPTR
        MOVX    A,@DPTR
        ADD     A,?V0
        MOV     R6,A
        INC     DPTR
        MOVX    A,@DPTR
        ADDC    A,?V1
        MOV     R7,A
        SJMP    ??shell_tab_8
//  357 			shell_getchar(shellin,*fmt);
??shell_tab_9:
        ; Setup parameters for call to function shell_getchar
        LCALL   ?Subroutine17
//  358 		}
??CrossCallReturnLabel_112:
        LCALL   shell_getchar
        MOV     DPL,R6
        MOV     DPH,R7
        INC     DPTR
        MOV     R6,DPL
        MOV     R7,DPH
??shell_tab_8:
        MOV     DPL,R6
        MOV     DPH,R7
        MOVX    A,@DPTR
        MOV     R1,A
        JNZ     ??shell_tab_9
//  359 		shell_getchar(shellin,' ');
        ; Setup parameters for call to function shell_getchar
        MOV     R1,#0x20
        LCALL   ?Subroutine17
//  360 	}
??CrossCallReturnLabel_113:
        LCALL   shell_getchar
//  361 	else {  
//  362 		/* 如果不止一条命令包含当前输入的字符串，打印含有相同
//  363 		  字符的命令列表，并补全字符串输出直到命令区分点 */
//  364 		for(int i = 0;i < matchnums; ++i) {
//  365 			printf("\r\n\t%s",match[i]->name); 
//  366 		}
//  367 
//  368 		printf("\r\n%s%s",shellin->sign,shellin->cmdline); 
//  369 		for ( ; ; ) {
//  370 			/* 把 match[] 中含有相同的字符补全到输入缓冲中 */
//  371 			for (int i = 1 ; i < matchnums ; ++i ) {
//  372 				if (match[0]->name[len] != match[i]->name[len]){
//  373 					return  ;
//  374 				}
//  375 			}
//  376 			shell_getchar(shellin,match[0]->name[len++]);
//  377 		}
//  378 	}
//  379 }
        LJMP    ??shell_tab_4
??shell_tab_7:
        MOV     R6,#0x0
        MOV     R7,#0x0
        SJMP    ??shell_tab_10
??shell_tab_11:
        ; Setup parameters for call to function printf
        MOV     A,R6
        MOV     R0,A
        MOV     A,R7
        MOV     R1,A
        MOV     A,R0
        ADD     A,R0
        MOV     R0,A
        MOV     A,R1
        RLC     A
        MOV     R1,A
        MOV     A,#0xa
        LCALL   ?XSTACK_DISP0_8
        LCALL   ?Subroutine37
??CrossCallReturnLabel_64:
        LCALL   ??Subroutine63_0
??CrossCallReturnLabel_151:
        INC     DPTR
        INC     DPTR
        LCALL   ?PUSH_XSTACK8_X_TWO
          CFI CFA_XSP16 add(XSP16, 47)
        MOV     R2,#`?<Constant "\\r\\n\\t%s">` & 0xff
        MOV     R3,#(`?<Constant "\\r\\n\\t%s">` >> 8) & 0xff
        LCALL   printf
        MOV     A,#0x2
        LCALL   ?DEALLOC_XSTACK8
          CFI CFA_XSP16 add(XSP16, 45)
        INC     R6
        MOV     A,R6
        JNZ     ??shell_tab_10
        INC     R7
??shell_tab_10:
        MOV     ?V4,R6
        MOV     A,R7
        LCALL   ?Subroutine33
??CrossCallReturnLabel_55:
        LCALL   ?SL_GT
        JC      ??shell_tab_11
        ; Setup parameters for call to function printf
        MOV     A,#0x8
        LCALL   ?XSTACK_DISP0_8
        LCALL   ?PUSH_XSTACK8_X_TWO
          CFI CFA_XSP16 add(XSP16, 47)
        MOV     A,#0x2
        LCALL   ?XSTACK_DISP0_8
        MOVX    A,@DPTR
        ADD     A,#0x6
        MOV     ?V4,A
        INC     DPTR
        MOVX    A,@DPTR
        ADDC    A,#0x0
        MOV     ?V5,A
        MOV     R0,#?V4
        LCALL   ?PUSH_XSTACK_I_TWO
          CFI CFA_XSP16 add(XSP16, 49)
        MOV     R2,#`?<Constant "\\r\\n%s%s">` & 0xff
        MOV     R3,#(`?<Constant "\\r\\n%s%s">` >> 8) & 0xff
        LCALL   printf
        MOV     A,#0x4
        LCALL   ?DEALLOC_XSTACK8
          CFI CFA_XSP16 add(XSP16, 45)
        SJMP    ??shell_tab_12
??shell_tab_13:
        ; Setup parameters for call to function shell_getchar
        MOV     A,R4
        MOV     R1,A
        LCALL   ?Subroutine17
??CrossCallReturnLabel_114:
        LCALL   shell_getchar
        MOV     DPTR,#__Constant_1
        MOV     R0,#?V4
        LCALL   ?L_MOV_X
        MOV     A,#0x2
        LCALL   ?XSTACK_DISP0_8
        MOV     R0,#?V4
        LCALL   ?L_ADD_TO_X
??shell_tab_12:
        MOV     R2,#0x1
        MOV     R3,#0x0
        SJMP    ??shell_tab_14
??shell_tab_15:
        INC     R2
        MOV     A,R2
        JNZ     ??shell_tab_14
        INC     R3
??shell_tab_14:
        MOV     A,#0x2
        LCALL   ?XSTACK_DISP0_8
        MOV     R0,#?V4
        LCALL   ?L_MOV_X
        MOV     A,#0xa
        LCALL   ?XSTACK_DISP0_8
        LCALL   ?Subroutine16
??CrossCallReturnLabel_25:
        MOV     R4,A
        MOV     ?V4,R2
        MOV     A,R3
        LCALL   ?Subroutine33
??CrossCallReturnLabel_56:
        LCALL   ?SL_GT
        JNC     ??shell_tab_13
        MOV     A,#0x2
        LCALL   ?XSTACK_DISP0_8
        MOV     R0,#?V4
        LCALL   ?L_MOV_X
        MOV     A,R2
        MOV     R0,A
        MOV     A,R3
        MOV     R1,A
        MOV     A,R0
        ADD     A,R0
        MOV     R0,A
        MOV     A,R1
        RLC     A
        MOV     R1,A
        MOV     A,#0xa
        LCALL   ?XSTACK_DISP0_8
        LCALL   ?Subroutine37
??CrossCallReturnLabel_65:
        LCALL   ?Subroutine16
??CrossCallReturnLabel_26:
        XRL     A,R4
        JZ      ??shell_tab_15
??shell_tab_4:
        MOV     A,#0x1e
        LJMP    ??Subroutine53_0
          CFI EndBlock cfiBlock19

        RSEG NEAR_CODE:CODE:NOROOT(0)
?Subroutine37:
          CFI Block cfiCond20 Using cfiCommon0
          CFI Function shell_tab
          CFI Conditional ??CrossCallReturnLabel_64
          CFI R6 load(1, XDATA, add(CFA_XSP16, literal(-15)))
          CFI VB load(1, XDATA, add(CFA_XSP16, literal(-14)))
          CFI V0 load(1, XDATA, add(CFA_XSP16, literal(-13)))
          CFI V1 load(1, XDATA, add(CFA_XSP16, literal(-12)))
          CFI V2 load(1, XDATA, add(CFA_XSP16, literal(-11)))
          CFI V3 load(1, XDATA, add(CFA_XSP16, literal(-10)))
          CFI V4 load(1, XDATA, add(CFA_XSP16, literal(-9)))
          CFI V5 load(1, XDATA, add(CFA_XSP16, literal(-8)))
          CFI V6 load(1, XDATA, add(CFA_XSP16, literal(-7)))
          CFI V7 load(1, XDATA, add(CFA_XSP16, literal(-6)))
          CFI R7 load(1, XDATA, add(CFA_XSP16, literal(-5)))
          CFI ?RET_LOW load(1, XDATA, add(CFA_XSP16, literal(-4)))
          CFI ?RET_HIGH load(1, XDATA, add(CFA_XSP16, literal(-3)))
          CFI DPL0 load(1, XDATA, add(CFA_XSP16, literal(-2)))
          CFI DPH0 load(1, XDATA, add(CFA_XSP16, literal(-1)))
          CFI CFA_XSP16 add(XSP16, 45)
          CFI Block cfiCond21 Using cfiCommon0
          CFI (cfiCond21) Function shell_tab
          CFI (cfiCond21) Conditional ??CrossCallReturnLabel_65
          CFI (cfiCond21) R6 load(1, XDATA, add(CFA_XSP16, literal(-15)))
          CFI (cfiCond21) VB load(1, XDATA, add(CFA_XSP16, literal(-14)))
          CFI (cfiCond21) V0 load(1, XDATA, add(CFA_XSP16, literal(-13)))
          CFI (cfiCond21) V1 load(1, XDATA, add(CFA_XSP16, literal(-12)))
          CFI (cfiCond21) V2 load(1, XDATA, add(CFA_XSP16, literal(-11)))
          CFI (cfiCond21) V3 load(1, XDATA, add(CFA_XSP16, literal(-10)))
          CFI (cfiCond21) V4 load(1, XDATA, add(CFA_XSP16, literal(-9)))
          CFI (cfiCond21) V5 load(1, XDATA, add(CFA_XSP16, literal(-8)))
          CFI (cfiCond21) V6 load(1, XDATA, add(CFA_XSP16, literal(-7)))
          CFI (cfiCond21) V7 load(1, XDATA, add(CFA_XSP16, literal(-6)))
          CFI (cfiCond21) R7 load(1, XDATA, add(CFA_XSP16, literal(-5)))
          CFI (cfiCond21) ?RET_LOW load(1, XDATA, add(CFA_XSP16, literal(-4)))
          CFI (cfiCond21) ?RET_HIGH load(1, XDATA, add(CFA_XSP16, literal(-3)))
          CFI (cfiCond21) DPL0 load(1, XDATA, add(CFA_XSP16, literal(-2)))
          CFI (cfiCond21) DPH0 load(1, XDATA, add(CFA_XSP16, literal(-1)))
          CFI (cfiCond21) CFA_XSP16 add(XSP16, 45)
          CFI Block cfiPicker22 Using cfiCommon1
          CFI (cfiPicker22) NoFunction
          CFI (cfiPicker22) Picker
        MOV     A,DPL
        ADD     A,R0
        MOV     DPL,A
        MOV     A,DPH
        ADDC    A,R1
        MOV     DPH,A
        RET
          CFI EndBlock cfiCond20
          CFI EndBlock cfiCond21
          CFI EndBlock cfiPicker22

        RSEG NEAR_CODE:CODE:NOROOT(0)
?Subroutine33:
          CFI Block cfiCond23 Using cfiCommon0
          CFI Function shell_tab
          CFI Conditional ??CrossCallReturnLabel_55
          CFI R6 load(1, XDATA, add(CFA_XSP16, literal(-15)))
          CFI VB load(1, XDATA, add(CFA_XSP16, literal(-14)))
          CFI V0 load(1, XDATA, add(CFA_XSP16, literal(-13)))
          CFI V1 load(1, XDATA, add(CFA_XSP16, literal(-12)))
          CFI V2 load(1, XDATA, add(CFA_XSP16, literal(-11)))
          CFI V3 load(1, XDATA, add(CFA_XSP16, literal(-10)))
          CFI V4 load(1, XDATA, add(CFA_XSP16, literal(-9)))
          CFI V5 load(1, XDATA, add(CFA_XSP16, literal(-8)))
          CFI V6 load(1, XDATA, add(CFA_XSP16, literal(-7)))
          CFI V7 load(1, XDATA, add(CFA_XSP16, literal(-6)))
          CFI R7 load(1, XDATA, add(CFA_XSP16, literal(-5)))
          CFI ?RET_LOW load(1, XDATA, add(CFA_XSP16, literal(-4)))
          CFI ?RET_HIGH load(1, XDATA, add(CFA_XSP16, literal(-3)))
          CFI DPL0 load(1, XDATA, add(CFA_XSP16, literal(-2)))
          CFI DPH0 load(1, XDATA, add(CFA_XSP16, literal(-1)))
          CFI CFA_XSP16 add(XSP16, 45)
          CFI Block cfiCond24 Using cfiCommon0
          CFI (cfiCond24) Function shell_tab
          CFI (cfiCond24) Conditional ??CrossCallReturnLabel_56
          CFI (cfiCond24) R6 load(1, XDATA, add(CFA_XSP16, literal(-15)))
          CFI (cfiCond24) VB load(1, XDATA, add(CFA_XSP16, literal(-14)))
          CFI (cfiCond24) V0 load(1, XDATA, add(CFA_XSP16, literal(-13)))
          CFI (cfiCond24) V1 load(1, XDATA, add(CFA_XSP16, literal(-12)))
          CFI (cfiCond24) V2 load(1, XDATA, add(CFA_XSP16, literal(-11)))
          CFI (cfiCond24) V3 load(1, XDATA, add(CFA_XSP16, literal(-10)))
          CFI (cfiCond24) V4 load(1, XDATA, add(CFA_XSP16, literal(-9)))
          CFI (cfiCond24) V5 load(1, XDATA, add(CFA_XSP16, literal(-8)))
          CFI (cfiCond24) V6 load(1, XDATA, add(CFA_XSP16, literal(-7)))
          CFI (cfiCond24) V7 load(1, XDATA, add(CFA_XSP16, literal(-6)))
          CFI (cfiCond24) R7 load(1, XDATA, add(CFA_XSP16, literal(-5)))
          CFI (cfiCond24) ?RET_LOW load(1, XDATA, add(CFA_XSP16, literal(-4)))
          CFI (cfiCond24) ?RET_HIGH load(1, XDATA, add(CFA_XSP16, literal(-3)))
          CFI (cfiCond24) DPL0 load(1, XDATA, add(CFA_XSP16, literal(-2)))
          CFI (cfiCond24) DPH0 load(1, XDATA, add(CFA_XSP16, literal(-1)))
          CFI (cfiCond24) CFA_XSP16 add(XSP16, 45)
          CFI Block cfiPicker25 Using cfiCommon1
          CFI (cfiPicker25) NoFunction
          CFI (cfiPicker25) Picker
        MOV     ?V5,A
        RLC     A
        SUBB    A,0xE0 /* A   */
        MOV     ?V6,A
        MOV     ?V7,A
        MOV     R0,#?V0
        MOV     R1,#?V4
        RET
          CFI EndBlock cfiCond23
          CFI EndBlock cfiCond24
          CFI EndBlock cfiPicker25

        RSEG NEAR_CODE:CODE:NOROOT(0)
?Subroutine16:
          CFI Block cfiCond26 Using cfiCommon0
          CFI Function shell_tab
          CFI Conditional ??CrossCallReturnLabel_25
          CFI R6 load(1, XDATA, add(CFA_XSP16, literal(-15)))
          CFI VB load(1, XDATA, add(CFA_XSP16, literal(-14)))
          CFI V0 load(1, XDATA, add(CFA_XSP16, literal(-13)))
          CFI V1 load(1, XDATA, add(CFA_XSP16, literal(-12)))
          CFI V2 load(1, XDATA, add(CFA_XSP16, literal(-11)))
          CFI V3 load(1, XDATA, add(CFA_XSP16, literal(-10)))
          CFI V4 load(1, XDATA, add(CFA_XSP16, literal(-9)))
          CFI V5 load(1, XDATA, add(CFA_XSP16, literal(-8)))
          CFI V6 load(1, XDATA, add(CFA_XSP16, literal(-7)))
          CFI V7 load(1, XDATA, add(CFA_XSP16, literal(-6)))
          CFI R7 load(1, XDATA, add(CFA_XSP16, literal(-5)))
          CFI ?RET_LOW load(1, XDATA, add(CFA_XSP16, literal(-4)))
          CFI ?RET_HIGH load(1, XDATA, add(CFA_XSP16, literal(-3)))
          CFI DPL0 load(1, XDATA, add(CFA_XSP16, literal(-2)))
          CFI DPH0 load(1, XDATA, add(CFA_XSP16, literal(-1)))
          CFI CFA_XSP16 add(XSP16, 45)
          CFI Block cfiCond27 Using cfiCommon0
          CFI (cfiCond27) Function shell_tab
          CFI (cfiCond27) Conditional ??CrossCallReturnLabel_26
          CFI (cfiCond27) R6 load(1, XDATA, add(CFA_XSP16, literal(-15)))
          CFI (cfiCond27) VB load(1, XDATA, add(CFA_XSP16, literal(-14)))
          CFI (cfiCond27) V0 load(1, XDATA, add(CFA_XSP16, literal(-13)))
          CFI (cfiCond27) V1 load(1, XDATA, add(CFA_XSP16, literal(-12)))
          CFI (cfiCond27) V2 load(1, XDATA, add(CFA_XSP16, literal(-11)))
          CFI (cfiCond27) V3 load(1, XDATA, add(CFA_XSP16, literal(-10)))
          CFI (cfiCond27) V4 load(1, XDATA, add(CFA_XSP16, literal(-9)))
          CFI (cfiCond27) V5 load(1, XDATA, add(CFA_XSP16, literal(-8)))
          CFI (cfiCond27) V6 load(1, XDATA, add(CFA_XSP16, literal(-7)))
          CFI (cfiCond27) V7 load(1, XDATA, add(CFA_XSP16, literal(-6)))
          CFI (cfiCond27) R7 load(1, XDATA, add(CFA_XSP16, literal(-5)))
          CFI (cfiCond27) ?RET_LOW load(1, XDATA, add(CFA_XSP16, literal(-4)))
          CFI (cfiCond27) ?RET_HIGH load(1, XDATA, add(CFA_XSP16, literal(-3)))
          CFI (cfiCond27) DPL0 load(1, XDATA, add(CFA_XSP16, literal(-2)))
          CFI (cfiCond27) DPH0 load(1, XDATA, add(CFA_XSP16, literal(-1)))
          CFI (cfiCond27) CFA_XSP16 add(XSP16, 45)
          CFI Block cfiPicker28 Using cfiCommon1
          CFI (cfiPicker28) NoFunction
          CFI (cfiPicker28) Picker
        LCALL   ?Subroutine49
??CrossCallReturnLabel_168:
        INC     DPTR
        INC     DPTR
        LCALL   ?Subroutine45
??CrossCallReturnLabel_80:
        MOVX    A,@DPTR
        RET
          CFI EndBlock cfiCond26
          CFI EndBlock cfiCond27
          CFI EndBlock cfiPicker28

        RSEG NEAR_CODE:CODE:NOROOT(0)
?Subroutine45:
          CFI Block cfiCond29 Using cfiCommon0
          CFI Function checkout
          CFI Conditional ??CrossCallReturnLabel_79
          CFI R6 load(1, XDATA, add(CFA_XSP16, literal(-15)))
          CFI VB load(1, XDATA, add(CFA_XSP16, literal(-14)))
          CFI V0 load(1, XDATA, add(CFA_XSP16, literal(-13)))
          CFI V1 load(1, XDATA, add(CFA_XSP16, literal(-12)))
          CFI V2 load(1, XDATA, add(CFA_XSP16, literal(-11)))
          CFI V3 load(1, XDATA, add(CFA_XSP16, literal(-10)))
          CFI V4 load(1, XDATA, add(CFA_XSP16, literal(-9)))
          CFI V5 load(1, XDATA, add(CFA_XSP16, literal(-8)))
          CFI V6 load(1, XDATA, add(CFA_XSP16, literal(-7)))
          CFI V7 load(1, XDATA, add(CFA_XSP16, literal(-6)))
          CFI R7 load(1, XDATA, add(CFA_XSP16, literal(-5)))
          CFI ?RET_LOW load(1, XDATA, add(CFA_XSP16, literal(-4)))
          CFI ?RET_HIGH load(1, XDATA, add(CFA_XSP16, literal(-3)))
          CFI DPL0 load(1, XDATA, add(CFA_XSP16, literal(-2)))
          CFI DPH0 load(1, XDATA, add(CFA_XSP16, literal(-1)))
          CFI CFA_XSP16 add(XSP16, 27)
          CFI Block cfiCond30 Using cfiCommon0
          CFI (cfiCond30) Function shell_tab
          CFI (cfiCond30) Conditional ??CrossCallReturnLabel_80, ??CrossCallReturnLabel_25
          CFI (cfiCond30) R6 load(1, XDATA, add(CFA_XSP16, literal(-15)))
          CFI (cfiCond30) VB load(1, XDATA, add(CFA_XSP16, literal(-14)))
          CFI (cfiCond30) V0 load(1, XDATA, add(CFA_XSP16, literal(-13)))
          CFI (cfiCond30) V1 load(1, XDATA, add(CFA_XSP16, literal(-12)))
          CFI (cfiCond30) V2 load(1, XDATA, add(CFA_XSP16, literal(-11)))
          CFI (cfiCond30) V3 load(1, XDATA, add(CFA_XSP16, literal(-10)))
          CFI (cfiCond30) V4 load(1, XDATA, add(CFA_XSP16, literal(-9)))
          CFI (cfiCond30) V5 load(1, XDATA, add(CFA_XSP16, literal(-8)))
          CFI (cfiCond30) V6 load(1, XDATA, add(CFA_XSP16, literal(-7)))
          CFI (cfiCond30) V7 load(1, XDATA, add(CFA_XSP16, literal(-6)))
          CFI (cfiCond30) R7 load(1, XDATA, add(CFA_XSP16, literal(-5)))
          CFI (cfiCond30) ?RET_LOW load(1, XDATA, add(CFA_XSP16, literal(-4)))
          CFI (cfiCond30) ?RET_HIGH load(1, XDATA, add(CFA_XSP16, literal(-3)))
          CFI (cfiCond30) DPL0 load(1, XDATA, add(CFA_XSP16, literal(-2)))
          CFI (cfiCond30) DPH0 load(1, XDATA, add(CFA_XSP16, literal(-1)))
          CFI (cfiCond30) CFA_SP SP+-4
          CFI (cfiCond30) CFA_XSP16 add(XSP16, 45)
          CFI Block cfiCond31 Using cfiCommon0
          CFI (cfiCond31) Function shell_tab
          CFI (cfiCond31) Conditional ??CrossCallReturnLabel_80, ??CrossCallReturnLabel_26
          CFI (cfiCond31) R6 load(1, XDATA, add(CFA_XSP16, literal(-15)))
          CFI (cfiCond31) VB load(1, XDATA, add(CFA_XSP16, literal(-14)))
          CFI (cfiCond31) V0 load(1, XDATA, add(CFA_XSP16, literal(-13)))
          CFI (cfiCond31) V1 load(1, XDATA, add(CFA_XSP16, literal(-12)))
          CFI (cfiCond31) V2 load(1, XDATA, add(CFA_XSP16, literal(-11)))
          CFI (cfiCond31) V3 load(1, XDATA, add(CFA_XSP16, literal(-10)))
          CFI (cfiCond31) V4 load(1, XDATA, add(CFA_XSP16, literal(-9)))
          CFI (cfiCond31) V5 load(1, XDATA, add(CFA_XSP16, literal(-8)))
          CFI (cfiCond31) V6 load(1, XDATA, add(CFA_XSP16, literal(-7)))
          CFI (cfiCond31) V7 load(1, XDATA, add(CFA_XSP16, literal(-6)))
          CFI (cfiCond31) R7 load(1, XDATA, add(CFA_XSP16, literal(-5)))
          CFI (cfiCond31) ?RET_LOW load(1, XDATA, add(CFA_XSP16, literal(-4)))
          CFI (cfiCond31) ?RET_HIGH load(1, XDATA, add(CFA_XSP16, literal(-3)))
          CFI (cfiCond31) DPL0 load(1, XDATA, add(CFA_XSP16, literal(-2)))
          CFI (cfiCond31) DPH0 load(1, XDATA, add(CFA_XSP16, literal(-1)))
          CFI (cfiCond31) CFA_SP SP+-4
          CFI (cfiCond31) CFA_XSP16 add(XSP16, 45)
          CFI Block cfiPicker32 Using cfiCommon1
          CFI (cfiPicker32) NoFunction
          CFI (cfiPicker32) Picker
        MOVX    A,@DPTR
        ADD     A,?V4
        MOV     R0,A
        INC     DPTR
        MOVX    A,@DPTR
        ADDC    A,?V5
        MOV     DPL,R0
        MOV     DPH,A
        RET
          CFI EndBlock cfiCond29
          CFI EndBlock cfiCond30
          CFI EndBlock cfiCond31
          CFI EndBlock cfiPicker32

        RSEG NEAR_CODE:CODE:NOROOT(0)
?Subroutine12:
          CFI Block cfiCond33 Using cfiCommon0
          CFI Function checkout
          CFI Conditional ??CrossCallReturnLabel_91
          CFI R6 load(1, XDATA, add(CFA_XSP16, literal(-15)))
          CFI VB load(1, XDATA, add(CFA_XSP16, literal(-14)))
          CFI V0 load(1, XDATA, add(CFA_XSP16, literal(-13)))
          CFI V1 load(1, XDATA, add(CFA_XSP16, literal(-12)))
          CFI V2 load(1, XDATA, add(CFA_XSP16, literal(-11)))
          CFI V3 load(1, XDATA, add(CFA_XSP16, literal(-10)))
          CFI V4 load(1, XDATA, add(CFA_XSP16, literal(-9)))
          CFI V5 load(1, XDATA, add(CFA_XSP16, literal(-8)))
          CFI V6 load(1, XDATA, add(CFA_XSP16, literal(-7)))
          CFI V7 load(1, XDATA, add(CFA_XSP16, literal(-6)))
          CFI R7 load(1, XDATA, add(CFA_XSP16, literal(-5)))
          CFI ?RET_LOW load(1, XDATA, add(CFA_XSP16, literal(-4)))
          CFI ?RET_HIGH load(1, XDATA, add(CFA_XSP16, literal(-3)))
          CFI DPL0 load(1, XDATA, add(CFA_XSP16, literal(-2)))
          CFI DPH0 load(1, XDATA, add(CFA_XSP16, literal(-1)))
          CFI CFA_XSP16 add(XSP16, 27)
          CFI Block cfiCond34 Using cfiCommon0
          CFI (cfiCond34) Function shell_tab
          CFI (cfiCond34) Conditional ??CrossCallReturnLabel_92
          CFI (cfiCond34) R6 load(1, XDATA, add(CFA_XSP16, literal(-15)))
          CFI (cfiCond34) VB load(1, XDATA, add(CFA_XSP16, literal(-14)))
          CFI (cfiCond34) V0 load(1, XDATA, add(CFA_XSP16, literal(-13)))
          CFI (cfiCond34) V1 load(1, XDATA, add(CFA_XSP16, literal(-12)))
          CFI (cfiCond34) V2 load(1, XDATA, add(CFA_XSP16, literal(-11)))
          CFI (cfiCond34) V3 load(1, XDATA, add(CFA_XSP16, literal(-10)))
          CFI (cfiCond34) V4 load(1, XDATA, add(CFA_XSP16, literal(-9)))
          CFI (cfiCond34) V5 load(1, XDATA, add(CFA_XSP16, literal(-8)))
          CFI (cfiCond34) V6 load(1, XDATA, add(CFA_XSP16, literal(-7)))
          CFI (cfiCond34) V7 load(1, XDATA, add(CFA_XSP16, literal(-6)))
          CFI (cfiCond34) R7 load(1, XDATA, add(CFA_XSP16, literal(-5)))
          CFI (cfiCond34) ?RET_LOW load(1, XDATA, add(CFA_XSP16, literal(-4)))
          CFI (cfiCond34) ?RET_HIGH load(1, XDATA, add(CFA_XSP16, literal(-3)))
          CFI (cfiCond34) DPL0 load(1, XDATA, add(CFA_XSP16, literal(-2)))
          CFI (cfiCond34) DPH0 load(1, XDATA, add(CFA_XSP16, literal(-1)))
          CFI (cfiCond34) CFA_XSP16 add(XSP16, 45)
          CFI Block cfiCond35 Using cfiCommon0
          CFI (cfiCond35) Function shell_list_cmd
          CFI (cfiCond35) Conditional ??CrossCallReturnLabel_93
          CFI (cfiCond35) R6 load(1, XDATA, add(CFA_XSP16, literal(-15)))
          CFI (cfiCond35) VB load(1, XDATA, add(CFA_XSP16, literal(-14)))
          CFI (cfiCond35) V0 load(1, XDATA, add(CFA_XSP16, literal(-13)))
          CFI (cfiCond35) V1 load(1, XDATA, add(CFA_XSP16, literal(-12)))
          CFI (cfiCond35) V2 load(1, XDATA, add(CFA_XSP16, literal(-11)))
          CFI (cfiCond35) V3 load(1, XDATA, add(CFA_XSP16, literal(-10)))
          CFI (cfiCond35) V4 load(1, XDATA, add(CFA_XSP16, literal(-9)))
          CFI (cfiCond35) V5 load(1, XDATA, add(CFA_XSP16, literal(-8)))
          CFI (cfiCond35) V6 load(1, XDATA, add(CFA_XSP16, literal(-7)))
          CFI (cfiCond35) V7 load(1, XDATA, add(CFA_XSP16, literal(-6)))
          CFI (cfiCond35) R7 load(1, XDATA, add(CFA_XSP16, literal(-5)))
          CFI (cfiCond35) ?RET_LOW load(1, XDATA, add(CFA_XSP16, literal(-4)))
          CFI (cfiCond35) ?RET_HIGH load(1, XDATA, add(CFA_XSP16, literal(-3)))
          CFI (cfiCond35) DPL0 load(1, XDATA, add(CFA_XSP16, literal(-2)))
          CFI (cfiCond35) DPH0 load(1, XDATA, add(CFA_XSP16, literal(-1)))
          CFI (cfiCond35) CFA_XSP16 add(XSP16, 17)
          CFI Block cfiCond36 Using cfiCommon0
          CFI (cfiCond36) Function _shell_register
          CFI (cfiCond36) Conditional ??CrossCallReturnLabel_94
          CFI (cfiCond36) R6 load(1, XDATA, add(CFA_XSP16, literal(-15)))
          CFI (cfiCond36) VB load(1, XDATA, add(CFA_XSP16, literal(-14)))
          CFI (cfiCond36) V0 load(1, XDATA, add(CFA_XSP16, literal(-13)))
          CFI (cfiCond36) V1 load(1, XDATA, add(CFA_XSP16, literal(-12)))
          CFI (cfiCond36) V2 load(1, XDATA, add(CFA_XSP16, literal(-11)))
          CFI (cfiCond36) V3 load(1, XDATA, add(CFA_XSP16, literal(-10)))
          CFI (cfiCond36) V4 load(1, XDATA, add(CFA_XSP16, literal(-9)))
          CFI (cfiCond36) V5 load(1, XDATA, add(CFA_XSP16, literal(-8)))
          CFI (cfiCond36) V6 load(1, XDATA, add(CFA_XSP16, literal(-7)))
          CFI (cfiCond36) V7 load(1, XDATA, add(CFA_XSP16, literal(-6)))
          CFI (cfiCond36) R7 load(1, XDATA, add(CFA_XSP16, literal(-5)))
          CFI (cfiCond36) ?RET_LOW load(1, XDATA, add(CFA_XSP16, literal(-4)))
          CFI (cfiCond36) ?RET_HIGH load(1, XDATA, add(CFA_XSP16, literal(-3)))
          CFI (cfiCond36) DPL0 load(1, XDATA, add(CFA_XSP16, literal(-2)))
          CFI (cfiCond36) DPH0 load(1, XDATA, add(CFA_XSP16, literal(-1)))
          CFI (cfiCond36) CFA_XSP16 add(XSP16, 37)
          CFI Block cfiPicker37 Using cfiCommon1
          CFI (cfiPicker37) NoFunction
          CFI (cfiPicker37) Picker
        MOV     DPL,?XSP + 0
        MOV     DPH,?XSP + 1
          CFI EndBlock cfiCond33
          CFI EndBlock cfiCond34
          CFI EndBlock cfiCond35
          CFI EndBlock cfiCond36
          CFI EndBlock cfiPicker37
        REQUIRE ??Subroutine51_0
        ; // Fall through to label ??Subroutine51_0

        RSEG NEAR_CODE:CODE:NOROOT(0)
??Subroutine51_0:
          CFI Block cfiCond38 Using cfiCommon0
          CFI Function shell_parse
          CFI Conditional ??CrossCallReturnLabel_89
          CFI R6 load(1, XDATA, add(CFA_XSP16, literal(-15)))
          CFI VB load(1, XDATA, add(CFA_XSP16, literal(-14)))
          CFI V0 load(1, XDATA, add(CFA_XSP16, literal(-13)))
          CFI V1 load(1, XDATA, add(CFA_XSP16, literal(-12)))
          CFI V2 load(1, XDATA, add(CFA_XSP16, literal(-11)))
          CFI V3 load(1, XDATA, add(CFA_XSP16, literal(-10)))
          CFI V4 load(1, XDATA, add(CFA_XSP16, literal(-9)))
          CFI V5 load(1, XDATA, add(CFA_XSP16, literal(-8)))
          CFI V6 load(1, XDATA, add(CFA_XSP16, literal(-7)))
          CFI V7 load(1, XDATA, add(CFA_XSP16, literal(-6)))
          CFI R7 load(1, XDATA, add(CFA_XSP16, literal(-5)))
          CFI ?RET_LOW load(1, XDATA, add(CFA_XSP16, literal(-4)))
          CFI ?RET_HIGH load(1, XDATA, add(CFA_XSP16, literal(-3)))
          CFI DPL0 load(1, XDATA, add(CFA_XSP16, literal(-2)))
          CFI DPH0 load(1, XDATA, add(CFA_XSP16, literal(-1)))
          CFI CFA_XSP16 add(XSP16, 43)
          CFI Block cfiCond39 Using cfiCommon0
          CFI (cfiCond39) Function cmdline_strtok
          CFI (cfiCond39) Conditional ??CrossCallReturnLabel_90
          CFI (cfiCond39) R6 load(1, XDATA, add(CFA_XSP16, literal(-9)))
          CFI (cfiCond39) VB load(1, XDATA, add(CFA_XSP16, literal(-8)))
          CFI (cfiCond39) V0 load(1, XDATA, add(CFA_XSP16, literal(-7)))
          CFI (cfiCond39) V1 load(1, XDATA, add(CFA_XSP16, literal(-6)))
          CFI (cfiCond39) R7 load(1, XDATA, add(CFA_XSP16, literal(-5)))
          CFI (cfiCond39) ?RET_LOW load(1, XDATA, add(CFA_XSP16, literal(-4)))
          CFI (cfiCond39) ?RET_HIGH load(1, XDATA, add(CFA_XSP16, literal(-3)))
          CFI (cfiCond39) DPL0 load(1, XDATA, add(CFA_XSP16, literal(-2)))
          CFI (cfiCond39) DPH0 load(1, XDATA, add(CFA_XSP16, literal(-1)))
          CFI (cfiCond39) CFA_XSP16 add(XSP16, 9)
          CFI Block cfiCond40 Using cfiCommon0
          CFI (cfiCond40) Function checkout
          CFI (cfiCond40) Conditional ??CrossCallReturnLabel_91
          CFI (cfiCond40) R6 load(1, XDATA, add(CFA_XSP16, literal(-15)))
          CFI (cfiCond40) VB load(1, XDATA, add(CFA_XSP16, literal(-14)))
          CFI (cfiCond40) V0 load(1, XDATA, add(CFA_XSP16, literal(-13)))
          CFI (cfiCond40) V1 load(1, XDATA, add(CFA_XSP16, literal(-12)))
          CFI (cfiCond40) V2 load(1, XDATA, add(CFA_XSP16, literal(-11)))
          CFI (cfiCond40) V3 load(1, XDATA, add(CFA_XSP16, literal(-10)))
          CFI (cfiCond40) V4 load(1, XDATA, add(CFA_XSP16, literal(-9)))
          CFI (cfiCond40) V5 load(1, XDATA, add(CFA_XSP16, literal(-8)))
          CFI (cfiCond40) V6 load(1, XDATA, add(CFA_XSP16, literal(-7)))
          CFI (cfiCond40) V7 load(1, XDATA, add(CFA_XSP16, literal(-6)))
          CFI (cfiCond40) R7 load(1, XDATA, add(CFA_XSP16, literal(-5)))
          CFI (cfiCond40) ?RET_LOW load(1, XDATA, add(CFA_XSP16, literal(-4)))
          CFI (cfiCond40) ?RET_HIGH load(1, XDATA, add(CFA_XSP16, literal(-3)))
          CFI (cfiCond40) DPL0 load(1, XDATA, add(CFA_XSP16, literal(-2)))
          CFI (cfiCond40) DPH0 load(1, XDATA, add(CFA_XSP16, literal(-1)))
          CFI (cfiCond40) CFA_XSP16 add(XSP16, 27)
          CFI Block cfiCond41 Using cfiCommon0
          CFI (cfiCond41) Function shell_tab
          CFI (cfiCond41) Conditional ??CrossCallReturnLabel_92
          CFI (cfiCond41) R6 load(1, XDATA, add(CFA_XSP16, literal(-15)))
          CFI (cfiCond41) VB load(1, XDATA, add(CFA_XSP16, literal(-14)))
          CFI (cfiCond41) V0 load(1, XDATA, add(CFA_XSP16, literal(-13)))
          CFI (cfiCond41) V1 load(1, XDATA, add(CFA_XSP16, literal(-12)))
          CFI (cfiCond41) V2 load(1, XDATA, add(CFA_XSP16, literal(-11)))
          CFI (cfiCond41) V3 load(1, XDATA, add(CFA_XSP16, literal(-10)))
          CFI (cfiCond41) V4 load(1, XDATA, add(CFA_XSP16, literal(-9)))
          CFI (cfiCond41) V5 load(1, XDATA, add(CFA_XSP16, literal(-8)))
          CFI (cfiCond41) V6 load(1, XDATA, add(CFA_XSP16, literal(-7)))
          CFI (cfiCond41) V7 load(1, XDATA, add(CFA_XSP16, literal(-6)))
          CFI (cfiCond41) R7 load(1, XDATA, add(CFA_XSP16, literal(-5)))
          CFI (cfiCond41) ?RET_LOW load(1, XDATA, add(CFA_XSP16, literal(-4)))
          CFI (cfiCond41) ?RET_HIGH load(1, XDATA, add(CFA_XSP16, literal(-3)))
          CFI (cfiCond41) DPL0 load(1, XDATA, add(CFA_XSP16, literal(-2)))
          CFI (cfiCond41) DPH0 load(1, XDATA, add(CFA_XSP16, literal(-1)))
          CFI (cfiCond41) CFA_XSP16 add(XSP16, 45)
          CFI Block cfiCond42 Using cfiCommon0
          CFI (cfiCond42) Function shell_list_cmd
          CFI (cfiCond42) Conditional ??CrossCallReturnLabel_93
          CFI (cfiCond42) R6 load(1, XDATA, add(CFA_XSP16, literal(-15)))
          CFI (cfiCond42) VB load(1, XDATA, add(CFA_XSP16, literal(-14)))
          CFI (cfiCond42) V0 load(1, XDATA, add(CFA_XSP16, literal(-13)))
          CFI (cfiCond42) V1 load(1, XDATA, add(CFA_XSP16, literal(-12)))
          CFI (cfiCond42) V2 load(1, XDATA, add(CFA_XSP16, literal(-11)))
          CFI (cfiCond42) V3 load(1, XDATA, add(CFA_XSP16, literal(-10)))
          CFI (cfiCond42) V4 load(1, XDATA, add(CFA_XSP16, literal(-9)))
          CFI (cfiCond42) V5 load(1, XDATA, add(CFA_XSP16, literal(-8)))
          CFI (cfiCond42) V6 load(1, XDATA, add(CFA_XSP16, literal(-7)))
          CFI (cfiCond42) V7 load(1, XDATA, add(CFA_XSP16, literal(-6)))
          CFI (cfiCond42) R7 load(1, XDATA, add(CFA_XSP16, literal(-5)))
          CFI (cfiCond42) ?RET_LOW load(1, XDATA, add(CFA_XSP16, literal(-4)))
          CFI (cfiCond42) ?RET_HIGH load(1, XDATA, add(CFA_XSP16, literal(-3)))
          CFI (cfiCond42) DPL0 load(1, XDATA, add(CFA_XSP16, literal(-2)))
          CFI (cfiCond42) DPH0 load(1, XDATA, add(CFA_XSP16, literal(-1)))
          CFI (cfiCond42) CFA_XSP16 add(XSP16, 17)
          CFI Block cfiCond43 Using cfiCommon0
          CFI (cfiCond43) Function _shell_register
          CFI (cfiCond43) Conditional ??CrossCallReturnLabel_94
          CFI (cfiCond43) R6 load(1, XDATA, add(CFA_XSP16, literal(-15)))
          CFI (cfiCond43) VB load(1, XDATA, add(CFA_XSP16, literal(-14)))
          CFI (cfiCond43) V0 load(1, XDATA, add(CFA_XSP16, literal(-13)))
          CFI (cfiCond43) V1 load(1, XDATA, add(CFA_XSP16, literal(-12)))
          CFI (cfiCond43) V2 load(1, XDATA, add(CFA_XSP16, literal(-11)))
          CFI (cfiCond43) V3 load(1, XDATA, add(CFA_XSP16, literal(-10)))
          CFI (cfiCond43) V4 load(1, XDATA, add(CFA_XSP16, literal(-9)))
          CFI (cfiCond43) V5 load(1, XDATA, add(CFA_XSP16, literal(-8)))
          CFI (cfiCond43) V6 load(1, XDATA, add(CFA_XSP16, literal(-7)))
          CFI (cfiCond43) V7 load(1, XDATA, add(CFA_XSP16, literal(-6)))
          CFI (cfiCond43) R7 load(1, XDATA, add(CFA_XSP16, literal(-5)))
          CFI (cfiCond43) ?RET_LOW load(1, XDATA, add(CFA_XSP16, literal(-4)))
          CFI (cfiCond43) ?RET_HIGH load(1, XDATA, add(CFA_XSP16, literal(-3)))
          CFI (cfiCond43) DPL0 load(1, XDATA, add(CFA_XSP16, literal(-2)))
          CFI (cfiCond43) DPH0 load(1, XDATA, add(CFA_XSP16, literal(-1)))
          CFI (cfiCond43) CFA_XSP16 add(XSP16, 37)
          CFI Block cfiPicker44 Using cfiCommon1
          CFI (cfiPicker44) NoFunction
          CFI (cfiPicker44) Picker
        MOV     A,R2
        MOVX    @DPTR,A
        INC     DPTR
        MOV     A,R3
        MOVX    @DPTR,A
        RET
          CFI EndBlock cfiCond38
          CFI EndBlock cfiCond39
          CFI EndBlock cfiCond40
          CFI EndBlock cfiCond41
          CFI EndBlock cfiCond42
          CFI EndBlock cfiCond43
          CFI EndBlock cfiPicker44
//  380 
//  381 
//  382 /**
//  383   * @author   古么宁
//  384   * @brief    如果当前打印行有输入内容，回退一个键位
//  385   * @param    shellin : 输入交互
//  386   * @return   don't care
//  387 */

        RSEG NEAR_CODE:CODE:NOROOT(0)
//  388 static void shell_backspace(struct shell_input * shellin)
shell_backspace:
          CFI Block cfiBlock45 Using cfiCommon0
          CFI Function shell_backspace
        CODE
//  389 {
        REQUIRE ?V0
        REQUIRE ?V1
        REQUIRE ?V2
        REQUIRE ?V3
        REQUIRE ?V4
        REQUIRE ?V5
        REQUIRE ?V6
        REQUIRE ?V7
        MOV     A,#-0xf
        LCALL   ?FUNC_ENTER_XDATA
          CFI DPH0 load(1, XDATA, add(CFA_XSP16, literal(-1)))
          CFI DPL0 load(1, XDATA, add(CFA_XSP16, literal(-2)))
          CFI ?RET_HIGH load(1, XDATA, add(CFA_XSP16, literal(-3)))
          CFI ?RET_LOW load(1, XDATA, add(CFA_XSP16, literal(-4)))
          CFI R7 load(1, XDATA, add(CFA_XSP16, literal(-5)))
          CFI V7 load(1, XDATA, add(CFA_XSP16, literal(-6)))
          CFI V6 load(1, XDATA, add(CFA_XSP16, literal(-7)))
          CFI V5 load(1, XDATA, add(CFA_XSP16, literal(-8)))
          CFI V4 load(1, XDATA, add(CFA_XSP16, literal(-9)))
          CFI V3 load(1, XDATA, add(CFA_XSP16, literal(-10)))
          CFI V2 load(1, XDATA, add(CFA_XSP16, literal(-11)))
          CFI V1 load(1, XDATA, add(CFA_XSP16, literal(-12)))
          CFI V0 load(1, XDATA, add(CFA_XSP16, literal(-13)))
          CFI VB load(1, XDATA, add(CFA_XSP16, literal(-14)))
          CFI R6 load(1, XDATA, add(CFA_XSP16, literal(-15)))
          CFI CFA_SP SP+0
          CFI CFA_XSP16 add(XSP16, 15)
        ; Saved register size: 15
        ; Auto size: 102
        MOV     A,#-0x66
        LCALL   ?ALLOC_XSTACK8
          CFI CFA_XSP16 add(XSP16, 117)
        MOV     A,R2
        MOV     R6,A
        MOV     A,R3
        MOV     R7,A
//  390 	char   printbuf[COMMANDLINE_MAX_LEN*2]={0};//中转内存
        MOV     DPTR,#`?<Constant {0}>`
        MOV     A,#0x2
        LCALL   ?XSTACK_DISP102_8
        MOV     A,#0x64
        LCALL   ?MOVE_LONG8_XDATA_XDATA
//  391 	char * print = &printbuf[1];
        MOV     A,#0x3
        LCALL   ?XSTACK_DISP0_8
        MOV     R4,DPL
        MOV     R5,DPH
//  392 	char * printend = print + (shellin->tail - shellin->edit) + 1;
        MOV     A,R6
        ADD     A,#0x6a
        MOV     R0,A
        CLR     A
        ADDC    A,R7
        MOV     R1,A
        MOV     DPL,R0
        MOV     DPH,R1
        MOVX    A,@DPTR
        MOV     ?V0,A
        MOV     A,R6
        ADD     A,#0x6b
        MOV     ?V2,A
        CLR     A
        ADDC    A,R7
        MOV     ?V3,A
        MOV     DPL,?V2
        MOV     DPH,A
        MOVX    A,@DPTR
        CLR     C
        SUBB    A,?V0
        MOV     R2,A
        SUBB    A,0xE0 /* A   */
        MOV     R3,A
        MOV     A,#0x2
        LCALL   ?XSTACK_DISP0_8
        MOV     A,DPL
        ADD     A,R2
        MOV     R2,A
        MOV     A,DPH
        ADDC    A,R3
        MOV     R3,A
        MOV     A,R2
        ADD     A,#0x2
        MOV     R2,A
        JNC     ??shell_backspace_0
        INC     R3
//  393 	char * edit = &shellin->cmdline[shellin->edit--] ;
??shell_backspace_0:
        MOV     A,R6
        ADD     A,?V0
        MOV     ?V0,A
        CLR     A
        ADDC    A,R7
        MOV     ?V1,A
        MOV     A,?V0
        ADD     A,#0x38
        MOV     ?V0,A
        JNC     ??shell_backspace_1
        INC     ?V1
??shell_backspace_1:
        MOV     DPL,R0
        MOV     DPH,R1
        MOVX    A,@DPTR
        DEC     A
        MOVX    @DPTR,A
//  394 	char * tail = &shellin->cmdline[shellin->tail--];
        MOV     DPL,?V2
        MOV     DPH,?V3
        MOVX    A,@DPTR
        MOV     R0,A
        MOV     A,R6
        ADD     A,R0
        MOV     R0,A
        CLR     A
        ADDC    A,R7
        MOV     R1,A
        MOV     A,R0
        ADD     A,#0x38
        JNC     ??shell_backspace_2
        INC     R1
??shell_backspace_2:
        MOV     DPL,?XSP + 0
        MOV     DPH,?XSP + 1
        LCALL   ??Subroutine58_0
??CrossCallReturnLabel_117:
        MOV     DPL,?V2
        MOV     DPH,?V3
        MOVX    A,@DPTR
        DEC     A
        MOVX    @DPTR,A
//  395 
//  396 	/* 当输入过左右箭头时，需要作字符串插入左移处理，并作反馈回显
//  397 	   如 abUcd 中删除U，需要左移cd，并打印两个 '\b' 使光标回到 ab 处 */
//  398 	for (char * cp = edit - 1 ; edit < tail ; *cp++ = *edit++) {
        MOV     A,?V0
        ADD     A,#-0x1
        MOV     ?V4,A
        MOV     A,?V1
        ADDC    A,#-0x1
        MOV     ?V5,A
        SJMP    ??shell_backspace_3
//  399 		*print++ = *edit;
??shell_backspace_4:
        MOV     DPL,?V0
        MOV     DPH,?V1
        MOVX    A,@DPTR
        MOV     DPL,R4
        MOV     DPH,R5
        MOVX    @DPTR,A
        INC     DPTR
        MOV     R4,DPL
        MOV     R5,DPH
//  400 		*printend++ = '\b';
        MOV     DPL,R2
        MOV     DPH,R3
        MOV     A,#0x8
        MOVX    @DPTR,A
        MOV     A,R0
        MOV     R2,A
        MOV     A,R1
        MOV     R3,A
//  401 	}
        MOV     DPL,?V0
        MOV     DPH,?V1
        LCALL   ?Subroutine23
??CrossCallReturnLabel_36:
        MOV     DPL,?V0
        MOV     DPH,?V1
        INC     DPTR
        MOV     ?V0,DPL
        MOV     ?V1,DPH
        MOV     DPL,?V4
        MOV     DPH,?V5
        INC     DPTR
        MOV     ?V4,DPL
        MOV     ?V5,DPH
??shell_backspace_3:
        MOV     DPL,R2
        MOV     DPH,R3
        INC     DPTR
        MOV     R0,DPL
        MOV     R1,DPH
        MOV     DPL,?XSP + 0
        MOV     DPH,?XSP + 1
        MOVX    A,@DPTR
        MOV     ?V6,A
        INC     DPTR
        MOVX    A,@DPTR
        MOV     ?V7,A
        CLR     C
        MOV     A,?V0
        SUBB    A,?V6
        MOV     A,?V1
        SUBB    A,?V7
        JC      ??shell_backspace_4
//  402 
//  403 	printbuf[0] = '\b';
        MOV     A,#0x2
        LCALL   ?XSTACK_DISP0_8
        MOV     A,#0x8
        MOVX    @DPTR,A
//  404 	*print = ' ';       //覆盖最后一个字符显示
        MOV     DPL,R4
        MOV     DPH,R5
        MOV     A,#0x20
        LCALL   ?Subroutine11
//  405 	*printend++ = '\b'; //光标回显
??CrossCallReturnLabel_16:
        MOV     A,#0x8
        MOVX    @DPTR,A
        MOV     A,R0
        MOV     R2,A
        MOV     A,R1
        MOV     R3,A
//  406 
//  407 	shellin->cmdline[shellin->tail] = 0;  //末端添加字符串结束符
        MOV     DPL,?V2
        MOV     DPH,?V3
        MOVX    A,@DPTR
        MOV     R0,A
        MOV     A,R6
        ADD     A,R0
        MOV     R0,A
        CLR     A
        ADDC    A,R7
        LCALL   ?Subroutine3
//  408 	printl(printbuf,printend-printbuf);
??CrossCallReturnLabel_95:
        JZ      ??shell_backspace_5
        ; Setup parameters for indirect call
        MOV     A,#0x2
        LCALL   ?XSTACK_DISP100_8
        MOV     ?V0,R0
        MOV     ?V1,R1
        MOV     A,R2
        CLR     C
        SUBB    A,?V0
        MOV     R4,A
        MOV     A,R3
        SUBB    A,?V1
        MOV     R5,A
        MOV     A,#0x2
        LCALL   ?XSTACK_DISP101_8
        LCALL   ?Subroutine22
??CrossCallReturnLabel_155:
        LCALL   ?CALL_IND
//  409 }
??shell_backspace_5:
        MOV     A,#0x66
        SJMP    ??Subroutine53_0
          CFI EndBlock cfiBlock45

        RSEG NEAR_CODE:CODE:NOROOT(0)
?Subroutine3:
          CFI Block cfiCond46 Using cfiCommon0
          CFI Function shell_backspace
          CFI Conditional ??CrossCallReturnLabel_95
          CFI R6 load(1, XDATA, add(CFA_XSP16, literal(-15)))
          CFI VB load(1, XDATA, add(CFA_XSP16, literal(-14)))
          CFI V0 load(1, XDATA, add(CFA_XSP16, literal(-13)))
          CFI V1 load(1, XDATA, add(CFA_XSP16, literal(-12)))
          CFI V2 load(1, XDATA, add(CFA_XSP16, literal(-11)))
          CFI V3 load(1, XDATA, add(CFA_XSP16, literal(-10)))
          CFI V4 load(1, XDATA, add(CFA_XSP16, literal(-9)))
          CFI V5 load(1, XDATA, add(CFA_XSP16, literal(-8)))
          CFI V6 load(1, XDATA, add(CFA_XSP16, literal(-7)))
          CFI V7 load(1, XDATA, add(CFA_XSP16, literal(-6)))
          CFI R7 load(1, XDATA, add(CFA_XSP16, literal(-5)))
          CFI ?RET_LOW load(1, XDATA, add(CFA_XSP16, literal(-4)))
          CFI ?RET_HIGH load(1, XDATA, add(CFA_XSP16, literal(-3)))
          CFI DPL0 load(1, XDATA, add(CFA_XSP16, literal(-2)))
          CFI DPH0 load(1, XDATA, add(CFA_XSP16, literal(-1)))
          CFI CFA_XSP16 add(XSP16, 117)
          CFI Block cfiCond47 Using cfiCommon0
          CFI (cfiCond47) Function shell_getchar
          CFI (cfiCond47) Conditional ??CrossCallReturnLabel_96
          CFI (cfiCond47) R6 load(1, XDATA, add(CFA_XSP16, literal(-14)))
          CFI (cfiCond47) VB load(1, XDATA, add(CFA_XSP16, literal(-13)))
          CFI (cfiCond47) V0 load(1, XDATA, add(CFA_XSP16, literal(-12)))
          CFI (cfiCond47) V1 load(1, XDATA, add(CFA_XSP16, literal(-11)))
          CFI (cfiCond47) V2 load(1, XDATA, add(CFA_XSP16, literal(-10)))
          CFI (cfiCond47) V3 load(1, XDATA, add(CFA_XSP16, literal(-9)))
          CFI (cfiCond47) V4 load(1, XDATA, add(CFA_XSP16, literal(-8)))
          CFI (cfiCond47) V5 load(1, XDATA, add(CFA_XSP16, literal(-7)))
          CFI (cfiCond47) V6 load(1, XDATA, add(CFA_XSP16, literal(-6)))
          CFI (cfiCond47) R7 load(1, XDATA, add(CFA_XSP16, literal(-5)))
          CFI (cfiCond47) ?RET_LOW load(1, XDATA, add(CFA_XSP16, literal(-4)))
          CFI (cfiCond47) ?RET_HIGH load(1, XDATA, add(CFA_XSP16, literal(-3)))
          CFI (cfiCond47) DPL0 load(1, XDATA, add(CFA_XSP16, literal(-2)))
          CFI (cfiCond47) DPH0 load(1, XDATA, add(CFA_XSP16, literal(-1)))
          CFI (cfiCond47) CFA_XSP16 add(XSP16, 117)
          CFI Block cfiPicker48 Using cfiCommon1
          CFI (cfiPicker48) NoFunction
          CFI (cfiPicker48) Picker
        LCALL   ?Subroutine48
??CrossCallReturnLabel_83:
        CLR     A
          CFI EndBlock cfiCond46
          CFI EndBlock cfiCond47
          CFI EndBlock cfiPicker48
        REQUIRE ??Subroutine52_0
        ; // Fall through to label ??Subroutine52_0

        RSEG NEAR_CODE:CODE:NOROOT(0)
??Subroutine52_0:
          CFI Block cfiCond49 Using cfiCommon0
          CFI Function cmdline_gets
          CFI Conditional ??CrossCallReturnLabel_97
          CFI R6 load(1, XDATA, add(CFA_XSP16, literal(-15)))
          CFI VB load(1, XDATA, add(CFA_XSP16, literal(-14)))
          CFI V0 load(1, XDATA, add(CFA_XSP16, literal(-13)))
          CFI V1 load(1, XDATA, add(CFA_XSP16, literal(-12)))
          CFI V2 load(1, XDATA, add(CFA_XSP16, literal(-11)))
          CFI V3 load(1, XDATA, add(CFA_XSP16, literal(-10)))
          CFI V4 load(1, XDATA, add(CFA_XSP16, literal(-9)))
          CFI V5 load(1, XDATA, add(CFA_XSP16, literal(-8)))
          CFI V6 load(1, XDATA, add(CFA_XSP16, literal(-7)))
          CFI V7 load(1, XDATA, add(CFA_XSP16, literal(-6)))
          CFI R7 load(1, XDATA, add(CFA_XSP16, literal(-5)))
          CFI ?RET_LOW load(1, XDATA, add(CFA_XSP16, literal(-4)))
          CFI ?RET_HIGH load(1, XDATA, add(CFA_XSP16, literal(-3)))
          CFI DPL0 load(1, XDATA, add(CFA_XSP16, literal(-2)))
          CFI DPH0 load(1, XDATA, add(CFA_XSP16, literal(-1)))
          CFI CFA_XSP16 add(XSP16, 19)
          CFI Block cfiCond50 Using cfiCommon0
          CFI (cfiCond50) Function confirm_gets
          CFI (cfiCond50) Conditional ??CrossCallReturnLabel_98
          CFI (cfiCond50) R6 load(1, XDATA, add(CFA_XSP16, literal(-13)))
          CFI (cfiCond50) VB load(1, XDATA, add(CFA_XSP16, literal(-12)))
          CFI (cfiCond50) V0 load(1, XDATA, add(CFA_XSP16, literal(-11)))
          CFI (cfiCond50) V1 load(1, XDATA, add(CFA_XSP16, literal(-10)))
          CFI (cfiCond50) V2 load(1, XDATA, add(CFA_XSP16, literal(-9)))
          CFI (cfiCond50) V3 load(1, XDATA, add(CFA_XSP16, literal(-8)))
          CFI (cfiCond50) V4 load(1, XDATA, add(CFA_XSP16, literal(-7)))
          CFI (cfiCond50) V5 load(1, XDATA, add(CFA_XSP16, literal(-6)))
          CFI (cfiCond50) R7 load(1, XDATA, add(CFA_XSP16, literal(-5)))
          CFI (cfiCond50) ?RET_LOW load(1, XDATA, add(CFA_XSP16, literal(-4)))
          CFI (cfiCond50) ?RET_HIGH load(1, XDATA, add(CFA_XSP16, literal(-3)))
          CFI (cfiCond50) DPL0 load(1, XDATA, add(CFA_XSP16, literal(-2)))
          CFI (cfiCond50) DPH0 load(1, XDATA, add(CFA_XSP16, literal(-1)))
          CFI (cfiCond50) CFA_XSP16 add(XSP16, 15)
          CFI Block cfiCond51 Using cfiCommon0
          CFI (cfiCond51) Function confirm_gets
          CFI (cfiCond51) Conditional ??CrossCallReturnLabel_99
          CFI (cfiCond51) R6 load(1, XDATA, add(CFA_XSP16, literal(-13)))
          CFI (cfiCond51) VB load(1, XDATA, add(CFA_XSP16, literal(-12)))
          CFI (cfiCond51) V0 load(1, XDATA, add(CFA_XSP16, literal(-11)))
          CFI (cfiCond51) V1 load(1, XDATA, add(CFA_XSP16, literal(-10)))
          CFI (cfiCond51) V2 load(1, XDATA, add(CFA_XSP16, literal(-9)))
          CFI (cfiCond51) V3 load(1, XDATA, add(CFA_XSP16, literal(-8)))
          CFI (cfiCond51) V4 load(1, XDATA, add(CFA_XSP16, literal(-7)))
          CFI (cfiCond51) V5 load(1, XDATA, add(CFA_XSP16, literal(-6)))
          CFI (cfiCond51) R7 load(1, XDATA, add(CFA_XSP16, literal(-5)))
          CFI (cfiCond51) ?RET_LOW load(1, XDATA, add(CFA_XSP16, literal(-4)))
          CFI (cfiCond51) ?RET_HIGH load(1, XDATA, add(CFA_XSP16, literal(-3)))
          CFI (cfiCond51) DPL0 load(1, XDATA, add(CFA_XSP16, literal(-2)))
          CFI (cfiCond51) DPH0 load(1, XDATA, add(CFA_XSP16, literal(-1)))
          CFI (cfiCond51) CFA_XSP16 add(XSP16, 15)
          CFI Block cfiCond52 Using cfiCommon0
          CFI (cfiCond52) Function shell_backspace
          CFI (cfiCond52) Conditional ??CrossCallReturnLabel_95
          CFI (cfiCond52) R6 load(1, XDATA, add(CFA_XSP16, literal(-15)))
          CFI (cfiCond52) VB load(1, XDATA, add(CFA_XSP16, literal(-14)))
          CFI (cfiCond52) V0 load(1, XDATA, add(CFA_XSP16, literal(-13)))
          CFI (cfiCond52) V1 load(1, XDATA, add(CFA_XSP16, literal(-12)))
          CFI (cfiCond52) V2 load(1, XDATA, add(CFA_XSP16, literal(-11)))
          CFI (cfiCond52) V3 load(1, XDATA, add(CFA_XSP16, literal(-10)))
          CFI (cfiCond52) V4 load(1, XDATA, add(CFA_XSP16, literal(-9)))
          CFI (cfiCond52) V5 load(1, XDATA, add(CFA_XSP16, literal(-8)))
          CFI (cfiCond52) V6 load(1, XDATA, add(CFA_XSP16, literal(-7)))
          CFI (cfiCond52) V7 load(1, XDATA, add(CFA_XSP16, literal(-6)))
          CFI (cfiCond52) R7 load(1, XDATA, add(CFA_XSP16, literal(-5)))
          CFI (cfiCond52) ?RET_LOW load(1, XDATA, add(CFA_XSP16, literal(-4)))
          CFI (cfiCond52) ?RET_HIGH load(1, XDATA, add(CFA_XSP16, literal(-3)))
          CFI (cfiCond52) DPL0 load(1, XDATA, add(CFA_XSP16, literal(-2)))
          CFI (cfiCond52) DPH0 load(1, XDATA, add(CFA_XSP16, literal(-1)))
          CFI (cfiCond52) CFA_XSP16 add(XSP16, 117)
          CFI Block cfiCond53 Using cfiCommon0
          CFI (cfiCond53) Function shell_getchar
          CFI (cfiCond53) Conditional ??CrossCallReturnLabel_96
          CFI (cfiCond53) R6 load(1, XDATA, add(CFA_XSP16, literal(-14)))
          CFI (cfiCond53) VB load(1, XDATA, add(CFA_XSP16, literal(-13)))
          CFI (cfiCond53) V0 load(1, XDATA, add(CFA_XSP16, literal(-12)))
          CFI (cfiCond53) V1 load(1, XDATA, add(CFA_XSP16, literal(-11)))
          CFI (cfiCond53) V2 load(1, XDATA, add(CFA_XSP16, literal(-10)))
          CFI (cfiCond53) V3 load(1, XDATA, add(CFA_XSP16, literal(-9)))
          CFI (cfiCond53) V4 load(1, XDATA, add(CFA_XSP16, literal(-8)))
          CFI (cfiCond53) V5 load(1, XDATA, add(CFA_XSP16, literal(-7)))
          CFI (cfiCond53) V6 load(1, XDATA, add(CFA_XSP16, literal(-6)))
          CFI (cfiCond53) R7 load(1, XDATA, add(CFA_XSP16, literal(-5)))
          CFI (cfiCond53) ?RET_LOW load(1, XDATA, add(CFA_XSP16, literal(-4)))
          CFI (cfiCond53) ?RET_HIGH load(1, XDATA, add(CFA_XSP16, literal(-3)))
          CFI (cfiCond53) DPL0 load(1, XDATA, add(CFA_XSP16, literal(-2)))
          CFI (cfiCond53) DPH0 load(1, XDATA, add(CFA_XSP16, literal(-1)))
          CFI (cfiCond53) CFA_XSP16 add(XSP16, 117)
          CFI Block cfiPicker54 Using cfiCommon1
          CFI (cfiPicker54) NoFunction
          CFI (cfiPicker54) Picker
        MOVX    @DPTR,A
        LCALL   ?Subroutine46
??CrossCallReturnLabel_159:
        MOV     A,R0
        ORL     A,R1
        RET
          CFI EndBlock cfiCond49
          CFI EndBlock cfiCond50
          CFI EndBlock cfiCond51
          CFI EndBlock cfiCond52
          CFI EndBlock cfiCond53
          CFI EndBlock cfiPicker54

        RSEG XDATA_I:XDATA:NOROOT(0)
        DATA8
??consolologo:
        DS 351
        REQUIRE `?<Initializer for consolologo>`
        REQUIRE __INIT_XDATA_I

        RSEG XDATA_I:XDATA:NOROOT(0)
        DATA32
__Constant_1:
        DS 4
        REQUIRE `?<Initializer for __Constant_1>`
        REQUIRE __INIT_XDATA_I

        RSEG XDATA_I:XDATA:NOROOT(0)
        DATA32
__Constant_ffffffff:
        DS 4
        REQUIRE `?<Initializer for __Constant_ffffffff>`
        REQUIRE __INIT_XDATA_I

        RSEG XDATA_I:XDATA:NOROOT(0)
        DATA32
__Constant_a:
        DS 4
        REQUIRE `?<Initializer for __Constant_a>`
        REQUIRE __INIT_XDATA_I

        RSEG XDATA_I:XDATA:NOROOT(0)
        DATA32
__Constant_3ffffff:
        DS 4
        REQUIRE `?<Initializer for __Constant_3ffffff>`
        REQUIRE __INIT_XDATA_I

        RSEG XDATA_I:XDATA:NOROOT(0)
        DATA32
__Constant_fc000000:
        DS 4
        REQUIRE `?<Initializer for __Constant_fc000000>`
        REQUIRE __INIT_XDATA_I

        RSEG XDATA_I:XDATA:NOROOT(0)
        DATA32
__Constant_3e00000:
        DS 4
        REQUIRE `?<Initializer for __Constant_3e00000>`
        REQUIRE __INIT_XDATA_I

        RSEG XDATA_I:XDATA:NOROOT(0)
        DATA32
__Constant_1f0000:
        DS 4
        REQUIRE `?<Initializer for __Constant_1f0000>`
        REQUIRE __INIT_XDATA_I

        RSEG XDATA_I:XDATA:NOROOT(0)
        DATA32
__Constant_ff00:
        DS 4
        REQUIRE `?<Initializer for __Constant_ff00>`
        REQUIRE __INIT_XDATA_I

        RSEG XDATA_I:XDATA:NOROOT(0)
        DATA32
__Constant_ff:
        DS 4
        REQUIRE `?<Initializer for __Constant_ff>`
        REQUIRE __INIT_XDATA_I

        RSEG XDATA_I:XDATA:NOROOT(0)
        DATA32
__Constant_87654321:
        DS 4
        REQUIRE `?<Initializer for __Constant_87654321>`
        REQUIRE __INIT_XDATA_I

        RSEG XDATA_I:XDATA:NOROOT(0)
        DATA32
__Constant_0:
        DS 4
        REQUIRE `?<Initializer for __Constant_0>`
        REQUIRE __INIT_XDATA_I

        RSEG XDATA_I:XDATA:NOROOT(0)
        DATA32
__Constant_3e0ffff:
        DS 4
        REQUIRE `?<Initializer for __Constant_3e0ffff>`
        REQUIRE __INIT_XDATA_I

        RSEG XDATA_I:XDATA:NOROOT(0)
        DATA32
__Constant_abcd4322:
        DS 4
        REQUIRE `?<Initializer for __Constant_abcd4322>`
        REQUIRE __INIT_XDATA_I

        RSEG XDATA_I:XDATA:NOROOT(0)
        DATA32
__Constant_fffffff0:
        DS 4
        REQUIRE `?<Initializer for __Constant_fffffff0>`
        REQUIRE __INIT_XDATA_I

        RSEG XDATA_I:XDATA:NOROOT(0)
        DATA32
__Constant_abcd4320:
        DS 4
        REQUIRE `?<Initializer for __Constant_abcd4320>`
        REQUIRE __INIT_XDATA_I

        RSEG XDATA_I:XDATA:NOROOT(0)
        DATA32
__Constant_abcd4321:
        DS 4
        REQUIRE `?<Initializer for __Constant_abcd4321>`
        REQUIRE __INIT_XDATA_I

        RSEG NEAR_CODE:CODE:NOROOT(0)
?Subroutine0:
          CFI Block cfiBlock55 Using cfiCommon0
          CFI NoFunction
          CFI CFA_SP SP+0
          CFI CFA_XSP16 add(XSP16, 19)
          CFI VB load(1, XDATA, add(CFA_XSP16, literal(-14)))
          CFI DPL0 load(1, XDATA, add(CFA_XSP16, literal(-2)))
          CFI DPH0 load(1, XDATA, add(CFA_XSP16, literal(-1)))
          CFI R6 load(1, XDATA, add(CFA_XSP16, literal(-15)))
          CFI R7 load(1, XDATA, add(CFA_XSP16, literal(-5)))
          CFI V0 load(1, XDATA, add(CFA_XSP16, literal(-13)))
          CFI V1 load(1, XDATA, add(CFA_XSP16, literal(-12)))
          CFI V2 load(1, XDATA, add(CFA_XSP16, literal(-11)))
          CFI V3 load(1, XDATA, add(CFA_XSP16, literal(-10)))
          CFI V4 load(1, XDATA, add(CFA_XSP16, literal(-9)))
          CFI V5 load(1, XDATA, add(CFA_XSP16, literal(-8)))
          CFI V6 load(1, XDATA, add(CFA_XSP16, literal(-7)))
          CFI V7 load(1, XDATA, add(CFA_XSP16, literal(-6)))
          CFI ?RET_HIGH load(1, XDATA, add(CFA_XSP16, literal(-3)))
          CFI ?RET_LOW load(1, XDATA, add(CFA_XSP16, literal(-4)))
        MOV     A,#0x4
          CFI EndBlock cfiBlock55
        REQUIRE ??Subroutine53_0
        ; // Fall through to label ??Subroutine53_0

        RSEG NEAR_CODE:CODE:NOROOT(0)
??Subroutine53_0:
          CFI Block cfiBlock56 Using cfiCommon0
          CFI NoFunction
          CFI CFA_SP SP+0
          CFI CFA_XSP16 add(XSP16, 27)
          CFI VB load(1, XDATA, add(CFA_XSP16, literal(-14)))
          CFI DPL0 load(1, XDATA, add(CFA_XSP16, literal(-2)))
          CFI DPH0 load(1, XDATA, add(CFA_XSP16, literal(-1)))
          CFI R6 load(1, XDATA, add(CFA_XSP16, literal(-15)))
          CFI R7 load(1, XDATA, add(CFA_XSP16, literal(-5)))
          CFI V0 load(1, XDATA, add(CFA_XSP16, literal(-13)))
          CFI V1 load(1, XDATA, add(CFA_XSP16, literal(-12)))
          CFI V2 load(1, XDATA, add(CFA_XSP16, literal(-11)))
          CFI V3 load(1, XDATA, add(CFA_XSP16, literal(-10)))
          CFI V4 load(1, XDATA, add(CFA_XSP16, literal(-9)))
          CFI V5 load(1, XDATA, add(CFA_XSP16, literal(-8)))
          CFI V6 load(1, XDATA, add(CFA_XSP16, literal(-7)))
          CFI V7 load(1, XDATA, add(CFA_XSP16, literal(-6)))
          CFI ?RET_HIGH load(1, XDATA, add(CFA_XSP16, literal(-3)))
          CFI ?RET_LOW load(1, XDATA, add(CFA_XSP16, literal(-4)))
          CFI Invalid
        LCALL   ?DEALLOC_XSTACK8
          CFI CFA_XSP16 add(XSP16, 15)
          CFI Valid
        MOV     R7,#0x8
        LJMP    ?FUNC_LEAVE_XDATA
          CFI EndBlock cfiBlock56
//  410 
//  411 /**
//  412   * @author   古么宁
//  413   * @brief    命令行记录输入一个字符
//  414   * @param    shellin : 输入交互
//  415   * @param    ascii   : 键盘输入字符
//  416   * @return   don't care
//  417 */

        RSEG NEAR_CODE:CODE:NOROOT(0)
//  418 static void shell_getchar(struct shell_input * shellin , char ascii)
shell_getchar:
          CFI Block cfiBlock57 Using cfiCommon0
          CFI Function shell_getchar
        CODE
//  419 {
        REQUIRE ?V0
        REQUIRE ?V1
        REQUIRE ?V2
        REQUIRE ?V3
        REQUIRE ?V4
        REQUIRE ?V5
        REQUIRE ?V6
        MOV     A,#-0xe
        LCALL   ?FUNC_ENTER_XDATA
          CFI DPH0 load(1, XDATA, add(CFA_XSP16, literal(-1)))
          CFI DPL0 load(1, XDATA, add(CFA_XSP16, literal(-2)))
          CFI ?RET_HIGH load(1, XDATA, add(CFA_XSP16, literal(-3)))
          CFI ?RET_LOW load(1, XDATA, add(CFA_XSP16, literal(-4)))
          CFI R7 load(1, XDATA, add(CFA_XSP16, literal(-5)))
          CFI V6 load(1, XDATA, add(CFA_XSP16, literal(-6)))
          CFI V5 load(1, XDATA, add(CFA_XSP16, literal(-7)))
          CFI V4 load(1, XDATA, add(CFA_XSP16, literal(-8)))
          CFI V3 load(1, XDATA, add(CFA_XSP16, literal(-9)))
          CFI V2 load(1, XDATA, add(CFA_XSP16, literal(-10)))
          CFI V1 load(1, XDATA, add(CFA_XSP16, literal(-11)))
          CFI V0 load(1, XDATA, add(CFA_XSP16, literal(-12)))
          CFI VB load(1, XDATA, add(CFA_XSP16, literal(-13)))
          CFI R6 load(1, XDATA, add(CFA_XSP16, literal(-14)))
          CFI CFA_SP SP+0
          CFI CFA_XSP16 add(XSP16, 14)
        ; Saved register size: 14
        ; Auto size: 103
        MOV     A,#-0x67
        LCALL   ?ALLOC_XSTACK8
          CFI CFA_XSP16 add(XSP16, 117)
        MOV     A,R1
        MOV     DPL,?XSP + 0
        MOV     DPH,?XSP + 1
        MOVX    @DPTR,A
//  420 	if (shellin->tail + 1 >= COMMANDLINE_MAX_LEN){
        MOV     A,R2
        ADD     A,#0x6b
        MOV     ?V0,A
        CLR     A
        ADDC    A,R3
        MOV     ?V1,A
        MOV     DPL,?V0
        MOV     DPH,A
        MOVX    A,@DPTR
        MOV     R5,A
        MOV     R1,#0x0
        ADD     A,#0x1
        JNC     ??shell_getchar_0
        INC     R1
??shell_getchar_0:
        CLR     C
        SUBB    A,#0x32
        MOV     A,R1
        SUBB    A,#0x0
        MOV     C,0xD0 /* PSW */.2
        XRL     A,PSW
        RLC     A
        JC      $+5
        LJMP    ??shell_getchar_1
//  421 		return ;
//  422 	}
//  423 
//  424 	if (shellin->tail == shellin->edit) {
        MOV     A,R2
        ADD     A,#0x6a
        MOV     R0,A
        CLR     A
        ADDC    A,R3
        MOV     R1,A
        MOV     DPL,R0
        MOV     DPH,R1
        MOVX    A,@DPTR
        MOV     R4,A
        XRL     A,R5
        JNZ     ??shell_getchar_2
//  425 		shellin->cmdline[shellin->edit++] = ascii;
        MOV     DPL,?XSP + 0
        MOV     DPH,?XSP + 1
        MOVX    A,@DPTR
        PUSH    A
          CFI CFA_SP SP+-1
        LCALL   ?Subroutine41
??CrossCallReturnLabel_74:
        MOV     DPL,A
        CLR     A
        ADDC    A,R5
        MOV     DPH,A
        POP     A
          CFI CFA_SP SP+0
        LCALL   ?Subroutine14
??CrossCallReturnLabel_23:
        INC     A
        LCALL   ?Subroutine13
//  426 		shellin->cmdline[++shellin->tail] = 0;
??CrossCallReturnLabel_20:
        INC     A
        MOVX    @DPTR,A
        MOV     R0,A
        MOV     A,R2
        ADD     A,R0
        MOV     R0,A
        CLR     A
        ADDC    A,R3
        LCALL   ?Subroutine3
//  427 		printl(&ascii,1);
??CrossCallReturnLabel_96:
        JNZ     $+5
        LJMP    ??shell_getchar_1
        ; Setup parameters for indirect call
        MOV     R4,#0x1
        MOV     R5,#0x0
        MOV     R2,?XSP + 0
        MOV     R3,?XSP + 1
        LJMP    ??shell_getchar_3
//  428 	}
//  429 	else {
//  430 		/* 其实 else 分支完全可以处理 tail == edit 的情况 */
//  431 		char  printbuf[COMMANDLINE_MAX_LEN*2]={0};
??shell_getchar_2:
        MOV     DPTR,#`?<Constant {0}>_1`
        MOV     A,#0x3
        LCALL   ?XSTACK_DISP102_8
        MOV     A,#0x64
        LCALL   ?MOVE_LONG8_XDATA_XDATA
//  432 		char *tail = &shellin->cmdline[shellin->tail++];
        MOV     DPL,?V0
        MOV     DPH,?V1
        MOVX    A,@DPTR
        MOV     R4,A
        LCALL   ?Subroutine41
??CrossCallReturnLabel_75:
        MOV     R4,A
        JNC     ??shell_getchar_4
        INC     R5
??shell_getchar_4:
        MOVX    A,@DPTR
        INC     A
        LCALL   ?Subroutine14
//  433 		char *edit = &shellin->cmdline[shellin->edit++];
??CrossCallReturnLabel_22:
        MOV     R6,A
        MOV     A,R2
        ADD     A,R6
        MOV     R6,A
        CLR     A
        ADDC    A,R3
        MOV     R7,A
        MOV     A,R6
        ADD     A,#0x38
        MOV     R6,A
        JNC     ??shell_getchar_5
        INC     R7
??shell_getchar_5:
        MOV     A,#0x1
        LCALL   ?XSTACK_DISP0_8
        MOV     A,R6
        MOVX    @DPTR,A
        INC     DPTR
        MOV     A,R7
        LCALL   ?Subroutine14
??CrossCallReturnLabel_24:
        INC     A
        MOVX    @DPTR,A
//  434 		char *print = printbuf + (tail - edit);
        MOV     A,#0x1
        LCALL   ?XSTACK_DISP0_8
        LCALL   ??Subroutine54_0
??CrossCallReturnLabel_101:
        MOV     A,R4
        CLR     C
        SUBB    A,R6
        MOV     R0,A
        MOV     A,R5
        SUBB    A,R7
        MOV     R1,A
        MOV     A,#0x3
        LCALL   ?XSTACK_DISP0_8
        MOV     A,DPL
        ADD     A,R0
        MOV     ?V4,A
        MOV     A,DPH
        ADDC    A,R1
        MOV     ?V5,A
//  435 		char *printend = print + 1;
        MOV     DPL,?V4
        MOV     DPH,A
        INC     DPTR
        MOV     R0,DPL
        MOV     R1,DPH
//  436 
//  437 		/* 当输入过左右箭头时，需要作字符串插入右移处理，并作反馈回显
//  438 		   如 abcd 中在bc插入U，需要右移cd，并打印两个 '\b' 使光标回到 abU 处 */
//  439 		for (char *cp = tail - 1; cp >= edit ; *tail-- = *cp--) {
        MOV     A,R4
        ADD     A,#-0x1
        MOV     ?V2,A
        MOV     A,R5
        ADDC    A,#-0x1
        MOV     ?V3,A
        SJMP    ??shell_getchar_6
//  440 			*print-- = *cp;
??shell_getchar_7:
        MOV     DPL,?V2
        MOV     DPH,?V3
        LCALL   ?Subroutine23
??CrossCallReturnLabel_37:
        MOV     A,?V4
        ADD     A,#-0x1
        MOV     ?V4,A
        MOV     A,?V5
        ADDC    A,#-0x1
        MOV     ?V5,A
//  441 			*printend++ = '\b';
        MOV     DPL,R0
        MOV     DPH,R1
        MOV     A,#0x8
        MOVX    @DPTR,A
        INC     DPTR
        MOV     R0,DPL
        MOV     R1,DPH
//  442 		}
        MOV     DPL,?V2
        MOV     DPH,?V3
        MOVX    A,@DPTR
        MOV     DPL,R4
        MOV     DPH,R5
        MOVX    @DPTR,A
        MOV     A,?V2
        ADD     A,#-0x1
        MOV     ?V2,A
        MOV     A,?V3
        ADDC    A,#-0x1
        MOV     ?V3,A
        MOV     A,R4
        ADD     A,#-0x1
        DEC     R4
        MOV     A,R5
        ADDC    A,#-0x1
        MOV     R5,A
??shell_getchar_6:
        CLR     C
        MOV     A,?V2
        SUBB    A,R6
        MOV     A,?V3
        SUBB    A,R7
        JNC     ??shell_getchar_7
//  443 
//  444 		/* 插入字符 */
//  445 		*print = ascii; 
        MOV     DPL,?XSP + 0
        MOV     DPH,?XSP + 1
        LCALL   ?Subroutine23
//  446 		*edit  = ascii;
??CrossCallReturnLabel_38:
        MOV     DPL,?XSP + 0
        MOV     DPH,?XSP + 1
        MOVX    A,@DPTR
        PUSH    A
          CFI CFA_SP SP+-1
        MOV     A,#0x1
        LCALL   ?XSTACK_DISP0_8
        LCALL   ?Subroutine30
??CrossCallReturnLabel_49:
        POP     A
          CFI CFA_SP SP+0
        LCALL   ?Subroutine13
//  447 		shellin->cmdline[shellin->tail] = 0 ;
??CrossCallReturnLabel_21:
        MOV     R4,A
        MOV     A,R2
        ADD     A,R4
        MOV     R2,A
        CLR     A
        ADDC    A,R3
        MOV     R3,A
        MOV     A,R2
        ADD     A,#0x38
        LCALL   ?Subroutine40
//  448 		printl(printbuf,printend - printbuf);
??CrossCallReturnLabel_70:
        MOV     DPTR,#current_puts
        LCALL   ??Subroutine55_0
??CrossCallReturnLabel_107:
        MOV     A,R2
        ORL     A,R3
        JZ      ??shell_getchar_1
        ; Setup parameters for indirect call
        MOV     A,#0x3
        LCALL   ?XSTACK_DISP101_8
        MOV     ?V0,R2
        MOV     ?V1,R3
        MOV     A,R0
        CLR     C
        SUBB    A,?V0
        MOV     R4,A
        MOV     A,R1
        SUBB    A,?V1
        MOV     R5,A
        MOV     DPTR,#current_puts
        MOVX    A,@DPTR
        MOV     R0,A
        INC     DPTR
//  449 	}
??shell_getchar_3:
        LCALL   ??Subroutine65_0
??CrossCallReturnLabel_143:
        LCALL   ?CALL_IND
//  450 }
??shell_getchar_1:
        MOV     A,#0x67
        LCALL   ?DEALLOC_XSTACK8
          CFI CFA_XSP16 add(XSP16, 14)
        LJMP    ?Subroutine1
          CFI EndBlock cfiBlock57

        RSEG NEAR_CODE:CODE:NOROOT(0)
?Subroutine41:
          CFI Block cfiCond58 Using cfiCommon0
          CFI Function shell_getchar
          CFI Conditional ??CrossCallReturnLabel_74
          CFI R6 load(1, XDATA, add(CFA_XSP16, literal(-14)))
          CFI VB load(1, XDATA, add(CFA_XSP16, literal(-13)))
          CFI V0 load(1, XDATA, add(CFA_XSP16, literal(-12)))
          CFI V1 load(1, XDATA, add(CFA_XSP16, literal(-11)))
          CFI V2 load(1, XDATA, add(CFA_XSP16, literal(-10)))
          CFI V3 load(1, XDATA, add(CFA_XSP16, literal(-9)))
          CFI V4 load(1, XDATA, add(CFA_XSP16, literal(-8)))
          CFI V5 load(1, XDATA, add(CFA_XSP16, literal(-7)))
          CFI V6 load(1, XDATA, add(CFA_XSP16, literal(-6)))
          CFI R7 load(1, XDATA, add(CFA_XSP16, literal(-5)))
          CFI ?RET_LOW load(1, XDATA, add(CFA_XSP16, literal(-4)))
          CFI ?RET_HIGH load(1, XDATA, add(CFA_XSP16, literal(-3)))
          CFI DPL0 load(1, XDATA, add(CFA_XSP16, literal(-2)))
          CFI DPH0 load(1, XDATA, add(CFA_XSP16, literal(-1)))
          CFI CFA_SP SP+-3
          CFI CFA_XSP16 add(XSP16, 117)
          CFI Block cfiCond59 Using cfiCommon0
          CFI (cfiCond59) Function shell_getchar
          CFI (cfiCond59) Conditional ??CrossCallReturnLabel_75
          CFI (cfiCond59) R6 load(1, XDATA, add(CFA_XSP16, literal(-14)))
          CFI (cfiCond59) VB load(1, XDATA, add(CFA_XSP16, literal(-13)))
          CFI (cfiCond59) V0 load(1, XDATA, add(CFA_XSP16, literal(-12)))
          CFI (cfiCond59) V1 load(1, XDATA, add(CFA_XSP16, literal(-11)))
          CFI (cfiCond59) V2 load(1, XDATA, add(CFA_XSP16, literal(-10)))
          CFI (cfiCond59) V3 load(1, XDATA, add(CFA_XSP16, literal(-9)))
          CFI (cfiCond59) V4 load(1, XDATA, add(CFA_XSP16, literal(-8)))
          CFI (cfiCond59) V5 load(1, XDATA, add(CFA_XSP16, literal(-7)))
          CFI (cfiCond59) V6 load(1, XDATA, add(CFA_XSP16, literal(-6)))
          CFI (cfiCond59) R7 load(1, XDATA, add(CFA_XSP16, literal(-5)))
          CFI (cfiCond59) ?RET_LOW load(1, XDATA, add(CFA_XSP16, literal(-4)))
          CFI (cfiCond59) ?RET_HIGH load(1, XDATA, add(CFA_XSP16, literal(-3)))
          CFI (cfiCond59) DPL0 load(1, XDATA, add(CFA_XSP16, literal(-2)))
          CFI (cfiCond59) DPH0 load(1, XDATA, add(CFA_XSP16, literal(-1)))
          CFI (cfiCond59) CFA_XSP16 add(XSP16, 117)
          CFI Block cfiPicker60 Using cfiCommon1
          CFI (cfiPicker60) NoFunction
          CFI (cfiPicker60) Picker
        MOV     A,R2
        ADD     A,R4
        MOV     R4,A
        CLR     A
        ADDC    A,R3
        MOV     R5,A
        MOV     A,R4
        ADD     A,#0x38
        RET
          CFI EndBlock cfiCond58
          CFI EndBlock cfiCond59
          CFI EndBlock cfiPicker60

        RSEG NEAR_CODE:CODE:NOROOT(0)
?Subroutine24:
          CFI Block cfiCond61 Using cfiCommon0
          CFI Function checkout
          CFI Conditional ??CrossCallReturnLabel_103
          CFI R6 load(1, XDATA, add(CFA_XSP16, literal(-15)))
          CFI VB load(1, XDATA, add(CFA_XSP16, literal(-14)))
          CFI V0 load(1, XDATA, add(CFA_XSP16, literal(-13)))
          CFI V1 load(1, XDATA, add(CFA_XSP16, literal(-12)))
          CFI V2 load(1, XDATA, add(CFA_XSP16, literal(-11)))
          CFI V3 load(1, XDATA, add(CFA_XSP16, literal(-10)))
          CFI V4 load(1, XDATA, add(CFA_XSP16, literal(-9)))
          CFI V5 load(1, XDATA, add(CFA_XSP16, literal(-8)))
          CFI V6 load(1, XDATA, add(CFA_XSP16, literal(-7)))
          CFI V7 load(1, XDATA, add(CFA_XSP16, literal(-6)))
          CFI R7 load(1, XDATA, add(CFA_XSP16, literal(-5)))
          CFI ?RET_LOW load(1, XDATA, add(CFA_XSP16, literal(-4)))
          CFI ?RET_HIGH load(1, XDATA, add(CFA_XSP16, literal(-3)))
          CFI DPL0 load(1, XDATA, add(CFA_XSP16, literal(-2)))
          CFI DPH0 load(1, XDATA, add(CFA_XSP16, literal(-1)))
          CFI CFA_XSP16 add(XSP16, 27)
          CFI Block cfiCond62 Using cfiCommon0
          CFI (cfiCond62) Function checkout
          CFI (cfiCond62) Conditional ??CrossCallReturnLabel_104
          CFI (cfiCond62) R6 load(1, XDATA, add(CFA_XSP16, literal(-15)))
          CFI (cfiCond62) VB load(1, XDATA, add(CFA_XSP16, literal(-14)))
          CFI (cfiCond62) V0 load(1, XDATA, add(CFA_XSP16, literal(-13)))
          CFI (cfiCond62) V1 load(1, XDATA, add(CFA_XSP16, literal(-12)))
          CFI (cfiCond62) V2 load(1, XDATA, add(CFA_XSP16, literal(-11)))
          CFI (cfiCond62) V3 load(1, XDATA, add(CFA_XSP16, literal(-10)))
          CFI (cfiCond62) V4 load(1, XDATA, add(CFA_XSP16, literal(-9)))
          CFI (cfiCond62) V5 load(1, XDATA, add(CFA_XSP16, literal(-8)))
          CFI (cfiCond62) V6 load(1, XDATA, add(CFA_XSP16, literal(-7)))
          CFI (cfiCond62) V7 load(1, XDATA, add(CFA_XSP16, literal(-6)))
          CFI (cfiCond62) R7 load(1, XDATA, add(CFA_XSP16, literal(-5)))
          CFI (cfiCond62) ?RET_LOW load(1, XDATA, add(CFA_XSP16, literal(-4)))
          CFI (cfiCond62) ?RET_HIGH load(1, XDATA, add(CFA_XSP16, literal(-3)))
          CFI (cfiCond62) DPL0 load(1, XDATA, add(CFA_XSP16, literal(-2)))
          CFI (cfiCond62) DPH0 load(1, XDATA, add(CFA_XSP16, literal(-1)))
          CFI (cfiCond62) CFA_XSP16 add(XSP16, 27)
          CFI Block cfiPicker63 Using cfiCommon1
          CFI (cfiPicker63) NoFunction
          CFI (cfiPicker63) Picker
        MOV     DPL,R6
        MOV     DPH,R7
          CFI EndBlock cfiCond61
          CFI EndBlock cfiCond62
          CFI EndBlock cfiPicker63
        REQUIRE ??Subroutine54_0
        ; // Fall through to label ??Subroutine54_0

        RSEG NEAR_CODE:CODE:NOROOT(0)
??Subroutine54_0:
          CFI Block cfiCond64 Using cfiCommon0
          CFI Function checkout
          CFI Conditional ??CrossCallReturnLabel_100
          CFI R6 load(1, XDATA, add(CFA_XSP16, literal(-15)))
          CFI VB load(1, XDATA, add(CFA_XSP16, literal(-14)))
          CFI V0 load(1, XDATA, add(CFA_XSP16, literal(-13)))
          CFI V1 load(1, XDATA, add(CFA_XSP16, literal(-12)))
          CFI V2 load(1, XDATA, add(CFA_XSP16, literal(-11)))
          CFI V3 load(1, XDATA, add(CFA_XSP16, literal(-10)))
          CFI V4 load(1, XDATA, add(CFA_XSP16, literal(-9)))
          CFI V5 load(1, XDATA, add(CFA_XSP16, literal(-8)))
          CFI V6 load(1, XDATA, add(CFA_XSP16, literal(-7)))
          CFI V7 load(1, XDATA, add(CFA_XSP16, literal(-6)))
          CFI R7 load(1, XDATA, add(CFA_XSP16, literal(-5)))
          CFI ?RET_LOW load(1, XDATA, add(CFA_XSP16, literal(-4)))
          CFI ?RET_HIGH load(1, XDATA, add(CFA_XSP16, literal(-3)))
          CFI DPL0 load(1, XDATA, add(CFA_XSP16, literal(-2)))
          CFI DPH0 load(1, XDATA, add(CFA_XSP16, literal(-1)))
          CFI CFA_XSP16 add(XSP16, 27)
          CFI Block cfiCond65 Using cfiCommon0
          CFI (cfiCond65) Function shell_getchar
          CFI (cfiCond65) Conditional ??CrossCallReturnLabel_101
          CFI (cfiCond65) R6 load(1, XDATA, add(CFA_XSP16, literal(-14)))
          CFI (cfiCond65) VB load(1, XDATA, add(CFA_XSP16, literal(-13)))
          CFI (cfiCond65) V0 load(1, XDATA, add(CFA_XSP16, literal(-12)))
          CFI (cfiCond65) V1 load(1, XDATA, add(CFA_XSP16, literal(-11)))
          CFI (cfiCond65) V2 load(1, XDATA, add(CFA_XSP16, literal(-10)))
          CFI (cfiCond65) V3 load(1, XDATA, add(CFA_XSP16, literal(-9)))
          CFI (cfiCond65) V4 load(1, XDATA, add(CFA_XSP16, literal(-8)))
          CFI (cfiCond65) V5 load(1, XDATA, add(CFA_XSP16, literal(-7)))
          CFI (cfiCond65) V6 load(1, XDATA, add(CFA_XSP16, literal(-6)))
          CFI (cfiCond65) R7 load(1, XDATA, add(CFA_XSP16, literal(-5)))
          CFI (cfiCond65) ?RET_LOW load(1, XDATA, add(CFA_XSP16, literal(-4)))
          CFI (cfiCond65) ?RET_HIGH load(1, XDATA, add(CFA_XSP16, literal(-3)))
          CFI (cfiCond65) DPL0 load(1, XDATA, add(CFA_XSP16, literal(-2)))
          CFI (cfiCond65) DPH0 load(1, XDATA, add(CFA_XSP16, literal(-1)))
          CFI (cfiCond65) CFA_XSP16 add(XSP16, 117)
          CFI Block cfiCond66 Using cfiCommon0
          CFI (cfiCond66) Function shell_list_cmd
          CFI (cfiCond66) Conditional ??CrossCallReturnLabel_102
          CFI (cfiCond66) R6 load(1, XDATA, add(CFA_XSP16, literal(-15)))
          CFI (cfiCond66) VB load(1, XDATA, add(CFA_XSP16, literal(-14)))
          CFI (cfiCond66) V0 load(1, XDATA, add(CFA_XSP16, literal(-13)))
          CFI (cfiCond66) V1 load(1, XDATA, add(CFA_XSP16, literal(-12)))
          CFI (cfiCond66) V2 load(1, XDATA, add(CFA_XSP16, literal(-11)))
          CFI (cfiCond66) V3 load(1, XDATA, add(CFA_XSP16, literal(-10)))
          CFI (cfiCond66) V4 load(1, XDATA, add(CFA_XSP16, literal(-9)))
          CFI (cfiCond66) V5 load(1, XDATA, add(CFA_XSP16, literal(-8)))
          CFI (cfiCond66) V6 load(1, XDATA, add(CFA_XSP16, literal(-7)))
          CFI (cfiCond66) V7 load(1, XDATA, add(CFA_XSP16, literal(-6)))
          CFI (cfiCond66) R7 load(1, XDATA, add(CFA_XSP16, literal(-5)))
          CFI (cfiCond66) ?RET_LOW load(1, XDATA, add(CFA_XSP16, literal(-4)))
          CFI (cfiCond66) ?RET_HIGH load(1, XDATA, add(CFA_XSP16, literal(-3)))
          CFI (cfiCond66) DPL0 load(1, XDATA, add(CFA_XSP16, literal(-2)))
          CFI (cfiCond66) DPH0 load(1, XDATA, add(CFA_XSP16, literal(-1)))
          CFI (cfiCond66) CFA_XSP16 add(XSP16, 17)
          CFI Block cfiCond67 Using cfiCommon0
          CFI (cfiCond67) Function checkout
          CFI (cfiCond67) Conditional ??CrossCallReturnLabel_103
          CFI (cfiCond67) R6 load(1, XDATA, add(CFA_XSP16, literal(-15)))
          CFI (cfiCond67) VB load(1, XDATA, add(CFA_XSP16, literal(-14)))
          CFI (cfiCond67) V0 load(1, XDATA, add(CFA_XSP16, literal(-13)))
          CFI (cfiCond67) V1 load(1, XDATA, add(CFA_XSP16, literal(-12)))
          CFI (cfiCond67) V2 load(1, XDATA, add(CFA_XSP16, literal(-11)))
          CFI (cfiCond67) V3 load(1, XDATA, add(CFA_XSP16, literal(-10)))
          CFI (cfiCond67) V4 load(1, XDATA, add(CFA_XSP16, literal(-9)))
          CFI (cfiCond67) V5 load(1, XDATA, add(CFA_XSP16, literal(-8)))
          CFI (cfiCond67) V6 load(1, XDATA, add(CFA_XSP16, literal(-7)))
          CFI (cfiCond67) V7 load(1, XDATA, add(CFA_XSP16, literal(-6)))
          CFI (cfiCond67) R7 load(1, XDATA, add(CFA_XSP16, literal(-5)))
          CFI (cfiCond67) ?RET_LOW load(1, XDATA, add(CFA_XSP16, literal(-4)))
          CFI (cfiCond67) ?RET_HIGH load(1, XDATA, add(CFA_XSP16, literal(-3)))
          CFI (cfiCond67) DPL0 load(1, XDATA, add(CFA_XSP16, literal(-2)))
          CFI (cfiCond67) DPH0 load(1, XDATA, add(CFA_XSP16, literal(-1)))
          CFI (cfiCond67) CFA_XSP16 add(XSP16, 27)
          CFI Block cfiCond68 Using cfiCommon0
          CFI (cfiCond68) Function checkout
          CFI (cfiCond68) Conditional ??CrossCallReturnLabel_104
          CFI (cfiCond68) R6 load(1, XDATA, add(CFA_XSP16, literal(-15)))
          CFI (cfiCond68) VB load(1, XDATA, add(CFA_XSP16, literal(-14)))
          CFI (cfiCond68) V0 load(1, XDATA, add(CFA_XSP16, literal(-13)))
          CFI (cfiCond68) V1 load(1, XDATA, add(CFA_XSP16, literal(-12)))
          CFI (cfiCond68) V2 load(1, XDATA, add(CFA_XSP16, literal(-11)))
          CFI (cfiCond68) V3 load(1, XDATA, add(CFA_XSP16, literal(-10)))
          CFI (cfiCond68) V4 load(1, XDATA, add(CFA_XSP16, literal(-9)))
          CFI (cfiCond68) V5 load(1, XDATA, add(CFA_XSP16, literal(-8)))
          CFI (cfiCond68) V6 load(1, XDATA, add(CFA_XSP16, literal(-7)))
          CFI (cfiCond68) V7 load(1, XDATA, add(CFA_XSP16, literal(-6)))
          CFI (cfiCond68) R7 load(1, XDATA, add(CFA_XSP16, literal(-5)))
          CFI (cfiCond68) ?RET_LOW load(1, XDATA, add(CFA_XSP16, literal(-4)))
          CFI (cfiCond68) ?RET_HIGH load(1, XDATA, add(CFA_XSP16, literal(-3)))
          CFI (cfiCond68) DPL0 load(1, XDATA, add(CFA_XSP16, literal(-2)))
          CFI (cfiCond68) DPH0 load(1, XDATA, add(CFA_XSP16, literal(-1)))
          CFI (cfiCond68) CFA_XSP16 add(XSP16, 27)
          CFI Block cfiPicker69 Using cfiCommon1
          CFI (cfiPicker69) NoFunction
          CFI (cfiPicker69) Picker
        MOVX    A,@DPTR
        MOV     R6,A
        INC     DPTR
        MOVX    A,@DPTR
        MOV     R7,A
        RET
          CFI EndBlock cfiCond64
          CFI EndBlock cfiCond65
          CFI EndBlock cfiCond66
          CFI EndBlock cfiCond67
          CFI EndBlock cfiCond68
          CFI EndBlock cfiPicker69

        RSEG NEAR_CODE:CODE:NOROOT(0)
?Subroutine23:
          CFI Block cfiCond70 Using cfiCommon0
          CFI Function shell_backspace
          CFI Conditional ??CrossCallReturnLabel_36
          CFI R6 load(1, XDATA, add(CFA_XSP16, literal(-15)))
          CFI VB load(1, XDATA, add(CFA_XSP16, literal(-14)))
          CFI V0 load(1, XDATA, add(CFA_XSP16, literal(-13)))
          CFI V1 load(1, XDATA, add(CFA_XSP16, literal(-12)))
          CFI V2 load(1, XDATA, add(CFA_XSP16, literal(-11)))
          CFI V3 load(1, XDATA, add(CFA_XSP16, literal(-10)))
          CFI V4 load(1, XDATA, add(CFA_XSP16, literal(-9)))
          CFI V5 load(1, XDATA, add(CFA_XSP16, literal(-8)))
          CFI V6 load(1, XDATA, add(CFA_XSP16, literal(-7)))
          CFI V7 load(1, XDATA, add(CFA_XSP16, literal(-6)))
          CFI R7 load(1, XDATA, add(CFA_XSP16, literal(-5)))
          CFI ?RET_LOW load(1, XDATA, add(CFA_XSP16, literal(-4)))
          CFI ?RET_HIGH load(1, XDATA, add(CFA_XSP16, literal(-3)))
          CFI DPL0 load(1, XDATA, add(CFA_XSP16, literal(-2)))
          CFI DPH0 load(1, XDATA, add(CFA_XSP16, literal(-1)))
          CFI CFA_XSP16 add(XSP16, 117)
          CFI Block cfiCond71 Using cfiCommon0
          CFI (cfiCond71) Function shell_getchar
          CFI (cfiCond71) Conditional ??CrossCallReturnLabel_37
          CFI (cfiCond71) R6 load(1, XDATA, add(CFA_XSP16, literal(-14)))
          CFI (cfiCond71) VB load(1, XDATA, add(CFA_XSP16, literal(-13)))
          CFI (cfiCond71) V0 load(1, XDATA, add(CFA_XSP16, literal(-12)))
          CFI (cfiCond71) V1 load(1, XDATA, add(CFA_XSP16, literal(-11)))
          CFI (cfiCond71) V2 load(1, XDATA, add(CFA_XSP16, literal(-10)))
          CFI (cfiCond71) V3 load(1, XDATA, add(CFA_XSP16, literal(-9)))
          CFI (cfiCond71) V4 load(1, XDATA, add(CFA_XSP16, literal(-8)))
          CFI (cfiCond71) V5 load(1, XDATA, add(CFA_XSP16, literal(-7)))
          CFI (cfiCond71) V6 load(1, XDATA, add(CFA_XSP16, literal(-6)))
          CFI (cfiCond71) R7 load(1, XDATA, add(CFA_XSP16, literal(-5)))
          CFI (cfiCond71) ?RET_LOW load(1, XDATA, add(CFA_XSP16, literal(-4)))
          CFI (cfiCond71) ?RET_HIGH load(1, XDATA, add(CFA_XSP16, literal(-3)))
          CFI (cfiCond71) DPL0 load(1, XDATA, add(CFA_XSP16, literal(-2)))
          CFI (cfiCond71) DPH0 load(1, XDATA, add(CFA_XSP16, literal(-1)))
          CFI (cfiCond71) CFA_XSP16 add(XSP16, 117)
          CFI Block cfiCond72 Using cfiCommon0
          CFI (cfiCond72) Function shell_getchar
          CFI (cfiCond72) Conditional ??CrossCallReturnLabel_38
          CFI (cfiCond72) R6 load(1, XDATA, add(CFA_XSP16, literal(-14)))
          CFI (cfiCond72) VB load(1, XDATA, add(CFA_XSP16, literal(-13)))
          CFI (cfiCond72) V0 load(1, XDATA, add(CFA_XSP16, literal(-12)))
          CFI (cfiCond72) V1 load(1, XDATA, add(CFA_XSP16, literal(-11)))
          CFI (cfiCond72) V2 load(1, XDATA, add(CFA_XSP16, literal(-10)))
          CFI (cfiCond72) V3 load(1, XDATA, add(CFA_XSP16, literal(-9)))
          CFI (cfiCond72) V4 load(1, XDATA, add(CFA_XSP16, literal(-8)))
          CFI (cfiCond72) V5 load(1, XDATA, add(CFA_XSP16, literal(-7)))
          CFI (cfiCond72) V6 load(1, XDATA, add(CFA_XSP16, literal(-6)))
          CFI (cfiCond72) R7 load(1, XDATA, add(CFA_XSP16, literal(-5)))
          CFI (cfiCond72) ?RET_LOW load(1, XDATA, add(CFA_XSP16, literal(-4)))
          CFI (cfiCond72) ?RET_HIGH load(1, XDATA, add(CFA_XSP16, literal(-3)))
          CFI (cfiCond72) DPL0 load(1, XDATA, add(CFA_XSP16, literal(-2)))
          CFI (cfiCond72) DPH0 load(1, XDATA, add(CFA_XSP16, literal(-1)))
          CFI (cfiCond72) CFA_XSP16 add(XSP16, 117)
          CFI Block cfiPicker73 Using cfiCommon1
          CFI (cfiPicker73) NoFunction
          CFI (cfiPicker73) Picker
        MOVX    A,@DPTR
        MOV     DPL,?V4
        MOV     DPH,?V5
        MOVX    @DPTR,A
        RET
          CFI EndBlock cfiCond70
          CFI EndBlock cfiCond71
          CFI EndBlock cfiCond72
          CFI EndBlock cfiPicker73

        RSEG NEAR_CODE:CODE:NOROOT(0)
?Subroutine17:
          CFI Block cfiCond74 Using cfiCommon0
          CFI Function shell_tab
          CFI Conditional ??CrossCallReturnLabel_112
          CFI R6 load(1, XDATA, add(CFA_XSP16, literal(-15)))
          CFI VB load(1, XDATA, add(CFA_XSP16, literal(-14)))
          CFI V0 load(1, XDATA, add(CFA_XSP16, literal(-13)))
          CFI V1 load(1, XDATA, add(CFA_XSP16, literal(-12)))
          CFI V2 load(1, XDATA, add(CFA_XSP16, literal(-11)))
          CFI V3 load(1, XDATA, add(CFA_XSP16, literal(-10)))
          CFI V4 load(1, XDATA, add(CFA_XSP16, literal(-9)))
          CFI V5 load(1, XDATA, add(CFA_XSP16, literal(-8)))
          CFI V6 load(1, XDATA, add(CFA_XSP16, literal(-7)))
          CFI V7 load(1, XDATA, add(CFA_XSP16, literal(-6)))
          CFI R7 load(1, XDATA, add(CFA_XSP16, literal(-5)))
          CFI ?RET_LOW load(1, XDATA, add(CFA_XSP16, literal(-4)))
          CFI ?RET_HIGH load(1, XDATA, add(CFA_XSP16, literal(-3)))
          CFI DPL0 load(1, XDATA, add(CFA_XSP16, literal(-2)))
          CFI DPH0 load(1, XDATA, add(CFA_XSP16, literal(-1)))
          CFI CFA_XSP16 add(XSP16, 45)
          CFI Block cfiCond75 Using cfiCommon0
          CFI (cfiCond75) Function shell_tab
          CFI (cfiCond75) Conditional ??CrossCallReturnLabel_113
          CFI (cfiCond75) R6 load(1, XDATA, add(CFA_XSP16, literal(-15)))
          CFI (cfiCond75) VB load(1, XDATA, add(CFA_XSP16, literal(-14)))
          CFI (cfiCond75) V0 load(1, XDATA, add(CFA_XSP16, literal(-13)))
          CFI (cfiCond75) V1 load(1, XDATA, add(CFA_XSP16, literal(-12)))
          CFI (cfiCond75) V2 load(1, XDATA, add(CFA_XSP16, literal(-11)))
          CFI (cfiCond75) V3 load(1, XDATA, add(CFA_XSP16, literal(-10)))
          CFI (cfiCond75) V4 load(1, XDATA, add(CFA_XSP16, literal(-9)))
          CFI (cfiCond75) V5 load(1, XDATA, add(CFA_XSP16, literal(-8)))
          CFI (cfiCond75) V6 load(1, XDATA, add(CFA_XSP16, literal(-7)))
          CFI (cfiCond75) V7 load(1, XDATA, add(CFA_XSP16, literal(-6)))
          CFI (cfiCond75) R7 load(1, XDATA, add(CFA_XSP16, literal(-5)))
          CFI (cfiCond75) ?RET_LOW load(1, XDATA, add(CFA_XSP16, literal(-4)))
          CFI (cfiCond75) ?RET_HIGH load(1, XDATA, add(CFA_XSP16, literal(-3)))
          CFI (cfiCond75) DPL0 load(1, XDATA, add(CFA_XSP16, literal(-2)))
          CFI (cfiCond75) DPH0 load(1, XDATA, add(CFA_XSP16, literal(-1)))
          CFI (cfiCond75) CFA_XSP16 add(XSP16, 45)
          CFI Block cfiCond76 Using cfiCommon0
          CFI (cfiCond76) Function shell_tab
          CFI (cfiCond76) Conditional ??CrossCallReturnLabel_114
          CFI (cfiCond76) R6 load(1, XDATA, add(CFA_XSP16, literal(-15)))
          CFI (cfiCond76) VB load(1, XDATA, add(CFA_XSP16, literal(-14)))
          CFI (cfiCond76) V0 load(1, XDATA, add(CFA_XSP16, literal(-13)))
          CFI (cfiCond76) V1 load(1, XDATA, add(CFA_XSP16, literal(-12)))
          CFI (cfiCond76) V2 load(1, XDATA, add(CFA_XSP16, literal(-11)))
          CFI (cfiCond76) V3 load(1, XDATA, add(CFA_XSP16, literal(-10)))
          CFI (cfiCond76) V4 load(1, XDATA, add(CFA_XSP16, literal(-9)))
          CFI (cfiCond76) V5 load(1, XDATA, add(CFA_XSP16, literal(-8)))
          CFI (cfiCond76) V6 load(1, XDATA, add(CFA_XSP16, literal(-7)))
          CFI (cfiCond76) V7 load(1, XDATA, add(CFA_XSP16, literal(-6)))
          CFI (cfiCond76) R7 load(1, XDATA, add(CFA_XSP16, literal(-5)))
          CFI (cfiCond76) ?RET_LOW load(1, XDATA, add(CFA_XSP16, literal(-4)))
          CFI (cfiCond76) ?RET_HIGH load(1, XDATA, add(CFA_XSP16, literal(-3)))
          CFI (cfiCond76) DPL0 load(1, XDATA, add(CFA_XSP16, literal(-2)))
          CFI (cfiCond76) DPH0 load(1, XDATA, add(CFA_XSP16, literal(-1)))
          CFI (cfiCond76) CFA_XSP16 add(XSP16, 45)
          CFI Block cfiPicker77 Using cfiCommon1
          CFI (cfiPicker77) NoFunction
          CFI (cfiPicker77) Picker
        MOV     DPL,?XSP + 0
        MOV     DPH,?XSP + 1
          CFI EndBlock cfiCond74
          CFI EndBlock cfiCond75
          CFI EndBlock cfiCond76
          CFI EndBlock cfiPicker77
        REQUIRE ??Subroutine55_0
        ; // Fall through to label ??Subroutine55_0

        RSEG NEAR_CODE:CODE:NOROOT(0)
??Subroutine55_0:
          CFI Block cfiCond78 Using cfiCommon0
          CFI Function checkout
          CFI Conditional ??CrossCallReturnLabel_105
          CFI R6 load(1, XDATA, add(CFA_XSP16, literal(-15)))
          CFI VB load(1, XDATA, add(CFA_XSP16, literal(-14)))
          CFI V0 load(1, XDATA, add(CFA_XSP16, literal(-13)))
          CFI V1 load(1, XDATA, add(CFA_XSP16, literal(-12)))
          CFI V2 load(1, XDATA, add(CFA_XSP16, literal(-11)))
          CFI V3 load(1, XDATA, add(CFA_XSP16, literal(-10)))
          CFI V4 load(1, XDATA, add(CFA_XSP16, literal(-9)))
          CFI V5 load(1, XDATA, add(CFA_XSP16, literal(-8)))
          CFI V6 load(1, XDATA, add(CFA_XSP16, literal(-7)))
          CFI V7 load(1, XDATA, add(CFA_XSP16, literal(-6)))
          CFI R7 load(1, XDATA, add(CFA_XSP16, literal(-5)))
          CFI ?RET_LOW load(1, XDATA, add(CFA_XSP16, literal(-4)))
          CFI ?RET_HIGH load(1, XDATA, add(CFA_XSP16, literal(-3)))
          CFI DPL0 load(1, XDATA, add(CFA_XSP16, literal(-2)))
          CFI DPH0 load(1, XDATA, add(CFA_XSP16, literal(-1)))
          CFI CFA_XSP16 add(XSP16, 29)
          CFI Block cfiCond79 Using cfiCommon0
          CFI (cfiCond79) Function shell_tab
          CFI (cfiCond79) Conditional ??CrossCallReturnLabel_106
          CFI (cfiCond79) R6 load(1, XDATA, add(CFA_XSP16, literal(-15)))
          CFI (cfiCond79) VB load(1, XDATA, add(CFA_XSP16, literal(-14)))
          CFI (cfiCond79) V0 load(1, XDATA, add(CFA_XSP16, literal(-13)))
          CFI (cfiCond79) V1 load(1, XDATA, add(CFA_XSP16, literal(-12)))
          CFI (cfiCond79) V2 load(1, XDATA, add(CFA_XSP16, literal(-11)))
          CFI (cfiCond79) V3 load(1, XDATA, add(CFA_XSP16, literal(-10)))
          CFI (cfiCond79) V4 load(1, XDATA, add(CFA_XSP16, literal(-9)))
          CFI (cfiCond79) V5 load(1, XDATA, add(CFA_XSP16, literal(-8)))
          CFI (cfiCond79) V6 load(1, XDATA, add(CFA_XSP16, literal(-7)))
          CFI (cfiCond79) V7 load(1, XDATA, add(CFA_XSP16, literal(-6)))
          CFI (cfiCond79) R7 load(1, XDATA, add(CFA_XSP16, literal(-5)))
          CFI (cfiCond79) ?RET_LOW load(1, XDATA, add(CFA_XSP16, literal(-4)))
          CFI (cfiCond79) ?RET_HIGH load(1, XDATA, add(CFA_XSP16, literal(-3)))
          CFI (cfiCond79) DPL0 load(1, XDATA, add(CFA_XSP16, literal(-2)))
          CFI (cfiCond79) DPH0 load(1, XDATA, add(CFA_XSP16, literal(-1)))
          CFI (cfiCond79) CFA_XSP16 add(XSP16, 45)
          CFI Block cfiCond80 Using cfiCommon0
          CFI (cfiCond80) Function shell_getchar
          CFI (cfiCond80) Conditional ??CrossCallReturnLabel_107
          CFI (cfiCond80) R6 load(1, XDATA, add(CFA_XSP16, literal(-14)))
          CFI (cfiCond80) VB load(1, XDATA, add(CFA_XSP16, literal(-13)))
          CFI (cfiCond80) V0 load(1, XDATA, add(CFA_XSP16, literal(-12)))
          CFI (cfiCond80) V1 load(1, XDATA, add(CFA_XSP16, literal(-11)))
          CFI (cfiCond80) V2 load(1, XDATA, add(CFA_XSP16, literal(-10)))
          CFI (cfiCond80) V3 load(1, XDATA, add(CFA_XSP16, literal(-9)))
          CFI (cfiCond80) V4 load(1, XDATA, add(CFA_XSP16, literal(-8)))
          CFI (cfiCond80) V5 load(1, XDATA, add(CFA_XSP16, literal(-7)))
          CFI (cfiCond80) V6 load(1, XDATA, add(CFA_XSP16, literal(-6)))
          CFI (cfiCond80) R7 load(1, XDATA, add(CFA_XSP16, literal(-5)))
          CFI (cfiCond80) ?RET_LOW load(1, XDATA, add(CFA_XSP16, literal(-4)))
          CFI (cfiCond80) ?RET_HIGH load(1, XDATA, add(CFA_XSP16, literal(-3)))
          CFI (cfiCond80) DPL0 load(1, XDATA, add(CFA_XSP16, literal(-2)))
          CFI (cfiCond80) DPH0 load(1, XDATA, add(CFA_XSP16, literal(-1)))
          CFI (cfiCond80) CFA_XSP16 add(XSP16, 117)
          CFI Block cfiCond81 Using cfiCommon0
          CFI (cfiCond81) Function shell_parse
          CFI (cfiCond81) Conditional ??CrossCallReturnLabel_108
          CFI (cfiCond81) R6 load(1, XDATA, add(CFA_XSP16, literal(-15)))
          CFI (cfiCond81) VB load(1, XDATA, add(CFA_XSP16, literal(-14)))
          CFI (cfiCond81) V0 load(1, XDATA, add(CFA_XSP16, literal(-13)))
          CFI (cfiCond81) V1 load(1, XDATA, add(CFA_XSP16, literal(-12)))
          CFI (cfiCond81) V2 load(1, XDATA, add(CFA_XSP16, literal(-11)))
          CFI (cfiCond81) V3 load(1, XDATA, add(CFA_XSP16, literal(-10)))
          CFI (cfiCond81) V4 load(1, XDATA, add(CFA_XSP16, literal(-9)))
          CFI (cfiCond81) V5 load(1, XDATA, add(CFA_XSP16, literal(-8)))
          CFI (cfiCond81) V6 load(1, XDATA, add(CFA_XSP16, literal(-7)))
          CFI (cfiCond81) V7 load(1, XDATA, add(CFA_XSP16, literal(-6)))
          CFI (cfiCond81) R7 load(1, XDATA, add(CFA_XSP16, literal(-5)))
          CFI (cfiCond81) ?RET_LOW load(1, XDATA, add(CFA_XSP16, literal(-4)))
          CFI (cfiCond81) ?RET_HIGH load(1, XDATA, add(CFA_XSP16, literal(-3)))
          CFI (cfiCond81) DPL0 load(1, XDATA, add(CFA_XSP16, literal(-2)))
          CFI (cfiCond81) DPH0 load(1, XDATA, add(CFA_XSP16, literal(-1)))
          CFI (cfiCond81) CFA_XSP16 add(XSP16, 43)
          CFI Block cfiCond82 Using cfiCommon0
          CFI (cfiCond82) Function shell_parse
          CFI (cfiCond82) Conditional ??CrossCallReturnLabel_109
          CFI (cfiCond82) R6 load(1, XDATA, add(CFA_XSP16, literal(-15)))
          CFI (cfiCond82) VB load(1, XDATA, add(CFA_XSP16, literal(-14)))
          CFI (cfiCond82) V0 load(1, XDATA, add(CFA_XSP16, literal(-13)))
          CFI (cfiCond82) V1 load(1, XDATA, add(CFA_XSP16, literal(-12)))
          CFI (cfiCond82) V2 load(1, XDATA, add(CFA_XSP16, literal(-11)))
          CFI (cfiCond82) V3 load(1, XDATA, add(CFA_XSP16, literal(-10)))
          CFI (cfiCond82) V4 load(1, XDATA, add(CFA_XSP16, literal(-9)))
          CFI (cfiCond82) V5 load(1, XDATA, add(CFA_XSP16, literal(-8)))
          CFI (cfiCond82) V6 load(1, XDATA, add(CFA_XSP16, literal(-7)))
          CFI (cfiCond82) V7 load(1, XDATA, add(CFA_XSP16, literal(-6)))
          CFI (cfiCond82) R7 load(1, XDATA, add(CFA_XSP16, literal(-5)))
          CFI (cfiCond82) ?RET_LOW load(1, XDATA, add(CFA_XSP16, literal(-4)))
          CFI (cfiCond82) ?RET_HIGH load(1, XDATA, add(CFA_XSP16, literal(-3)))
          CFI (cfiCond82) DPL0 load(1, XDATA, add(CFA_XSP16, literal(-2)))
          CFI (cfiCond82) DPH0 load(1, XDATA, add(CFA_XSP16, literal(-1)))
          CFI (cfiCond82) CFA_XSP16 add(XSP16, 45)
          CFI Block cfiCond83 Using cfiCommon0
          CFI (cfiCond83) Function shell_parse
          CFI (cfiCond83) Conditional ??CrossCallReturnLabel_110
          CFI (cfiCond83) R6 load(1, XDATA, add(CFA_XSP16, literal(-15)))
          CFI (cfiCond83) VB load(1, XDATA, add(CFA_XSP16, literal(-14)))
          CFI (cfiCond83) V0 load(1, XDATA, add(CFA_XSP16, literal(-13)))
          CFI (cfiCond83) V1 load(1, XDATA, add(CFA_XSP16, literal(-12)))
          CFI (cfiCond83) V2 load(1, XDATA, add(CFA_XSP16, literal(-11)))
          CFI (cfiCond83) V3 load(1, XDATA, add(CFA_XSP16, literal(-10)))
          CFI (cfiCond83) V4 load(1, XDATA, add(CFA_XSP16, literal(-9)))
          CFI (cfiCond83) V5 load(1, XDATA, add(CFA_XSP16, literal(-8)))
          CFI (cfiCond83) V6 load(1, XDATA, add(CFA_XSP16, literal(-7)))
          CFI (cfiCond83) V7 load(1, XDATA, add(CFA_XSP16, literal(-6)))
          CFI (cfiCond83) R7 load(1, XDATA, add(CFA_XSP16, literal(-5)))
          CFI (cfiCond83) ?RET_LOW load(1, XDATA, add(CFA_XSP16, literal(-4)))
          CFI (cfiCond83) ?RET_HIGH load(1, XDATA, add(CFA_XSP16, literal(-3)))
          CFI (cfiCond83) DPL0 load(1, XDATA, add(CFA_XSP16, literal(-2)))
          CFI (cfiCond83) DPH0 load(1, XDATA, add(CFA_XSP16, literal(-1)))
          CFI (cfiCond83) CFA_XSP16 add(XSP16, 43)
          CFI Block cfiCond84 Using cfiCommon0
          CFI (cfiCond84) Function cmdline_gets
          CFI (cfiCond84) Conditional ??CrossCallReturnLabel_111
          CFI (cfiCond84) R6 load(1, XDATA, add(CFA_XSP16, literal(-15)))
          CFI (cfiCond84) VB load(1, XDATA, add(CFA_XSP16, literal(-14)))
          CFI (cfiCond84) V0 load(1, XDATA, add(CFA_XSP16, literal(-13)))
          CFI (cfiCond84) V1 load(1, XDATA, add(CFA_XSP16, literal(-12)))
          CFI (cfiCond84) V2 load(1, XDATA, add(CFA_XSP16, literal(-11)))
          CFI (cfiCond84) V3 load(1, XDATA, add(CFA_XSP16, literal(-10)))
          CFI (cfiCond84) V4 load(1, XDATA, add(CFA_XSP16, literal(-9)))
          CFI (cfiCond84) V5 load(1, XDATA, add(CFA_XSP16, literal(-8)))
          CFI (cfiCond84) V6 load(1, XDATA, add(CFA_XSP16, literal(-7)))
          CFI (cfiCond84) V7 load(1, XDATA, add(CFA_XSP16, literal(-6)))
          CFI (cfiCond84) R7 load(1, XDATA, add(CFA_XSP16, literal(-5)))
          CFI (cfiCond84) ?RET_LOW load(1, XDATA, add(CFA_XSP16, literal(-4)))
          CFI (cfiCond84) ?RET_HIGH load(1, XDATA, add(CFA_XSP16, literal(-3)))
          CFI (cfiCond84) DPL0 load(1, XDATA, add(CFA_XSP16, literal(-2)))
          CFI (cfiCond84) DPH0 load(1, XDATA, add(CFA_XSP16, literal(-1)))
          CFI (cfiCond84) CFA_XSP16 add(XSP16, 21)
          CFI Block cfiCond85 Using cfiCommon0
          CFI (cfiCond85) Function shell_tab
          CFI (cfiCond85) Conditional ??CrossCallReturnLabel_112
          CFI (cfiCond85) R6 load(1, XDATA, add(CFA_XSP16, literal(-15)))
          CFI (cfiCond85) VB load(1, XDATA, add(CFA_XSP16, literal(-14)))
          CFI (cfiCond85) V0 load(1, XDATA, add(CFA_XSP16, literal(-13)))
          CFI (cfiCond85) V1 load(1, XDATA, add(CFA_XSP16, literal(-12)))
          CFI (cfiCond85) V2 load(1, XDATA, add(CFA_XSP16, literal(-11)))
          CFI (cfiCond85) V3 load(1, XDATA, add(CFA_XSP16, literal(-10)))
          CFI (cfiCond85) V4 load(1, XDATA, add(CFA_XSP16, literal(-9)))
          CFI (cfiCond85) V5 load(1, XDATA, add(CFA_XSP16, literal(-8)))
          CFI (cfiCond85) V6 load(1, XDATA, add(CFA_XSP16, literal(-7)))
          CFI (cfiCond85) V7 load(1, XDATA, add(CFA_XSP16, literal(-6)))
          CFI (cfiCond85) R7 load(1, XDATA, add(CFA_XSP16, literal(-5)))
          CFI (cfiCond85) ?RET_LOW load(1, XDATA, add(CFA_XSP16, literal(-4)))
          CFI (cfiCond85) ?RET_HIGH load(1, XDATA, add(CFA_XSP16, literal(-3)))
          CFI (cfiCond85) DPL0 load(1, XDATA, add(CFA_XSP16, literal(-2)))
          CFI (cfiCond85) DPH0 load(1, XDATA, add(CFA_XSP16, literal(-1)))
          CFI (cfiCond85) CFA_XSP16 add(XSP16, 45)
          CFI Block cfiCond86 Using cfiCommon0
          CFI (cfiCond86) Function shell_tab
          CFI (cfiCond86) Conditional ??CrossCallReturnLabel_113
          CFI (cfiCond86) R6 load(1, XDATA, add(CFA_XSP16, literal(-15)))
          CFI (cfiCond86) VB load(1, XDATA, add(CFA_XSP16, literal(-14)))
          CFI (cfiCond86) V0 load(1, XDATA, add(CFA_XSP16, literal(-13)))
          CFI (cfiCond86) V1 load(1, XDATA, add(CFA_XSP16, literal(-12)))
          CFI (cfiCond86) V2 load(1, XDATA, add(CFA_XSP16, literal(-11)))
          CFI (cfiCond86) V3 load(1, XDATA, add(CFA_XSP16, literal(-10)))
          CFI (cfiCond86) V4 load(1, XDATA, add(CFA_XSP16, literal(-9)))
          CFI (cfiCond86) V5 load(1, XDATA, add(CFA_XSP16, literal(-8)))
          CFI (cfiCond86) V6 load(1, XDATA, add(CFA_XSP16, literal(-7)))
          CFI (cfiCond86) V7 load(1, XDATA, add(CFA_XSP16, literal(-6)))
          CFI (cfiCond86) R7 load(1, XDATA, add(CFA_XSP16, literal(-5)))
          CFI (cfiCond86) ?RET_LOW load(1, XDATA, add(CFA_XSP16, literal(-4)))
          CFI (cfiCond86) ?RET_HIGH load(1, XDATA, add(CFA_XSP16, literal(-3)))
          CFI (cfiCond86) DPL0 load(1, XDATA, add(CFA_XSP16, literal(-2)))
          CFI (cfiCond86) DPH0 load(1, XDATA, add(CFA_XSP16, literal(-1)))
          CFI (cfiCond86) CFA_XSP16 add(XSP16, 45)
          CFI Block cfiCond87 Using cfiCommon0
          CFI (cfiCond87) Function shell_tab
          CFI (cfiCond87) Conditional ??CrossCallReturnLabel_114
          CFI (cfiCond87) R6 load(1, XDATA, add(CFA_XSP16, literal(-15)))
          CFI (cfiCond87) VB load(1, XDATA, add(CFA_XSP16, literal(-14)))
          CFI (cfiCond87) V0 load(1, XDATA, add(CFA_XSP16, literal(-13)))
          CFI (cfiCond87) V1 load(1, XDATA, add(CFA_XSP16, literal(-12)))
          CFI (cfiCond87) V2 load(1, XDATA, add(CFA_XSP16, literal(-11)))
          CFI (cfiCond87) V3 load(1, XDATA, add(CFA_XSP16, literal(-10)))
          CFI (cfiCond87) V4 load(1, XDATA, add(CFA_XSP16, literal(-9)))
          CFI (cfiCond87) V5 load(1, XDATA, add(CFA_XSP16, literal(-8)))
          CFI (cfiCond87) V6 load(1, XDATA, add(CFA_XSP16, literal(-7)))
          CFI (cfiCond87) V7 load(1, XDATA, add(CFA_XSP16, literal(-6)))
          CFI (cfiCond87) R7 load(1, XDATA, add(CFA_XSP16, literal(-5)))
          CFI (cfiCond87) ?RET_LOW load(1, XDATA, add(CFA_XSP16, literal(-4)))
          CFI (cfiCond87) ?RET_HIGH load(1, XDATA, add(CFA_XSP16, literal(-3)))
          CFI (cfiCond87) DPL0 load(1, XDATA, add(CFA_XSP16, literal(-2)))
          CFI (cfiCond87) DPH0 load(1, XDATA, add(CFA_XSP16, literal(-1)))
          CFI (cfiCond87) CFA_XSP16 add(XSP16, 45)
          CFI Block cfiPicker88 Using cfiCommon1
          CFI (cfiPicker88) NoFunction
          CFI (cfiPicker88) Picker
        MOVX    A,@DPTR
        MOV     R2,A
        INC     DPTR
        MOVX    A,@DPTR
        MOV     R3,A
        RET
          CFI EndBlock cfiCond78
          CFI EndBlock cfiCond79
          CFI EndBlock cfiCond80
          CFI EndBlock cfiCond81
          CFI EndBlock cfiCond82
          CFI EndBlock cfiCond83
          CFI EndBlock cfiCond84
          CFI EndBlock cfiCond85
          CFI EndBlock cfiCond86
          CFI EndBlock cfiCond87
          CFI EndBlock cfiPicker88

        RSEG NEAR_CODE:CODE:NOROOT(0)
?Subroutine14:
          CFI Block cfiCond89 Using cfiCommon0
          CFI Function shell_getchar
          CFI Conditional ??CrossCallReturnLabel_23
          CFI R6 load(1, XDATA, add(CFA_XSP16, literal(-14)))
          CFI VB load(1, XDATA, add(CFA_XSP16, literal(-13)))
          CFI V0 load(1, XDATA, add(CFA_XSP16, literal(-12)))
          CFI V1 load(1, XDATA, add(CFA_XSP16, literal(-11)))
          CFI V2 load(1, XDATA, add(CFA_XSP16, literal(-10)))
          CFI V3 load(1, XDATA, add(CFA_XSP16, literal(-9)))
          CFI V4 load(1, XDATA, add(CFA_XSP16, literal(-8)))
          CFI V5 load(1, XDATA, add(CFA_XSP16, literal(-7)))
          CFI V6 load(1, XDATA, add(CFA_XSP16, literal(-6)))
          CFI R7 load(1, XDATA, add(CFA_XSP16, literal(-5)))
          CFI ?RET_LOW load(1, XDATA, add(CFA_XSP16, literal(-4)))
          CFI ?RET_HIGH load(1, XDATA, add(CFA_XSP16, literal(-3)))
          CFI DPL0 load(1, XDATA, add(CFA_XSP16, literal(-2)))
          CFI DPH0 load(1, XDATA, add(CFA_XSP16, literal(-1)))
          CFI CFA_XSP16 add(XSP16, 117)
          CFI Block cfiCond90 Using cfiCommon0
          CFI (cfiCond90) Function shell_getchar
          CFI (cfiCond90) Conditional ??CrossCallReturnLabel_22
          CFI (cfiCond90) R6 load(1, XDATA, add(CFA_XSP16, literal(-14)))
          CFI (cfiCond90) VB load(1, XDATA, add(CFA_XSP16, literal(-13)))
          CFI (cfiCond90) V0 load(1, XDATA, add(CFA_XSP16, literal(-12)))
          CFI (cfiCond90) V1 load(1, XDATA, add(CFA_XSP16, literal(-11)))
          CFI (cfiCond90) V2 load(1, XDATA, add(CFA_XSP16, literal(-10)))
          CFI (cfiCond90) V3 load(1, XDATA, add(CFA_XSP16, literal(-9)))
          CFI (cfiCond90) V4 load(1, XDATA, add(CFA_XSP16, literal(-8)))
          CFI (cfiCond90) V5 load(1, XDATA, add(CFA_XSP16, literal(-7)))
          CFI (cfiCond90) V6 load(1, XDATA, add(CFA_XSP16, literal(-6)))
          CFI (cfiCond90) R7 load(1, XDATA, add(CFA_XSP16, literal(-5)))
          CFI (cfiCond90) ?RET_LOW load(1, XDATA, add(CFA_XSP16, literal(-4)))
          CFI (cfiCond90) ?RET_HIGH load(1, XDATA, add(CFA_XSP16, literal(-3)))
          CFI (cfiCond90) DPL0 load(1, XDATA, add(CFA_XSP16, literal(-2)))
          CFI (cfiCond90) DPH0 load(1, XDATA, add(CFA_XSP16, literal(-1)))
          CFI (cfiCond90) CFA_XSP16 add(XSP16, 117)
          CFI Block cfiCond91 Using cfiCommon0
          CFI (cfiCond91) Function shell_getchar
          CFI (cfiCond91) Conditional ??CrossCallReturnLabel_24
          CFI (cfiCond91) R6 load(1, XDATA, add(CFA_XSP16, literal(-14)))
          CFI (cfiCond91) VB load(1, XDATA, add(CFA_XSP16, literal(-13)))
          CFI (cfiCond91) V0 load(1, XDATA, add(CFA_XSP16, literal(-12)))
          CFI (cfiCond91) V1 load(1, XDATA, add(CFA_XSP16, literal(-11)))
          CFI (cfiCond91) V2 load(1, XDATA, add(CFA_XSP16, literal(-10)))
          CFI (cfiCond91) V3 load(1, XDATA, add(CFA_XSP16, literal(-9)))
          CFI (cfiCond91) V4 load(1, XDATA, add(CFA_XSP16, literal(-8)))
          CFI (cfiCond91) V5 load(1, XDATA, add(CFA_XSP16, literal(-7)))
          CFI (cfiCond91) V6 load(1, XDATA, add(CFA_XSP16, literal(-6)))
          CFI (cfiCond91) R7 load(1, XDATA, add(CFA_XSP16, literal(-5)))
          CFI (cfiCond91) ?RET_LOW load(1, XDATA, add(CFA_XSP16, literal(-4)))
          CFI (cfiCond91) ?RET_HIGH load(1, XDATA, add(CFA_XSP16, literal(-3)))
          CFI (cfiCond91) DPL0 load(1, XDATA, add(CFA_XSP16, literal(-2)))
          CFI (cfiCond91) DPH0 load(1, XDATA, add(CFA_XSP16, literal(-1)))
          CFI (cfiCond91) CFA_XSP16 add(XSP16, 117)
          CFI Block cfiPicker92 Using cfiCommon1
          CFI (cfiPicker92) NoFunction
          CFI (cfiPicker92) Picker
        MOVX    @DPTR,A
        MOV     DPL,R0
        MOV     DPH,R1
        MOVX    A,@DPTR
        RET
          CFI EndBlock cfiCond89
          CFI EndBlock cfiCond90
          CFI EndBlock cfiCond91
          CFI EndBlock cfiPicker92

        RSEG NEAR_CODE:CODE:NOROOT(0)
?Subroutine13:
          CFI Block cfiCond93 Using cfiCommon0
          CFI Function shell_getchar
          CFI Conditional ??CrossCallReturnLabel_20
          CFI R6 load(1, XDATA, add(CFA_XSP16, literal(-14)))
          CFI VB load(1, XDATA, add(CFA_XSP16, literal(-13)))
          CFI V0 load(1, XDATA, add(CFA_XSP16, literal(-12)))
          CFI V1 load(1, XDATA, add(CFA_XSP16, literal(-11)))
          CFI V2 load(1, XDATA, add(CFA_XSP16, literal(-10)))
          CFI V3 load(1, XDATA, add(CFA_XSP16, literal(-9)))
          CFI V4 load(1, XDATA, add(CFA_XSP16, literal(-8)))
          CFI V5 load(1, XDATA, add(CFA_XSP16, literal(-7)))
          CFI V6 load(1, XDATA, add(CFA_XSP16, literal(-6)))
          CFI R7 load(1, XDATA, add(CFA_XSP16, literal(-5)))
          CFI ?RET_LOW load(1, XDATA, add(CFA_XSP16, literal(-4)))
          CFI ?RET_HIGH load(1, XDATA, add(CFA_XSP16, literal(-3)))
          CFI DPL0 load(1, XDATA, add(CFA_XSP16, literal(-2)))
          CFI DPH0 load(1, XDATA, add(CFA_XSP16, literal(-1)))
          CFI CFA_XSP16 add(XSP16, 117)
          CFI Block cfiCond94 Using cfiCommon0
          CFI (cfiCond94) Function shell_getchar
          CFI (cfiCond94) Conditional ??CrossCallReturnLabel_21
          CFI (cfiCond94) R6 load(1, XDATA, add(CFA_XSP16, literal(-14)))
          CFI (cfiCond94) VB load(1, XDATA, add(CFA_XSP16, literal(-13)))
          CFI (cfiCond94) V0 load(1, XDATA, add(CFA_XSP16, literal(-12)))
          CFI (cfiCond94) V1 load(1, XDATA, add(CFA_XSP16, literal(-11)))
          CFI (cfiCond94) V2 load(1, XDATA, add(CFA_XSP16, literal(-10)))
          CFI (cfiCond94) V3 load(1, XDATA, add(CFA_XSP16, literal(-9)))
          CFI (cfiCond94) V4 load(1, XDATA, add(CFA_XSP16, literal(-8)))
          CFI (cfiCond94) V5 load(1, XDATA, add(CFA_XSP16, literal(-7)))
          CFI (cfiCond94) V6 load(1, XDATA, add(CFA_XSP16, literal(-6)))
          CFI (cfiCond94) R7 load(1, XDATA, add(CFA_XSP16, literal(-5)))
          CFI (cfiCond94) ?RET_LOW load(1, XDATA, add(CFA_XSP16, literal(-4)))
          CFI (cfiCond94) ?RET_HIGH load(1, XDATA, add(CFA_XSP16, literal(-3)))
          CFI (cfiCond94) DPL0 load(1, XDATA, add(CFA_XSP16, literal(-2)))
          CFI (cfiCond94) DPH0 load(1, XDATA, add(CFA_XSP16, literal(-1)))
          CFI (cfiCond94) CFA_XSP16 add(XSP16, 117)
          CFI Block cfiPicker95 Using cfiCommon1
          CFI (cfiPicker95) NoFunction
          CFI (cfiPicker95) Picker
        MOVX    @DPTR,A
        MOV     DPL,?V0
        MOV     DPH,?V1
        MOVX    A,@DPTR
        RET
          CFI EndBlock cfiCond93
          CFI EndBlock cfiCond94
          CFI EndBlock cfiPicker95
//  451 
//  452 /**
//  453   * @author   古么宁
//  454   * @brief    命令行解析输入
//  455   * @param    cmdroot : 检索根，起始检索点
//  456   * @param    shellin : 输入交互
//  457   * @return   don't care
//  458 */

        RSEG NEAR_CODE:CODE:NOROOT(0)
//  459 static void shell_parse(cmd_root_t * cmdroot , struct shell_input * shellin)
shell_parse:
          CFI Block cfiBlock96 Using cfiCommon0
          CFI Function shell_parse
        CODE
//  460 {
        FUNCALL shell_parse, shell_confirm
        LOCFRAME ISTACK, 0, STACK
        LOCFRAME PSTACK, 0, STACK
        LOCFRAME XSTACK, 45, STACK
        LOCFRAME IOVERLAY, 0, STATIC
        LOCFRAME DOVERLAY, 0, STATIC
        ARGFRAME ISTACK, 0, STACK
        ARGFRAME PSTACK, 0, STACK
        ARGFRAME XSTACK, 45, STACK
        ARGFRAME IOVERLAY, 0, STATIC
        ARGFRAME DOVERLAY, 0, STATIC
        FUNCALL shell_parse, printf
        LOCFRAME ISTACK, 0, STACK
        LOCFRAME PSTACK, 0, STACK
        LOCFRAME XSTACK, 45, STACK
        LOCFRAME IOVERLAY, 0, STATIC
        LOCFRAME DOVERLAY, 0, STATIC
        ARGFRAME ISTACK, 0, STACK
        ARGFRAME PSTACK, 0, STACK
        ARGFRAME XSTACK, 45, STACK
        ARGFRAME IOVERLAY, 0, STATIC
        ARGFRAME DOVERLAY, 0, STATIC
        REQUIRE ?V0
        REQUIRE ?V1
        REQUIRE ?V2
        REQUIRE ?V3
        REQUIRE ?V4
        REQUIRE ?V5
        REQUIRE ?V6
        REQUIRE ?V7
        MOV     A,#-0xf
        LCALL   ?FUNC_ENTER_XDATA
          CFI DPH0 load(1, XDATA, add(CFA_XSP16, literal(-1)))
          CFI DPL0 load(1, XDATA, add(CFA_XSP16, literal(-2)))
          CFI ?RET_HIGH load(1, XDATA, add(CFA_XSP16, literal(-3)))
          CFI ?RET_LOW load(1, XDATA, add(CFA_XSP16, literal(-4)))
          CFI R7 load(1, XDATA, add(CFA_XSP16, literal(-5)))
          CFI V7 load(1, XDATA, add(CFA_XSP16, literal(-6)))
          CFI V6 load(1, XDATA, add(CFA_XSP16, literal(-7)))
          CFI V5 load(1, XDATA, add(CFA_XSP16, literal(-8)))
          CFI V4 load(1, XDATA, add(CFA_XSP16, literal(-9)))
          CFI V3 load(1, XDATA, add(CFA_XSP16, literal(-10)))
          CFI V2 load(1, XDATA, add(CFA_XSP16, literal(-11)))
          CFI V1 load(1, XDATA, add(CFA_XSP16, literal(-12)))
          CFI V0 load(1, XDATA, add(CFA_XSP16, literal(-13)))
          CFI VB load(1, XDATA, add(CFA_XSP16, literal(-14)))
          CFI R6 load(1, XDATA, add(CFA_XSP16, literal(-15)))
          CFI CFA_SP SP+0
          CFI CFA_XSP16 add(XSP16, 15)
        ; Saved register size: 15
        ; Auto size: 28
        MOV     A,#-0x1c
        LCALL   ?ALLOC_XSTACK8
          CFI CFA_XSP16 add(XSP16, 43)
        MOV     A,#0x12
        LCALL   ?XSTACK_DISP0_8
        LCALL   ??Subroutine51_0
??CrossCallReturnLabel_89:
        MOV     A,#0x2
        LCALL   ?XSTACK_DISP0_8
        MOV     A,R4
        MOVX    @DPTR,A
        INC     DPTR
        MOV     A,R5
        MOVX    @DPTR,A
//  461 	union uncmd unCmd ;
//  462 	uint32_t len = 0;
        MOV     A,#0x18
        LCALL   ?XSTACK_DISP0_8
        LCALL   ?Subroutine10
//  463 	uint32_t sum = 0;
??CrossCallReturnLabel_12:
        MOV     A,#0x14
        LCALL   ?XSTACK_DISP0_8
        LCALL   ?Subroutine9
//  464 	uint32_t fcrc8 = 0;
??CrossCallReturnLabel_9:
        LCALL   ?XSTACK_DISP0_8
        LCALL   ?Subroutine10
//  465 	uint32_t bcrc8 = 0;
??CrossCallReturnLabel_13:
        MOV     A,#0x6
        LCALL   ?XSTACK_DISP0_8
        LCALL   ?Subroutine10
//  466 	char  *  str = shellin->cmdline;
??CrossCallReturnLabel_14:
        MOV     A,#0x2
        LCALL   ?XSTACK_DISP0_8
        LCALL   ?Subroutine29
??CrossCallReturnLabel_48:
        MOV     A,#0x4
        LCALL   ?XSTACK_DISP0_8
        LCALL   ??Subroutine57_0
??CrossCallReturnLabel_121:
        MOV     A,#0x4
        LCALL   ?XSTACK_DISP0_8
        MOVX    A,@DPTR
        MOV     DPL,?XSP + 0
        MOV     DPH,?XSP + 1
        SJMP    ??shell_parse_0
//  467 	struct shellcommand * cmdmatch;
//  468 
//  469 	/* Shave off any leading spaces */
//  470 	for ( ; ' ' == *str ; ++str) ;	
??shell_parse_1:
        MOVX    A,@DPTR
        ADD     A,#0x1
        INC     R0
        LCALL   ?Subroutine43
??CrossCallReturnLabel_115:
        MOV     A,R0
??shell_parse_0:
        LCALL   ?Subroutine5
??CrossCallReturnLabel_5:
        XRL     A,#0x20
        MOV     DPL,?XSP + 0
        MOV     DPH,?XSP + 1
        JZ      ??shell_parse_1
//  471 
//  472 	if (0 == *str)
        LCALL   ??Subroutine64_0
??CrossCallReturnLabel_149:
        MOVX    A,@DPTR
        MOV     R1,A
        JNZ     $+5
        LJMP    ??shell_parse_2
//  473 		goto PARSE_END;
//  474 
//  475 	unCmd.part.FirstChar = *str ;
        MOV     A,#0xe
        LCALL   ?XSTACK_DISP0_8
        MOV     R0,#?V0
        LCALL   ?L_MOV_X
        MOV     DPTR,#__Constant_3ffffff
        MOV     R0,#?V0
        LCALL   ?L_AND_X
        MOV     ?V4,R1
        CLR     A
        MOV     ?V5,A
        MOV     ?V6,A
        MOV     ?V7,A
        MOV     A,#0x1a
        MOV     R0,#?V4
        LCALL   ?L_SHL
        MOV     R0,#?V0
        MOV     R1,#?V4
        LCALL   ?L_IOR
        MOV     A,#0xe
        LCALL   ?XSTACK_DISP0_8
        MOV     R0,#?V0
        LCALL   ?L_MOV_TO_X
        SJMP    ??shell_parse_3
//  476 	for (; (*str) && (*str != ' ') ; ++str ,++len) {
//  477 		sum += *str;
??shell_parse_4:
        MOV     ?V0,R2
        CLR     A
        MOV     ?V1,A
        MOV     ?V2,A
        MOV     ?V3,A
        MOV     A,#0x14
        LCALL   ?XSTACK_DISP0_8
        MOV     R0,#?V0
        LCALL   ?L_ADD_TO_X
//  478 		fcrc8 = F_CRC8_Table[fcrc8^*str];
        MOV     A,#0xa
        LCALL   ?XSTACK_DISP0_8
        MOV     R0,#?V0
        LCALL   ?L_MOV_X
        MOV     A,?V0
        XRL     A,R2
        MOV     R0,A
        MOV     R1,?V1
        MOV     A,#F_CRC8_Table & 0xff
        ADD     A,R0
        MOV     DPL,A
        MOV     A,#(F_CRC8_Table >> 8) & 0xff
        ADDC    A,R1
        MOV     DPH,A
        MOVX    A,@DPTR
        MOV     R4,A
        MOV     A,#0xa
        LCALL   ?XSTACK_DISP0_8
        LCALL   ?Subroutine4
//  479 		bcrc8 = B_CRC8_Table[bcrc8^*str];
??CrossCallReturnLabel_1:
        MOV     A,#0x6
        LCALL   ?XSTACK_DISP0_8
        MOV     R0,#?V0
        LCALL   ?L_MOV_X
        LCALL   ?Subroutine36
//  480 	}
??CrossCallReturnLabel_62:
        LCALL   ?XSTACK_DISP0_8
        LCALL   ?Subroutine4
??CrossCallReturnLabel_2:
        MOV     DPL,?XSP + 0
        MOV     DPH,?XSP + 1
        MOVX    A,@DPTR
        ADD     A,#0x1
        LCALL   ??Subroutine56_0
??CrossCallReturnLabel_130:
        MOV     DPTR,#__Constant_1
        MOV     R0,#?V0
        LCALL   ?L_MOV_X
        MOV     A,#0x18
        LCALL   ?XSTACK_DISP0_8
        MOV     R0,#?V0
        LCALL   ?L_ADD_TO_X
??shell_parse_3:
        LCALL   ?Subroutine15
??CrossCallReturnLabel_88:
        JZ      ??shell_parse_5
        MOV     A,#0x20
        XRL     A,R2
        JNZ     ??shell_parse_4
//  481 
//  482 	unCmd.part.Len = len;
//  483 	unCmd.part.Sum = sum;
//  484 	unCmd.part.CRC1 = fcrc8;
//  485 	unCmd.part.CRC2 = bcrc8;
//  486 
//  487 	cmdmatch = shell_search_cmd(cmdroot,unCmd.ID);
??shell_parse_5:
        MOV     A,#0xe
        LCALL   ?XSTACK_DISP0_8
        MOV     R0,#?V4
        LCALL   ?L_MOV_X
        MOV     DPTR,#__Constant_fc000000
        MOV     R0,#?V4
        LCALL   ?L_AND_X
        MOV     A,#0x18
        LCALL   ?XSTACK_DISP0_8
        MOV     R0,#?V0
        LCALL   ?L_MOV_X
        MOV     A,#0x15
        MOV     R0,#?V0
        LCALL   ?L_SHL
        MOV     DPTR,#__Constant_3e00000
        MOV     R0,#?V0
        LCALL   ?L_AND_X
        MOV     R0,#?V4
        MOV     R1,#?V0
        LCALL   ?L_IOR
        MOV     A,#0x14
        LCALL   ?XSTACK_DISP0_8
        MOV     R0,#?V0
        LCALL   ?L_MOV_X
        MOV     A,#0x10
        MOV     R0,#?V0
        LCALL   ?L_SHL
        MOV     DPTR,#__Constant_1f0000
        MOV     R0,#?V0
        LCALL   ?L_AND_X
        MOV     R0,#?V4
        MOV     R1,#?V0
        LCALL   ?L_IOR
        MOV     A,#0xa
        LCALL   ?XSTACK_DISP0_8
        MOV     R0,#?V0
        LCALL   ?L_MOV_X
        MOV     A,#0x8
        MOV     R0,#?V0
        LCALL   ?L_SHL
        MOV     DPTR,#__Constant_ff00
        MOV     R0,#?V0
        LCALL   ?L_AND_X
        MOV     R0,#?V4
        MOV     R1,#?V0
        LCALL   ?L_IOR
        MOV     A,#0x6
        LCALL   ?XSTACK_DISP0_8
        MOV     R0,#?V0
        LCALL   ?L_MOV_X
        MOV     DPTR,#__Constant_ff
        MOV     R0,#?V0
        LCALL   ?L_AND_X
        MOV     R0,#?V4
        MOV     R1,#?V0
        LCALL   ?L_IOR
        MOV     A,#0x12
        LCALL   ?XSTACK_DISP0_8
        LCALL   ??Subroutine63_0
??CrossCallReturnLabel_152:
        SJMP    ??shell_parse_6
??shell_parse_7:
        MOV     DPL,R2
        MOV     DPH,R3
??shell_parse_6:
        LCALL   ??Subroutine55_0
??CrossCallReturnLabel_108:
        MOV     A,R2
        ORL     A,R3
        JNZ     $+5
        LJMP    ??shell_parse_8
        MOV     DPL,R2
        MOV     DPH,R3
        INC     DPTR
        INC     DPTR
        INC     DPTR
        INC     DPTR
        INC     DPTR
        INC     DPTR
        MOV     R0,#?V0
        LCALL   ?L_MOV_X
        MOV     R0,#?V0
        MOV     R1,#?V4
        LCALL   ?UL_GT
        JC      ??shell_parse_8
        MOV     R0,#?V0
        MOV     R1,#?V4
        LCALL   ?L_EQ
        JNZ     ??shell_parse_7
        MOV     A,R2
        MOV     R4,A
        MOV     A,R3
        MOV     R5,A
//  488 	if (cmdmatch != NULL) {
        MOV     A,R4
        ORL     A,R5
        JZ      ??shell_parse_8
//  489 		/* 判断是否为有选项的命令 */
//  490 		shellcfm_t * confirm ;
//  491 		confirm = container_of(cmdmatch, struct shellconfirm, cmd);
//  492 		if (confirm->flag == CONFIRM_FLAG) {
        MOV     DPTR,#__Constant_87654321
        MOV     R0,#?V0
        LCALL   ?L_MOV_X
        MOV     A,R4
        ADD     A,#0xc
        MOV     DPL,A
        CLR     A
        ADDC    A,R5
        MOV     DPH,A
        MOV     R0,#?V0
        LCALL   ?L_EQ_X
        JNZ     ??shell_parse_9
//  493 			shell_confirm(shellin,confirm->prompt,cmdmatch->func);
        ; Setup parameters for call to function shell_confirm
        MOV     DPL,R4
        MOV     DPH,R5
        INC     DPTR
        INC     DPTR
        INC     DPTR
        INC     DPTR
        LCALL   ?PUSH_XSTACK8_X_TWO
          CFI CFA_XSP16 add(XSP16, 45)
        MOV     DPL,R4
        MOV     DPH,R5
        INC     DPTR
        INC     DPTR
        INC     DPTR
        INC     DPTR
        INC     DPTR
        INC     DPTR
        INC     DPTR
        INC     DPTR
        INC     DPTR
        INC     DPTR
        LCALL   ?Subroutine26
//  494 		}
??CrossCallReturnLabel_43:
        MOV     A,#0x4
        LCALL   ?XSTACK_DISP0_8
        LCALL   ??Subroutine55_0
??CrossCallReturnLabel_109:
        LCALL   shell_confirm
        SJMP    ??shell_parse_10
          CFI CFA_XSP16 add(XSP16, 43)
//  495 		else {
//  496 			cmdmatch->func(shellin->cmdline);
??shell_parse_9:
        ; Setup parameters for indirect call
        MOV     A,#0x4
        LCALL   ?XSTACK_DISP0_8
        LCALL   ??Subroutine55_0
//  497 		}
//  498 	}
??CrossCallReturnLabel_110:
        MOV     DPL,R4
        MOV     DPH,R5
        INC     DPTR
        INC     DPTR
        INC     DPTR
        INC     DPTR
        LCALL   ??Subroutine63_0
??CrossCallReturnLabel_153:
        LCALL   ?CALL_IND
        SJMP    ??shell_parse_2
//  499 	else {
//  500 		printf("\r\n\tno reply:%s\r\n",shellin->cmdline);
??shell_parse_8:
        ; Setup parameters for call to function printf
        MOV     A,#0x4
        LCALL   ?XSTACK_DISP0_8
        LCALL   ?PUSH_XSTACK8_X_TWO
          CFI CFA_XSP16 add(XSP16, 45)
        MOV     R2,#`?<Constant "\\r\\n\\tno reply:%s\\r\\n">` & 0xff
        MOV     R3,#(`?<Constant "\\r\\n\\tno reply:%s\\r\\n">` >> 8) & 0xff
        LCALL   printf
??shell_parse_10:
        MOV     A,#0x2
        LCALL   ?DEALLOC_XSTACK8
          CFI CFA_XSP16 add(XSP16, 43)
//  501 	}
//  502 	
//  503 PARSE_END:
//  504 	shellin->tail = 0;//清空当前命令行输入
??shell_parse_2:
        MOV     A,#0x2
        LCALL   ?XSTACK_DISP0_8
        MOVX    A,@DPTR
        MOV     R0,A
        INC     DPTR
        MOVX    A,@DPTR
        XCH     A,R0
        ADD     A,#0x6b
        MOV     DPL,A
        CLR     A
        ADDC    A,R0
        MOV     DPH,A
        CLR     A
        MOVX    @DPTR,A
//  505 	shellin->edit = 0;
        MOV     A,#0x2
        LCALL   ?XSTACK_DISP0_8
        MOVX    A,@DPTR
        MOV     R0,A
        INC     DPTR
        MOVX    A,@DPTR
        XCH     A,R0
        ADD     A,#0x6a
        MOV     DPL,A
        CLR     A
        ADDC    A,R0
        MOV     DPH,A
        CLR     A
        MOVX    @DPTR,A
//  506 	return ;
        MOV     A,#0x1c
        LJMP    ??Subroutine53_0
          CFI EndBlock cfiBlock96
//  507 }

        RSEG NEAR_CODE:CODE:NOROOT(0)
?Subroutine29:
          CFI Block cfiCond97 Using cfiCommon0
          CFI Function shell_tab
          CFI Conditional ??CrossCallReturnLabel_47
          CFI R6 load(1, XDATA, add(CFA_XSP16, literal(-15)))
          CFI VB load(1, XDATA, add(CFA_XSP16, literal(-14)))
          CFI V0 load(1, XDATA, add(CFA_XSP16, literal(-13)))
          CFI V1 load(1, XDATA, add(CFA_XSP16, literal(-12)))
          CFI V2 load(1, XDATA, add(CFA_XSP16, literal(-11)))
          CFI V3 load(1, XDATA, add(CFA_XSP16, literal(-10)))
          CFI V4 load(1, XDATA, add(CFA_XSP16, literal(-9)))
          CFI V5 load(1, XDATA, add(CFA_XSP16, literal(-8)))
          CFI V6 load(1, XDATA, add(CFA_XSP16, literal(-7)))
          CFI V7 load(1, XDATA, add(CFA_XSP16, literal(-6)))
          CFI R7 load(1, XDATA, add(CFA_XSP16, literal(-5)))
          CFI ?RET_LOW load(1, XDATA, add(CFA_XSP16, literal(-4)))
          CFI ?RET_HIGH load(1, XDATA, add(CFA_XSP16, literal(-3)))
          CFI DPL0 load(1, XDATA, add(CFA_XSP16, literal(-2)))
          CFI DPH0 load(1, XDATA, add(CFA_XSP16, literal(-1)))
          CFI CFA_XSP16 add(XSP16, 45)
          CFI Block cfiCond98 Using cfiCommon0
          CFI (cfiCond98) Function shell_parse
          CFI (cfiCond98) Conditional ??CrossCallReturnLabel_48
          CFI (cfiCond98) R6 load(1, XDATA, add(CFA_XSP16, literal(-15)))
          CFI (cfiCond98) VB load(1, XDATA, add(CFA_XSP16, literal(-14)))
          CFI (cfiCond98) V0 load(1, XDATA, add(CFA_XSP16, literal(-13)))
          CFI (cfiCond98) V1 load(1, XDATA, add(CFA_XSP16, literal(-12)))
          CFI (cfiCond98) V2 load(1, XDATA, add(CFA_XSP16, literal(-11)))
          CFI (cfiCond98) V3 load(1, XDATA, add(CFA_XSP16, literal(-10)))
          CFI (cfiCond98) V4 load(1, XDATA, add(CFA_XSP16, literal(-9)))
          CFI (cfiCond98) V5 load(1, XDATA, add(CFA_XSP16, literal(-8)))
          CFI (cfiCond98) V6 load(1, XDATA, add(CFA_XSP16, literal(-7)))
          CFI (cfiCond98) V7 load(1, XDATA, add(CFA_XSP16, literal(-6)))
          CFI (cfiCond98) R7 load(1, XDATA, add(CFA_XSP16, literal(-5)))
          CFI (cfiCond98) ?RET_LOW load(1, XDATA, add(CFA_XSP16, literal(-4)))
          CFI (cfiCond98) ?RET_HIGH load(1, XDATA, add(CFA_XSP16, literal(-3)))
          CFI (cfiCond98) DPL0 load(1, XDATA, add(CFA_XSP16, literal(-2)))
          CFI (cfiCond98) DPH0 load(1, XDATA, add(CFA_XSP16, literal(-1)))
          CFI (cfiCond98) CFA_XSP16 add(XSP16, 43)
          CFI Block cfiPicker99 Using cfiCommon1
          CFI (cfiPicker99) NoFunction
          CFI (cfiPicker99) Picker
        MOVX    A,@DPTR
        ADD     A,#0x38
        MOV     R0,A
        INC     DPTR
        MOVX    A,@DPTR
        ADDC    A,#0x0
        MOV     R1,A
        RET
          CFI EndBlock cfiCond97
          CFI EndBlock cfiCond98
          CFI EndBlock cfiPicker99

        RSEG NEAR_CODE:CODE:NOROOT(0)
?Subroutine26:
          CFI Block cfiCond100 Using cfiCommon0
          CFI Function checkout
          CFI Conditional ??CrossCallReturnLabel_41
          CFI R6 load(1, XDATA, add(CFA_XSP16, literal(-15)))
          CFI VB load(1, XDATA, add(CFA_XSP16, literal(-14)))
          CFI V0 load(1, XDATA, add(CFA_XSP16, literal(-13)))
          CFI V1 load(1, XDATA, add(CFA_XSP16, literal(-12)))
          CFI V2 load(1, XDATA, add(CFA_XSP16, literal(-11)))
          CFI V3 load(1, XDATA, add(CFA_XSP16, literal(-10)))
          CFI V4 load(1, XDATA, add(CFA_XSP16, literal(-9)))
          CFI V5 load(1, XDATA, add(CFA_XSP16, literal(-8)))
          CFI V6 load(1, XDATA, add(CFA_XSP16, literal(-7)))
          CFI V7 load(1, XDATA, add(CFA_XSP16, literal(-6)))
          CFI R7 load(1, XDATA, add(CFA_XSP16, literal(-5)))
          CFI ?RET_LOW load(1, XDATA, add(CFA_XSP16, literal(-4)))
          CFI ?RET_HIGH load(1, XDATA, add(CFA_XSP16, literal(-3)))
          CFI DPL0 load(1, XDATA, add(CFA_XSP16, literal(-2)))
          CFI DPH0 load(1, XDATA, add(CFA_XSP16, literal(-1)))
          CFI CFA_XSP16 add(XSP16, 29)
          CFI Block cfiCond101 Using cfiCommon0
          CFI (cfiCond101) Function shell_tab
          CFI (cfiCond101) Conditional ??CrossCallReturnLabel_42
          CFI (cfiCond101) R6 load(1, XDATA, add(CFA_XSP16, literal(-15)))
          CFI (cfiCond101) VB load(1, XDATA, add(CFA_XSP16, literal(-14)))
          CFI (cfiCond101) V0 load(1, XDATA, add(CFA_XSP16, literal(-13)))
          CFI (cfiCond101) V1 load(1, XDATA, add(CFA_XSP16, literal(-12)))
          CFI (cfiCond101) V2 load(1, XDATA, add(CFA_XSP16, literal(-11)))
          CFI (cfiCond101) V3 load(1, XDATA, add(CFA_XSP16, literal(-10)))
          CFI (cfiCond101) V4 load(1, XDATA, add(CFA_XSP16, literal(-9)))
          CFI (cfiCond101) V5 load(1, XDATA, add(CFA_XSP16, literal(-8)))
          CFI (cfiCond101) V6 load(1, XDATA, add(CFA_XSP16, literal(-7)))
          CFI (cfiCond101) V7 load(1, XDATA, add(CFA_XSP16, literal(-6)))
          CFI (cfiCond101) R7 load(1, XDATA, add(CFA_XSP16, literal(-5)))
          CFI (cfiCond101) ?RET_LOW load(1, XDATA, add(CFA_XSP16, literal(-4)))
          CFI (cfiCond101) ?RET_HIGH load(1, XDATA, add(CFA_XSP16, literal(-3)))
          CFI (cfiCond101) DPL0 load(1, XDATA, add(CFA_XSP16, literal(-2)))
          CFI (cfiCond101) DPH0 load(1, XDATA, add(CFA_XSP16, literal(-1)))
          CFI (cfiCond101) CFA_XSP16 add(XSP16, 45)
          CFI Block cfiCond102 Using cfiCommon0
          CFI (cfiCond102) Function shell_parse
          CFI (cfiCond102) Conditional ??CrossCallReturnLabel_43
          CFI (cfiCond102) R6 load(1, XDATA, add(CFA_XSP16, literal(-15)))
          CFI (cfiCond102) VB load(1, XDATA, add(CFA_XSP16, literal(-14)))
          CFI (cfiCond102) V0 load(1, XDATA, add(CFA_XSP16, literal(-13)))
          CFI (cfiCond102) V1 load(1, XDATA, add(CFA_XSP16, literal(-12)))
          CFI (cfiCond102) V2 load(1, XDATA, add(CFA_XSP16, literal(-11)))
          CFI (cfiCond102) V3 load(1, XDATA, add(CFA_XSP16, literal(-10)))
          CFI (cfiCond102) V4 load(1, XDATA, add(CFA_XSP16, literal(-9)))
          CFI (cfiCond102) V5 load(1, XDATA, add(CFA_XSP16, literal(-8)))
          CFI (cfiCond102) V6 load(1, XDATA, add(CFA_XSP16, literal(-7)))
          CFI (cfiCond102) V7 load(1, XDATA, add(CFA_XSP16, literal(-6)))
          CFI (cfiCond102) R7 load(1, XDATA, add(CFA_XSP16, literal(-5)))
          CFI (cfiCond102) ?RET_LOW load(1, XDATA, add(CFA_XSP16, literal(-4)))
          CFI (cfiCond102) ?RET_HIGH load(1, XDATA, add(CFA_XSP16, literal(-3)))
          CFI (cfiCond102) DPL0 load(1, XDATA, add(CFA_XSP16, literal(-2)))
          CFI (cfiCond102) DPH0 load(1, XDATA, add(CFA_XSP16, literal(-1)))
          CFI (cfiCond102) CFA_XSP16 add(XSP16, 45)
          CFI Block cfiCond103 Using cfiCommon0
          CFI (cfiCond103) Function _shell_register
          CFI (cfiCond103) Conditional ??CrossCallReturnLabel_44
          CFI (cfiCond103) R6 load(1, XDATA, add(CFA_XSP16, literal(-15)))
          CFI (cfiCond103) VB load(1, XDATA, add(CFA_XSP16, literal(-14)))
          CFI (cfiCond103) V0 load(1, XDATA, add(CFA_XSP16, literal(-13)))
          CFI (cfiCond103) V1 load(1, XDATA, add(CFA_XSP16, literal(-12)))
          CFI (cfiCond103) V2 load(1, XDATA, add(CFA_XSP16, literal(-11)))
          CFI (cfiCond103) V3 load(1, XDATA, add(CFA_XSP16, literal(-10)))
          CFI (cfiCond103) V4 load(1, XDATA, add(CFA_XSP16, literal(-9)))
          CFI (cfiCond103) V5 load(1, XDATA, add(CFA_XSP16, literal(-8)))
          CFI (cfiCond103) V6 load(1, XDATA, add(CFA_XSP16, literal(-7)))
          CFI (cfiCond103) V7 load(1, XDATA, add(CFA_XSP16, literal(-6)))
          CFI (cfiCond103) R7 load(1, XDATA, add(CFA_XSP16, literal(-5)))
          CFI (cfiCond103) ?RET_LOW load(1, XDATA, add(CFA_XSP16, literal(-4)))
          CFI (cfiCond103) ?RET_HIGH load(1, XDATA, add(CFA_XSP16, literal(-3)))
          CFI (cfiCond103) DPL0 load(1, XDATA, add(CFA_XSP16, literal(-2)))
          CFI (cfiCond103) DPH0 load(1, XDATA, add(CFA_XSP16, literal(-1)))
          CFI (cfiCond103) CFA_XSP16 add(XSP16, 37)
          CFI Block cfiPicker104 Using cfiCommon1
          CFI (cfiPicker104) NoFunction
          CFI (cfiPicker104) Picker
        MOVX    A,@DPTR
        MOV     R4,A
        INC     DPTR
        MOVX    A,@DPTR
        MOV     R5,A
        RET
          CFI EndBlock cfiCond100
          CFI EndBlock cfiCond101
          CFI EndBlock cfiCond102
          CFI EndBlock cfiCond103
          CFI EndBlock cfiPicker104

        RSEG NEAR_CODE:CODE:NOROOT(0)
?Subroutine10:
          CFI Block cfiCond105 Using cfiCommon0
          CFI Function checkout
          CFI Conditional ??CrossCallReturnLabel_11
          CFI R6 load(1, XDATA, add(CFA_XSP16, literal(-15)))
          CFI VB load(1, XDATA, add(CFA_XSP16, literal(-14)))
          CFI V0 load(1, XDATA, add(CFA_XSP16, literal(-13)))
          CFI V1 load(1, XDATA, add(CFA_XSP16, literal(-12)))
          CFI V2 load(1, XDATA, add(CFA_XSP16, literal(-11)))
          CFI V3 load(1, XDATA, add(CFA_XSP16, literal(-10)))
          CFI V4 load(1, XDATA, add(CFA_XSP16, literal(-9)))
          CFI V5 load(1, XDATA, add(CFA_XSP16, literal(-8)))
          CFI V6 load(1, XDATA, add(CFA_XSP16, literal(-7)))
          CFI V7 load(1, XDATA, add(CFA_XSP16, literal(-6)))
          CFI R7 load(1, XDATA, add(CFA_XSP16, literal(-5)))
          CFI ?RET_LOW load(1, XDATA, add(CFA_XSP16, literal(-4)))
          CFI ?RET_HIGH load(1, XDATA, add(CFA_XSP16, literal(-3)))
          CFI DPL0 load(1, XDATA, add(CFA_XSP16, literal(-2)))
          CFI DPH0 load(1, XDATA, add(CFA_XSP16, literal(-1)))
          CFI CFA_XSP16 add(XSP16, 27)
          CFI Block cfiCond106 Using cfiCommon0
          CFI (cfiCond106) Function shell_parse
          CFI (cfiCond106) Conditional ??CrossCallReturnLabel_12
          CFI (cfiCond106) R6 load(1, XDATA, add(CFA_XSP16, literal(-15)))
          CFI (cfiCond106) VB load(1, XDATA, add(CFA_XSP16, literal(-14)))
          CFI (cfiCond106) V0 load(1, XDATA, add(CFA_XSP16, literal(-13)))
          CFI (cfiCond106) V1 load(1, XDATA, add(CFA_XSP16, literal(-12)))
          CFI (cfiCond106) V2 load(1, XDATA, add(CFA_XSP16, literal(-11)))
          CFI (cfiCond106) V3 load(1, XDATA, add(CFA_XSP16, literal(-10)))
          CFI (cfiCond106) V4 load(1, XDATA, add(CFA_XSP16, literal(-9)))
          CFI (cfiCond106) V5 load(1, XDATA, add(CFA_XSP16, literal(-8)))
          CFI (cfiCond106) V6 load(1, XDATA, add(CFA_XSP16, literal(-7)))
          CFI (cfiCond106) V7 load(1, XDATA, add(CFA_XSP16, literal(-6)))
          CFI (cfiCond106) R7 load(1, XDATA, add(CFA_XSP16, literal(-5)))
          CFI (cfiCond106) ?RET_LOW load(1, XDATA, add(CFA_XSP16, literal(-4)))
          CFI (cfiCond106) ?RET_HIGH load(1, XDATA, add(CFA_XSP16, literal(-3)))
          CFI (cfiCond106) DPL0 load(1, XDATA, add(CFA_XSP16, literal(-2)))
          CFI (cfiCond106) DPH0 load(1, XDATA, add(CFA_XSP16, literal(-1)))
          CFI (cfiCond106) CFA_XSP16 add(XSP16, 43)
          CFI Block cfiCond107 Using cfiCommon0
          CFI (cfiCond107) Function shell_parse
          CFI (cfiCond107) Conditional ??CrossCallReturnLabel_13
          CFI (cfiCond107) R6 load(1, XDATA, add(CFA_XSP16, literal(-15)))
          CFI (cfiCond107) VB load(1, XDATA, add(CFA_XSP16, literal(-14)))
          CFI (cfiCond107) V0 load(1, XDATA, add(CFA_XSP16, literal(-13)))
          CFI (cfiCond107) V1 load(1, XDATA, add(CFA_XSP16, literal(-12)))
          CFI (cfiCond107) V2 load(1, XDATA, add(CFA_XSP16, literal(-11)))
          CFI (cfiCond107) V3 load(1, XDATA, add(CFA_XSP16, literal(-10)))
          CFI (cfiCond107) V4 load(1, XDATA, add(CFA_XSP16, literal(-9)))
          CFI (cfiCond107) V5 load(1, XDATA, add(CFA_XSP16, literal(-8)))
          CFI (cfiCond107) V6 load(1, XDATA, add(CFA_XSP16, literal(-7)))
          CFI (cfiCond107) V7 load(1, XDATA, add(CFA_XSP16, literal(-6)))
          CFI (cfiCond107) R7 load(1, XDATA, add(CFA_XSP16, literal(-5)))
          CFI (cfiCond107) ?RET_LOW load(1, XDATA, add(CFA_XSP16, literal(-4)))
          CFI (cfiCond107) ?RET_HIGH load(1, XDATA, add(CFA_XSP16, literal(-3)))
          CFI (cfiCond107) DPL0 load(1, XDATA, add(CFA_XSP16, literal(-2)))
          CFI (cfiCond107) DPH0 load(1, XDATA, add(CFA_XSP16, literal(-1)))
          CFI (cfiCond107) CFA_XSP16 add(XSP16, 43)
          CFI Block cfiCond108 Using cfiCommon0
          CFI (cfiCond108) Function shell_parse
          CFI (cfiCond108) Conditional ??CrossCallReturnLabel_14
          CFI (cfiCond108) R6 load(1, XDATA, add(CFA_XSP16, literal(-15)))
          CFI (cfiCond108) VB load(1, XDATA, add(CFA_XSP16, literal(-14)))
          CFI (cfiCond108) V0 load(1, XDATA, add(CFA_XSP16, literal(-13)))
          CFI (cfiCond108) V1 load(1, XDATA, add(CFA_XSP16, literal(-12)))
          CFI (cfiCond108) V2 load(1, XDATA, add(CFA_XSP16, literal(-11)))
          CFI (cfiCond108) V3 load(1, XDATA, add(CFA_XSP16, literal(-10)))
          CFI (cfiCond108) V4 load(1, XDATA, add(CFA_XSP16, literal(-9)))
          CFI (cfiCond108) V5 load(1, XDATA, add(CFA_XSP16, literal(-8)))
          CFI (cfiCond108) V6 load(1, XDATA, add(CFA_XSP16, literal(-7)))
          CFI (cfiCond108) V7 load(1, XDATA, add(CFA_XSP16, literal(-6)))
          CFI (cfiCond108) R7 load(1, XDATA, add(CFA_XSP16, literal(-5)))
          CFI (cfiCond108) ?RET_LOW load(1, XDATA, add(CFA_XSP16, literal(-4)))
          CFI (cfiCond108) ?RET_HIGH load(1, XDATA, add(CFA_XSP16, literal(-3)))
          CFI (cfiCond108) DPL0 load(1, XDATA, add(CFA_XSP16, literal(-2)))
          CFI (cfiCond108) DPH0 load(1, XDATA, add(CFA_XSP16, literal(-1)))
          CFI (cfiCond108) CFA_XSP16 add(XSP16, 43)
          CFI Block cfiCond109 Using cfiCommon0
          CFI (cfiCond109) Function _shell_register
          CFI (cfiCond109) Conditional ??CrossCallReturnLabel_15
          CFI (cfiCond109) R6 load(1, XDATA, add(CFA_XSP16, literal(-15)))
          CFI (cfiCond109) VB load(1, XDATA, add(CFA_XSP16, literal(-14)))
          CFI (cfiCond109) V0 load(1, XDATA, add(CFA_XSP16, literal(-13)))
          CFI (cfiCond109) V1 load(1, XDATA, add(CFA_XSP16, literal(-12)))
          CFI (cfiCond109) V2 load(1, XDATA, add(CFA_XSP16, literal(-11)))
          CFI (cfiCond109) V3 load(1, XDATA, add(CFA_XSP16, literal(-10)))
          CFI (cfiCond109) V4 load(1, XDATA, add(CFA_XSP16, literal(-9)))
          CFI (cfiCond109) V5 load(1, XDATA, add(CFA_XSP16, literal(-8)))
          CFI (cfiCond109) V6 load(1, XDATA, add(CFA_XSP16, literal(-7)))
          CFI (cfiCond109) V7 load(1, XDATA, add(CFA_XSP16, literal(-6)))
          CFI (cfiCond109) R7 load(1, XDATA, add(CFA_XSP16, literal(-5)))
          CFI (cfiCond109) ?RET_LOW load(1, XDATA, add(CFA_XSP16, literal(-4)))
          CFI (cfiCond109) ?RET_HIGH load(1, XDATA, add(CFA_XSP16, literal(-3)))
          CFI (cfiCond109) DPL0 load(1, XDATA, add(CFA_XSP16, literal(-2)))
          CFI (cfiCond109) DPH0 load(1, XDATA, add(CFA_XSP16, literal(-1)))
          CFI (cfiCond109) CFA_XSP16 add(XSP16, 37)
          CFI Block cfiPicker110 Using cfiCommon1
          CFI (cfiPicker110) NoFunction
          CFI (cfiPicker110) Picker
        LCALL   ?Subroutine42
??CrossCallReturnLabel_78:
        MOVX    @DPTR,A
        RET
          CFI EndBlock cfiCond105
          CFI EndBlock cfiCond106
          CFI EndBlock cfiCond107
          CFI EndBlock cfiCond108
          CFI EndBlock cfiCond109
          CFI EndBlock cfiPicker110

        RSEG NEAR_CODE:CODE:NOROOT(0)
?Subroutine7:
          CFI Block cfiCond111 Using cfiCommon0
          CFI Function shell_input_init
          CFI Conditional ??CrossCallReturnLabel_131
          CFI R6 load(1, XDATA, add(CFA_XSP16, literal(-15)))
          CFI VB load(1, XDATA, add(CFA_XSP16, literal(-14)))
          CFI V0 load(1, XDATA, add(CFA_XSP16, literal(-13)))
          CFI V1 load(1, XDATA, add(CFA_XSP16, literal(-12)))
          CFI V2 load(1, XDATA, add(CFA_XSP16, literal(-11)))
          CFI V3 load(1, XDATA, add(CFA_XSP16, literal(-10)))
          CFI V4 load(1, XDATA, add(CFA_XSP16, literal(-9)))
          CFI V5 load(1, XDATA, add(CFA_XSP16, literal(-8)))
          CFI V6 load(1, XDATA, add(CFA_XSP16, literal(-7)))
          CFI V7 load(1, XDATA, add(CFA_XSP16, literal(-6)))
          CFI R7 load(1, XDATA, add(CFA_XSP16, literal(-5)))
          CFI ?RET_LOW load(1, XDATA, add(CFA_XSP16, literal(-4)))
          CFI ?RET_HIGH load(1, XDATA, add(CFA_XSP16, literal(-3)))
          CFI DPL0 load(1, XDATA, add(CFA_XSP16, literal(-2)))
          CFI DPH0 load(1, XDATA, add(CFA_XSP16, literal(-1)))
          CFI CFA_XSP16 add(XSP16, 19)
          CFI Block cfiCond112 Using cfiCommon0
          CFI (cfiCond112) Function shell_input_init
          CFI (cfiCond112) Conditional ??CrossCallReturnLabel_132
          CFI (cfiCond112) R6 load(1, XDATA, add(CFA_XSP16, literal(-15)))
          CFI (cfiCond112) VB load(1, XDATA, add(CFA_XSP16, literal(-14)))
          CFI (cfiCond112) V0 load(1, XDATA, add(CFA_XSP16, literal(-13)))
          CFI (cfiCond112) V1 load(1, XDATA, add(CFA_XSP16, literal(-12)))
          CFI (cfiCond112) V2 load(1, XDATA, add(CFA_XSP16, literal(-11)))
          CFI (cfiCond112) V3 load(1, XDATA, add(CFA_XSP16, literal(-10)))
          CFI (cfiCond112) V4 load(1, XDATA, add(CFA_XSP16, literal(-9)))
          CFI (cfiCond112) V5 load(1, XDATA, add(CFA_XSP16, literal(-8)))
          CFI (cfiCond112) V6 load(1, XDATA, add(CFA_XSP16, literal(-7)))
          CFI (cfiCond112) V7 load(1, XDATA, add(CFA_XSP16, literal(-6)))
          CFI (cfiCond112) R7 load(1, XDATA, add(CFA_XSP16, literal(-5)))
          CFI (cfiCond112) ?RET_LOW load(1, XDATA, add(CFA_XSP16, literal(-4)))
          CFI (cfiCond112) ?RET_HIGH load(1, XDATA, add(CFA_XSP16, literal(-3)))
          CFI (cfiCond112) DPL0 load(1, XDATA, add(CFA_XSP16, literal(-2)))
          CFI (cfiCond112) DPH0 load(1, XDATA, add(CFA_XSP16, literal(-1)))
          CFI (cfiCond112) CFA_XSP16 add(XSP16, 19)
          CFI Block cfiPicker113 Using cfiCommon1
          CFI (cfiPicker113) NoFunction
          CFI (cfiPicker113) Picker
        MOV     DPL,?XSP + 0
        MOV     DPH,?XSP + 1
        MOVX    A,@DPTR
        ADD     A,#0x2
          CFI EndBlock cfiCond111
          CFI EndBlock cfiCond112
          CFI EndBlock cfiPicker113
        REQUIRE ??Subroutine56_0
        ; // Fall through to label ??Subroutine56_0

        RSEG NEAR_CODE:CODE:NOROOT(0)
??Subroutine56_0:
          CFI Block cfiCond114 Using cfiCommon0
          CFI Function shell_parse
          CFI Conditional ??CrossCallReturnLabel_130
          CFI R6 load(1, XDATA, add(CFA_XSP16, literal(-15)))
          CFI VB load(1, XDATA, add(CFA_XSP16, literal(-14)))
          CFI V0 load(1, XDATA, add(CFA_XSP16, literal(-13)))
          CFI V1 load(1, XDATA, add(CFA_XSP16, literal(-12)))
          CFI V2 load(1, XDATA, add(CFA_XSP16, literal(-11)))
          CFI V3 load(1, XDATA, add(CFA_XSP16, literal(-10)))
          CFI V4 load(1, XDATA, add(CFA_XSP16, literal(-9)))
          CFI V5 load(1, XDATA, add(CFA_XSP16, literal(-8)))
          CFI V6 load(1, XDATA, add(CFA_XSP16, literal(-7)))
          CFI V7 load(1, XDATA, add(CFA_XSP16, literal(-6)))
          CFI R7 load(1, XDATA, add(CFA_XSP16, literal(-5)))
          CFI ?RET_LOW load(1, XDATA, add(CFA_XSP16, literal(-4)))
          CFI ?RET_HIGH load(1, XDATA, add(CFA_XSP16, literal(-3)))
          CFI DPL0 load(1, XDATA, add(CFA_XSP16, literal(-2)))
          CFI DPH0 load(1, XDATA, add(CFA_XSP16, literal(-1)))
          CFI CFA_XSP16 add(XSP16, 43)
          CFI Block cfiCond115 Using cfiCommon0
          CFI (cfiCond115) Function shell_input_init
          CFI (cfiCond115) Conditional ??CrossCallReturnLabel_131
          CFI (cfiCond115) R6 load(1, XDATA, add(CFA_XSP16, literal(-15)))
          CFI (cfiCond115) VB load(1, XDATA, add(CFA_XSP16, literal(-14)))
          CFI (cfiCond115) V0 load(1, XDATA, add(CFA_XSP16, literal(-13)))
          CFI (cfiCond115) V1 load(1, XDATA, add(CFA_XSP16, literal(-12)))
          CFI (cfiCond115) V2 load(1, XDATA, add(CFA_XSP16, literal(-11)))
          CFI (cfiCond115) V3 load(1, XDATA, add(CFA_XSP16, literal(-10)))
          CFI (cfiCond115) V4 load(1, XDATA, add(CFA_XSP16, literal(-9)))
          CFI (cfiCond115) V5 load(1, XDATA, add(CFA_XSP16, literal(-8)))
          CFI (cfiCond115) V6 load(1, XDATA, add(CFA_XSP16, literal(-7)))
          CFI (cfiCond115) V7 load(1, XDATA, add(CFA_XSP16, literal(-6)))
          CFI (cfiCond115) R7 load(1, XDATA, add(CFA_XSP16, literal(-5)))
          CFI (cfiCond115) ?RET_LOW load(1, XDATA, add(CFA_XSP16, literal(-4)))
          CFI (cfiCond115) ?RET_HIGH load(1, XDATA, add(CFA_XSP16, literal(-3)))
          CFI (cfiCond115) DPL0 load(1, XDATA, add(CFA_XSP16, literal(-2)))
          CFI (cfiCond115) DPH0 load(1, XDATA, add(CFA_XSP16, literal(-1)))
          CFI (cfiCond115) CFA_XSP16 add(XSP16, 19)
          CFI Block cfiCond116 Using cfiCommon0
          CFI (cfiCond116) Function shell_input_init
          CFI (cfiCond116) Conditional ??CrossCallReturnLabel_132
          CFI (cfiCond116) R6 load(1, XDATA, add(CFA_XSP16, literal(-15)))
          CFI (cfiCond116) VB load(1, XDATA, add(CFA_XSP16, literal(-14)))
          CFI (cfiCond116) V0 load(1, XDATA, add(CFA_XSP16, literal(-13)))
          CFI (cfiCond116) V1 load(1, XDATA, add(CFA_XSP16, literal(-12)))
          CFI (cfiCond116) V2 load(1, XDATA, add(CFA_XSP16, literal(-11)))
          CFI (cfiCond116) V3 load(1, XDATA, add(CFA_XSP16, literal(-10)))
          CFI (cfiCond116) V4 load(1, XDATA, add(CFA_XSP16, literal(-9)))
          CFI (cfiCond116) V5 load(1, XDATA, add(CFA_XSP16, literal(-8)))
          CFI (cfiCond116) V6 load(1, XDATA, add(CFA_XSP16, literal(-7)))
          CFI (cfiCond116) V7 load(1, XDATA, add(CFA_XSP16, literal(-6)))
          CFI (cfiCond116) R7 load(1, XDATA, add(CFA_XSP16, literal(-5)))
          CFI (cfiCond116) ?RET_LOW load(1, XDATA, add(CFA_XSP16, literal(-4)))
          CFI (cfiCond116) ?RET_HIGH load(1, XDATA, add(CFA_XSP16, literal(-3)))
          CFI (cfiCond116) DPL0 load(1, XDATA, add(CFA_XSP16, literal(-2)))
          CFI (cfiCond116) DPH0 load(1, XDATA, add(CFA_XSP16, literal(-1)))
          CFI (cfiCond116) CFA_XSP16 add(XSP16, 19)
          CFI Block cfiPicker117 Using cfiCommon1
          CFI (cfiPicker117) NoFunction
          CFI (cfiPicker117) Picker
        MOV     R0,A
        LCALL   ?Subroutine43
          CFI EndBlock cfiCond114
          CFI EndBlock cfiCond115
          CFI EndBlock cfiCond116
          CFI EndBlock cfiPicker117
??CrossCallReturnLabel_116:
        REQUIRE ??Subroutine57_0
        ; // Fall through to label ??Subroutine57_0

        RSEG NEAR_CODE:CODE:NOROOT(0)
??Subroutine57_0:
          CFI Block cfiCond118 Using cfiCommon0
          CFI Function shell_tab
          CFI Conditional ??CrossCallReturnLabel_119
          CFI R6 load(1, XDATA, add(CFA_XSP16, literal(-15)))
          CFI VB load(1, XDATA, add(CFA_XSP16, literal(-14)))
          CFI V0 load(1, XDATA, add(CFA_XSP16, literal(-13)))
          CFI V1 load(1, XDATA, add(CFA_XSP16, literal(-12)))
          CFI V2 load(1, XDATA, add(CFA_XSP16, literal(-11)))
          CFI V3 load(1, XDATA, add(CFA_XSP16, literal(-10)))
          CFI V4 load(1, XDATA, add(CFA_XSP16, literal(-9)))
          CFI V5 load(1, XDATA, add(CFA_XSP16, literal(-8)))
          CFI V6 load(1, XDATA, add(CFA_XSP16, literal(-7)))
          CFI V7 load(1, XDATA, add(CFA_XSP16, literal(-6)))
          CFI R7 load(1, XDATA, add(CFA_XSP16, literal(-5)))
          CFI ?RET_LOW load(1, XDATA, add(CFA_XSP16, literal(-4)))
          CFI ?RET_HIGH load(1, XDATA, add(CFA_XSP16, literal(-3)))
          CFI DPL0 load(1, XDATA, add(CFA_XSP16, literal(-2)))
          CFI DPH0 load(1, XDATA, add(CFA_XSP16, literal(-1)))
          CFI CFA_XSP16 add(XSP16, 45)
          CFI Block cfiCond119 Using cfiCommon0
          CFI (cfiCond119) Function shell_tab
          CFI (cfiCond119) Conditional ??CrossCallReturnLabel_120
          CFI (cfiCond119) R6 load(1, XDATA, add(CFA_XSP16, literal(-15)))
          CFI (cfiCond119) VB load(1, XDATA, add(CFA_XSP16, literal(-14)))
          CFI (cfiCond119) V0 load(1, XDATA, add(CFA_XSP16, literal(-13)))
          CFI (cfiCond119) V1 load(1, XDATA, add(CFA_XSP16, literal(-12)))
          CFI (cfiCond119) V2 load(1, XDATA, add(CFA_XSP16, literal(-11)))
          CFI (cfiCond119) V3 load(1, XDATA, add(CFA_XSP16, literal(-10)))
          CFI (cfiCond119) V4 load(1, XDATA, add(CFA_XSP16, literal(-9)))
          CFI (cfiCond119) V5 load(1, XDATA, add(CFA_XSP16, literal(-8)))
          CFI (cfiCond119) V6 load(1, XDATA, add(CFA_XSP16, literal(-7)))
          CFI (cfiCond119) V7 load(1, XDATA, add(CFA_XSP16, literal(-6)))
          CFI (cfiCond119) R7 load(1, XDATA, add(CFA_XSP16, literal(-5)))
          CFI (cfiCond119) ?RET_LOW load(1, XDATA, add(CFA_XSP16, literal(-4)))
          CFI (cfiCond119) ?RET_HIGH load(1, XDATA, add(CFA_XSP16, literal(-3)))
          CFI (cfiCond119) DPL0 load(1, XDATA, add(CFA_XSP16, literal(-2)))
          CFI (cfiCond119) DPH0 load(1, XDATA, add(CFA_XSP16, literal(-1)))
          CFI (cfiCond119) CFA_XSP16 add(XSP16, 45)
          CFI Block cfiCond120 Using cfiCommon0
          CFI (cfiCond120) Function shell_parse
          CFI (cfiCond120) Conditional ??CrossCallReturnLabel_121
          CFI (cfiCond120) R6 load(1, XDATA, add(CFA_XSP16, literal(-15)))
          CFI (cfiCond120) VB load(1, XDATA, add(CFA_XSP16, literal(-14)))
          CFI (cfiCond120) V0 load(1, XDATA, add(CFA_XSP16, literal(-13)))
          CFI (cfiCond120) V1 load(1, XDATA, add(CFA_XSP16, literal(-12)))
          CFI (cfiCond120) V2 load(1, XDATA, add(CFA_XSP16, literal(-11)))
          CFI (cfiCond120) V3 load(1, XDATA, add(CFA_XSP16, literal(-10)))
          CFI (cfiCond120) V4 load(1, XDATA, add(CFA_XSP16, literal(-9)))
          CFI (cfiCond120) V5 load(1, XDATA, add(CFA_XSP16, literal(-8)))
          CFI (cfiCond120) V6 load(1, XDATA, add(CFA_XSP16, literal(-7)))
          CFI (cfiCond120) V7 load(1, XDATA, add(CFA_XSP16, literal(-6)))
          CFI (cfiCond120) R7 load(1, XDATA, add(CFA_XSP16, literal(-5)))
          CFI (cfiCond120) ?RET_LOW load(1, XDATA, add(CFA_XSP16, literal(-4)))
          CFI (cfiCond120) ?RET_HIGH load(1, XDATA, add(CFA_XSP16, literal(-3)))
          CFI (cfiCond120) DPL0 load(1, XDATA, add(CFA_XSP16, literal(-2)))
          CFI (cfiCond120) DPH0 load(1, XDATA, add(CFA_XSP16, literal(-1)))
          CFI (cfiCond120) CFA_XSP16 add(XSP16, 43)
          CFI Block cfiCond121 Using cfiCommon0
          CFI (cfiCond121) Function _shell_register
          CFI (cfiCond121) Conditional ??CrossCallReturnLabel_122
          CFI (cfiCond121) R6 load(1, XDATA, add(CFA_XSP16, literal(-15)))
          CFI (cfiCond121) VB load(1, XDATA, add(CFA_XSP16, literal(-14)))
          CFI (cfiCond121) V0 load(1, XDATA, add(CFA_XSP16, literal(-13)))
          CFI (cfiCond121) V1 load(1, XDATA, add(CFA_XSP16, literal(-12)))
          CFI (cfiCond121) V2 load(1, XDATA, add(CFA_XSP16, literal(-11)))
          CFI (cfiCond121) V3 load(1, XDATA, add(CFA_XSP16, literal(-10)))
          CFI (cfiCond121) V4 load(1, XDATA, add(CFA_XSP16, literal(-9)))
          CFI (cfiCond121) V5 load(1, XDATA, add(CFA_XSP16, literal(-8)))
          CFI (cfiCond121) V6 load(1, XDATA, add(CFA_XSP16, literal(-7)))
          CFI (cfiCond121) V7 load(1, XDATA, add(CFA_XSP16, literal(-6)))
          CFI (cfiCond121) R7 load(1, XDATA, add(CFA_XSP16, literal(-5)))
          CFI (cfiCond121) ?RET_LOW load(1, XDATA, add(CFA_XSP16, literal(-4)))
          CFI (cfiCond121) ?RET_HIGH load(1, XDATA, add(CFA_XSP16, literal(-3)))
          CFI (cfiCond121) DPL0 load(1, XDATA, add(CFA_XSP16, literal(-2)))
          CFI (cfiCond121) DPH0 load(1, XDATA, add(CFA_XSP16, literal(-1)))
          CFI (cfiCond121) CFA_XSP16 add(XSP16, 37)
          CFI Block cfiCond122 Using cfiCommon0
          CFI (cfiCond122) Function _shell_register
          CFI (cfiCond122) Conditional ??CrossCallReturnLabel_123
          CFI (cfiCond122) R6 load(1, XDATA, add(CFA_XSP16, literal(-15)))
          CFI (cfiCond122) VB load(1, XDATA, add(CFA_XSP16, literal(-14)))
          CFI (cfiCond122) V0 load(1, XDATA, add(CFA_XSP16, literal(-13)))
          CFI (cfiCond122) V1 load(1, XDATA, add(CFA_XSP16, literal(-12)))
          CFI (cfiCond122) V2 load(1, XDATA, add(CFA_XSP16, literal(-11)))
          CFI (cfiCond122) V3 load(1, XDATA, add(CFA_XSP16, literal(-10)))
          CFI (cfiCond122) V4 load(1, XDATA, add(CFA_XSP16, literal(-9)))
          CFI (cfiCond122) V5 load(1, XDATA, add(CFA_XSP16, literal(-8)))
          CFI (cfiCond122) V6 load(1, XDATA, add(CFA_XSP16, literal(-7)))
          CFI (cfiCond122) V7 load(1, XDATA, add(CFA_XSP16, literal(-6)))
          CFI (cfiCond122) R7 load(1, XDATA, add(CFA_XSP16, literal(-5)))
          CFI (cfiCond122) ?RET_LOW load(1, XDATA, add(CFA_XSP16, literal(-4)))
          CFI (cfiCond122) ?RET_HIGH load(1, XDATA, add(CFA_XSP16, literal(-3)))
          CFI (cfiCond122) DPL0 load(1, XDATA, add(CFA_XSP16, literal(-2)))
          CFI (cfiCond122) DPH0 load(1, XDATA, add(CFA_XSP16, literal(-1)))
          CFI (cfiCond122) CFA_XSP16 add(XSP16, 37)
          CFI Block cfiCond123 Using cfiCommon0
          CFI (cfiCond123) Function _shell_register
          CFI (cfiCond123) Conditional ??CrossCallReturnLabel_124
          CFI (cfiCond123) R6 load(1, XDATA, add(CFA_XSP16, literal(-15)))
          CFI (cfiCond123) VB load(1, XDATA, add(CFA_XSP16, literal(-14)))
          CFI (cfiCond123) V0 load(1, XDATA, add(CFA_XSP16, literal(-13)))
          CFI (cfiCond123) V1 load(1, XDATA, add(CFA_XSP16, literal(-12)))
          CFI (cfiCond123) V2 load(1, XDATA, add(CFA_XSP16, literal(-11)))
          CFI (cfiCond123) V3 load(1, XDATA, add(CFA_XSP16, literal(-10)))
          CFI (cfiCond123) V4 load(1, XDATA, add(CFA_XSP16, literal(-9)))
          CFI (cfiCond123) V5 load(1, XDATA, add(CFA_XSP16, literal(-8)))
          CFI (cfiCond123) V6 load(1, XDATA, add(CFA_XSP16, literal(-7)))
          CFI (cfiCond123) V7 load(1, XDATA, add(CFA_XSP16, literal(-6)))
          CFI (cfiCond123) R7 load(1, XDATA, add(CFA_XSP16, literal(-5)))
          CFI (cfiCond123) ?RET_LOW load(1, XDATA, add(CFA_XSP16, literal(-4)))
          CFI (cfiCond123) ?RET_HIGH load(1, XDATA, add(CFA_XSP16, literal(-3)))
          CFI (cfiCond123) DPL0 load(1, XDATA, add(CFA_XSP16, literal(-2)))
          CFI (cfiCond123) DPH0 load(1, XDATA, add(CFA_XSP16, literal(-1)))
          CFI (cfiCond123) CFA_XSP16 add(XSP16, 37)
          CFI Block cfiCond124 Using cfiCommon0
          CFI (cfiCond124) Function _shell_register
          CFI (cfiCond124) Conditional ??CrossCallReturnLabel_125
          CFI (cfiCond124) R6 load(1, XDATA, add(CFA_XSP16, literal(-15)))
          CFI (cfiCond124) VB load(1, XDATA, add(CFA_XSP16, literal(-14)))
          CFI (cfiCond124) V0 load(1, XDATA, add(CFA_XSP16, literal(-13)))
          CFI (cfiCond124) V1 load(1, XDATA, add(CFA_XSP16, literal(-12)))
          CFI (cfiCond124) V2 load(1, XDATA, add(CFA_XSP16, literal(-11)))
          CFI (cfiCond124) V3 load(1, XDATA, add(CFA_XSP16, literal(-10)))
          CFI (cfiCond124) V4 load(1, XDATA, add(CFA_XSP16, literal(-9)))
          CFI (cfiCond124) V5 load(1, XDATA, add(CFA_XSP16, literal(-8)))
          CFI (cfiCond124) V6 load(1, XDATA, add(CFA_XSP16, literal(-7)))
          CFI (cfiCond124) V7 load(1, XDATA, add(CFA_XSP16, literal(-6)))
          CFI (cfiCond124) R7 load(1, XDATA, add(CFA_XSP16, literal(-5)))
          CFI (cfiCond124) ?RET_LOW load(1, XDATA, add(CFA_XSP16, literal(-4)))
          CFI (cfiCond124) ?RET_HIGH load(1, XDATA, add(CFA_XSP16, literal(-3)))
          CFI (cfiCond124) DPL0 load(1, XDATA, add(CFA_XSP16, literal(-2)))
          CFI (cfiCond124) DPH0 load(1, XDATA, add(CFA_XSP16, literal(-1)))
          CFI (cfiCond124) CFA_XSP16 add(XSP16, 37)
          CFI Block cfiCond125 Using cfiCommon0
          CFI (cfiCond125) Function _shell_register
          CFI (cfiCond125) Conditional ??CrossCallReturnLabel_126
          CFI (cfiCond125) R6 load(1, XDATA, add(CFA_XSP16, literal(-15)))
          CFI (cfiCond125) VB load(1, XDATA, add(CFA_XSP16, literal(-14)))
          CFI (cfiCond125) V0 load(1, XDATA, add(CFA_XSP16, literal(-13)))
          CFI (cfiCond125) V1 load(1, XDATA, add(CFA_XSP16, literal(-12)))
          CFI (cfiCond125) V2 load(1, XDATA, add(CFA_XSP16, literal(-11)))
          CFI (cfiCond125) V3 load(1, XDATA, add(CFA_XSP16, literal(-10)))
          CFI (cfiCond125) V4 load(1, XDATA, add(CFA_XSP16, literal(-9)))
          CFI (cfiCond125) V5 load(1, XDATA, add(CFA_XSP16, literal(-8)))
          CFI (cfiCond125) V6 load(1, XDATA, add(CFA_XSP16, literal(-7)))
          CFI (cfiCond125) V7 load(1, XDATA, add(CFA_XSP16, literal(-6)))
          CFI (cfiCond125) R7 load(1, XDATA, add(CFA_XSP16, literal(-5)))
          CFI (cfiCond125) ?RET_LOW load(1, XDATA, add(CFA_XSP16, literal(-4)))
          CFI (cfiCond125) ?RET_HIGH load(1, XDATA, add(CFA_XSP16, literal(-3)))
          CFI (cfiCond125) DPL0 load(1, XDATA, add(CFA_XSP16, literal(-2)))
          CFI (cfiCond125) DPH0 load(1, XDATA, add(CFA_XSP16, literal(-1)))
          CFI (cfiCond125) CFA_XSP16 add(XSP16, 37)
          CFI Block cfiCond126 Using cfiCommon0
          CFI (cfiCond126) Function cmdline_param
          CFI (cfiCond126) Conditional ??CrossCallReturnLabel_127
          CFI (cfiCond126) R6 load(1, XDATA, add(CFA_XSP16, literal(-14)))
          CFI (cfiCond126) VB load(1, XDATA, add(CFA_XSP16, literal(-13)))
          CFI (cfiCond126) V0 load(1, XDATA, add(CFA_XSP16, literal(-12)))
          CFI (cfiCond126) V1 load(1, XDATA, add(CFA_XSP16, literal(-11)))
          CFI (cfiCond126) V2 load(1, XDATA, add(CFA_XSP16, literal(-10)))
          CFI (cfiCond126) V3 load(1, XDATA, add(CFA_XSP16, literal(-9)))
          CFI (cfiCond126) V4 load(1, XDATA, add(CFA_XSP16, literal(-8)))
          CFI (cfiCond126) V5 load(1, XDATA, add(CFA_XSP16, literal(-7)))
          CFI (cfiCond126) V6 load(1, XDATA, add(CFA_XSP16, literal(-6)))
          CFI (cfiCond126) R7 load(1, XDATA, add(CFA_XSP16, literal(-5)))
          CFI (cfiCond126) ?RET_LOW load(1, XDATA, add(CFA_XSP16, literal(-4)))
          CFI (cfiCond126) ?RET_HIGH load(1, XDATA, add(CFA_XSP16, literal(-3)))
          CFI (cfiCond126) DPL0 load(1, XDATA, add(CFA_XSP16, literal(-2)))
          CFI (cfiCond126) DPH0 load(1, XDATA, add(CFA_XSP16, literal(-1)))
          CFI (cfiCond126) CFA_XSP16 add(XSP16, 14)
          CFI Block cfiCond127 Using cfiCommon0
          CFI (cfiCond127) Function cmdline_gets
          CFI (cfiCond127) Conditional ??CrossCallReturnLabel_128
          CFI (cfiCond127) R6 load(1, XDATA, add(CFA_XSP16, literal(-15)))
          CFI (cfiCond127) VB load(1, XDATA, add(CFA_XSP16, literal(-14)))
          CFI (cfiCond127) V0 load(1, XDATA, add(CFA_XSP16, literal(-13)))
          CFI (cfiCond127) V1 load(1, XDATA, add(CFA_XSP16, literal(-12)))
          CFI (cfiCond127) V2 load(1, XDATA, add(CFA_XSP16, literal(-11)))
          CFI (cfiCond127) V3 load(1, XDATA, add(CFA_XSP16, literal(-10)))
          CFI (cfiCond127) V4 load(1, XDATA, add(CFA_XSP16, literal(-9)))
          CFI (cfiCond127) V5 load(1, XDATA, add(CFA_XSP16, literal(-8)))
          CFI (cfiCond127) V6 load(1, XDATA, add(CFA_XSP16, literal(-7)))
          CFI (cfiCond127) V7 load(1, XDATA, add(CFA_XSP16, literal(-6)))
          CFI (cfiCond127) R7 load(1, XDATA, add(CFA_XSP16, literal(-5)))
          CFI (cfiCond127) ?RET_LOW load(1, XDATA, add(CFA_XSP16, literal(-4)))
          CFI (cfiCond127) ?RET_HIGH load(1, XDATA, add(CFA_XSP16, literal(-3)))
          CFI (cfiCond127) DPL0 load(1, XDATA, add(CFA_XSP16, literal(-2)))
          CFI (cfiCond127) DPH0 load(1, XDATA, add(CFA_XSP16, literal(-1)))
          CFI (cfiCond127) CFA_XSP16 add(XSP16, 19)
          CFI Block cfiCond128 Using cfiCommon0
          CFI (cfiCond128) Function shell_input_init
          CFI (cfiCond128) Conditional ??CrossCallReturnLabel_129
          CFI (cfiCond128) R6 load(1, XDATA, add(CFA_XSP16, literal(-15)))
          CFI (cfiCond128) VB load(1, XDATA, add(CFA_XSP16, literal(-14)))
          CFI (cfiCond128) V0 load(1, XDATA, add(CFA_XSP16, literal(-13)))
          CFI (cfiCond128) V1 load(1, XDATA, add(CFA_XSP16, literal(-12)))
          CFI (cfiCond128) V2 load(1, XDATA, add(CFA_XSP16, literal(-11)))
          CFI (cfiCond128) V3 load(1, XDATA, add(CFA_XSP16, literal(-10)))
          CFI (cfiCond128) V4 load(1, XDATA, add(CFA_XSP16, literal(-9)))
          CFI (cfiCond128) V5 load(1, XDATA, add(CFA_XSP16, literal(-8)))
          CFI (cfiCond128) V6 load(1, XDATA, add(CFA_XSP16, literal(-7)))
          CFI (cfiCond128) V7 load(1, XDATA, add(CFA_XSP16, literal(-6)))
          CFI (cfiCond128) R7 load(1, XDATA, add(CFA_XSP16, literal(-5)))
          CFI (cfiCond128) ?RET_LOW load(1, XDATA, add(CFA_XSP16, literal(-4)))
          CFI (cfiCond128) ?RET_HIGH load(1, XDATA, add(CFA_XSP16, literal(-3)))
          CFI (cfiCond128) DPL0 load(1, XDATA, add(CFA_XSP16, literal(-2)))
          CFI (cfiCond128) DPH0 load(1, XDATA, add(CFA_XSP16, literal(-1)))
          CFI (cfiCond128) CFA_XSP16 add(XSP16, 19)
          CFI Block cfiCond129 Using cfiCommon0
          CFI (cfiCond129) Function shell_parse
          CFI (cfiCond129) Conditional ??CrossCallReturnLabel_130
          CFI (cfiCond129) R6 load(1, XDATA, add(CFA_XSP16, literal(-15)))
          CFI (cfiCond129) VB load(1, XDATA, add(CFA_XSP16, literal(-14)))
          CFI (cfiCond129) V0 load(1, XDATA, add(CFA_XSP16, literal(-13)))
          CFI (cfiCond129) V1 load(1, XDATA, add(CFA_XSP16, literal(-12)))
          CFI (cfiCond129) V2 load(1, XDATA, add(CFA_XSP16, literal(-11)))
          CFI (cfiCond129) V3 load(1, XDATA, add(CFA_XSP16, literal(-10)))
          CFI (cfiCond129) V4 load(1, XDATA, add(CFA_XSP16, literal(-9)))
          CFI (cfiCond129) V5 load(1, XDATA, add(CFA_XSP16, literal(-8)))
          CFI (cfiCond129) V6 load(1, XDATA, add(CFA_XSP16, literal(-7)))
          CFI (cfiCond129) V7 load(1, XDATA, add(CFA_XSP16, literal(-6)))
          CFI (cfiCond129) R7 load(1, XDATA, add(CFA_XSP16, literal(-5)))
          CFI (cfiCond129) ?RET_LOW load(1, XDATA, add(CFA_XSP16, literal(-4)))
          CFI (cfiCond129) ?RET_HIGH load(1, XDATA, add(CFA_XSP16, literal(-3)))
          CFI (cfiCond129) DPL0 load(1, XDATA, add(CFA_XSP16, literal(-2)))
          CFI (cfiCond129) DPH0 load(1, XDATA, add(CFA_XSP16, literal(-1)))
          CFI (cfiCond129) CFA_XSP16 add(XSP16, 43)
          CFI Block cfiCond130 Using cfiCommon0
          CFI (cfiCond130) Function shell_input_init
          CFI (cfiCond130) Conditional ??CrossCallReturnLabel_131
          CFI (cfiCond130) R6 load(1, XDATA, add(CFA_XSP16, literal(-15)))
          CFI (cfiCond130) VB load(1, XDATA, add(CFA_XSP16, literal(-14)))
          CFI (cfiCond130) V0 load(1, XDATA, add(CFA_XSP16, literal(-13)))
          CFI (cfiCond130) V1 load(1, XDATA, add(CFA_XSP16, literal(-12)))
          CFI (cfiCond130) V2 load(1, XDATA, add(CFA_XSP16, literal(-11)))
          CFI (cfiCond130) V3 load(1, XDATA, add(CFA_XSP16, literal(-10)))
          CFI (cfiCond130) V4 load(1, XDATA, add(CFA_XSP16, literal(-9)))
          CFI (cfiCond130) V5 load(1, XDATA, add(CFA_XSP16, literal(-8)))
          CFI (cfiCond130) V6 load(1, XDATA, add(CFA_XSP16, literal(-7)))
          CFI (cfiCond130) V7 load(1, XDATA, add(CFA_XSP16, literal(-6)))
          CFI (cfiCond130) R7 load(1, XDATA, add(CFA_XSP16, literal(-5)))
          CFI (cfiCond130) ?RET_LOW load(1, XDATA, add(CFA_XSP16, literal(-4)))
          CFI (cfiCond130) ?RET_HIGH load(1, XDATA, add(CFA_XSP16, literal(-3)))
          CFI (cfiCond130) DPL0 load(1, XDATA, add(CFA_XSP16, literal(-2)))
          CFI (cfiCond130) DPH0 load(1, XDATA, add(CFA_XSP16, literal(-1)))
          CFI (cfiCond130) CFA_XSP16 add(XSP16, 19)
          CFI Block cfiCond131 Using cfiCommon0
          CFI (cfiCond131) Function shell_input_init
          CFI (cfiCond131) Conditional ??CrossCallReturnLabel_132
          CFI (cfiCond131) R6 load(1, XDATA, add(CFA_XSP16, literal(-15)))
          CFI (cfiCond131) VB load(1, XDATA, add(CFA_XSP16, literal(-14)))
          CFI (cfiCond131) V0 load(1, XDATA, add(CFA_XSP16, literal(-13)))
          CFI (cfiCond131) V1 load(1, XDATA, add(CFA_XSP16, literal(-12)))
          CFI (cfiCond131) V2 load(1, XDATA, add(CFA_XSP16, literal(-11)))
          CFI (cfiCond131) V3 load(1, XDATA, add(CFA_XSP16, literal(-10)))
          CFI (cfiCond131) V4 load(1, XDATA, add(CFA_XSP16, literal(-9)))
          CFI (cfiCond131) V5 load(1, XDATA, add(CFA_XSP16, literal(-8)))
          CFI (cfiCond131) V6 load(1, XDATA, add(CFA_XSP16, literal(-7)))
          CFI (cfiCond131) V7 load(1, XDATA, add(CFA_XSP16, literal(-6)))
          CFI (cfiCond131) R7 load(1, XDATA, add(CFA_XSP16, literal(-5)))
          CFI (cfiCond131) ?RET_LOW load(1, XDATA, add(CFA_XSP16, literal(-4)))
          CFI (cfiCond131) ?RET_HIGH load(1, XDATA, add(CFA_XSP16, literal(-3)))
          CFI (cfiCond131) DPL0 load(1, XDATA, add(CFA_XSP16, literal(-2)))
          CFI (cfiCond131) DPH0 load(1, XDATA, add(CFA_XSP16, literal(-1)))
          CFI (cfiCond131) CFA_XSP16 add(XSP16, 19)
          CFI Block cfiPicker132 Using cfiCommon1
          CFI (cfiPicker132) NoFunction
          CFI (cfiPicker132) Picker
        MOV     A,R0
          CFI EndBlock cfiCond118
          CFI EndBlock cfiCond119
          CFI EndBlock cfiCond120
          CFI EndBlock cfiCond121
          CFI EndBlock cfiCond122
          CFI EndBlock cfiCond123
          CFI EndBlock cfiCond124
          CFI EndBlock cfiCond125
          CFI EndBlock cfiCond126
          CFI EndBlock cfiCond127
          CFI EndBlock cfiCond128
          CFI EndBlock cfiCond129
          CFI EndBlock cfiCond130
          CFI EndBlock cfiCond131
          CFI EndBlock cfiPicker132
        REQUIRE ??Subroutine58_0
        ; // Fall through to label ??Subroutine58_0

        RSEG NEAR_CODE:CODE:NOROOT(0)
??Subroutine58_0:
          CFI Block cfiCond133 Using cfiCommon0
          CFI Function shell_backspace
          CFI Conditional ??CrossCallReturnLabel_117
          CFI R6 load(1, XDATA, add(CFA_XSP16, literal(-15)))
          CFI VB load(1, XDATA, add(CFA_XSP16, literal(-14)))
          CFI V0 load(1, XDATA, add(CFA_XSP16, literal(-13)))
          CFI V1 load(1, XDATA, add(CFA_XSP16, literal(-12)))
          CFI V2 load(1, XDATA, add(CFA_XSP16, literal(-11)))
          CFI V3 load(1, XDATA, add(CFA_XSP16, literal(-10)))
          CFI V4 load(1, XDATA, add(CFA_XSP16, literal(-9)))
          CFI V5 load(1, XDATA, add(CFA_XSP16, literal(-8)))
          CFI V6 load(1, XDATA, add(CFA_XSP16, literal(-7)))
          CFI V7 load(1, XDATA, add(CFA_XSP16, literal(-6)))
          CFI R7 load(1, XDATA, add(CFA_XSP16, literal(-5)))
          CFI ?RET_LOW load(1, XDATA, add(CFA_XSP16, literal(-4)))
          CFI ?RET_HIGH load(1, XDATA, add(CFA_XSP16, literal(-3)))
          CFI DPL0 load(1, XDATA, add(CFA_XSP16, literal(-2)))
          CFI DPH0 load(1, XDATA, add(CFA_XSP16, literal(-1)))
          CFI CFA_XSP16 add(XSP16, 117)
          CFI Block cfiCond134 Using cfiCommon0
          CFI (cfiCond134) Function cmdline_gets
          CFI (cfiCond134) Conditional ??CrossCallReturnLabel_118
          CFI (cfiCond134) R6 load(1, XDATA, add(CFA_XSP16, literal(-15)))
          CFI (cfiCond134) VB load(1, XDATA, add(CFA_XSP16, literal(-14)))
          CFI (cfiCond134) V0 load(1, XDATA, add(CFA_XSP16, literal(-13)))
          CFI (cfiCond134) V1 load(1, XDATA, add(CFA_XSP16, literal(-12)))
          CFI (cfiCond134) V2 load(1, XDATA, add(CFA_XSP16, literal(-11)))
          CFI (cfiCond134) V3 load(1, XDATA, add(CFA_XSP16, literal(-10)))
          CFI (cfiCond134) V4 load(1, XDATA, add(CFA_XSP16, literal(-9)))
          CFI (cfiCond134) V5 load(1, XDATA, add(CFA_XSP16, literal(-8)))
          CFI (cfiCond134) V6 load(1, XDATA, add(CFA_XSP16, literal(-7)))
          CFI (cfiCond134) V7 load(1, XDATA, add(CFA_XSP16, literal(-6)))
          CFI (cfiCond134) R7 load(1, XDATA, add(CFA_XSP16, literal(-5)))
          CFI (cfiCond134) ?RET_LOW load(1, XDATA, add(CFA_XSP16, literal(-4)))
          CFI (cfiCond134) ?RET_HIGH load(1, XDATA, add(CFA_XSP16, literal(-3)))
          CFI (cfiCond134) DPL0 load(1, XDATA, add(CFA_XSP16, literal(-2)))
          CFI (cfiCond134) DPH0 load(1, XDATA, add(CFA_XSP16, literal(-1)))
          CFI (cfiCond134) CFA_XSP16 add(XSP16, 19)
          CFI Block cfiCond135 Using cfiCommon0
          CFI (cfiCond135) Function shell_tab
          CFI (cfiCond135) Conditional ??CrossCallReturnLabel_119
          CFI (cfiCond135) R6 load(1, XDATA, add(CFA_XSP16, literal(-15)))
          CFI (cfiCond135) VB load(1, XDATA, add(CFA_XSP16, literal(-14)))
          CFI (cfiCond135) V0 load(1, XDATA, add(CFA_XSP16, literal(-13)))
          CFI (cfiCond135) V1 load(1, XDATA, add(CFA_XSP16, literal(-12)))
          CFI (cfiCond135) V2 load(1, XDATA, add(CFA_XSP16, literal(-11)))
          CFI (cfiCond135) V3 load(1, XDATA, add(CFA_XSP16, literal(-10)))
          CFI (cfiCond135) V4 load(1, XDATA, add(CFA_XSP16, literal(-9)))
          CFI (cfiCond135) V5 load(1, XDATA, add(CFA_XSP16, literal(-8)))
          CFI (cfiCond135) V6 load(1, XDATA, add(CFA_XSP16, literal(-7)))
          CFI (cfiCond135) V7 load(1, XDATA, add(CFA_XSP16, literal(-6)))
          CFI (cfiCond135) R7 load(1, XDATA, add(CFA_XSP16, literal(-5)))
          CFI (cfiCond135) ?RET_LOW load(1, XDATA, add(CFA_XSP16, literal(-4)))
          CFI (cfiCond135) ?RET_HIGH load(1, XDATA, add(CFA_XSP16, literal(-3)))
          CFI (cfiCond135) DPL0 load(1, XDATA, add(CFA_XSP16, literal(-2)))
          CFI (cfiCond135) DPH0 load(1, XDATA, add(CFA_XSP16, literal(-1)))
          CFI (cfiCond135) CFA_XSP16 add(XSP16, 45)
          CFI Block cfiCond136 Using cfiCommon0
          CFI (cfiCond136) Function shell_tab
          CFI (cfiCond136) Conditional ??CrossCallReturnLabel_120
          CFI (cfiCond136) R6 load(1, XDATA, add(CFA_XSP16, literal(-15)))
          CFI (cfiCond136) VB load(1, XDATA, add(CFA_XSP16, literal(-14)))
          CFI (cfiCond136) V0 load(1, XDATA, add(CFA_XSP16, literal(-13)))
          CFI (cfiCond136) V1 load(1, XDATA, add(CFA_XSP16, literal(-12)))
          CFI (cfiCond136) V2 load(1, XDATA, add(CFA_XSP16, literal(-11)))
          CFI (cfiCond136) V3 load(1, XDATA, add(CFA_XSP16, literal(-10)))
          CFI (cfiCond136) V4 load(1, XDATA, add(CFA_XSP16, literal(-9)))
          CFI (cfiCond136) V5 load(1, XDATA, add(CFA_XSP16, literal(-8)))
          CFI (cfiCond136) V6 load(1, XDATA, add(CFA_XSP16, literal(-7)))
          CFI (cfiCond136) V7 load(1, XDATA, add(CFA_XSP16, literal(-6)))
          CFI (cfiCond136) R7 load(1, XDATA, add(CFA_XSP16, literal(-5)))
          CFI (cfiCond136) ?RET_LOW load(1, XDATA, add(CFA_XSP16, literal(-4)))
          CFI (cfiCond136) ?RET_HIGH load(1, XDATA, add(CFA_XSP16, literal(-3)))
          CFI (cfiCond136) DPL0 load(1, XDATA, add(CFA_XSP16, literal(-2)))
          CFI (cfiCond136) DPH0 load(1, XDATA, add(CFA_XSP16, literal(-1)))
          CFI (cfiCond136) CFA_XSP16 add(XSP16, 45)
          CFI Block cfiCond137 Using cfiCommon0
          CFI (cfiCond137) Function shell_parse
          CFI (cfiCond137) Conditional ??CrossCallReturnLabel_121
          CFI (cfiCond137) R6 load(1, XDATA, add(CFA_XSP16, literal(-15)))
          CFI (cfiCond137) VB load(1, XDATA, add(CFA_XSP16, literal(-14)))
          CFI (cfiCond137) V0 load(1, XDATA, add(CFA_XSP16, literal(-13)))
          CFI (cfiCond137) V1 load(1, XDATA, add(CFA_XSP16, literal(-12)))
          CFI (cfiCond137) V2 load(1, XDATA, add(CFA_XSP16, literal(-11)))
          CFI (cfiCond137) V3 load(1, XDATA, add(CFA_XSP16, literal(-10)))
          CFI (cfiCond137) V4 load(1, XDATA, add(CFA_XSP16, literal(-9)))
          CFI (cfiCond137) V5 load(1, XDATA, add(CFA_XSP16, literal(-8)))
          CFI (cfiCond137) V6 load(1, XDATA, add(CFA_XSP16, literal(-7)))
          CFI (cfiCond137) V7 load(1, XDATA, add(CFA_XSP16, literal(-6)))
          CFI (cfiCond137) R7 load(1, XDATA, add(CFA_XSP16, literal(-5)))
          CFI (cfiCond137) ?RET_LOW load(1, XDATA, add(CFA_XSP16, literal(-4)))
          CFI (cfiCond137) ?RET_HIGH load(1, XDATA, add(CFA_XSP16, literal(-3)))
          CFI (cfiCond137) DPL0 load(1, XDATA, add(CFA_XSP16, literal(-2)))
          CFI (cfiCond137) DPH0 load(1, XDATA, add(CFA_XSP16, literal(-1)))
          CFI (cfiCond137) CFA_XSP16 add(XSP16, 43)
          CFI Block cfiCond138 Using cfiCommon0
          CFI (cfiCond138) Function _shell_register
          CFI (cfiCond138) Conditional ??CrossCallReturnLabel_122
          CFI (cfiCond138) R6 load(1, XDATA, add(CFA_XSP16, literal(-15)))
          CFI (cfiCond138) VB load(1, XDATA, add(CFA_XSP16, literal(-14)))
          CFI (cfiCond138) V0 load(1, XDATA, add(CFA_XSP16, literal(-13)))
          CFI (cfiCond138) V1 load(1, XDATA, add(CFA_XSP16, literal(-12)))
          CFI (cfiCond138) V2 load(1, XDATA, add(CFA_XSP16, literal(-11)))
          CFI (cfiCond138) V3 load(1, XDATA, add(CFA_XSP16, literal(-10)))
          CFI (cfiCond138) V4 load(1, XDATA, add(CFA_XSP16, literal(-9)))
          CFI (cfiCond138) V5 load(1, XDATA, add(CFA_XSP16, literal(-8)))
          CFI (cfiCond138) V6 load(1, XDATA, add(CFA_XSP16, literal(-7)))
          CFI (cfiCond138) V7 load(1, XDATA, add(CFA_XSP16, literal(-6)))
          CFI (cfiCond138) R7 load(1, XDATA, add(CFA_XSP16, literal(-5)))
          CFI (cfiCond138) ?RET_LOW load(1, XDATA, add(CFA_XSP16, literal(-4)))
          CFI (cfiCond138) ?RET_HIGH load(1, XDATA, add(CFA_XSP16, literal(-3)))
          CFI (cfiCond138) DPL0 load(1, XDATA, add(CFA_XSP16, literal(-2)))
          CFI (cfiCond138) DPH0 load(1, XDATA, add(CFA_XSP16, literal(-1)))
          CFI (cfiCond138) CFA_XSP16 add(XSP16, 37)
          CFI Block cfiCond139 Using cfiCommon0
          CFI (cfiCond139) Function _shell_register
          CFI (cfiCond139) Conditional ??CrossCallReturnLabel_123
          CFI (cfiCond139) R6 load(1, XDATA, add(CFA_XSP16, literal(-15)))
          CFI (cfiCond139) VB load(1, XDATA, add(CFA_XSP16, literal(-14)))
          CFI (cfiCond139) V0 load(1, XDATA, add(CFA_XSP16, literal(-13)))
          CFI (cfiCond139) V1 load(1, XDATA, add(CFA_XSP16, literal(-12)))
          CFI (cfiCond139) V2 load(1, XDATA, add(CFA_XSP16, literal(-11)))
          CFI (cfiCond139) V3 load(1, XDATA, add(CFA_XSP16, literal(-10)))
          CFI (cfiCond139) V4 load(1, XDATA, add(CFA_XSP16, literal(-9)))
          CFI (cfiCond139) V5 load(1, XDATA, add(CFA_XSP16, literal(-8)))
          CFI (cfiCond139) V6 load(1, XDATA, add(CFA_XSP16, literal(-7)))
          CFI (cfiCond139) V7 load(1, XDATA, add(CFA_XSP16, literal(-6)))
          CFI (cfiCond139) R7 load(1, XDATA, add(CFA_XSP16, literal(-5)))
          CFI (cfiCond139) ?RET_LOW load(1, XDATA, add(CFA_XSP16, literal(-4)))
          CFI (cfiCond139) ?RET_HIGH load(1, XDATA, add(CFA_XSP16, literal(-3)))
          CFI (cfiCond139) DPL0 load(1, XDATA, add(CFA_XSP16, literal(-2)))
          CFI (cfiCond139) DPH0 load(1, XDATA, add(CFA_XSP16, literal(-1)))
          CFI (cfiCond139) CFA_XSP16 add(XSP16, 37)
          CFI Block cfiCond140 Using cfiCommon0
          CFI (cfiCond140) Function _shell_register
          CFI (cfiCond140) Conditional ??CrossCallReturnLabel_124
          CFI (cfiCond140) R6 load(1, XDATA, add(CFA_XSP16, literal(-15)))
          CFI (cfiCond140) VB load(1, XDATA, add(CFA_XSP16, literal(-14)))
          CFI (cfiCond140) V0 load(1, XDATA, add(CFA_XSP16, literal(-13)))
          CFI (cfiCond140) V1 load(1, XDATA, add(CFA_XSP16, literal(-12)))
          CFI (cfiCond140) V2 load(1, XDATA, add(CFA_XSP16, literal(-11)))
          CFI (cfiCond140) V3 load(1, XDATA, add(CFA_XSP16, literal(-10)))
          CFI (cfiCond140) V4 load(1, XDATA, add(CFA_XSP16, literal(-9)))
          CFI (cfiCond140) V5 load(1, XDATA, add(CFA_XSP16, literal(-8)))
          CFI (cfiCond140) V6 load(1, XDATA, add(CFA_XSP16, literal(-7)))
          CFI (cfiCond140) V7 load(1, XDATA, add(CFA_XSP16, literal(-6)))
          CFI (cfiCond140) R7 load(1, XDATA, add(CFA_XSP16, literal(-5)))
          CFI (cfiCond140) ?RET_LOW load(1, XDATA, add(CFA_XSP16, literal(-4)))
          CFI (cfiCond140) ?RET_HIGH load(1, XDATA, add(CFA_XSP16, literal(-3)))
          CFI (cfiCond140) DPL0 load(1, XDATA, add(CFA_XSP16, literal(-2)))
          CFI (cfiCond140) DPH0 load(1, XDATA, add(CFA_XSP16, literal(-1)))
          CFI (cfiCond140) CFA_XSP16 add(XSP16, 37)
          CFI Block cfiCond141 Using cfiCommon0
          CFI (cfiCond141) Function _shell_register
          CFI (cfiCond141) Conditional ??CrossCallReturnLabel_125
          CFI (cfiCond141) R6 load(1, XDATA, add(CFA_XSP16, literal(-15)))
          CFI (cfiCond141) VB load(1, XDATA, add(CFA_XSP16, literal(-14)))
          CFI (cfiCond141) V0 load(1, XDATA, add(CFA_XSP16, literal(-13)))
          CFI (cfiCond141) V1 load(1, XDATA, add(CFA_XSP16, literal(-12)))
          CFI (cfiCond141) V2 load(1, XDATA, add(CFA_XSP16, literal(-11)))
          CFI (cfiCond141) V3 load(1, XDATA, add(CFA_XSP16, literal(-10)))
          CFI (cfiCond141) V4 load(1, XDATA, add(CFA_XSP16, literal(-9)))
          CFI (cfiCond141) V5 load(1, XDATA, add(CFA_XSP16, literal(-8)))
          CFI (cfiCond141) V6 load(1, XDATA, add(CFA_XSP16, literal(-7)))
          CFI (cfiCond141) V7 load(1, XDATA, add(CFA_XSP16, literal(-6)))
          CFI (cfiCond141) R7 load(1, XDATA, add(CFA_XSP16, literal(-5)))
          CFI (cfiCond141) ?RET_LOW load(1, XDATA, add(CFA_XSP16, literal(-4)))
          CFI (cfiCond141) ?RET_HIGH load(1, XDATA, add(CFA_XSP16, literal(-3)))
          CFI (cfiCond141) DPL0 load(1, XDATA, add(CFA_XSP16, literal(-2)))
          CFI (cfiCond141) DPH0 load(1, XDATA, add(CFA_XSP16, literal(-1)))
          CFI (cfiCond141) CFA_XSP16 add(XSP16, 37)
          CFI Block cfiCond142 Using cfiCommon0
          CFI (cfiCond142) Function _shell_register
          CFI (cfiCond142) Conditional ??CrossCallReturnLabel_126
          CFI (cfiCond142) R6 load(1, XDATA, add(CFA_XSP16, literal(-15)))
          CFI (cfiCond142) VB load(1, XDATA, add(CFA_XSP16, literal(-14)))
          CFI (cfiCond142) V0 load(1, XDATA, add(CFA_XSP16, literal(-13)))
          CFI (cfiCond142) V1 load(1, XDATA, add(CFA_XSP16, literal(-12)))
          CFI (cfiCond142) V2 load(1, XDATA, add(CFA_XSP16, literal(-11)))
          CFI (cfiCond142) V3 load(1, XDATA, add(CFA_XSP16, literal(-10)))
          CFI (cfiCond142) V4 load(1, XDATA, add(CFA_XSP16, literal(-9)))
          CFI (cfiCond142) V5 load(1, XDATA, add(CFA_XSP16, literal(-8)))
          CFI (cfiCond142) V6 load(1, XDATA, add(CFA_XSP16, literal(-7)))
          CFI (cfiCond142) V7 load(1, XDATA, add(CFA_XSP16, literal(-6)))
          CFI (cfiCond142) R7 load(1, XDATA, add(CFA_XSP16, literal(-5)))
          CFI (cfiCond142) ?RET_LOW load(1, XDATA, add(CFA_XSP16, literal(-4)))
          CFI (cfiCond142) ?RET_HIGH load(1, XDATA, add(CFA_XSP16, literal(-3)))
          CFI (cfiCond142) DPL0 load(1, XDATA, add(CFA_XSP16, literal(-2)))
          CFI (cfiCond142) DPH0 load(1, XDATA, add(CFA_XSP16, literal(-1)))
          CFI (cfiCond142) CFA_XSP16 add(XSP16, 37)
          CFI Block cfiCond143 Using cfiCommon0
          CFI (cfiCond143) Function cmdline_param
          CFI (cfiCond143) Conditional ??CrossCallReturnLabel_127
          CFI (cfiCond143) R6 load(1, XDATA, add(CFA_XSP16, literal(-14)))
          CFI (cfiCond143) VB load(1, XDATA, add(CFA_XSP16, literal(-13)))
          CFI (cfiCond143) V0 load(1, XDATA, add(CFA_XSP16, literal(-12)))
          CFI (cfiCond143) V1 load(1, XDATA, add(CFA_XSP16, literal(-11)))
          CFI (cfiCond143) V2 load(1, XDATA, add(CFA_XSP16, literal(-10)))
          CFI (cfiCond143) V3 load(1, XDATA, add(CFA_XSP16, literal(-9)))
          CFI (cfiCond143) V4 load(1, XDATA, add(CFA_XSP16, literal(-8)))
          CFI (cfiCond143) V5 load(1, XDATA, add(CFA_XSP16, literal(-7)))
          CFI (cfiCond143) V6 load(1, XDATA, add(CFA_XSP16, literal(-6)))
          CFI (cfiCond143) R7 load(1, XDATA, add(CFA_XSP16, literal(-5)))
          CFI (cfiCond143) ?RET_LOW load(1, XDATA, add(CFA_XSP16, literal(-4)))
          CFI (cfiCond143) ?RET_HIGH load(1, XDATA, add(CFA_XSP16, literal(-3)))
          CFI (cfiCond143) DPL0 load(1, XDATA, add(CFA_XSP16, literal(-2)))
          CFI (cfiCond143) DPH0 load(1, XDATA, add(CFA_XSP16, literal(-1)))
          CFI (cfiCond143) CFA_XSP16 add(XSP16, 14)
          CFI Block cfiCond144 Using cfiCommon0
          CFI (cfiCond144) Function cmdline_gets
          CFI (cfiCond144) Conditional ??CrossCallReturnLabel_128
          CFI (cfiCond144) R6 load(1, XDATA, add(CFA_XSP16, literal(-15)))
          CFI (cfiCond144) VB load(1, XDATA, add(CFA_XSP16, literal(-14)))
          CFI (cfiCond144) V0 load(1, XDATA, add(CFA_XSP16, literal(-13)))
          CFI (cfiCond144) V1 load(1, XDATA, add(CFA_XSP16, literal(-12)))
          CFI (cfiCond144) V2 load(1, XDATA, add(CFA_XSP16, literal(-11)))
          CFI (cfiCond144) V3 load(1, XDATA, add(CFA_XSP16, literal(-10)))
          CFI (cfiCond144) V4 load(1, XDATA, add(CFA_XSP16, literal(-9)))
          CFI (cfiCond144) V5 load(1, XDATA, add(CFA_XSP16, literal(-8)))
          CFI (cfiCond144) V6 load(1, XDATA, add(CFA_XSP16, literal(-7)))
          CFI (cfiCond144) V7 load(1, XDATA, add(CFA_XSP16, literal(-6)))
          CFI (cfiCond144) R7 load(1, XDATA, add(CFA_XSP16, literal(-5)))
          CFI (cfiCond144) ?RET_LOW load(1, XDATA, add(CFA_XSP16, literal(-4)))
          CFI (cfiCond144) ?RET_HIGH load(1, XDATA, add(CFA_XSP16, literal(-3)))
          CFI (cfiCond144) DPL0 load(1, XDATA, add(CFA_XSP16, literal(-2)))
          CFI (cfiCond144) DPH0 load(1, XDATA, add(CFA_XSP16, literal(-1)))
          CFI (cfiCond144) CFA_XSP16 add(XSP16, 19)
          CFI Block cfiCond145 Using cfiCommon0
          CFI (cfiCond145) Function shell_input_init
          CFI (cfiCond145) Conditional ??CrossCallReturnLabel_129
          CFI (cfiCond145) R6 load(1, XDATA, add(CFA_XSP16, literal(-15)))
          CFI (cfiCond145) VB load(1, XDATA, add(CFA_XSP16, literal(-14)))
          CFI (cfiCond145) V0 load(1, XDATA, add(CFA_XSP16, literal(-13)))
          CFI (cfiCond145) V1 load(1, XDATA, add(CFA_XSP16, literal(-12)))
          CFI (cfiCond145) V2 load(1, XDATA, add(CFA_XSP16, literal(-11)))
          CFI (cfiCond145) V3 load(1, XDATA, add(CFA_XSP16, literal(-10)))
          CFI (cfiCond145) V4 load(1, XDATA, add(CFA_XSP16, literal(-9)))
          CFI (cfiCond145) V5 load(1, XDATA, add(CFA_XSP16, literal(-8)))
          CFI (cfiCond145) V6 load(1, XDATA, add(CFA_XSP16, literal(-7)))
          CFI (cfiCond145) V7 load(1, XDATA, add(CFA_XSP16, literal(-6)))
          CFI (cfiCond145) R7 load(1, XDATA, add(CFA_XSP16, literal(-5)))
          CFI (cfiCond145) ?RET_LOW load(1, XDATA, add(CFA_XSP16, literal(-4)))
          CFI (cfiCond145) ?RET_HIGH load(1, XDATA, add(CFA_XSP16, literal(-3)))
          CFI (cfiCond145) DPL0 load(1, XDATA, add(CFA_XSP16, literal(-2)))
          CFI (cfiCond145) DPH0 load(1, XDATA, add(CFA_XSP16, literal(-1)))
          CFI (cfiCond145) CFA_XSP16 add(XSP16, 19)
          CFI Block cfiCond146 Using cfiCommon0
          CFI (cfiCond146) Function shell_parse
          CFI (cfiCond146) Conditional ??CrossCallReturnLabel_130
          CFI (cfiCond146) R6 load(1, XDATA, add(CFA_XSP16, literal(-15)))
          CFI (cfiCond146) VB load(1, XDATA, add(CFA_XSP16, literal(-14)))
          CFI (cfiCond146) V0 load(1, XDATA, add(CFA_XSP16, literal(-13)))
          CFI (cfiCond146) V1 load(1, XDATA, add(CFA_XSP16, literal(-12)))
          CFI (cfiCond146) V2 load(1, XDATA, add(CFA_XSP16, literal(-11)))
          CFI (cfiCond146) V3 load(1, XDATA, add(CFA_XSP16, literal(-10)))
          CFI (cfiCond146) V4 load(1, XDATA, add(CFA_XSP16, literal(-9)))
          CFI (cfiCond146) V5 load(1, XDATA, add(CFA_XSP16, literal(-8)))
          CFI (cfiCond146) V6 load(1, XDATA, add(CFA_XSP16, literal(-7)))
          CFI (cfiCond146) V7 load(1, XDATA, add(CFA_XSP16, literal(-6)))
          CFI (cfiCond146) R7 load(1, XDATA, add(CFA_XSP16, literal(-5)))
          CFI (cfiCond146) ?RET_LOW load(1, XDATA, add(CFA_XSP16, literal(-4)))
          CFI (cfiCond146) ?RET_HIGH load(1, XDATA, add(CFA_XSP16, literal(-3)))
          CFI (cfiCond146) DPL0 load(1, XDATA, add(CFA_XSP16, literal(-2)))
          CFI (cfiCond146) DPH0 load(1, XDATA, add(CFA_XSP16, literal(-1)))
          CFI (cfiCond146) CFA_XSP16 add(XSP16, 43)
          CFI Block cfiCond147 Using cfiCommon0
          CFI (cfiCond147) Function shell_input_init
          CFI (cfiCond147) Conditional ??CrossCallReturnLabel_131
          CFI (cfiCond147) R6 load(1, XDATA, add(CFA_XSP16, literal(-15)))
          CFI (cfiCond147) VB load(1, XDATA, add(CFA_XSP16, literal(-14)))
          CFI (cfiCond147) V0 load(1, XDATA, add(CFA_XSP16, literal(-13)))
          CFI (cfiCond147) V1 load(1, XDATA, add(CFA_XSP16, literal(-12)))
          CFI (cfiCond147) V2 load(1, XDATA, add(CFA_XSP16, literal(-11)))
          CFI (cfiCond147) V3 load(1, XDATA, add(CFA_XSP16, literal(-10)))
          CFI (cfiCond147) V4 load(1, XDATA, add(CFA_XSP16, literal(-9)))
          CFI (cfiCond147) V5 load(1, XDATA, add(CFA_XSP16, literal(-8)))
          CFI (cfiCond147) V6 load(1, XDATA, add(CFA_XSP16, literal(-7)))
          CFI (cfiCond147) V7 load(1, XDATA, add(CFA_XSP16, literal(-6)))
          CFI (cfiCond147) R7 load(1, XDATA, add(CFA_XSP16, literal(-5)))
          CFI (cfiCond147) ?RET_LOW load(1, XDATA, add(CFA_XSP16, literal(-4)))
          CFI (cfiCond147) ?RET_HIGH load(1, XDATA, add(CFA_XSP16, literal(-3)))
          CFI (cfiCond147) DPL0 load(1, XDATA, add(CFA_XSP16, literal(-2)))
          CFI (cfiCond147) DPH0 load(1, XDATA, add(CFA_XSP16, literal(-1)))
          CFI (cfiCond147) CFA_XSP16 add(XSP16, 19)
          CFI Block cfiCond148 Using cfiCommon0
          CFI (cfiCond148) Function shell_input_init
          CFI (cfiCond148) Conditional ??CrossCallReturnLabel_132
          CFI (cfiCond148) R6 load(1, XDATA, add(CFA_XSP16, literal(-15)))
          CFI (cfiCond148) VB load(1, XDATA, add(CFA_XSP16, literal(-14)))
          CFI (cfiCond148) V0 load(1, XDATA, add(CFA_XSP16, literal(-13)))
          CFI (cfiCond148) V1 load(1, XDATA, add(CFA_XSP16, literal(-12)))
          CFI (cfiCond148) V2 load(1, XDATA, add(CFA_XSP16, literal(-11)))
          CFI (cfiCond148) V3 load(1, XDATA, add(CFA_XSP16, literal(-10)))
          CFI (cfiCond148) V4 load(1, XDATA, add(CFA_XSP16, literal(-9)))
          CFI (cfiCond148) V5 load(1, XDATA, add(CFA_XSP16, literal(-8)))
          CFI (cfiCond148) V6 load(1, XDATA, add(CFA_XSP16, literal(-7)))
          CFI (cfiCond148) V7 load(1, XDATA, add(CFA_XSP16, literal(-6)))
          CFI (cfiCond148) R7 load(1, XDATA, add(CFA_XSP16, literal(-5)))
          CFI (cfiCond148) ?RET_LOW load(1, XDATA, add(CFA_XSP16, literal(-4)))
          CFI (cfiCond148) ?RET_HIGH load(1, XDATA, add(CFA_XSP16, literal(-3)))
          CFI (cfiCond148) DPL0 load(1, XDATA, add(CFA_XSP16, literal(-2)))
          CFI (cfiCond148) DPH0 load(1, XDATA, add(CFA_XSP16, literal(-1)))
          CFI (cfiCond148) CFA_XSP16 add(XSP16, 19)
          CFI Block cfiPicker149 Using cfiCommon1
          CFI (cfiPicker149) NoFunction
          CFI (cfiPicker149) Picker
        MOVX    @DPTR,A
        INC     DPTR
        MOV     A,R1
        MOVX    @DPTR,A
        RET
          CFI EndBlock cfiCond133
          CFI EndBlock cfiCond134
          CFI EndBlock cfiCond135
          CFI EndBlock cfiCond136
          CFI EndBlock cfiCond137
          CFI EndBlock cfiCond138
          CFI EndBlock cfiCond139
          CFI EndBlock cfiCond140
          CFI EndBlock cfiCond141
          CFI EndBlock cfiCond142
          CFI EndBlock cfiCond143
          CFI EndBlock cfiCond144
          CFI EndBlock cfiCond145
          CFI EndBlock cfiCond146
          CFI EndBlock cfiCond147
          CFI EndBlock cfiCond148
          CFI EndBlock cfiPicker149

        RSEG NEAR_CODE:CODE:NOROOT(0)
?Subroutine43:
          CFI Block cfiCond150 Using cfiCommon0
          CFI Function shell_parse
          CFI Conditional ??CrossCallReturnLabel_115
          CFI R6 load(1, XDATA, add(CFA_XSP16, literal(-15)))
          CFI VB load(1, XDATA, add(CFA_XSP16, literal(-14)))
          CFI V0 load(1, XDATA, add(CFA_XSP16, literal(-13)))
          CFI V1 load(1, XDATA, add(CFA_XSP16, literal(-12)))
          CFI V2 load(1, XDATA, add(CFA_XSP16, literal(-11)))
          CFI V3 load(1, XDATA, add(CFA_XSP16, literal(-10)))
          CFI V4 load(1, XDATA, add(CFA_XSP16, literal(-9)))
          CFI V5 load(1, XDATA, add(CFA_XSP16, literal(-8)))
          CFI V6 load(1, XDATA, add(CFA_XSP16, literal(-7)))
          CFI V7 load(1, XDATA, add(CFA_XSP16, literal(-6)))
          CFI R7 load(1, XDATA, add(CFA_XSP16, literal(-5)))
          CFI ?RET_LOW load(1, XDATA, add(CFA_XSP16, literal(-4)))
          CFI ?RET_HIGH load(1, XDATA, add(CFA_XSP16, literal(-3)))
          CFI DPL0 load(1, XDATA, add(CFA_XSP16, literal(-2)))
          CFI DPH0 load(1, XDATA, add(CFA_XSP16, literal(-1)))
          CFI CFA_XSP16 add(XSP16, 43)
          CFI Block cfiCond151 Using cfiCommon0
          CFI (cfiCond151) Function shell_input_init
          CFI (cfiCond151) Conditional ??CrossCallReturnLabel_116, ??CrossCallReturnLabel_131
          CFI (cfiCond151) R6 load(1, XDATA, add(CFA_XSP16, literal(-15)))
          CFI (cfiCond151) VB load(1, XDATA, add(CFA_XSP16, literal(-14)))
          CFI (cfiCond151) V0 load(1, XDATA, add(CFA_XSP16, literal(-13)))
          CFI (cfiCond151) V1 load(1, XDATA, add(CFA_XSP16, literal(-12)))
          CFI (cfiCond151) V2 load(1, XDATA, add(CFA_XSP16, literal(-11)))
          CFI (cfiCond151) V3 load(1, XDATA, add(CFA_XSP16, literal(-10)))
          CFI (cfiCond151) V4 load(1, XDATA, add(CFA_XSP16, literal(-9)))
          CFI (cfiCond151) V5 load(1, XDATA, add(CFA_XSP16, literal(-8)))
          CFI (cfiCond151) V6 load(1, XDATA, add(CFA_XSP16, literal(-7)))
          CFI (cfiCond151) V7 load(1, XDATA, add(CFA_XSP16, literal(-6)))
          CFI (cfiCond151) R7 load(1, XDATA, add(CFA_XSP16, literal(-5)))
          CFI (cfiCond151) ?RET_LOW load(1, XDATA, add(CFA_XSP16, literal(-4)))
          CFI (cfiCond151) ?RET_HIGH load(1, XDATA, add(CFA_XSP16, literal(-3)))
          CFI (cfiCond151) DPL0 load(1, XDATA, add(CFA_XSP16, literal(-2)))
          CFI (cfiCond151) DPH0 load(1, XDATA, add(CFA_XSP16, literal(-1)))
          CFI (cfiCond151) CFA_SP SP+-4
          CFI (cfiCond151) CFA_XSP16 add(XSP16, 19)
          CFI Block cfiCond152 Using cfiCommon0
          CFI (cfiCond152) Function shell_input_init
          CFI (cfiCond152) Conditional ??CrossCallReturnLabel_116, ??CrossCallReturnLabel_132
          CFI (cfiCond152) R6 load(1, XDATA, add(CFA_XSP16, literal(-15)))
          CFI (cfiCond152) VB load(1, XDATA, add(CFA_XSP16, literal(-14)))
          CFI (cfiCond152) V0 load(1, XDATA, add(CFA_XSP16, literal(-13)))
          CFI (cfiCond152) V1 load(1, XDATA, add(CFA_XSP16, literal(-12)))
          CFI (cfiCond152) V2 load(1, XDATA, add(CFA_XSP16, literal(-11)))
          CFI (cfiCond152) V3 load(1, XDATA, add(CFA_XSP16, literal(-10)))
          CFI (cfiCond152) V4 load(1, XDATA, add(CFA_XSP16, literal(-9)))
          CFI (cfiCond152) V5 load(1, XDATA, add(CFA_XSP16, literal(-8)))
          CFI (cfiCond152) V6 load(1, XDATA, add(CFA_XSP16, literal(-7)))
          CFI (cfiCond152) V7 load(1, XDATA, add(CFA_XSP16, literal(-6)))
          CFI (cfiCond152) R7 load(1, XDATA, add(CFA_XSP16, literal(-5)))
          CFI (cfiCond152) ?RET_LOW load(1, XDATA, add(CFA_XSP16, literal(-4)))
          CFI (cfiCond152) ?RET_HIGH load(1, XDATA, add(CFA_XSP16, literal(-3)))
          CFI (cfiCond152) DPL0 load(1, XDATA, add(CFA_XSP16, literal(-2)))
          CFI (cfiCond152) DPH0 load(1, XDATA, add(CFA_XSP16, literal(-1)))
          CFI (cfiCond152) CFA_SP SP+-4
          CFI (cfiCond152) CFA_XSP16 add(XSP16, 19)
          CFI Block cfiCond153 Using cfiCommon0
          CFI (cfiCond153) Function shell_parse
          CFI (cfiCond153) Conditional ??CrossCallReturnLabel_116, ??CrossCallReturnLabel_130
          CFI (cfiCond153) R6 load(1, XDATA, add(CFA_XSP16, literal(-15)))
          CFI (cfiCond153) VB load(1, XDATA, add(CFA_XSP16, literal(-14)))
          CFI (cfiCond153) V0 load(1, XDATA, add(CFA_XSP16, literal(-13)))
          CFI (cfiCond153) V1 load(1, XDATA, add(CFA_XSP16, literal(-12)))
          CFI (cfiCond153) V2 load(1, XDATA, add(CFA_XSP16, literal(-11)))
          CFI (cfiCond153) V3 load(1, XDATA, add(CFA_XSP16, literal(-10)))
          CFI (cfiCond153) V4 load(1, XDATA, add(CFA_XSP16, literal(-9)))
          CFI (cfiCond153) V5 load(1, XDATA, add(CFA_XSP16, literal(-8)))
          CFI (cfiCond153) V6 load(1, XDATA, add(CFA_XSP16, literal(-7)))
          CFI (cfiCond153) V7 load(1, XDATA, add(CFA_XSP16, literal(-6)))
          CFI (cfiCond153) R7 load(1, XDATA, add(CFA_XSP16, literal(-5)))
          CFI (cfiCond153) ?RET_LOW load(1, XDATA, add(CFA_XSP16, literal(-4)))
          CFI (cfiCond153) ?RET_HIGH load(1, XDATA, add(CFA_XSP16, literal(-3)))
          CFI (cfiCond153) DPL0 load(1, XDATA, add(CFA_XSP16, literal(-2)))
          CFI (cfiCond153) DPH0 load(1, XDATA, add(CFA_XSP16, literal(-1)))
          CFI (cfiCond153) CFA_SP SP+-4
          CFI (cfiCond153) CFA_XSP16 add(XSP16, 43)
          CFI Block cfiPicker154 Using cfiCommon1
          CFI (cfiPicker154) NoFunction
          CFI (cfiPicker154) Picker
        INC     DPTR
        MOVX    A,@DPTR
        ADDC    A,#0x0
        MOV     R1,A
        MOV     DPL,?XSP + 0
        MOV     DPH,?XSP + 1
        RET
          CFI EndBlock cfiCond150
          CFI EndBlock cfiCond151
          CFI EndBlock cfiCond152
          CFI EndBlock cfiCond153
          CFI EndBlock cfiPicker154

        RSEG NEAR_CODE:CODE:NOROOT(0)
?Subroutine4:
          CFI Block cfiCond155 Using cfiCommon0
          CFI Function shell_tab
          CFI Conditional ??CrossCallReturnLabel_0
          CFI R6 load(1, XDATA, add(CFA_XSP16, literal(-15)))
          CFI VB load(1, XDATA, add(CFA_XSP16, literal(-14)))
          CFI V0 load(1, XDATA, add(CFA_XSP16, literal(-13)))
          CFI V1 load(1, XDATA, add(CFA_XSP16, literal(-12)))
          CFI V2 load(1, XDATA, add(CFA_XSP16, literal(-11)))
          CFI V3 load(1, XDATA, add(CFA_XSP16, literal(-10)))
          CFI V4 load(1, XDATA, add(CFA_XSP16, literal(-9)))
          CFI V5 load(1, XDATA, add(CFA_XSP16, literal(-8)))
          CFI V6 load(1, XDATA, add(CFA_XSP16, literal(-7)))
          CFI V7 load(1, XDATA, add(CFA_XSP16, literal(-6)))
          CFI R7 load(1, XDATA, add(CFA_XSP16, literal(-5)))
          CFI ?RET_LOW load(1, XDATA, add(CFA_XSP16, literal(-4)))
          CFI ?RET_HIGH load(1, XDATA, add(CFA_XSP16, literal(-3)))
          CFI DPL0 load(1, XDATA, add(CFA_XSP16, literal(-2)))
          CFI DPH0 load(1, XDATA, add(CFA_XSP16, literal(-1)))
          CFI CFA_XSP16 add(XSP16, 45)
          CFI Block cfiCond156 Using cfiCommon0
          CFI (cfiCond156) Function shell_parse
          CFI (cfiCond156) Conditional ??CrossCallReturnLabel_1
          CFI (cfiCond156) R6 load(1, XDATA, add(CFA_XSP16, literal(-15)))
          CFI (cfiCond156) VB load(1, XDATA, add(CFA_XSP16, literal(-14)))
          CFI (cfiCond156) V0 load(1, XDATA, add(CFA_XSP16, literal(-13)))
          CFI (cfiCond156) V1 load(1, XDATA, add(CFA_XSP16, literal(-12)))
          CFI (cfiCond156) V2 load(1, XDATA, add(CFA_XSP16, literal(-11)))
          CFI (cfiCond156) V3 load(1, XDATA, add(CFA_XSP16, literal(-10)))
          CFI (cfiCond156) V4 load(1, XDATA, add(CFA_XSP16, literal(-9)))
          CFI (cfiCond156) V5 load(1, XDATA, add(CFA_XSP16, literal(-8)))
          CFI (cfiCond156) V6 load(1, XDATA, add(CFA_XSP16, literal(-7)))
          CFI (cfiCond156) V7 load(1, XDATA, add(CFA_XSP16, literal(-6)))
          CFI (cfiCond156) R7 load(1, XDATA, add(CFA_XSP16, literal(-5)))
          CFI (cfiCond156) ?RET_LOW load(1, XDATA, add(CFA_XSP16, literal(-4)))
          CFI (cfiCond156) ?RET_HIGH load(1, XDATA, add(CFA_XSP16, literal(-3)))
          CFI (cfiCond156) DPL0 load(1, XDATA, add(CFA_XSP16, literal(-2)))
          CFI (cfiCond156) DPH0 load(1, XDATA, add(CFA_XSP16, literal(-1)))
          CFI (cfiCond156) CFA_XSP16 add(XSP16, 43)
          CFI Block cfiCond157 Using cfiCommon0
          CFI (cfiCond157) Function shell_parse
          CFI (cfiCond157) Conditional ??CrossCallReturnLabel_2
          CFI (cfiCond157) R6 load(1, XDATA, add(CFA_XSP16, literal(-15)))
          CFI (cfiCond157) VB load(1, XDATA, add(CFA_XSP16, literal(-14)))
          CFI (cfiCond157) V0 load(1, XDATA, add(CFA_XSP16, literal(-13)))
          CFI (cfiCond157) V1 load(1, XDATA, add(CFA_XSP16, literal(-12)))
          CFI (cfiCond157) V2 load(1, XDATA, add(CFA_XSP16, literal(-11)))
          CFI (cfiCond157) V3 load(1, XDATA, add(CFA_XSP16, literal(-10)))
          CFI (cfiCond157) V4 load(1, XDATA, add(CFA_XSP16, literal(-9)))
          CFI (cfiCond157) V5 load(1, XDATA, add(CFA_XSP16, literal(-8)))
          CFI (cfiCond157) V6 load(1, XDATA, add(CFA_XSP16, literal(-7)))
          CFI (cfiCond157) V7 load(1, XDATA, add(CFA_XSP16, literal(-6)))
          CFI (cfiCond157) R7 load(1, XDATA, add(CFA_XSP16, literal(-5)))
          CFI (cfiCond157) ?RET_LOW load(1, XDATA, add(CFA_XSP16, literal(-4)))
          CFI (cfiCond157) ?RET_HIGH load(1, XDATA, add(CFA_XSP16, literal(-3)))
          CFI (cfiCond157) DPL0 load(1, XDATA, add(CFA_XSP16, literal(-2)))
          CFI (cfiCond157) DPH0 load(1, XDATA, add(CFA_XSP16, literal(-1)))
          CFI (cfiCond157) CFA_XSP16 add(XSP16, 43)
          CFI Block cfiCond158 Using cfiCommon0
          CFI (cfiCond158) Function _shell_register
          CFI (cfiCond158) Conditional ??CrossCallReturnLabel_3
          CFI (cfiCond158) R6 load(1, XDATA, add(CFA_XSP16, literal(-15)))
          CFI (cfiCond158) VB load(1, XDATA, add(CFA_XSP16, literal(-14)))
          CFI (cfiCond158) V0 load(1, XDATA, add(CFA_XSP16, literal(-13)))
          CFI (cfiCond158) V1 load(1, XDATA, add(CFA_XSP16, literal(-12)))
          CFI (cfiCond158) V2 load(1, XDATA, add(CFA_XSP16, literal(-11)))
          CFI (cfiCond158) V3 load(1, XDATA, add(CFA_XSP16, literal(-10)))
          CFI (cfiCond158) V4 load(1, XDATA, add(CFA_XSP16, literal(-9)))
          CFI (cfiCond158) V5 load(1, XDATA, add(CFA_XSP16, literal(-8)))
          CFI (cfiCond158) V6 load(1, XDATA, add(CFA_XSP16, literal(-7)))
          CFI (cfiCond158) V7 load(1, XDATA, add(CFA_XSP16, literal(-6)))
          CFI (cfiCond158) R7 load(1, XDATA, add(CFA_XSP16, literal(-5)))
          CFI (cfiCond158) ?RET_LOW load(1, XDATA, add(CFA_XSP16, literal(-4)))
          CFI (cfiCond158) ?RET_HIGH load(1, XDATA, add(CFA_XSP16, literal(-3)))
          CFI (cfiCond158) DPL0 load(1, XDATA, add(CFA_XSP16, literal(-2)))
          CFI (cfiCond158) DPH0 load(1, XDATA, add(CFA_XSP16, literal(-1)))
          CFI (cfiCond158) CFA_XSP16 add(XSP16, 37)
          CFI Block cfiCond159 Using cfiCommon0
          CFI (cfiCond159) Function _shell_register
          CFI (cfiCond159) Conditional ??CrossCallReturnLabel_4
          CFI (cfiCond159) R6 load(1, XDATA, add(CFA_XSP16, literal(-15)))
          CFI (cfiCond159) VB load(1, XDATA, add(CFA_XSP16, literal(-14)))
          CFI (cfiCond159) V0 load(1, XDATA, add(CFA_XSP16, literal(-13)))
          CFI (cfiCond159) V1 load(1, XDATA, add(CFA_XSP16, literal(-12)))
          CFI (cfiCond159) V2 load(1, XDATA, add(CFA_XSP16, literal(-11)))
          CFI (cfiCond159) V3 load(1, XDATA, add(CFA_XSP16, literal(-10)))
          CFI (cfiCond159) V4 load(1, XDATA, add(CFA_XSP16, literal(-9)))
          CFI (cfiCond159) V5 load(1, XDATA, add(CFA_XSP16, literal(-8)))
          CFI (cfiCond159) V6 load(1, XDATA, add(CFA_XSP16, literal(-7)))
          CFI (cfiCond159) V7 load(1, XDATA, add(CFA_XSP16, literal(-6)))
          CFI (cfiCond159) R7 load(1, XDATA, add(CFA_XSP16, literal(-5)))
          CFI (cfiCond159) ?RET_LOW load(1, XDATA, add(CFA_XSP16, literal(-4)))
          CFI (cfiCond159) ?RET_HIGH load(1, XDATA, add(CFA_XSP16, literal(-3)))
          CFI (cfiCond159) DPL0 load(1, XDATA, add(CFA_XSP16, literal(-2)))
          CFI (cfiCond159) DPH0 load(1, XDATA, add(CFA_XSP16, literal(-1)))
          CFI (cfiCond159) CFA_XSP16 add(XSP16, 37)
          CFI Block cfiPicker160 Using cfiCommon1
          CFI (cfiPicker160) NoFunction
          CFI (cfiPicker160) Picker
        MOV     A,R4
        MOVX    @DPTR,A
        INC     DPTR
        CLR     A
        MOVX    @DPTR,A
        INC     DPTR
        MOVX    @DPTR,A
        INC     DPTR
        MOVX    @DPTR,A
        RET
          CFI EndBlock cfiCond155
          CFI EndBlock cfiCond156
          CFI EndBlock cfiCond157
          CFI EndBlock cfiCond158
          CFI EndBlock cfiCond159
          CFI EndBlock cfiPicker160
//  508 
//  509 /**
//  510   * @brief    控制台清屏
//  511   * @param    arg  : 命令行内存
//  512   * @return   don't care
//  513 */

        RSEG NEAR_CODE:CODE:NOROOT(0)
//  514 static void shell_clean_screen(void * arg)
shell_clean_screen:
          CFI Block cfiBlock161 Using cfiCommon0
          CFI Function shell_clean_screen
        CODE
//  515 {
        FUNCALL shell_clean_screen, printf
        LOCFRAME ISTACK, 0, STACK
        LOCFRAME PSTACK, 0, STACK
        LOCFRAME XSTACK, 19, STACK
        LOCFRAME IOVERLAY, 0, STATIC
        LOCFRAME DOVERLAY, 0, STATIC
        ARGFRAME ISTACK, 0, STACK
        ARGFRAME PSTACK, 0, STACK
        ARGFRAME XSTACK, 19, STACK
        ARGFRAME IOVERLAY, 0, STATIC
        ARGFRAME DOVERLAY, 0, STATIC
        REQUIRE ?V0
        REQUIRE ?V1
        MOV     A,#-0x9
        LCALL   ?FUNC_ENTER_XDATA
          CFI DPH0 load(1, XDATA, add(CFA_XSP16, literal(-1)))
          CFI DPL0 load(1, XDATA, add(CFA_XSP16, literal(-2)))
          CFI ?RET_HIGH load(1, XDATA, add(CFA_XSP16, literal(-3)))
          CFI ?RET_LOW load(1, XDATA, add(CFA_XSP16, literal(-4)))
          CFI R7 load(1, XDATA, add(CFA_XSP16, literal(-5)))
          CFI V1 load(1, XDATA, add(CFA_XSP16, literal(-6)))
          CFI V0 load(1, XDATA, add(CFA_XSP16, literal(-7)))
          CFI VB load(1, XDATA, add(CFA_XSP16, literal(-8)))
          CFI R6 load(1, XDATA, add(CFA_XSP16, literal(-9)))
          CFI CFA_SP SP+0
          CFI CFA_XSP16 add(XSP16, 9)
        ; Saved register size: 9
        ; Auto size: 0
//  516 	struct shell_input * shellin ; 
//  517 	shellin = container_of(arg, struct shell_input, cmdline);
//  518 	printf("\033[2J\033[%ld;%ldH%s",(int32_t)0,(int32_t)0,shellin->sign);
        ; Setup parameters for call to function printf
        MOV     A,R2
        ADD     A,#-0x32
        MOV     ?V0,A
        MOV     A,R3
        ADDC    A,#-0x1
        MOV     ?V1,A
        MOV     R0,#?V0
        LCALL   ?PUSH_XSTACK_I_TWO
          CFI CFA_XSP16 add(XSP16, 11)
        MOV     DPTR,#__Constant_0
        LCALL   ?PUSH_XSTACK8_X_FOUR
          CFI CFA_XSP16 add(XSP16, 15)
        MOV     DPTR,#__Constant_0
        LCALL   ?PUSH_XSTACK8_X_FOUR
          CFI CFA_XSP16 add(XSP16, 19)
        MOV     R2,#`?<Constant "\\033[2J\\033[%ld;%ldH%s">` & 0xff
        MOV     R3,#(`?<Constant "\\033[2J\\033[%ld;%ldH%s">` >> 8) & 0xff
        LCALL   printf
        MOV     A,#0xa
        SJMP    ??Subroutine59_0
          CFI EndBlock cfiBlock161
//  519 	return ;
//  520 }

        RSEG NEAR_CODE:CODE:NOROOT(0)
?Subroutine2:
          CFI Block cfiBlock162 Using cfiCommon0
          CFI NoFunction
          CFI CFA_SP SP+0
          CFI CFA_XSP16 add(XSP16, 11)
          CFI VB load(1, XDATA, add(CFA_XSP16, literal(-8)))
          CFI DPL0 load(1, XDATA, add(CFA_XSP16, literal(-2)))
          CFI DPH0 load(1, XDATA, add(CFA_XSP16, literal(-1)))
          CFI R6 load(1, XDATA, add(CFA_XSP16, literal(-9)))
          CFI R7 load(1, XDATA, add(CFA_XSP16, literal(-5)))
          CFI V0 load(1, XDATA, add(CFA_XSP16, literal(-7)))
          CFI V1 load(1, XDATA, add(CFA_XSP16, literal(-6)))
          CFI ?RET_HIGH load(1, XDATA, add(CFA_XSP16, literal(-3)))
          CFI ?RET_LOW load(1, XDATA, add(CFA_XSP16, literal(-4)))
        MOV     A,#0x2
          CFI EndBlock cfiBlock162
        REQUIRE ??Subroutine59_0
        ; // Fall through to label ??Subroutine59_0

        RSEG NEAR_CODE:CODE:NOROOT(0)
??Subroutine59_0:
          CFI Block cfiBlock163 Using cfiCommon0
          CFI NoFunction
          CFI CFA_SP SP+0
          CFI CFA_XSP16 add(XSP16, 19)
          CFI VB load(1, XDATA, add(CFA_XSP16, literal(-8)))
          CFI DPL0 load(1, XDATA, add(CFA_XSP16, literal(-2)))
          CFI DPH0 load(1, XDATA, add(CFA_XSP16, literal(-1)))
          CFI R6 load(1, XDATA, add(CFA_XSP16, literal(-9)))
          CFI R7 load(1, XDATA, add(CFA_XSP16, literal(-5)))
          CFI V0 load(1, XDATA, add(CFA_XSP16, literal(-7)))
          CFI V1 load(1, XDATA, add(CFA_XSP16, literal(-6)))
          CFI ?RET_HIGH load(1, XDATA, add(CFA_XSP16, literal(-3)))
          CFI ?RET_LOW load(1, XDATA, add(CFA_XSP16, literal(-4)))
          CFI Invalid
        LCALL   ?DEALLOC_XSTACK8
          CFI EndBlock cfiBlock163
        REQUIRE ??Subroutine60_0
        ; // Fall through to label ??Subroutine60_0

        RSEG NEAR_CODE:CODE:NOROOT(0)
??Subroutine60_0:
          CFI Block cfiBlock164 Using cfiCommon0
          CFI NoFunction
          CFI CFA_SP SP+0
          CFI CFA_XSP16 add(XSP16, 9)
          CFI VB load(1, XDATA, add(CFA_XSP16, literal(-8)))
          CFI DPL0 load(1, XDATA, add(CFA_XSP16, literal(-2)))
          CFI DPH0 load(1, XDATA, add(CFA_XSP16, literal(-1)))
          CFI R6 load(1, XDATA, add(CFA_XSP16, literal(-9)))
          CFI R7 load(1, XDATA, add(CFA_XSP16, literal(-5)))
          CFI V0 load(1, XDATA, add(CFA_XSP16, literal(-7)))
          CFI V1 load(1, XDATA, add(CFA_XSP16, literal(-6)))
          CFI ?RET_HIGH load(1, XDATA, add(CFA_XSP16, literal(-3)))
          CFI ?RET_LOW load(1, XDATA, add(CFA_XSP16, literal(-4)))
        MOV     R7,#0x2
        LJMP    ?FUNC_LEAVE_XDATA
          CFI EndBlock cfiBlock164
//  521 
//  522 /**
//  523   * @author   古么宁
//  524   * @brief    显示所有注册了的命令
//  525   * @param    arg  : 命令行内存
//  526   * @return   don't care
//  527 */

        RSEG NEAR_CODE:CODE:NOROOT(0)
//  528 static void shell_list_cmd(void * arg)
shell_list_cmd:
          CFI Block cfiBlock165 Using cfiCommon0
          CFI Function shell_list_cmd
        CODE
//  529 {
        FUNCALL shell_list_cmd, printf
        LOCFRAME ISTACK, 0, STACK
        LOCFRAME PSTACK, 0, STACK
        LOCFRAME XSTACK, 19, STACK
        LOCFRAME IOVERLAY, 0, STATIC
        LOCFRAME DOVERLAY, 0, STATIC
        ARGFRAME ISTACK, 0, STACK
        ARGFRAME PSTACK, 0, STACK
        ARGFRAME XSTACK, 19, STACK
        ARGFRAME IOVERLAY, 0, STATIC
        ARGFRAME DOVERLAY, 0, STATIC
        FUNCALL shell_list_cmd, printf
        LOCFRAME ISTACK, 0, STACK
        LOCFRAME PSTACK, 0, STACK
        LOCFRAME XSTACK, 19, STACK
        LOCFRAME IOVERLAY, 0, STATIC
        LOCFRAME DOVERLAY, 0, STATIC
        ARGFRAME ISTACK, 0, STACK
        ARGFRAME PSTACK, 0, STACK
        ARGFRAME XSTACK, 19, STACK
        ARGFRAME IOVERLAY, 0, STATIC
        ARGFRAME DOVERLAY, 0, STATIC
        FUNCALL shell_list_cmd, printf
        LOCFRAME ISTACK, 0, STACK
        LOCFRAME PSTACK, 0, STACK
        LOCFRAME XSTACK, 19, STACK
        LOCFRAME IOVERLAY, 0, STATIC
        LOCFRAME DOVERLAY, 0, STATIC
        ARGFRAME ISTACK, 0, STACK
        ARGFRAME PSTACK, 0, STACK
        ARGFRAME XSTACK, 19, STACK
        ARGFRAME IOVERLAY, 0, STATIC
        ARGFRAME DOVERLAY, 0, STATIC
        REQUIRE ?V0
        REQUIRE ?V1
        REQUIRE ?V2
        REQUIRE ?V3
        REQUIRE ?V4
        REQUIRE ?V5
        REQUIRE ?V6
        REQUIRE ?V7
        MOV     A,#-0xf
        LCALL   ?FUNC_ENTER_XDATA
          CFI DPH0 load(1, XDATA, add(CFA_XSP16, literal(-1)))
          CFI DPL0 load(1, XDATA, add(CFA_XSP16, literal(-2)))
          CFI ?RET_HIGH load(1, XDATA, add(CFA_XSP16, literal(-3)))
          CFI ?RET_LOW load(1, XDATA, add(CFA_XSP16, literal(-4)))
          CFI R7 load(1, XDATA, add(CFA_XSP16, literal(-5)))
          CFI V7 load(1, XDATA, add(CFA_XSP16, literal(-6)))
          CFI V6 load(1, XDATA, add(CFA_XSP16, literal(-7)))
          CFI V5 load(1, XDATA, add(CFA_XSP16, literal(-8)))
          CFI V4 load(1, XDATA, add(CFA_XSP16, literal(-9)))
          CFI V3 load(1, XDATA, add(CFA_XSP16, literal(-10)))
          CFI V2 load(1, XDATA, add(CFA_XSP16, literal(-11)))
          CFI V1 load(1, XDATA, add(CFA_XSP16, literal(-12)))
          CFI V0 load(1, XDATA, add(CFA_XSP16, literal(-13)))
          CFI VB load(1, XDATA, add(CFA_XSP16, literal(-14)))
          CFI R6 load(1, XDATA, add(CFA_XSP16, literal(-15)))
          CFI CFA_SP SP+0
          CFI CFA_XSP16 add(XSP16, 15)
        ; Saved register size: 15
        ; Auto size: 2
        MOV     A,#-0x2
        LCALL   ?ALLOC_XSTACK8
          CFI CFA_XSP16 add(XSP16, 17)
        LCALL   ?Subroutine12
//  530 	struct shell_input * shellin ;
//  531 	struct shellcommand * cmd;
//  532 	uint32_t firstchar = 0;
??CrossCallReturnLabel_93:
        MOV     ?V4,#0x0
        MOV     ?V5,#0x0
        MOV     ?V6,#0x0
        MOV     ?V7,#0x0
//  533 	cmd_entry_t  * node ;
//  534 	
//  535 	for (node = FIRST(&shellcmdroot) ; node; node = NEXT(node)){
        MOV     DPTR,#shellcmdroot
        SJMP    ??shell_list_cmd_0
//  536 		cmd = container_of(node,struct shellcommand, node);
//  537 		if (firstchar != (cmd->ID & 0xfc000000)) {
??shell_list_cmd_1:
        MOV     DPL,R6
        MOV     DPH,R7
        INC     DPTR
        INC     DPTR
        INC     DPTR
        INC     DPTR
        INC     DPTR
        INC     DPTR
        MOV     R0,#?V0
        LCALL   ?L_MOV_X
        MOV     DPTR,#__Constant_fc000000
        MOV     R0,#?V0
        LCALL   ?L_AND_X
        MOV     R0,#?V4
        MOV     R1,#?V0
        LCALL   ?L_EQ
        JZ      ??shell_list_cmd_2
//  538 			firstchar = cmd->ID & 0xfc000000;
        MOV     ?V4,?V0
        MOV     ?V5,?V1
        MOV     ?V6,?V2
        MOV     ?V7,?V3
//  539 			printf("\r\n(%c)------",(char)((firstchar>>26)|0x40));
        ; Setup parameters for call to function printf
        MOV     A,#0x1a
        MOV     R0,#?V0
        LCALL   ?UL_SHR
        MOV     A,?V0
        ORL     A,#0x40
        MOV     ?V0,A
        MOV     R0,#?V0
        LCALL   ?PUSH_XSTACK_I_TWO
          CFI CFA_XSP16 add(XSP16, 19)
        MOV     R2,#`?<Constant "\\r\\n(%c)------">` & 0xff
        MOV     R3,#(`?<Constant "\\r\\n(%c)------">` >> 8) & 0xff
        LCALL   printf
        MOV     A,#0x2
        LCALL   ?DEALLOC_XSTACK8
          CFI CFA_XSP16 add(XSP16, 17)
//  540 		}
//  541 		printf("\r\n\t%s", cmd->name);
??shell_list_cmd_2:
        ; Setup parameters for call to function printf
        MOV     DPL,R6
        MOV     DPH,R7
        INC     DPTR
        INC     DPTR
        LCALL   ?PUSH_XSTACK8_X_TWO
          CFI CFA_XSP16 add(XSP16, 19)
        MOV     R2,#`?<Constant "\\r\\n\\t%s">` & 0xff
        MOV     R3,#(`?<Constant "\\r\\n\\t%s">` >> 8) & 0xff
        LCALL   printf
        MOV     A,#0x2
        LCALL   ?DEALLOC_XSTACK8
          CFI CFA_XSP16 add(XSP16, 17)
//  542 	}
        MOV     DPL,R6
        MOV     DPH,R7
??shell_list_cmd_0:
        LCALL   ??Subroutine54_0
??CrossCallReturnLabel_102:
        MOV     A,R6
        ORL     A,R7
        JNZ     ??shell_list_cmd_1
//  543 
//  544 	shellin = container_of(arg, struct shell_input, cmdline);
//  545 	printf("\r\n\r\n%s",shellin->sign);
        ; Setup parameters for call to function printf
        MOV     DPL,?XSP + 0
        MOV     DPH,?XSP + 1
        MOVX    A,@DPTR
        ADD     A,#-0x32
        MOV     ?V0,A
        INC     DPTR
        MOVX    A,@DPTR
        ADDC    A,#-0x1
        MOV     ?V1,A
        MOV     R0,#?V0
        LCALL   ?PUSH_XSTACK_I_TWO
          CFI CFA_XSP16 add(XSP16, 19)
        MOV     R2,#`?<Constant "\\r\\n\\r\\n%s">` & 0xff
        MOV     R3,#(`?<Constant "\\r\\n\\r\\n%s">` >> 8) & 0xff
        LCALL   printf
        MOV     A,#0x2
        LCALL   ?DEALLOC_XSTACK8
          CFI CFA_XSP16 add(XSP16, 17)
//  546 }
        MOV     A,#0x2
        LJMP    ??Subroutine53_0
          CFI EndBlock cfiBlock165
//  547 
//  548 /**
//  549   * @author   古么宁
//  550   * @brief    注册一个命令号和对应的命令函数 
//  551   * @note     前缀为 '_' 表示不建议直接调用此函数
//  552   * @param    cmd_name : 命令名
//  553   * @param    cmd_func : 命令名对应的执行函数
//  554   * @param    newcmd   : 命令控制块对应的指针
//  555   * @param    confirm  : 命令是否需要确认信息
//  556   * @return   don't care
//  557 */

        RSEG NEAR_CODE:CODE:NOROOT(0)
//  558 void _shell_register(struct shellcommand * newcmd,char * cmd_name, cmd_fn_t cmd_func)
_shell_register:
          CFI Block cfiBlock166 Using cfiCommon0
          CFI Function _shell_register
        CODE
//  559 {
        REQUIRE ?V0
        REQUIRE ?V1
        REQUIRE ?V2
        REQUIRE ?V3
        REQUIRE ?V4
        REQUIRE ?V5
        REQUIRE ?V6
        REQUIRE ?V7
        MOV     A,#-0xf
        LCALL   ?FUNC_ENTER_XDATA
          CFI DPH0 load(1, XDATA, add(CFA_XSP16, literal(-1)))
          CFI DPL0 load(1, XDATA, add(CFA_XSP16, literal(-2)))
          CFI ?RET_HIGH load(1, XDATA, add(CFA_XSP16, literal(-3)))
          CFI ?RET_LOW load(1, XDATA, add(CFA_XSP16, literal(-4)))
          CFI R7 load(1, XDATA, add(CFA_XSP16, literal(-5)))
          CFI V7 load(1, XDATA, add(CFA_XSP16, literal(-6)))
          CFI V6 load(1, XDATA, add(CFA_XSP16, literal(-7)))
          CFI V5 load(1, XDATA, add(CFA_XSP16, literal(-8)))
          CFI V4 load(1, XDATA, add(CFA_XSP16, literal(-9)))
          CFI V3 load(1, XDATA, add(CFA_XSP16, literal(-10)))
          CFI V2 load(1, XDATA, add(CFA_XSP16, literal(-11)))
          CFI V1 load(1, XDATA, add(CFA_XSP16, literal(-12)))
          CFI V0 load(1, XDATA, add(CFA_XSP16, literal(-13)))
          CFI VB load(1, XDATA, add(CFA_XSP16, literal(-14)))
          CFI R6 load(1, XDATA, add(CFA_XSP16, literal(-15)))
          CFI CFA_SP SP+0
          CFI CFA_XSP16 add(XSP16, 15)
        ; Saved register size: 15
        ; Auto size: 22
        MOV     A,#-0x16
        LCALL   ?ALLOC_XSTACK8
          CFI CFA_XSP16 add(XSP16, 37)
        LCALL   ?Subroutine12
??CrossCallReturnLabel_94:
        MOV     A,#0x4
        LCALL   ?XSTACK_DISP0_8
        MOV     A,R4
        MOVX    @DPTR,A
        INC     DPTR
        MOV     A,R5
        MOVX    @DPTR,A
//  560 	char * str = cmd_name;
        MOV     A,#0x4
        LCALL   ?XSTACK_DISP0_8
        LCALL   ??Subroutine62_0
??CrossCallReturnLabel_136:
        MOV     A,#0x2
        LCALL   ?XSTACK_DISP0_8
        LCALL   ??Subroutine57_0
//  561 	union uncmd unCmd ;
//  562 	uint32_t clen;
//  563 	uint32_t fcrc8 = 0;
??CrossCallReturnLabel_122:
        MOV     ?V4,#0x0
        MOV     ?V5,#0x0
        MOV     ?V6,#0x0
        MOV     ?V7,#0x0
//  564 	uint32_t bcrc8 = 0;
        MOV     A,#0x6
        LCALL   ?XSTACK_DISP0_8
        LCALL   ?Subroutine10
//  565 	uint32_t sum = 0;
??CrossCallReturnLabel_15:
        MOV     A,#0xe
        LCALL   ?XSTACK_DISP0_8
        LCALL   ?Subroutine9
//  566 
//  567 	for (clen = 0; *str ; ++clen,++str) {
??CrossCallReturnLabel_10:
        LCALL   ?XSTACK_DISP0_8
        LCALL   ?Subroutine42
??CrossCallReturnLabel_76:
        SJMP    ??_shell_register_0
//  568 		sum += *str;
??_shell_register_1:
        MOV     ?V0,R2
        CLR     A
        MOV     ?V1,A
        MOV     ?V2,A
        MOV     ?V3,A
        MOV     A,#0xe
        LCALL   ?XSTACK_DISP0_8
        MOV     R0,#?V0
        LCALL   ?L_ADD_TO_X
//  569 		fcrc8 = F_CRC8_Table[fcrc8^*str];
        MOV     A,?V4
        XRL     A,R2
        MOV     R0,A
        MOV     A,#F_CRC8_Table & 0xff
        ADD     A,R0
        MOV     DPL,A
        CLR     A
        ADDC    A,#(F_CRC8_Table >> 8) & 0xff
        MOV     DPH,A
        MOVX    A,@DPTR
        MOV     ?V4,A
//  570 		bcrc8 = B_CRC8_Table[bcrc8^*str];
        MOV     A,#0x6
        LCALL   ?XSTACK_DISP0_8
        MOV     R0,#?V0
        LCALL   ?L_MOV_X
        LCALL   ?Subroutine36
//  571 	}
??CrossCallReturnLabel_63:
        LCALL   ?XSTACK_DISP0_8
        LCALL   ?Subroutine4
??CrossCallReturnLabel_3:
        MOV     DPTR,#__Constant_1
        MOV     R0,#?V0
        LCALL   ?L_MOV_X
        MOV     A,#0xa
        LCALL   ?XSTACK_DISP0_8
        MOV     R0,#?V0
        LCALL   ?L_ADD_TO_X
        MOV     A,#0x2
        LCALL   ?XSTACK_DISP0_8
        MOVX    A,@DPTR
        ADD     A,#0x1
        MOV     R0,A
        INC     DPTR
        MOVX    A,@DPTR
        ADDC    A,#0x0
        MOV     R1,A
        MOV     A,#0x2
        LCALL   ?XSTACK_DISP0_8
        MOV     A,R0
        MOVX    @DPTR,A
        INC     DPTR
        MOV     A,R1
??_shell_register_0:
        MOVX    @DPTR,A
        MOV     A,#0x2
        LCALL   ?XSTACK_DISP0_8
        LCALL   ??Subroutine50_0
??CrossCallReturnLabel_86:
        JNZ     ??_shell_register_1
//  572 
//  573 	unCmd.part.CRC1 = fcrc8;
//  574 	unCmd.part.CRC2 = bcrc8;
//  575 	unCmd.part.Len = clen;
//  576 	unCmd.part.Sum = sum;
//  577 	unCmd.part.FirstChar = *cmd_name;
        MOV     A,#0x4
        LCALL   ?XSTACK_DISP0_8
        LCALL   ?Subroutine19
??CrossCallReturnLabel_30:
        MOV     A,#0x12
        LCALL   ?XSTACK_DISP0_8
        LCALL   ?Subroutine4
//  578 	
//  579 	newcmd->ID = unCmd.ID;   //生成命令码
??CrossCallReturnLabel_4:
        MOV     A,#0x8
        MOV     R0,#?V4
        LCALL   ?L_SHL
        MOV     A,#0x6
        LCALL   ?XSTACK_DISP0_8
        MOV     R0,#?V4
        LCALL   ?L_IOR_X
        MOV     A,#0xa
        LCALL   ?XSTACK_DISP0_8
        MOV     R0,#?V0
        LCALL   ?L_MOV_X
        MOV     A,#0x15
        MOV     R0,#?V0
        LCALL   ?L_SHL
        MOV     R0,#?V4
        MOV     R1,#?V0
        LCALL   ?L_IOR
        MOV     DPTR,#__Constant_3e0ffff
        MOV     R0,#?V4
        LCALL   ?L_AND_X
        MOV     A,#0xe
        LCALL   ?XSTACK_DISP0_8
        MOV     R0,#?V0
        LCALL   ?L_MOV_X
        MOV     A,#0x10
        MOV     R0,#?V0
        LCALL   ?L_SHL
        MOV     DPTR,#__Constant_1f0000
        MOV     R0,#?V0
        LCALL   ?L_AND_X
        MOV     R0,#?V4
        MOV     R1,#?V0
        LCALL   ?L_IOR
        MOV     A,#0x12
        LCALL   ?XSTACK_DISP0_8
        MOV     R0,#?V0
        LCALL   ?L_MOV_X
        MOV     A,#0x1a
        MOV     R0,#?V0
        LCALL   ?L_SHL
        MOV     R0,#?V4
        MOV     R1,#?V0
        LCALL   ?L_IOR
        MOV     DPL,?XSP + 0
        MOV     DPH,?XSP + 1
        MOVX    A,@DPTR
        MOV     R0,A
        INC     DPTR
        MOVX    A,@DPTR
        XCH     A,R0
        ADD     A,#0x6
        MOV     DPL,A
        CLR     A
        ADDC    A,R0
        MOV     DPH,A
        MOV     R0,#?V4
        LCALL   ?L_MOV_TO_X
//  580 	newcmd->name = cmd_name;
        MOV     A,#0x4
        LCALL   ?XSTACK_DISP0_8
        LCALL   ?Subroutine18
??CrossCallReturnLabel_27:
        LCALL   ??Subroutine57_0
//  581 	newcmd->func = cmd_func;
??CrossCallReturnLabel_123:
        MOV     A,#0x25
        LCALL   ?XSTACK_DISP0_8
        LCALL   ?Subroutine18
??CrossCallReturnLabel_28:
        INC     DPTR
        INC     DPTR
        LCALL   ??Subroutine57_0
//  582 	shell_insert_cmd(&shellcmdroot,newcmd);
??CrossCallReturnLabel_124:
        MOV     R2,#shellcmdroot & 0xff
        MOV     R3,#(shellcmdroot >> 8) & 0xff
        SJMP    ??_shell_register_2
??_shell_register_3:
        MOV     A,R4
        MOV     R2,A
        MOV     A,R5
        MOV     R3,A
??_shell_register_2:
        MOV     DPL,R2
        MOV     DPH,R3
        LCALL   ?Subroutine26
??CrossCallReturnLabel_44:
        MOV     A,R4
        ORL     A,R5
        JZ      ??_shell_register_4
        MOV     DPL,R4
        MOV     DPH,R5
        INC     DPTR
        INC     DPTR
        INC     DPTR
        INC     DPTR
        INC     DPTR
        INC     DPTR
        MOV     R0,#?V0
        LCALL   ?L_MOV_X
        MOV     R0,#?V4
        MOV     R1,#?V0
        LCALL   ?L_EQ
        JZ      ??CrossCallReturnLabel_126
        MOV     R0,#?V0
        MOV     R1,#?V4
        LCALL   ?UL_GT
        JNC     ??_shell_register_3
??_shell_register_4:
        MOV     DPL,R2
        MOV     DPH,R3
        LCALL   ??Subroutine62_0
??CrossCallReturnLabel_137:
        MOV     DPL,?XSP + 0
        MOV     DPH,?XSP + 1
        LCALL   ?Subroutine30
??CrossCallReturnLabel_50:
        LCALL   ??Subroutine57_0
??CrossCallReturnLabel_125:
        MOV     DPL,?XSP + 0
        MOV     DPH,?XSP + 1
        LCALL   ?Subroutine27
??CrossCallReturnLabel_45:
        LCALL   ??Subroutine57_0
//  583 }
??CrossCallReturnLabel_126:
        MOV     A,#0x16
        LJMP    ??Subroutine53_0
          CFI EndBlock cfiBlock166

        RSEG NEAR_CODE:CODE:NOROOT(0)
?Subroutine42:
          CFI Block cfiCond167 Using cfiCommon0
          CFI Function checkout
          CFI Conditional ??CrossCallReturnLabel_78, ??CrossCallReturnLabel_11
          CFI R6 load(1, XDATA, add(CFA_XSP16, literal(-15)))
          CFI VB load(1, XDATA, add(CFA_XSP16, literal(-14)))
          CFI V0 load(1, XDATA, add(CFA_XSP16, literal(-13)))
          CFI V1 load(1, XDATA, add(CFA_XSP16, literal(-12)))
          CFI V2 load(1, XDATA, add(CFA_XSP16, literal(-11)))
          CFI V3 load(1, XDATA, add(CFA_XSP16, literal(-10)))
          CFI V4 load(1, XDATA, add(CFA_XSP16, literal(-9)))
          CFI V5 load(1, XDATA, add(CFA_XSP16, literal(-8)))
          CFI V6 load(1, XDATA, add(CFA_XSP16, literal(-7)))
          CFI V7 load(1, XDATA, add(CFA_XSP16, literal(-6)))
          CFI R7 load(1, XDATA, add(CFA_XSP16, literal(-5)))
          CFI ?RET_LOW load(1, XDATA, add(CFA_XSP16, literal(-4)))
          CFI ?RET_HIGH load(1, XDATA, add(CFA_XSP16, literal(-3)))
          CFI DPL0 load(1, XDATA, add(CFA_XSP16, literal(-2)))
          CFI DPH0 load(1, XDATA, add(CFA_XSP16, literal(-1)))
          CFI CFA_SP SP+-4
          CFI CFA_XSP16 add(XSP16, 27)
          CFI Block cfiCond168 Using cfiCommon0
          CFI (cfiCond168) Function shell_parse
          CFI (cfiCond168) Conditional ??CrossCallReturnLabel_78, ??CrossCallReturnLabel_12
          CFI (cfiCond168) R6 load(1, XDATA, add(CFA_XSP16, literal(-15)))
          CFI (cfiCond168) VB load(1, XDATA, add(CFA_XSP16, literal(-14)))
          CFI (cfiCond168) V0 load(1, XDATA, add(CFA_XSP16, literal(-13)))
          CFI (cfiCond168) V1 load(1, XDATA, add(CFA_XSP16, literal(-12)))
          CFI (cfiCond168) V2 load(1, XDATA, add(CFA_XSP16, literal(-11)))
          CFI (cfiCond168) V3 load(1, XDATA, add(CFA_XSP16, literal(-10)))
          CFI (cfiCond168) V4 load(1, XDATA, add(CFA_XSP16, literal(-9)))
          CFI (cfiCond168) V5 load(1, XDATA, add(CFA_XSP16, literal(-8)))
          CFI (cfiCond168) V6 load(1, XDATA, add(CFA_XSP16, literal(-7)))
          CFI (cfiCond168) V7 load(1, XDATA, add(CFA_XSP16, literal(-6)))
          CFI (cfiCond168) R7 load(1, XDATA, add(CFA_XSP16, literal(-5)))
          CFI (cfiCond168) ?RET_LOW load(1, XDATA, add(CFA_XSP16, literal(-4)))
          CFI (cfiCond168) ?RET_HIGH load(1, XDATA, add(CFA_XSP16, literal(-3)))
          CFI (cfiCond168) DPL0 load(1, XDATA, add(CFA_XSP16, literal(-2)))
          CFI (cfiCond168) DPH0 load(1, XDATA, add(CFA_XSP16, literal(-1)))
          CFI (cfiCond168) CFA_SP SP+-4
          CFI (cfiCond168) CFA_XSP16 add(XSP16, 43)
          CFI Block cfiCond169 Using cfiCommon0
          CFI (cfiCond169) Function shell_parse
          CFI (cfiCond169) Conditional ??CrossCallReturnLabel_78, ??CrossCallReturnLabel_13
          CFI (cfiCond169) R6 load(1, XDATA, add(CFA_XSP16, literal(-15)))
          CFI (cfiCond169) VB load(1, XDATA, add(CFA_XSP16, literal(-14)))
          CFI (cfiCond169) V0 load(1, XDATA, add(CFA_XSP16, literal(-13)))
          CFI (cfiCond169) V1 load(1, XDATA, add(CFA_XSP16, literal(-12)))
          CFI (cfiCond169) V2 load(1, XDATA, add(CFA_XSP16, literal(-11)))
          CFI (cfiCond169) V3 load(1, XDATA, add(CFA_XSP16, literal(-10)))
          CFI (cfiCond169) V4 load(1, XDATA, add(CFA_XSP16, literal(-9)))
          CFI (cfiCond169) V5 load(1, XDATA, add(CFA_XSP16, literal(-8)))
          CFI (cfiCond169) V6 load(1, XDATA, add(CFA_XSP16, literal(-7)))
          CFI (cfiCond169) V7 load(1, XDATA, add(CFA_XSP16, literal(-6)))
          CFI (cfiCond169) R7 load(1, XDATA, add(CFA_XSP16, literal(-5)))
          CFI (cfiCond169) ?RET_LOW load(1, XDATA, add(CFA_XSP16, literal(-4)))
          CFI (cfiCond169) ?RET_HIGH load(1, XDATA, add(CFA_XSP16, literal(-3)))
          CFI (cfiCond169) DPL0 load(1, XDATA, add(CFA_XSP16, literal(-2)))
          CFI (cfiCond169) DPH0 load(1, XDATA, add(CFA_XSP16, literal(-1)))
          CFI (cfiCond169) CFA_SP SP+-4
          CFI (cfiCond169) CFA_XSP16 add(XSP16, 43)
          CFI Block cfiCond170 Using cfiCommon0
          CFI (cfiCond170) Function shell_parse
          CFI (cfiCond170) Conditional ??CrossCallReturnLabel_78, ??CrossCallReturnLabel_14
          CFI (cfiCond170) R6 load(1, XDATA, add(CFA_XSP16, literal(-15)))
          CFI (cfiCond170) VB load(1, XDATA, add(CFA_XSP16, literal(-14)))
          CFI (cfiCond170) V0 load(1, XDATA, add(CFA_XSP16, literal(-13)))
          CFI (cfiCond170) V1 load(1, XDATA, add(CFA_XSP16, literal(-12)))
          CFI (cfiCond170) V2 load(1, XDATA, add(CFA_XSP16, literal(-11)))
          CFI (cfiCond170) V3 load(1, XDATA, add(CFA_XSP16, literal(-10)))
          CFI (cfiCond170) V4 load(1, XDATA, add(CFA_XSP16, literal(-9)))
          CFI (cfiCond170) V5 load(1, XDATA, add(CFA_XSP16, literal(-8)))
          CFI (cfiCond170) V6 load(1, XDATA, add(CFA_XSP16, literal(-7)))
          CFI (cfiCond170) V7 load(1, XDATA, add(CFA_XSP16, literal(-6)))
          CFI (cfiCond170) R7 load(1, XDATA, add(CFA_XSP16, literal(-5)))
          CFI (cfiCond170) ?RET_LOW load(1, XDATA, add(CFA_XSP16, literal(-4)))
          CFI (cfiCond170) ?RET_HIGH load(1, XDATA, add(CFA_XSP16, literal(-3)))
          CFI (cfiCond170) DPL0 load(1, XDATA, add(CFA_XSP16, literal(-2)))
          CFI (cfiCond170) DPH0 load(1, XDATA, add(CFA_XSP16, literal(-1)))
          CFI (cfiCond170) CFA_SP SP+-4
          CFI (cfiCond170) CFA_XSP16 add(XSP16, 43)
          CFI Block cfiCond171 Using cfiCommon0
          CFI (cfiCond171) Function _shell_register
          CFI (cfiCond171) Conditional ??CrossCallReturnLabel_78, ??CrossCallReturnLabel_15
          CFI (cfiCond171) R6 load(1, XDATA, add(CFA_XSP16, literal(-15)))
          CFI (cfiCond171) VB load(1, XDATA, add(CFA_XSP16, literal(-14)))
          CFI (cfiCond171) V0 load(1, XDATA, add(CFA_XSP16, literal(-13)))
          CFI (cfiCond171) V1 load(1, XDATA, add(CFA_XSP16, literal(-12)))
          CFI (cfiCond171) V2 load(1, XDATA, add(CFA_XSP16, literal(-11)))
          CFI (cfiCond171) V3 load(1, XDATA, add(CFA_XSP16, literal(-10)))
          CFI (cfiCond171) V4 load(1, XDATA, add(CFA_XSP16, literal(-9)))
          CFI (cfiCond171) V5 load(1, XDATA, add(CFA_XSP16, literal(-8)))
          CFI (cfiCond171) V6 load(1, XDATA, add(CFA_XSP16, literal(-7)))
          CFI (cfiCond171) V7 load(1, XDATA, add(CFA_XSP16, literal(-6)))
          CFI (cfiCond171) R7 load(1, XDATA, add(CFA_XSP16, literal(-5)))
          CFI (cfiCond171) ?RET_LOW load(1, XDATA, add(CFA_XSP16, literal(-4)))
          CFI (cfiCond171) ?RET_HIGH load(1, XDATA, add(CFA_XSP16, literal(-3)))
          CFI (cfiCond171) DPL0 load(1, XDATA, add(CFA_XSP16, literal(-2)))
          CFI (cfiCond171) DPH0 load(1, XDATA, add(CFA_XSP16, literal(-1)))
          CFI (cfiCond171) CFA_SP SP+-4
          CFI (cfiCond171) CFA_XSP16 add(XSP16, 37)
          CFI Block cfiCond172 Using cfiCommon0
          CFI (cfiCond172) Function _shell_register
          CFI (cfiCond172) Conditional ??CrossCallReturnLabel_76
          CFI (cfiCond172) R6 load(1, XDATA, add(CFA_XSP16, literal(-15)))
          CFI (cfiCond172) VB load(1, XDATA, add(CFA_XSP16, literal(-14)))
          CFI (cfiCond172) V0 load(1, XDATA, add(CFA_XSP16, literal(-13)))
          CFI (cfiCond172) V1 load(1, XDATA, add(CFA_XSP16, literal(-12)))
          CFI (cfiCond172) V2 load(1, XDATA, add(CFA_XSP16, literal(-11)))
          CFI (cfiCond172) V3 load(1, XDATA, add(CFA_XSP16, literal(-10)))
          CFI (cfiCond172) V4 load(1, XDATA, add(CFA_XSP16, literal(-9)))
          CFI (cfiCond172) V5 load(1, XDATA, add(CFA_XSP16, literal(-8)))
          CFI (cfiCond172) V6 load(1, XDATA, add(CFA_XSP16, literal(-7)))
          CFI (cfiCond172) V7 load(1, XDATA, add(CFA_XSP16, literal(-6)))
          CFI (cfiCond172) R7 load(1, XDATA, add(CFA_XSP16, literal(-5)))
          CFI (cfiCond172) ?RET_LOW load(1, XDATA, add(CFA_XSP16, literal(-4)))
          CFI (cfiCond172) ?RET_HIGH load(1, XDATA, add(CFA_XSP16, literal(-3)))
          CFI (cfiCond172) DPL0 load(1, XDATA, add(CFA_XSP16, literal(-2)))
          CFI (cfiCond172) DPH0 load(1, XDATA, add(CFA_XSP16, literal(-1)))
          CFI (cfiCond172) CFA_XSP16 add(XSP16, 37)
          CFI Block cfiCond173 Using cfiCommon0
          CFI (cfiCond173) Function shell_parse
          CFI (cfiCond173) Conditional ??CrossCallReturnLabel_77, ??CrossCallReturnLabel_9
          CFI (cfiCond173) R6 load(1, XDATA, add(CFA_XSP16, literal(-15)))
          CFI (cfiCond173) VB load(1, XDATA, add(CFA_XSP16, literal(-14)))
          CFI (cfiCond173) V0 load(1, XDATA, add(CFA_XSP16, literal(-13)))
          CFI (cfiCond173) V1 load(1, XDATA, add(CFA_XSP16, literal(-12)))
          CFI (cfiCond173) V2 load(1, XDATA, add(CFA_XSP16, literal(-11)))
          CFI (cfiCond173) V3 load(1, XDATA, add(CFA_XSP16, literal(-10)))
          CFI (cfiCond173) V4 load(1, XDATA, add(CFA_XSP16, literal(-9)))
          CFI (cfiCond173) V5 load(1, XDATA, add(CFA_XSP16, literal(-8)))
          CFI (cfiCond173) V6 load(1, XDATA, add(CFA_XSP16, literal(-7)))
          CFI (cfiCond173) V7 load(1, XDATA, add(CFA_XSP16, literal(-6)))
          CFI (cfiCond173) R7 load(1, XDATA, add(CFA_XSP16, literal(-5)))
          CFI (cfiCond173) ?RET_LOW load(1, XDATA, add(CFA_XSP16, literal(-4)))
          CFI (cfiCond173) ?RET_HIGH load(1, XDATA, add(CFA_XSP16, literal(-3)))
          CFI (cfiCond173) DPL0 load(1, XDATA, add(CFA_XSP16, literal(-2)))
          CFI (cfiCond173) DPH0 load(1, XDATA, add(CFA_XSP16, literal(-1)))
          CFI (cfiCond173) CFA_SP SP+-4
          CFI (cfiCond173) CFA_XSP16 add(XSP16, 43)
          CFI Block cfiCond174 Using cfiCommon0
          CFI (cfiCond174) Function _shell_register
          CFI (cfiCond174) Conditional ??CrossCallReturnLabel_77, ??CrossCallReturnLabel_10
          CFI (cfiCond174) R6 load(1, XDATA, add(CFA_XSP16, literal(-15)))
          CFI (cfiCond174) VB load(1, XDATA, add(CFA_XSP16, literal(-14)))
          CFI (cfiCond174) V0 load(1, XDATA, add(CFA_XSP16, literal(-13)))
          CFI (cfiCond174) V1 load(1, XDATA, add(CFA_XSP16, literal(-12)))
          CFI (cfiCond174) V2 load(1, XDATA, add(CFA_XSP16, literal(-11)))
          CFI (cfiCond174) V3 load(1, XDATA, add(CFA_XSP16, literal(-10)))
          CFI (cfiCond174) V4 load(1, XDATA, add(CFA_XSP16, literal(-9)))
          CFI (cfiCond174) V5 load(1, XDATA, add(CFA_XSP16, literal(-8)))
          CFI (cfiCond174) V6 load(1, XDATA, add(CFA_XSP16, literal(-7)))
          CFI (cfiCond174) V7 load(1, XDATA, add(CFA_XSP16, literal(-6)))
          CFI (cfiCond174) R7 load(1, XDATA, add(CFA_XSP16, literal(-5)))
          CFI (cfiCond174) ?RET_LOW load(1, XDATA, add(CFA_XSP16, literal(-4)))
          CFI (cfiCond174) ?RET_HIGH load(1, XDATA, add(CFA_XSP16, literal(-3)))
          CFI (cfiCond174) DPL0 load(1, XDATA, add(CFA_XSP16, literal(-2)))
          CFI (cfiCond174) DPH0 load(1, XDATA, add(CFA_XSP16, literal(-1)))
          CFI (cfiCond174) CFA_SP SP+-4
          CFI (cfiCond174) CFA_XSP16 add(XSP16, 37)
          CFI Block cfiPicker175 Using cfiCommon1
          CFI (cfiPicker175) NoFunction
          CFI (cfiPicker175) Picker
        CLR     A
        MOVX    @DPTR,A
        INC     DPTR
        MOVX    @DPTR,A
        INC     DPTR
        MOVX    @DPTR,A
        INC     DPTR
        RET
          CFI EndBlock cfiCond167
          CFI EndBlock cfiCond168
          CFI EndBlock cfiCond169
          CFI EndBlock cfiCond170
          CFI EndBlock cfiCond171
          CFI EndBlock cfiCond172
          CFI EndBlock cfiCond173
          CFI EndBlock cfiCond174
          CFI EndBlock cfiPicker175

        RSEG NEAR_CODE:CODE:NOROOT(0)
?Subroutine36:
          CFI Block cfiCond176 Using cfiCommon0
          CFI Function shell_parse
          CFI Conditional ??CrossCallReturnLabel_62
          CFI R6 load(1, XDATA, add(CFA_XSP16, literal(-15)))
          CFI VB load(1, XDATA, add(CFA_XSP16, literal(-14)))
          CFI V0 load(1, XDATA, add(CFA_XSP16, literal(-13)))
          CFI V1 load(1, XDATA, add(CFA_XSP16, literal(-12)))
          CFI V2 load(1, XDATA, add(CFA_XSP16, literal(-11)))
          CFI V3 load(1, XDATA, add(CFA_XSP16, literal(-10)))
          CFI V4 load(1, XDATA, add(CFA_XSP16, literal(-9)))
          CFI V5 load(1, XDATA, add(CFA_XSP16, literal(-8)))
          CFI V6 load(1, XDATA, add(CFA_XSP16, literal(-7)))
          CFI V7 load(1, XDATA, add(CFA_XSP16, literal(-6)))
          CFI R7 load(1, XDATA, add(CFA_XSP16, literal(-5)))
          CFI ?RET_LOW load(1, XDATA, add(CFA_XSP16, literal(-4)))
          CFI ?RET_HIGH load(1, XDATA, add(CFA_XSP16, literal(-3)))
          CFI DPL0 load(1, XDATA, add(CFA_XSP16, literal(-2)))
          CFI DPH0 load(1, XDATA, add(CFA_XSP16, literal(-1)))
          CFI CFA_XSP16 add(XSP16, 43)
          CFI Block cfiCond177 Using cfiCommon0
          CFI (cfiCond177) Function _shell_register
          CFI (cfiCond177) Conditional ??CrossCallReturnLabel_63
          CFI (cfiCond177) R6 load(1, XDATA, add(CFA_XSP16, literal(-15)))
          CFI (cfiCond177) VB load(1, XDATA, add(CFA_XSP16, literal(-14)))
          CFI (cfiCond177) V0 load(1, XDATA, add(CFA_XSP16, literal(-13)))
          CFI (cfiCond177) V1 load(1, XDATA, add(CFA_XSP16, literal(-12)))
          CFI (cfiCond177) V2 load(1, XDATA, add(CFA_XSP16, literal(-11)))
          CFI (cfiCond177) V3 load(1, XDATA, add(CFA_XSP16, literal(-10)))
          CFI (cfiCond177) V4 load(1, XDATA, add(CFA_XSP16, literal(-9)))
          CFI (cfiCond177) V5 load(1, XDATA, add(CFA_XSP16, literal(-8)))
          CFI (cfiCond177) V6 load(1, XDATA, add(CFA_XSP16, literal(-7)))
          CFI (cfiCond177) V7 load(1, XDATA, add(CFA_XSP16, literal(-6)))
          CFI (cfiCond177) R7 load(1, XDATA, add(CFA_XSP16, literal(-5)))
          CFI (cfiCond177) ?RET_LOW load(1, XDATA, add(CFA_XSP16, literal(-4)))
          CFI (cfiCond177) ?RET_HIGH load(1, XDATA, add(CFA_XSP16, literal(-3)))
          CFI (cfiCond177) DPL0 load(1, XDATA, add(CFA_XSP16, literal(-2)))
          CFI (cfiCond177) DPH0 load(1, XDATA, add(CFA_XSP16, literal(-1)))
          CFI (cfiCond177) CFA_XSP16 add(XSP16, 37)
          CFI Block cfiPicker178 Using cfiCommon1
          CFI (cfiPicker178) NoFunction
          CFI (cfiPicker178) Picker
        MOV     A,?V0
        XRL     A,R2
        MOV     R0,A
        MOV     R1,?V1
        MOV     A,#B_CRC8_Table & 0xff
        ADD     A,R0
        MOV     DPL,A
        MOV     A,#(B_CRC8_Table >> 8) & 0xff
        ADDC    A,R1
        MOV     DPH,A
        MOVX    A,@DPTR
        MOV     R4,A
        MOV     A,#0x6
        RET
          CFI EndBlock cfiCond176
          CFI EndBlock cfiCond177
          CFI EndBlock cfiPicker178

        RSEG NEAR_CODE:CODE:NOROOT(0)
?Subroutine30:
          CFI Block cfiCond179 Using cfiCommon0
          CFI Function shell_getchar
          CFI Conditional ??CrossCallReturnLabel_49
          CFI R6 load(1, XDATA, add(CFA_XSP16, literal(-14)))
          CFI VB load(1, XDATA, add(CFA_XSP16, literal(-13)))
          CFI V0 load(1, XDATA, add(CFA_XSP16, literal(-12)))
          CFI V1 load(1, XDATA, add(CFA_XSP16, literal(-11)))
          CFI V2 load(1, XDATA, add(CFA_XSP16, literal(-10)))
          CFI V3 load(1, XDATA, add(CFA_XSP16, literal(-9)))
          CFI V4 load(1, XDATA, add(CFA_XSP16, literal(-8)))
          CFI V5 load(1, XDATA, add(CFA_XSP16, literal(-7)))
          CFI V6 load(1, XDATA, add(CFA_XSP16, literal(-6)))
          CFI R7 load(1, XDATA, add(CFA_XSP16, literal(-5)))
          CFI ?RET_LOW load(1, XDATA, add(CFA_XSP16, literal(-4)))
          CFI ?RET_HIGH load(1, XDATA, add(CFA_XSP16, literal(-3)))
          CFI DPL0 load(1, XDATA, add(CFA_XSP16, literal(-2)))
          CFI DPH0 load(1, XDATA, add(CFA_XSP16, literal(-1)))
          CFI CFA_SP SP+-3
          CFI CFA_XSP16 add(XSP16, 117)
          CFI Block cfiCond180 Using cfiCommon0
          CFI (cfiCond180) Function _shell_register
          CFI (cfiCond180) Conditional ??CrossCallReturnLabel_50
          CFI (cfiCond180) R6 load(1, XDATA, add(CFA_XSP16, literal(-15)))
          CFI (cfiCond180) VB load(1, XDATA, add(CFA_XSP16, literal(-14)))
          CFI (cfiCond180) V0 load(1, XDATA, add(CFA_XSP16, literal(-13)))
          CFI (cfiCond180) V1 load(1, XDATA, add(CFA_XSP16, literal(-12)))
          CFI (cfiCond180) V2 load(1, XDATA, add(CFA_XSP16, literal(-11)))
          CFI (cfiCond180) V3 load(1, XDATA, add(CFA_XSP16, literal(-10)))
          CFI (cfiCond180) V4 load(1, XDATA, add(CFA_XSP16, literal(-9)))
          CFI (cfiCond180) V5 load(1, XDATA, add(CFA_XSP16, literal(-8)))
          CFI (cfiCond180) V6 load(1, XDATA, add(CFA_XSP16, literal(-7)))
          CFI (cfiCond180) V7 load(1, XDATA, add(CFA_XSP16, literal(-6)))
          CFI (cfiCond180) R7 load(1, XDATA, add(CFA_XSP16, literal(-5)))
          CFI (cfiCond180) ?RET_LOW load(1, XDATA, add(CFA_XSP16, literal(-4)))
          CFI (cfiCond180) ?RET_HIGH load(1, XDATA, add(CFA_XSP16, literal(-3)))
          CFI (cfiCond180) DPL0 load(1, XDATA, add(CFA_XSP16, literal(-2)))
          CFI (cfiCond180) DPH0 load(1, XDATA, add(CFA_XSP16, literal(-1)))
          CFI (cfiCond180) CFA_XSP16 add(XSP16, 37)
          CFI Block cfiPicker181 Using cfiCommon1
          CFI (cfiPicker181) NoFunction
          CFI (cfiPicker181) Picker
        MOVX    A,@DPTR
        MOV     R4,A
        INC     DPTR
        MOVX    A,@DPTR
        MOV     DPH,A
        MOV     DPL,R4
        RET
          CFI EndBlock cfiCond179
          CFI EndBlock cfiCond180
          CFI EndBlock cfiPicker181

        RSEG NEAR_CODE:CODE:NOROOT(0)
?Subroutine19:
          CFI Block cfiCond182 Using cfiCommon0
          CFI Function shell_tab
          CFI Conditional ??CrossCallReturnLabel_29
          CFI R6 load(1, XDATA, add(CFA_XSP16, literal(-15)))
          CFI VB load(1, XDATA, add(CFA_XSP16, literal(-14)))
          CFI V0 load(1, XDATA, add(CFA_XSP16, literal(-13)))
          CFI V1 load(1, XDATA, add(CFA_XSP16, literal(-12)))
          CFI V2 load(1, XDATA, add(CFA_XSP16, literal(-11)))
          CFI V3 load(1, XDATA, add(CFA_XSP16, literal(-10)))
          CFI V4 load(1, XDATA, add(CFA_XSP16, literal(-9)))
          CFI V5 load(1, XDATA, add(CFA_XSP16, literal(-8)))
          CFI V6 load(1, XDATA, add(CFA_XSP16, literal(-7)))
          CFI V7 load(1, XDATA, add(CFA_XSP16, literal(-6)))
          CFI R7 load(1, XDATA, add(CFA_XSP16, literal(-5)))
          CFI ?RET_LOW load(1, XDATA, add(CFA_XSP16, literal(-4)))
          CFI ?RET_HIGH load(1, XDATA, add(CFA_XSP16, literal(-3)))
          CFI DPL0 load(1, XDATA, add(CFA_XSP16, literal(-2)))
          CFI DPH0 load(1, XDATA, add(CFA_XSP16, literal(-1)))
          CFI CFA_XSP16 add(XSP16, 45)
          CFI Block cfiCond183 Using cfiCommon0
          CFI (cfiCond183) Function _shell_register
          CFI (cfiCond183) Conditional ??CrossCallReturnLabel_30
          CFI (cfiCond183) R6 load(1, XDATA, add(CFA_XSP16, literal(-15)))
          CFI (cfiCond183) VB load(1, XDATA, add(CFA_XSP16, literal(-14)))
          CFI (cfiCond183) V0 load(1, XDATA, add(CFA_XSP16, literal(-13)))
          CFI (cfiCond183) V1 load(1, XDATA, add(CFA_XSP16, literal(-12)))
          CFI (cfiCond183) V2 load(1, XDATA, add(CFA_XSP16, literal(-11)))
          CFI (cfiCond183) V3 load(1, XDATA, add(CFA_XSP16, literal(-10)))
          CFI (cfiCond183) V4 load(1, XDATA, add(CFA_XSP16, literal(-9)))
          CFI (cfiCond183) V5 load(1, XDATA, add(CFA_XSP16, literal(-8)))
          CFI (cfiCond183) V6 load(1, XDATA, add(CFA_XSP16, literal(-7)))
          CFI (cfiCond183) V7 load(1, XDATA, add(CFA_XSP16, literal(-6)))
          CFI (cfiCond183) R7 load(1, XDATA, add(CFA_XSP16, literal(-5)))
          CFI (cfiCond183) ?RET_LOW load(1, XDATA, add(CFA_XSP16, literal(-4)))
          CFI (cfiCond183) ?RET_HIGH load(1, XDATA, add(CFA_XSP16, literal(-3)))
          CFI (cfiCond183) DPL0 load(1, XDATA, add(CFA_XSP16, literal(-2)))
          CFI (cfiCond183) DPH0 load(1, XDATA, add(CFA_XSP16, literal(-1)))
          CFI (cfiCond183) CFA_XSP16 add(XSP16, 37)
          CFI Block cfiCond184 Using cfiCommon0
          CFI (cfiCond184) Function shell_input_init
          CFI (cfiCond184) Conditional ??CrossCallReturnLabel_31
          CFI (cfiCond184) R6 load(1, XDATA, add(CFA_XSP16, literal(-15)))
          CFI (cfiCond184) VB load(1, XDATA, add(CFA_XSP16, literal(-14)))
          CFI (cfiCond184) V0 load(1, XDATA, add(CFA_XSP16, literal(-13)))
          CFI (cfiCond184) V1 load(1, XDATA, add(CFA_XSP16, literal(-12)))
          CFI (cfiCond184) V2 load(1, XDATA, add(CFA_XSP16, literal(-11)))
          CFI (cfiCond184) V3 load(1, XDATA, add(CFA_XSP16, literal(-10)))
          CFI (cfiCond184) V4 load(1, XDATA, add(CFA_XSP16, literal(-9)))
          CFI (cfiCond184) V5 load(1, XDATA, add(CFA_XSP16, literal(-8)))
          CFI (cfiCond184) V6 load(1, XDATA, add(CFA_XSP16, literal(-7)))
          CFI (cfiCond184) V7 load(1, XDATA, add(CFA_XSP16, literal(-6)))
          CFI (cfiCond184) R7 load(1, XDATA, add(CFA_XSP16, literal(-5)))
          CFI (cfiCond184) ?RET_LOW load(1, XDATA, add(CFA_XSP16, literal(-4)))
          CFI (cfiCond184) ?RET_HIGH load(1, XDATA, add(CFA_XSP16, literal(-3)))
          CFI (cfiCond184) DPL0 load(1, XDATA, add(CFA_XSP16, literal(-2)))
          CFI (cfiCond184) DPH0 load(1, XDATA, add(CFA_XSP16, literal(-1)))
          CFI (cfiCond184) CFA_XSP16 add(XSP16, 19)
          CFI Block cfiPicker185 Using cfiCommon1
          CFI (cfiPicker185) NoFunction
          CFI (cfiPicker185) Picker
        LCALL   ?Subroutine44
??CrossCallReturnLabel_165:
        MOV     R4,A
        RET
          CFI EndBlock cfiCond182
          CFI EndBlock cfiCond183
          CFI EndBlock cfiCond184
          CFI EndBlock cfiPicker185

        RSEG NEAR_CODE:CODE:NOROOT(0)
?Subroutine18:
          CFI Block cfiCond186 Using cfiCommon0
          CFI Function _shell_register
          CFI Conditional ??CrossCallReturnLabel_27
          CFI R6 load(1, XDATA, add(CFA_XSP16, literal(-15)))
          CFI VB load(1, XDATA, add(CFA_XSP16, literal(-14)))
          CFI V0 load(1, XDATA, add(CFA_XSP16, literal(-13)))
          CFI V1 load(1, XDATA, add(CFA_XSP16, literal(-12)))
          CFI V2 load(1, XDATA, add(CFA_XSP16, literal(-11)))
          CFI V3 load(1, XDATA, add(CFA_XSP16, literal(-10)))
          CFI V4 load(1, XDATA, add(CFA_XSP16, literal(-9)))
          CFI V5 load(1, XDATA, add(CFA_XSP16, literal(-8)))
          CFI V6 load(1, XDATA, add(CFA_XSP16, literal(-7)))
          CFI V7 load(1, XDATA, add(CFA_XSP16, literal(-6)))
          CFI R7 load(1, XDATA, add(CFA_XSP16, literal(-5)))
          CFI ?RET_LOW load(1, XDATA, add(CFA_XSP16, literal(-4)))
          CFI ?RET_HIGH load(1, XDATA, add(CFA_XSP16, literal(-3)))
          CFI DPL0 load(1, XDATA, add(CFA_XSP16, literal(-2)))
          CFI DPH0 load(1, XDATA, add(CFA_XSP16, literal(-1)))
          CFI CFA_XSP16 add(XSP16, 37)
          CFI Block cfiCond187 Using cfiCommon0
          CFI (cfiCond187) Function _shell_register
          CFI (cfiCond187) Conditional ??CrossCallReturnLabel_28
          CFI (cfiCond187) R6 load(1, XDATA, add(CFA_XSP16, literal(-15)))
          CFI (cfiCond187) VB load(1, XDATA, add(CFA_XSP16, literal(-14)))
          CFI (cfiCond187) V0 load(1, XDATA, add(CFA_XSP16, literal(-13)))
          CFI (cfiCond187) V1 load(1, XDATA, add(CFA_XSP16, literal(-12)))
          CFI (cfiCond187) V2 load(1, XDATA, add(CFA_XSP16, literal(-11)))
          CFI (cfiCond187) V3 load(1, XDATA, add(CFA_XSP16, literal(-10)))
          CFI (cfiCond187) V4 load(1, XDATA, add(CFA_XSP16, literal(-9)))
          CFI (cfiCond187) V5 load(1, XDATA, add(CFA_XSP16, literal(-8)))
          CFI (cfiCond187) V6 load(1, XDATA, add(CFA_XSP16, literal(-7)))
          CFI (cfiCond187) V7 load(1, XDATA, add(CFA_XSP16, literal(-6)))
          CFI (cfiCond187) R7 load(1, XDATA, add(CFA_XSP16, literal(-5)))
          CFI (cfiCond187) ?RET_LOW load(1, XDATA, add(CFA_XSP16, literal(-4)))
          CFI (cfiCond187) ?RET_HIGH load(1, XDATA, add(CFA_XSP16, literal(-3)))
          CFI (cfiCond187) DPL0 load(1, XDATA, add(CFA_XSP16, literal(-2)))
          CFI (cfiCond187) DPH0 load(1, XDATA, add(CFA_XSP16, literal(-1)))
          CFI (cfiCond187) CFA_XSP16 add(XSP16, 37)
          CFI Block cfiPicker188 Using cfiCommon1
          CFI (cfiPicker188) NoFunction
          CFI (cfiPicker188) Picker
        LCALL   ??Subroutine66_0
??CrossCallReturnLabel_156:
        MOV     DPL,?XSP + 0
        MOV     DPH,?XSP + 1
        MOVX    A,@DPTR
        MOV     R2,A
        INC     DPTR
        MOVX    A,@DPTR
        MOV     DPH,A
        MOV     DPL,R2
        INC     DPTR
        INC     DPTR
        RET
          CFI EndBlock cfiCond186
          CFI EndBlock cfiCond187
          CFI EndBlock cfiPicker188

        RSEG NEAR_CODE:CODE:NOROOT(0)
?Subroutine9:
          CFI Block cfiCond189 Using cfiCommon0
          CFI Function shell_parse
          CFI Conditional ??CrossCallReturnLabel_9
          CFI R6 load(1, XDATA, add(CFA_XSP16, literal(-15)))
          CFI VB load(1, XDATA, add(CFA_XSP16, literal(-14)))
          CFI V0 load(1, XDATA, add(CFA_XSP16, literal(-13)))
          CFI V1 load(1, XDATA, add(CFA_XSP16, literal(-12)))
          CFI V2 load(1, XDATA, add(CFA_XSP16, literal(-11)))
          CFI V3 load(1, XDATA, add(CFA_XSP16, literal(-10)))
          CFI V4 load(1, XDATA, add(CFA_XSP16, literal(-9)))
          CFI V5 load(1, XDATA, add(CFA_XSP16, literal(-8)))
          CFI V6 load(1, XDATA, add(CFA_XSP16, literal(-7)))
          CFI V7 load(1, XDATA, add(CFA_XSP16, literal(-6)))
          CFI R7 load(1, XDATA, add(CFA_XSP16, literal(-5)))
          CFI ?RET_LOW load(1, XDATA, add(CFA_XSP16, literal(-4)))
          CFI ?RET_HIGH load(1, XDATA, add(CFA_XSP16, literal(-3)))
          CFI DPL0 load(1, XDATA, add(CFA_XSP16, literal(-2)))
          CFI DPH0 load(1, XDATA, add(CFA_XSP16, literal(-1)))
          CFI CFA_XSP16 add(XSP16, 43)
          CFI Block cfiCond190 Using cfiCommon0
          CFI (cfiCond190) Function _shell_register
          CFI (cfiCond190) Conditional ??CrossCallReturnLabel_10
          CFI (cfiCond190) R6 load(1, XDATA, add(CFA_XSP16, literal(-15)))
          CFI (cfiCond190) VB load(1, XDATA, add(CFA_XSP16, literal(-14)))
          CFI (cfiCond190) V0 load(1, XDATA, add(CFA_XSP16, literal(-13)))
          CFI (cfiCond190) V1 load(1, XDATA, add(CFA_XSP16, literal(-12)))
          CFI (cfiCond190) V2 load(1, XDATA, add(CFA_XSP16, literal(-11)))
          CFI (cfiCond190) V3 load(1, XDATA, add(CFA_XSP16, literal(-10)))
          CFI (cfiCond190) V4 load(1, XDATA, add(CFA_XSP16, literal(-9)))
          CFI (cfiCond190) V5 load(1, XDATA, add(CFA_XSP16, literal(-8)))
          CFI (cfiCond190) V6 load(1, XDATA, add(CFA_XSP16, literal(-7)))
          CFI (cfiCond190) V7 load(1, XDATA, add(CFA_XSP16, literal(-6)))
          CFI (cfiCond190) R7 load(1, XDATA, add(CFA_XSP16, literal(-5)))
          CFI (cfiCond190) ?RET_LOW load(1, XDATA, add(CFA_XSP16, literal(-4)))
          CFI (cfiCond190) ?RET_HIGH load(1, XDATA, add(CFA_XSP16, literal(-3)))
          CFI (cfiCond190) DPL0 load(1, XDATA, add(CFA_XSP16, literal(-2)))
          CFI (cfiCond190) DPH0 load(1, XDATA, add(CFA_XSP16, literal(-1)))
          CFI (cfiCond190) CFA_XSP16 add(XSP16, 37)
          CFI Block cfiPicker191 Using cfiCommon1
          CFI (cfiPicker191) NoFunction
          CFI (cfiPicker191) Picker
        LCALL   ?Subroutine42
??CrossCallReturnLabel_77:
        MOVX    @DPTR,A
        MOV     A,#0xa
        RET
          CFI EndBlock cfiCond189
          CFI EndBlock cfiCond190
          CFI EndBlock cfiPicker191
//  584 
//  585 /**
//  586   * @author   古么宁
//  587   * @brief    把 "a b c d" 格式化提取为 char*argv[] = {"a","b","c","d"};
//  588   * @note     一般供 getopt() 解析，运行过后命令行内容将被整改
//  589   * @param    str    : 命令字符串后面所跟参数缓冲区指针
//  590   * @param    argv   : 数据转换后缓存地址
//  591   * @param    maxread: 最大读取数
//  592   * @return   最终读取参数个数输出
//  593 */

        RSEG NEAR_CODE:CODE:NOROOT(0)
//  594 int cmdline_strtok(char * str ,char ** argv ,int maxread)
cmdline_strtok:
          CFI Block cfiBlock192 Using cfiCommon0
          CFI Function cmdline_strtok
        CODE
//  595 {
        REQUIRE ?V0
        REQUIRE ?V1
        MOV     A,#-0x9
        LCALL   ?FUNC_ENTER_XDATA
          CFI DPH0 load(1, XDATA, add(CFA_XSP16, literal(-1)))
          CFI DPL0 load(1, XDATA, add(CFA_XSP16, literal(-2)))
          CFI ?RET_HIGH load(1, XDATA, add(CFA_XSP16, literal(-3)))
          CFI ?RET_LOW load(1, XDATA, add(CFA_XSP16, literal(-4)))
          CFI R7 load(1, XDATA, add(CFA_XSP16, literal(-5)))
          CFI V1 load(1, XDATA, add(CFA_XSP16, literal(-6)))
          CFI V0 load(1, XDATA, add(CFA_XSP16, literal(-7)))
          CFI VB load(1, XDATA, add(CFA_XSP16, literal(-8)))
          CFI R6 load(1, XDATA, add(CFA_XSP16, literal(-9)))
          CFI CFA_SP SP+0
          CFI CFA_XSP16 add(XSP16, 9)
        ; Saved register size: 9
        ; Auto size: 0
//  596 	int argc = 0;
        MOV     R0,#0x0
        MOV     R1,#0x0
        SJMP    ??cmdline_strtok_0
//  597 
//  598 	for ( ; ' ' == *str ; ++str) ; //跳过空格
??cmdline_strtok_1:
        INC     DPTR
        MOV     R2,DPL
        MOV     R3,DPH
??cmdline_strtok_0:
        MOV     DPL,R2
        MOV     DPH,R3
        MOVX    A,@DPTR
        XRL     A,#0x20
        JZ      ??cmdline_strtok_1
        MOV     A,#0x9
        LCALL   ?XSTACK_DISP0_8
        MOVX    A,@DPTR
        MOV     ?V0,A
        INC     DPTR
        MOVX    A,@DPTR
        MOV     ?V1,A
        SJMP    ??cmdline_strtok_2
//  599 	
//  600 	for ( ; *str && argc < maxread; ++argc,++argv ) { //字符不为 ‘\0' 的时候
//  601 	
//  602 		for (*argv = str ; ' ' != *str && *str ; ++str);//记录这个参数，然后跳过非空字符
//  603 		
//  604 		for ( ; ' ' == *str; *str++ = '\0');//每个参数加字符串结束符，跳过空格		
??cmdline_strtok_3:
        CLR     A
        MOVX    @DPTR,A
        INC     DPTR
        MOV     R2,DPL
        MOV     R3,DPH
??cmdline_strtok_4:
        MOV     DPL,R2
        MOV     DPH,R3
        MOVX    A,@DPTR
        XRL     A,#0x20
        JZ      ??cmdline_strtok_3
        INC     R0
        MOV     A,R0
        JNZ     ??cmdline_strtok_5
        INC     R1
??cmdline_strtok_5:
        MOV     A,R4
        ADD     A,#0x2
        MOV     R4,A
        JNC     ??cmdline_strtok_2
        INC     R5
??cmdline_strtok_2:
        MOV     DPL,R2
        MOV     DPH,R3
        MOVX    A,@DPTR
        JZ      ??cmdline_strtok_6
        CLR     C
        MOV     A,R0
        SUBB    A,?V0
        MOV     A,R1
        SUBB    A,?V1
        MOV     C,0xD0 /* PSW */.2
        XRL     A,PSW
        RLC     A
        JNC     ??cmdline_strtok_6
        MOV     DPL,R4
        MOV     DPH,R5
        LCALL   ??Subroutine51_0
??CrossCallReturnLabel_90:
        MOV     DPL,R2
        MOV     DPH,R3
        MOVX    A,@DPTR
        MOV     R6,A
        MOV     A,#0x20
        XRL     A,R6
        JZ      ??cmdline_strtok_4
        MOV     A,R6
        JZ      ??cmdline_strtok_4
        INC     DPTR
        MOV     R2,DPL
        MOV     R3,DPH
        SJMP    ??CrossCallReturnLabel_90
//  605 	}
//  606 	
//  607 	return argc;
??cmdline_strtok_6:
        MOV     A,R0
        MOV     R2,A
        MOV     A,R1
        MOV     R3,A
        LJMP    ??Subroutine60_0
          CFI EndBlock cfiBlock192
//  608 }
//  609 
//  610 
//  611 /**
//  612   * @brief    转换获取命令号后面的输入参数，字符串转为整数
//  613   * @param    str     命令字符串后面所跟参数缓冲区指针
//  614   * @param    argv    数据转换后缓存地址
//  615   * @param    maxread 最大读取数
//  616   * @return   数据个数
//  617 	  * @retval   >= 0         读取命令后面所跟参数个数
//  618 	  * @retval   PARAMETER_ERROR(-2)  命令后面所跟参数有误
//  619 	  * @retval   PARAMETER_HELP(-1)   命令后面跟了 ? 号
//  620 */

        RSEG NEAR_CODE:CODE:NOROOT(0)
//  621 int cmdline_param(char * str,int * argv,int maxread)
cmdline_param:
          CFI Block cfiBlock193 Using cfiCommon0
          CFI Function cmdline_param
        CODE
//  622 {
        REQUIRE ?V0
        REQUIRE ?V1
        REQUIRE ?V2
        REQUIRE ?V3
        REQUIRE ?V4
        REQUIRE ?V5
        REQUIRE ?V6
        MOV     A,#-0xe
        LCALL   ?FUNC_ENTER_XDATA
          CFI DPH0 load(1, XDATA, add(CFA_XSP16, literal(-1)))
          CFI DPL0 load(1, XDATA, add(CFA_XSP16, literal(-2)))
          CFI ?RET_HIGH load(1, XDATA, add(CFA_XSP16, literal(-3)))
          CFI ?RET_LOW load(1, XDATA, add(CFA_XSP16, literal(-4)))
          CFI R7 load(1, XDATA, add(CFA_XSP16, literal(-5)))
          CFI V6 load(1, XDATA, add(CFA_XSP16, literal(-6)))
          CFI V5 load(1, XDATA, add(CFA_XSP16, literal(-7)))
          CFI V4 load(1, XDATA, add(CFA_XSP16, literal(-8)))
          CFI V3 load(1, XDATA, add(CFA_XSP16, literal(-9)))
          CFI V2 load(1, XDATA, add(CFA_XSP16, literal(-10)))
          CFI V1 load(1, XDATA, add(CFA_XSP16, literal(-11)))
          CFI V0 load(1, XDATA, add(CFA_XSP16, literal(-12)))
          CFI VB load(1, XDATA, add(CFA_XSP16, literal(-13)))
          CFI R6 load(1, XDATA, add(CFA_XSP16, literal(-14)))
          CFI CFA_SP SP+0
          CFI CFA_XSP16 add(XSP16, 14)
        ; Saved register size: 14
        ; Auto size: 0
        MOV     ?V2,R4
        MOV     ?V3,R5
        SJMP    ??cmdline_param_0
//  623 	int argc ;
//  624 	unsigned int  value;
//  625 
//  626 	for ( ; ' ' == *str        ; ++str);//跳过空格
??cmdline_param_1:
        INC     DPTR
        MOV     R2,DPL
        MOV     R3,DPH
??cmdline_param_0:
        MOV     DPL,R2
        MOV     DPH,R3
        MOVX    A,@DPTR
        XRL     A,#0x20
        JZ      ??cmdline_param_1
//  627 	for ( ; ' ' != *str && *str; ++str);//跳过第一个参数
??cmdline_param_2:
        MOV     DPL,R2
        MOV     DPH,R3
        MOVX    A,@DPTR
        MOV     R0,A
        MOV     A,#0x20
        XRL     A,R0
        JZ      ??cmdline_param_3
        MOV     A,R0
        JZ      ??cmdline_param_3
        INC     DPTR
        MOV     R2,DPL
        MOV     R3,DPH
        SJMP    ??cmdline_param_2
//  628 	for ( ; ' ' == *str        ; ++str);//跳过空格
??cmdline_param_4:
        INC     DPTR
        MOV     R2,DPL
        MOV     R3,DPH
??cmdline_param_3:
        MOV     DPL,R2
        MOV     DPH,R3
        MOVX    A,@DPTR
        MOV     R0,A
        MOV     A,#0x20
        XRL     A,R0
        JZ      ??cmdline_param_4
//  629 
//  630 	if (*str == '?')
        MOV     A,#0x3f
        XRL     A,R0
        JNZ     ??cmdline_param_5
//  631 		return PARAMETER_HELP;//如果命令后面的是问号，返回help
        MOV     R2,#-0x1
        LJMP    ??cmdline_param_6
//  632 
//  633 	for (argc = 0; *str && argc < maxread; ++argc , ++argv) { //字符不为 ‘\0' 的时候
??cmdline_param_5:
        MOV     R6,#0x0
        MOV     R7,#0x0
        MOV     A,#0xe
        LCALL   ?XSTACK_DISP0_8
        MOVX    A,@DPTR
        MOV     ?V4,A
        INC     DPTR
        MOVX    A,@DPTR
        MOV     ?V5,A
        SJMP    ??cmdline_param_7
//  634 	
//  635 		*argv = 0;
//  636 		
//  637 		if ('0' == str[0] && 'x' == str[1]) { //"0x" 开头，十六进制转换
//  638 			for ( str += 2 ;  ; ++str )  {
//  639 				if ( (value = *str - '0') < 10 ) // value 先赋值，后判断 
//  640 					*argv = (*argv << 4)|value;
//  641 				else
//  642 				if ( (value = *str - 'A') < 6 || (value = *str - 'a') < 6)
//  643 					*argv = (*argv << 4) + value + 10;
//  644 				else
//  645 					break;
//  646 			}
//  647 		}
//  648 		else { //循环把字符串转为数字，直到字符不为 0 - 9
//  649 			unsigned int minus = ('-' == *str);//正负数转换
//  650 			if (minus)
//  651 				++str;
//  652 
//  653 			for (value = *str - '0'; value < 10 ; value = *(++str) - '0')
//  654 				*argv = (*argv * 10 + value);
//  655 			
//  656 			if (minus)
//  657 				*argv = -(*argv);
//  658 		}
//  659 
//  660 		if ('\0' != *str && ' ' != *str)//如果不是 0 - 9 而且不是空格，则是错误字符
//  661 			return PARAMETER_ERROR;
//  662 
//  663 		for ( ; ' ' == *str ; ++str);//跳过空格,继续判断下一个参数
??cmdline_param_8:
        INC     DPTR
        MOV     R2,DPL
        MOV     R3,DPH
??cmdline_param_9:
        MOV     DPL,R2
        MOV     DPH,R3
        MOVX    A,@DPTR
        XRL     A,#0x20
        JZ      ??cmdline_param_8
        INC     R6
        MOV     A,R6
        JNZ     ??cmdline_param_10
        INC     R7
??cmdline_param_10:
        MOV     A,?V2
        ADD     A,#0x2
        MOV     ?V2,A
        JNC     ??cmdline_param_7
        INC     ?V3
??cmdline_param_7:
        MOV     DPL,R2
        MOV     DPH,R3
        MOVX    A,@DPTR
        JNZ     $+5
        LJMP    ??cmdline_param_11
        CLR     C
        MOV     A,R6
        SUBB    A,?V4
        MOV     A,R7
        SUBB    A,?V5
        MOV     C,0xD0 /* PSW */.2
        XRL     A,PSW
        RLC     A
        JC      $+5
        LJMP    ??cmdline_param_11
        MOV     DPL,?V2
        MOV     DPH,?V3
        CLR     A
        MOVX    @DPTR,A
        INC     DPTR
        LCALL   ?Subroutine11
??CrossCallReturnLabel_17:
        INC     DPTR
        MOV     R0,DPL
        MOV     R1,DPH
        MOV     DPL,R2
        MOV     DPH,R3
        MOVX    A,@DPTR
        MOV     R4,A
        MOV     A,#0x30
        XRL     A,R4
        JNZ     ??cmdline_param_12
        MOV     DPL,R0
        MOV     DPH,R1
        MOVX    A,@DPTR
        XRL     A,#0x78
        JNZ     ??cmdline_param_13
        MOV     A,R2
        ADD     A,#0x2
        MOV     R2,A
        JNC     ??CrossCallReturnLabel_133
        INC     R3
        SJMP    ??CrossCallReturnLabel_133
??cmdline_param_14:
        MOV     A,R0
        ADD     A,#-0x41
        LCALL   ?Subroutine38
??CrossCallReturnLabel_66:
        JC      ??cmdline_param_15
        MOV     A,R0
        ADD     A,#-0x61
        LCALL   ?Subroutine38
??CrossCallReturnLabel_67:
        JC      $+5
        LJMP    ??CrossCallReturnLabel_127
??cmdline_param_15:
        LCALL   ?Subroutine25
??CrossCallReturnLabel_39:
        LCALL   ?S_SHL
        MOV     A,?V0
        ADD     A,R4
        MOV     R0,A
        MOV     A,?V1
        ADDC    A,R5
        MOV     R1,A
        MOV     A,R0
        ADD     A,#0xa
        JNC     ??cmdline_param_16
        INC     R1
??cmdline_param_16:
        MOV     DPL,?V2
        MOV     DPH,?V3
??cmdline_param_17:
        LCALL   ?Subroutine6
??CrossCallReturnLabel_133:
        MOV     DPL,R2
        MOV     DPH,R3
        MOVX    A,@DPTR
        MOV     R0,A
        LCALL   ?Subroutine39
??CrossCallReturnLabel_69:
        JNC     ??cmdline_param_14
        LCALL   ?Subroutine25
??CrossCallReturnLabel_40:
        LCALL   ?S_SHL
        MOV     A,?V0
        ORL     A,R4
        MOV     R0,A
        MOV     A,?V1
        ORL     A,R5
        MOV     R1,A
        MOV     DPL,?V2
        MOV     DPH,?V3
        MOV     A,R0
        SJMP    ??cmdline_param_17
??cmdline_param_12:
        MOV     A,#0x2d
        XRL     A,R4
        JNZ     ??cmdline_param_13
        MOV     ?V0,#0x1
        MOV     A,R0
        MOV     R2,A
        MOV     A,R1
        MOV     R3,A
        SJMP    ??cmdline_param_18
??cmdline_param_13:
        MOV     ?V0,#0x0
??cmdline_param_18:
        MOV     DPL,R2
        MOV     DPH,R3
        SJMP    ??CrossCallReturnLabel_134
??cmdline_param_19:
        LCALL   ?Subroutine28
??CrossCallReturnLabel_140:
        MOV     A,R0
        MOV     B,#0xa
        MUL     AB
        MOV     R0,A
        MOV     ?V6,B
        MOV     B,#0xa
        MOV     A,R1
        MUL     AB
        ADD     A,?V6
        MOV     R1,A
        MOV     A,R0
        ADD     A,R4
        MOV     R0,A
        MOV     A,R1
        ADDC    A,R5
        MOV     R1,A
        MOV     DPL,?V2
        MOV     DPH,?V3
        MOV     A,R0
        LCALL   ?Subroutine6
??CrossCallReturnLabel_134:
        MOVX    A,@DPTR
        LCALL   ?Subroutine39
??CrossCallReturnLabel_68:
        JC      ??cmdline_param_19
        MOV     A,?V0
        MOV     C,0xE0 /* A   */.0
        JNC     ??CrossCallReturnLabel_127
        LCALL   ?Subroutine28
??CrossCallReturnLabel_141:
        CLR     C
        CLR     A
        SUBB    A,R0
        MOV     R0,A
        CLR     A
        SUBB    A,R1
        MOV     R1,A
        MOV     DPL,?V2
        MOV     DPH,?V3
        LCALL   ??Subroutine57_0
??CrossCallReturnLabel_127:
        MOV     DPL,R2
        MOV     DPH,R3
        MOVX    A,@DPTR
        MOV     R0,A
        JNZ     $+5
        LJMP    ??cmdline_param_9
        MOV     A,#0x20
        XRL     A,R0
        JNZ     $+5
        LJMP    ??cmdline_param_9
        MOV     R2,#-0x2
??cmdline_param_6:
        MOV     R3,#-0x1
        SJMP    ??cmdline_param_20
//  664 	}
//  665 
//  666 	return argc;
??cmdline_param_11:
        MOV     A,R6
        MOV     R2,A
        MOV     A,R7
        MOV     R3,A
??cmdline_param_20:
        LJMP    ?Subroutine1
          CFI EndBlock cfiBlock193
//  667 }

        RSEG NEAR_CODE:CODE:NOROOT(0)
?Subroutine39:
          CFI Block cfiCond194 Using cfiCommon0
          CFI Function cmdline_param
          CFI Conditional ??CrossCallReturnLabel_69
          CFI R6 load(1, XDATA, add(CFA_XSP16, literal(-14)))
          CFI VB load(1, XDATA, add(CFA_XSP16, literal(-13)))
          CFI V0 load(1, XDATA, add(CFA_XSP16, literal(-12)))
          CFI V1 load(1, XDATA, add(CFA_XSP16, literal(-11)))
          CFI V2 load(1, XDATA, add(CFA_XSP16, literal(-10)))
          CFI V3 load(1, XDATA, add(CFA_XSP16, literal(-9)))
          CFI V4 load(1, XDATA, add(CFA_XSP16, literal(-8)))
          CFI V5 load(1, XDATA, add(CFA_XSP16, literal(-7)))
          CFI V6 load(1, XDATA, add(CFA_XSP16, literal(-6)))
          CFI R7 load(1, XDATA, add(CFA_XSP16, literal(-5)))
          CFI ?RET_LOW load(1, XDATA, add(CFA_XSP16, literal(-4)))
          CFI ?RET_HIGH load(1, XDATA, add(CFA_XSP16, literal(-3)))
          CFI DPL0 load(1, XDATA, add(CFA_XSP16, literal(-2)))
          CFI DPH0 load(1, XDATA, add(CFA_XSP16, literal(-1)))
          CFI CFA_XSP16 add(XSP16, 14)
          CFI Block cfiCond195 Using cfiCommon0
          CFI (cfiCond195) Function cmdline_param
          CFI (cfiCond195) Conditional ??CrossCallReturnLabel_68
          CFI (cfiCond195) R6 load(1, XDATA, add(CFA_XSP16, literal(-14)))
          CFI (cfiCond195) VB load(1, XDATA, add(CFA_XSP16, literal(-13)))
          CFI (cfiCond195) V0 load(1, XDATA, add(CFA_XSP16, literal(-12)))
          CFI (cfiCond195) V1 load(1, XDATA, add(CFA_XSP16, literal(-11)))
          CFI (cfiCond195) V2 load(1, XDATA, add(CFA_XSP16, literal(-10)))
          CFI (cfiCond195) V3 load(1, XDATA, add(CFA_XSP16, literal(-9)))
          CFI (cfiCond195) V4 load(1, XDATA, add(CFA_XSP16, literal(-8)))
          CFI (cfiCond195) V5 load(1, XDATA, add(CFA_XSP16, literal(-7)))
          CFI (cfiCond195) V6 load(1, XDATA, add(CFA_XSP16, literal(-6)))
          CFI (cfiCond195) R7 load(1, XDATA, add(CFA_XSP16, literal(-5)))
          CFI (cfiCond195) ?RET_LOW load(1, XDATA, add(CFA_XSP16, literal(-4)))
          CFI (cfiCond195) ?RET_HIGH load(1, XDATA, add(CFA_XSP16, literal(-3)))
          CFI (cfiCond195) DPL0 load(1, XDATA, add(CFA_XSP16, literal(-2)))
          CFI (cfiCond195) DPH0 load(1, XDATA, add(CFA_XSP16, literal(-1)))
          CFI (cfiCond195) CFA_XSP16 add(XSP16, 14)
          CFI Block cfiPicker196 Using cfiCommon1
          CFI (cfiPicker196) NoFunction
          CFI (cfiPicker196) Picker
        ADD     A,#-0x30
        MOV     R4,A
        CLR     A
        ADDC    A,#-0x1
        MOV     R5,A
        CLR     C
        MOV     A,R4
        SUBB    A,#0xa
        MOV     A,R5
        SUBB    A,#0x0
        RET
          CFI EndBlock cfiCond194
          CFI EndBlock cfiCond195
          CFI EndBlock cfiPicker196

        RSEG NEAR_CODE:CODE:NOROOT(0)
?Subroutine38:
          CFI Block cfiCond197 Using cfiCommon0
          CFI Function cmdline_param
          CFI Conditional ??CrossCallReturnLabel_66
          CFI R6 load(1, XDATA, add(CFA_XSP16, literal(-14)))
          CFI VB load(1, XDATA, add(CFA_XSP16, literal(-13)))
          CFI V0 load(1, XDATA, add(CFA_XSP16, literal(-12)))
          CFI V1 load(1, XDATA, add(CFA_XSP16, literal(-11)))
          CFI V2 load(1, XDATA, add(CFA_XSP16, literal(-10)))
          CFI V3 load(1, XDATA, add(CFA_XSP16, literal(-9)))
          CFI V4 load(1, XDATA, add(CFA_XSP16, literal(-8)))
          CFI V5 load(1, XDATA, add(CFA_XSP16, literal(-7)))
          CFI V6 load(1, XDATA, add(CFA_XSP16, literal(-6)))
          CFI R7 load(1, XDATA, add(CFA_XSP16, literal(-5)))
          CFI ?RET_LOW load(1, XDATA, add(CFA_XSP16, literal(-4)))
          CFI ?RET_HIGH load(1, XDATA, add(CFA_XSP16, literal(-3)))
          CFI DPL0 load(1, XDATA, add(CFA_XSP16, literal(-2)))
          CFI DPH0 load(1, XDATA, add(CFA_XSP16, literal(-1)))
          CFI CFA_XSP16 add(XSP16, 14)
          CFI Block cfiCond198 Using cfiCommon0
          CFI (cfiCond198) Function cmdline_param
          CFI (cfiCond198) Conditional ??CrossCallReturnLabel_67
          CFI (cfiCond198) R6 load(1, XDATA, add(CFA_XSP16, literal(-14)))
          CFI (cfiCond198) VB load(1, XDATA, add(CFA_XSP16, literal(-13)))
          CFI (cfiCond198) V0 load(1, XDATA, add(CFA_XSP16, literal(-12)))
          CFI (cfiCond198) V1 load(1, XDATA, add(CFA_XSP16, literal(-11)))
          CFI (cfiCond198) V2 load(1, XDATA, add(CFA_XSP16, literal(-10)))
          CFI (cfiCond198) V3 load(1, XDATA, add(CFA_XSP16, literal(-9)))
          CFI (cfiCond198) V4 load(1, XDATA, add(CFA_XSP16, literal(-8)))
          CFI (cfiCond198) V5 load(1, XDATA, add(CFA_XSP16, literal(-7)))
          CFI (cfiCond198) V6 load(1, XDATA, add(CFA_XSP16, literal(-6)))
          CFI (cfiCond198) R7 load(1, XDATA, add(CFA_XSP16, literal(-5)))
          CFI (cfiCond198) ?RET_LOW load(1, XDATA, add(CFA_XSP16, literal(-4)))
          CFI (cfiCond198) ?RET_HIGH load(1, XDATA, add(CFA_XSP16, literal(-3)))
          CFI (cfiCond198) DPL0 load(1, XDATA, add(CFA_XSP16, literal(-2)))
          CFI (cfiCond198) DPH0 load(1, XDATA, add(CFA_XSP16, literal(-1)))
          CFI (cfiCond198) CFA_XSP16 add(XSP16, 14)
          CFI Block cfiPicker199 Using cfiCommon1
          CFI (cfiPicker199) NoFunction
          CFI (cfiPicker199) Picker
        MOV     R4,A
        CLR     A
        ADDC    A,#-0x1
        MOV     R5,A
        CLR     C
        MOV     A,R4
        SUBB    A,#0x6
        MOV     A,R5
        SUBB    A,#0x0
        RET
          CFI EndBlock cfiCond197
          CFI EndBlock cfiCond198
          CFI EndBlock cfiPicker199

        RSEG NEAR_CODE:CODE:NOROOT(0)
?Subroutine25:
          CFI Block cfiCond200 Using cfiCommon0
          CFI Function cmdline_param
          CFI Conditional ??CrossCallReturnLabel_39
          CFI R6 load(1, XDATA, add(CFA_XSP16, literal(-14)))
          CFI VB load(1, XDATA, add(CFA_XSP16, literal(-13)))
          CFI V0 load(1, XDATA, add(CFA_XSP16, literal(-12)))
          CFI V1 load(1, XDATA, add(CFA_XSP16, literal(-11)))
          CFI V2 load(1, XDATA, add(CFA_XSP16, literal(-10)))
          CFI V3 load(1, XDATA, add(CFA_XSP16, literal(-9)))
          CFI V4 load(1, XDATA, add(CFA_XSP16, literal(-8)))
          CFI V5 load(1, XDATA, add(CFA_XSP16, literal(-7)))
          CFI V6 load(1, XDATA, add(CFA_XSP16, literal(-6)))
          CFI R7 load(1, XDATA, add(CFA_XSP16, literal(-5)))
          CFI ?RET_LOW load(1, XDATA, add(CFA_XSP16, literal(-4)))
          CFI ?RET_HIGH load(1, XDATA, add(CFA_XSP16, literal(-3)))
          CFI DPL0 load(1, XDATA, add(CFA_XSP16, literal(-2)))
          CFI DPH0 load(1, XDATA, add(CFA_XSP16, literal(-1)))
          CFI CFA_XSP16 add(XSP16, 14)
          CFI Block cfiCond201 Using cfiCommon0
          CFI (cfiCond201) Function cmdline_param
          CFI (cfiCond201) Conditional ??CrossCallReturnLabel_40
          CFI (cfiCond201) R6 load(1, XDATA, add(CFA_XSP16, literal(-14)))
          CFI (cfiCond201) VB load(1, XDATA, add(CFA_XSP16, literal(-13)))
          CFI (cfiCond201) V0 load(1, XDATA, add(CFA_XSP16, literal(-12)))
          CFI (cfiCond201) V1 load(1, XDATA, add(CFA_XSP16, literal(-11)))
          CFI (cfiCond201) V2 load(1, XDATA, add(CFA_XSP16, literal(-10)))
          CFI (cfiCond201) V3 load(1, XDATA, add(CFA_XSP16, literal(-9)))
          CFI (cfiCond201) V4 load(1, XDATA, add(CFA_XSP16, literal(-8)))
          CFI (cfiCond201) V5 load(1, XDATA, add(CFA_XSP16, literal(-7)))
          CFI (cfiCond201) V6 load(1, XDATA, add(CFA_XSP16, literal(-6)))
          CFI (cfiCond201) R7 load(1, XDATA, add(CFA_XSP16, literal(-5)))
          CFI (cfiCond201) ?RET_LOW load(1, XDATA, add(CFA_XSP16, literal(-4)))
          CFI (cfiCond201) ?RET_HIGH load(1, XDATA, add(CFA_XSP16, literal(-3)))
          CFI (cfiCond201) DPL0 load(1, XDATA, add(CFA_XSP16, literal(-2)))
          CFI (cfiCond201) DPH0 load(1, XDATA, add(CFA_XSP16, literal(-1)))
          CFI (cfiCond201) CFA_XSP16 add(XSP16, 14)
          CFI Block cfiPicker202 Using cfiCommon1
          CFI (cfiPicker202) NoFunction
          CFI (cfiPicker202) Picker
        MOV     DPL,?V2
        MOV     DPH,?V3
        MOVX    A,@DPTR
        MOV     ?V0,A
        INC     DPTR
        MOVX    A,@DPTR
        MOV     ?V1,A
        MOV     A,#0x4
        MOV     R0,#?V0
        RET
          CFI EndBlock cfiCond200
          CFI EndBlock cfiCond201
          CFI EndBlock cfiPicker202

        RSEG NEAR_CODE:CODE:NOROOT(0)
?Subroutine11:
          CFI Block cfiCond203 Using cfiCommon0
          CFI Function shell_backspace
          CFI Conditional ??CrossCallReturnLabel_16
          CFI R6 load(1, XDATA, add(CFA_XSP16, literal(-15)))
          CFI VB load(1, XDATA, add(CFA_XSP16, literal(-14)))
          CFI V0 load(1, XDATA, add(CFA_XSP16, literal(-13)))
          CFI V1 load(1, XDATA, add(CFA_XSP16, literal(-12)))
          CFI V2 load(1, XDATA, add(CFA_XSP16, literal(-11)))
          CFI V3 load(1, XDATA, add(CFA_XSP16, literal(-10)))
          CFI V4 load(1, XDATA, add(CFA_XSP16, literal(-9)))
          CFI V5 load(1, XDATA, add(CFA_XSP16, literal(-8)))
          CFI V6 load(1, XDATA, add(CFA_XSP16, literal(-7)))
          CFI V7 load(1, XDATA, add(CFA_XSP16, literal(-6)))
          CFI R7 load(1, XDATA, add(CFA_XSP16, literal(-5)))
          CFI ?RET_LOW load(1, XDATA, add(CFA_XSP16, literal(-4)))
          CFI ?RET_HIGH load(1, XDATA, add(CFA_XSP16, literal(-3)))
          CFI DPL0 load(1, XDATA, add(CFA_XSP16, literal(-2)))
          CFI DPH0 load(1, XDATA, add(CFA_XSP16, literal(-1)))
          CFI CFA_XSP16 add(XSP16, 117)
          CFI Block cfiCond204 Using cfiCommon0
          CFI (cfiCond204) Function cmdline_param
          CFI (cfiCond204) Conditional ??CrossCallReturnLabel_17
          CFI (cfiCond204) R6 load(1, XDATA, add(CFA_XSP16, literal(-14)))
          CFI (cfiCond204) VB load(1, XDATA, add(CFA_XSP16, literal(-13)))
          CFI (cfiCond204) V0 load(1, XDATA, add(CFA_XSP16, literal(-12)))
          CFI (cfiCond204) V1 load(1, XDATA, add(CFA_XSP16, literal(-11)))
          CFI (cfiCond204) V2 load(1, XDATA, add(CFA_XSP16, literal(-10)))
          CFI (cfiCond204) V3 load(1, XDATA, add(CFA_XSP16, literal(-9)))
          CFI (cfiCond204) V4 load(1, XDATA, add(CFA_XSP16, literal(-8)))
          CFI (cfiCond204) V5 load(1, XDATA, add(CFA_XSP16, literal(-7)))
          CFI (cfiCond204) V6 load(1, XDATA, add(CFA_XSP16, literal(-6)))
          CFI (cfiCond204) R7 load(1, XDATA, add(CFA_XSP16, literal(-5)))
          CFI (cfiCond204) ?RET_LOW load(1, XDATA, add(CFA_XSP16, literal(-4)))
          CFI (cfiCond204) ?RET_HIGH load(1, XDATA, add(CFA_XSP16, literal(-3)))
          CFI (cfiCond204) DPL0 load(1, XDATA, add(CFA_XSP16, literal(-2)))
          CFI (cfiCond204) DPH0 load(1, XDATA, add(CFA_XSP16, literal(-1)))
          CFI (cfiCond204) CFA_XSP16 add(XSP16, 14)
          CFI Block cfiCond205 Using cfiCommon0
          CFI (cfiCond205) Function shell_input_init
          CFI (cfiCond205) Conditional ??CrossCallReturnLabel_18
          CFI (cfiCond205) R6 load(1, XDATA, add(CFA_XSP16, literal(-15)))
          CFI (cfiCond205) VB load(1, XDATA, add(CFA_XSP16, literal(-14)))
          CFI (cfiCond205) V0 load(1, XDATA, add(CFA_XSP16, literal(-13)))
          CFI (cfiCond205) V1 load(1, XDATA, add(CFA_XSP16, literal(-12)))
          CFI (cfiCond205) V2 load(1, XDATA, add(CFA_XSP16, literal(-11)))
          CFI (cfiCond205) V3 load(1, XDATA, add(CFA_XSP16, literal(-10)))
          CFI (cfiCond205) V4 load(1, XDATA, add(CFA_XSP16, literal(-9)))
          CFI (cfiCond205) V5 load(1, XDATA, add(CFA_XSP16, literal(-8)))
          CFI (cfiCond205) V6 load(1, XDATA, add(CFA_XSP16, literal(-7)))
          CFI (cfiCond205) V7 load(1, XDATA, add(CFA_XSP16, literal(-6)))
          CFI (cfiCond205) R7 load(1, XDATA, add(CFA_XSP16, literal(-5)))
          CFI (cfiCond205) ?RET_LOW load(1, XDATA, add(CFA_XSP16, literal(-4)))
          CFI (cfiCond205) ?RET_HIGH load(1, XDATA, add(CFA_XSP16, literal(-3)))
          CFI (cfiCond205) DPL0 load(1, XDATA, add(CFA_XSP16, literal(-2)))
          CFI (cfiCond205) DPH0 load(1, XDATA, add(CFA_XSP16, literal(-1)))
          CFI (cfiCond205) CFA_XSP16 add(XSP16, 19)
          CFI Block cfiCond206 Using cfiCommon0
          CFI (cfiCond206) Function shell_input_init
          CFI (cfiCond206) Conditional ??CrossCallReturnLabel_19
          CFI (cfiCond206) R6 load(1, XDATA, add(CFA_XSP16, literal(-15)))
          CFI (cfiCond206) VB load(1, XDATA, add(CFA_XSP16, literal(-14)))
          CFI (cfiCond206) V0 load(1, XDATA, add(CFA_XSP16, literal(-13)))
          CFI (cfiCond206) V1 load(1, XDATA, add(CFA_XSP16, literal(-12)))
          CFI (cfiCond206) V2 load(1, XDATA, add(CFA_XSP16, literal(-11)))
          CFI (cfiCond206) V3 load(1, XDATA, add(CFA_XSP16, literal(-10)))
          CFI (cfiCond206) V4 load(1, XDATA, add(CFA_XSP16, literal(-9)))
          CFI (cfiCond206) V5 load(1, XDATA, add(CFA_XSP16, literal(-8)))
          CFI (cfiCond206) V6 load(1, XDATA, add(CFA_XSP16, literal(-7)))
          CFI (cfiCond206) V7 load(1, XDATA, add(CFA_XSP16, literal(-6)))
          CFI (cfiCond206) R7 load(1, XDATA, add(CFA_XSP16, literal(-5)))
          CFI (cfiCond206) ?RET_LOW load(1, XDATA, add(CFA_XSP16, literal(-4)))
          CFI (cfiCond206) ?RET_HIGH load(1, XDATA, add(CFA_XSP16, literal(-3)))
          CFI (cfiCond206) DPL0 load(1, XDATA, add(CFA_XSP16, literal(-2)))
          CFI (cfiCond206) DPH0 load(1, XDATA, add(CFA_XSP16, literal(-1)))
          CFI (cfiCond206) CFA_XSP16 add(XSP16, 19)
          CFI Block cfiPicker207 Using cfiCommon1
          CFI (cfiPicker207) NoFunction
          CFI (cfiPicker207) Picker
        MOVX    @DPTR,A
        MOV     DPL,R2
        MOV     DPH,R3
        RET
          CFI EndBlock cfiCond203
          CFI EndBlock cfiCond204
          CFI EndBlock cfiCond205
          CFI EndBlock cfiCond206
          CFI EndBlock cfiPicker207

        RSEG NEAR_CODE:CODE:NOROOT(0)
?Subroutine6:
          CFI Block cfiCond208 Using cfiCommon0
          CFI Function cmdline_param
          CFI Conditional ??CrossCallReturnLabel_133
          CFI R6 load(1, XDATA, add(CFA_XSP16, literal(-14)))
          CFI VB load(1, XDATA, add(CFA_XSP16, literal(-13)))
          CFI V0 load(1, XDATA, add(CFA_XSP16, literal(-12)))
          CFI V1 load(1, XDATA, add(CFA_XSP16, literal(-11)))
          CFI V2 load(1, XDATA, add(CFA_XSP16, literal(-10)))
          CFI V3 load(1, XDATA, add(CFA_XSP16, literal(-9)))
          CFI V4 load(1, XDATA, add(CFA_XSP16, literal(-8)))
          CFI V5 load(1, XDATA, add(CFA_XSP16, literal(-7)))
          CFI V6 load(1, XDATA, add(CFA_XSP16, literal(-6)))
          CFI R7 load(1, XDATA, add(CFA_XSP16, literal(-5)))
          CFI ?RET_LOW load(1, XDATA, add(CFA_XSP16, literal(-4)))
          CFI ?RET_HIGH load(1, XDATA, add(CFA_XSP16, literal(-3)))
          CFI DPL0 load(1, XDATA, add(CFA_XSP16, literal(-2)))
          CFI DPH0 load(1, XDATA, add(CFA_XSP16, literal(-1)))
          CFI CFA_XSP16 add(XSP16, 14)
          CFI Block cfiCond209 Using cfiCommon0
          CFI (cfiCond209) Function cmdline_param
          CFI (cfiCond209) Conditional ??CrossCallReturnLabel_134
          CFI (cfiCond209) R6 load(1, XDATA, add(CFA_XSP16, literal(-14)))
          CFI (cfiCond209) VB load(1, XDATA, add(CFA_XSP16, literal(-13)))
          CFI (cfiCond209) V0 load(1, XDATA, add(CFA_XSP16, literal(-12)))
          CFI (cfiCond209) V1 load(1, XDATA, add(CFA_XSP16, literal(-11)))
          CFI (cfiCond209) V2 load(1, XDATA, add(CFA_XSP16, literal(-10)))
          CFI (cfiCond209) V3 load(1, XDATA, add(CFA_XSP16, literal(-9)))
          CFI (cfiCond209) V4 load(1, XDATA, add(CFA_XSP16, literal(-8)))
          CFI (cfiCond209) V5 load(1, XDATA, add(CFA_XSP16, literal(-7)))
          CFI (cfiCond209) V6 load(1, XDATA, add(CFA_XSP16, literal(-6)))
          CFI (cfiCond209) R7 load(1, XDATA, add(CFA_XSP16, literal(-5)))
          CFI (cfiCond209) ?RET_LOW load(1, XDATA, add(CFA_XSP16, literal(-4)))
          CFI (cfiCond209) ?RET_HIGH load(1, XDATA, add(CFA_XSP16, literal(-3)))
          CFI (cfiCond209) DPL0 load(1, XDATA, add(CFA_XSP16, literal(-2)))
          CFI (cfiCond209) DPH0 load(1, XDATA, add(CFA_XSP16, literal(-1)))
          CFI (cfiCond209) CFA_XSP16 add(XSP16, 14)
          CFI Block cfiPicker210 Using cfiCommon1
          CFI (cfiPicker210) NoFunction
          CFI (cfiPicker210) Picker
        MOVX    @DPTR,A
        INC     DPTR
        MOV     A,R1
          CFI EndBlock cfiCond208
          CFI EndBlock cfiCond209
          CFI EndBlock cfiPicker210
        REQUIRE ??Subroutine61_0
        ; // Fall through to label ??Subroutine61_0

        RSEG NEAR_CODE:CODE:NOROOT(0)
??Subroutine61_0:
          CFI Block cfiCond211 Using cfiCommon0
          CFI Function shell_show_history
          CFI Conditional ??CrossCallReturnLabel_135
          CFI R6 load(1, XDATA, add(CFA_XSP16, literal(-14)))
          CFI VB load(1, XDATA, add(CFA_XSP16, literal(-13)))
          CFI V0 load(1, XDATA, add(CFA_XSP16, literal(-12)))
          CFI V1 load(1, XDATA, add(CFA_XSP16, literal(-11)))
          CFI V2 load(1, XDATA, add(CFA_XSP16, literal(-10)))
          CFI V3 load(1, XDATA, add(CFA_XSP16, literal(-9)))
          CFI V4 load(1, XDATA, add(CFA_XSP16, literal(-8)))
          CFI V5 load(1, XDATA, add(CFA_XSP16, literal(-7)))
          CFI V6 load(1, XDATA, add(CFA_XSP16, literal(-6)))
          CFI R7 load(1, XDATA, add(CFA_XSP16, literal(-5)))
          CFI ?RET_LOW load(1, XDATA, add(CFA_XSP16, literal(-4)))
          CFI ?RET_HIGH load(1, XDATA, add(CFA_XSP16, literal(-3)))
          CFI DPL0 load(1, XDATA, add(CFA_XSP16, literal(-2)))
          CFI DPH0 load(1, XDATA, add(CFA_XSP16, literal(-1)))
          CFI CFA_XSP16 add(XSP16, 14)
          CFI Block cfiCond212 Using cfiCommon0
          CFI (cfiCond212) Function cmdline_param
          CFI (cfiCond212) Conditional ??CrossCallReturnLabel_133
          CFI (cfiCond212) R6 load(1, XDATA, add(CFA_XSP16, literal(-14)))
          CFI (cfiCond212) VB load(1, XDATA, add(CFA_XSP16, literal(-13)))
          CFI (cfiCond212) V0 load(1, XDATA, add(CFA_XSP16, literal(-12)))
          CFI (cfiCond212) V1 load(1, XDATA, add(CFA_XSP16, literal(-11)))
          CFI (cfiCond212) V2 load(1, XDATA, add(CFA_XSP16, literal(-10)))
          CFI (cfiCond212) V3 load(1, XDATA, add(CFA_XSP16, literal(-9)))
          CFI (cfiCond212) V4 load(1, XDATA, add(CFA_XSP16, literal(-8)))
          CFI (cfiCond212) V5 load(1, XDATA, add(CFA_XSP16, literal(-7)))
          CFI (cfiCond212) V6 load(1, XDATA, add(CFA_XSP16, literal(-6)))
          CFI (cfiCond212) R7 load(1, XDATA, add(CFA_XSP16, literal(-5)))
          CFI (cfiCond212) ?RET_LOW load(1, XDATA, add(CFA_XSP16, literal(-4)))
          CFI (cfiCond212) ?RET_HIGH load(1, XDATA, add(CFA_XSP16, literal(-3)))
          CFI (cfiCond212) DPL0 load(1, XDATA, add(CFA_XSP16, literal(-2)))
          CFI (cfiCond212) DPH0 load(1, XDATA, add(CFA_XSP16, literal(-1)))
          CFI (cfiCond212) CFA_XSP16 add(XSP16, 14)
          CFI Block cfiCond213 Using cfiCommon0
          CFI (cfiCond213) Function cmdline_param
          CFI (cfiCond213) Conditional ??CrossCallReturnLabel_134
          CFI (cfiCond213) R6 load(1, XDATA, add(CFA_XSP16, literal(-14)))
          CFI (cfiCond213) VB load(1, XDATA, add(CFA_XSP16, literal(-13)))
          CFI (cfiCond213) V0 load(1, XDATA, add(CFA_XSP16, literal(-12)))
          CFI (cfiCond213) V1 load(1, XDATA, add(CFA_XSP16, literal(-11)))
          CFI (cfiCond213) V2 load(1, XDATA, add(CFA_XSP16, literal(-10)))
          CFI (cfiCond213) V3 load(1, XDATA, add(CFA_XSP16, literal(-9)))
          CFI (cfiCond213) V4 load(1, XDATA, add(CFA_XSP16, literal(-8)))
          CFI (cfiCond213) V5 load(1, XDATA, add(CFA_XSP16, literal(-7)))
          CFI (cfiCond213) V6 load(1, XDATA, add(CFA_XSP16, literal(-6)))
          CFI (cfiCond213) R7 load(1, XDATA, add(CFA_XSP16, literal(-5)))
          CFI (cfiCond213) ?RET_LOW load(1, XDATA, add(CFA_XSP16, literal(-4)))
          CFI (cfiCond213) ?RET_HIGH load(1, XDATA, add(CFA_XSP16, literal(-3)))
          CFI (cfiCond213) DPL0 load(1, XDATA, add(CFA_XSP16, literal(-2)))
          CFI (cfiCond213) DPH0 load(1, XDATA, add(CFA_XSP16, literal(-1)))
          CFI (cfiCond213) CFA_XSP16 add(XSP16, 14)
          CFI Block cfiPicker214 Using cfiCommon1
          CFI (cfiPicker214) NoFunction
          CFI (cfiPicker214) Picker
        MOVX    @DPTR,A
        MOV     DPL,R2
        MOV     DPH,R3
        INC     DPTR
        MOV     R2,DPL
        MOV     R3,DPH
        RET
          CFI EndBlock cfiCond211
          CFI EndBlock cfiCond212
          CFI EndBlock cfiCond213
          CFI EndBlock cfiPicker214
//  668 
//  669 /**
//  670   * @author   古么宁
//  671   * @brief    欢迎页
//  672   * @param    shellin : 交互
//  673   * @param    recv    : 硬件层所接收到的数据缓冲区地址
//  674   * @param    len     : 硬件层所接收到的数据长度
//  675   * @return   don't care
//  676 */

        RSEG NEAR_CODE:CODE:NOROOT(0)
//  677 void welcome_gets(struct shell_input * shellin,char * recv,int len)
welcome_gets:
          CFI Block cfiBlock215 Using cfiCommon0
          CFI Function welcome_gets
        CODE
//  678 {
        FUNCALL welcome_gets, cmdline_gets
        LOCFRAME ISTACK, 0, STACK
        LOCFRAME PSTACK, 0, STACK
        LOCFRAME XSTACK, 11, STACK
        LOCFRAME IOVERLAY, 0, STATIC
        LOCFRAME DOVERLAY, 0, STATIC
        ARGFRAME ISTACK, 0, STACK
        ARGFRAME PSTACK, 0, STACK
        ARGFRAME XSTACK, 11, STACK
        ARGFRAME IOVERLAY, 0, STATIC
        ARGFRAME DOVERLAY, 0, STATIC
        REQUIRE ?V0
        REQUIRE ?V1
        MOV     A,#-0x9
        LCALL   ?FUNC_ENTER_XDATA
          CFI DPH0 load(1, XDATA, add(CFA_XSP16, literal(-1)))
          CFI DPL0 load(1, XDATA, add(CFA_XSP16, literal(-2)))
          CFI ?RET_HIGH load(1, XDATA, add(CFA_XSP16, literal(-3)))
          CFI ?RET_LOW load(1, XDATA, add(CFA_XSP16, literal(-4)))
          CFI R7 load(1, XDATA, add(CFA_XSP16, literal(-5)))
          CFI V1 load(1, XDATA, add(CFA_XSP16, literal(-6)))
          CFI V0 load(1, XDATA, add(CFA_XSP16, literal(-7)))
          CFI VB load(1, XDATA, add(CFA_XSP16, literal(-8)))
          CFI R6 load(1, XDATA, add(CFA_XSP16, literal(-9)))
          CFI CFA_SP SP+0
          CFI CFA_XSP16 add(XSP16, 9)
        ; Saved register size: 9
        ; Auto size: 0
        MOV     A,R2
        MOV     R6,A
        MOV     A,R3
        MOV     R7,A
        MOV     ?V0,R4
        MOV     ?V1,R5
//  679 	//打印一个欢迎页logo
//  680 	static const char consolologo[] = "\r\n\ 
//  681   _____                        __\r\n\ 
//  682  / ____\\                      /\\ \\\r\n\ 
//  683 /\\ \\___/   ____  ____  ____  _\\_\\ \\     ____\r\n\ 
//  684 \\ \\ \\     / __ \\/ __ \\/ ___\\/ __ \\ \\   / __ \\\r\n\ 
//  685  \\ \\ \\___L\\ \\L\\ \\ \\/\\ \\____ \\ \\L\\ \\ \\_L\\  ___L\r\n\ 
//  686   \\ \\______\\____/\\_\\ \\_\\____/\\____/\\____\\____/\r\n\ 
//  687    \\/______/___/\\/_/\\/_/___/\\/___/\\/____/___/\r\n\ 
//  688     COPYRIGHT(c):GoodMorning		2019/06\r\n\r\n" ;
//  689 
//  690 	printl((char*)consolologo,sizeof(consolologo)-1);
        LCALL   ?Subroutine20
??CrossCallReturnLabel_33:
        JZ      ??welcome_gets_0
        ; Setup parameters for indirect call
        MOV     R4,#0x5e
        MOV     R5,#0x1
        MOV     R2,#??consolologo & 0xff
        MOV     R3,#(??consolologo >> 8) & 0xff
        LCALL   ??Subroutine65_0
??CrossCallReturnLabel_144:
        LCALL   ?CALL_IND
//  691 	shellin->gets = cmdline_gets;
??welcome_gets_0:
        MOV     DPL,R6
        MOV     DPH,R7
        MOV     A,#cmdline_gets & 0xff
        MOVX    @DPTR,A
        INC     DPTR
        MOV     A,#(cmdline_gets >> 8) & 0xff
        MOVX    @DPTR,A
//  692 	cmdline_gets(shellin,recv,len);
        ; Setup parameters for call to function cmdline_gets
        MOV     A,#0x9
        LCALL   ?XSTACK_DISP0_8
        LCALL   ?PUSH_XSTACK8_X_TWO
          CFI CFA_XSP16 add(XSP16, 11)
        MOV     R4,?V0
        MOV     R5,?V1
        MOV     A,R6
        MOV     R2,A
        MOV     A,R7
        MOV     R3,A
        LCALL   cmdline_gets
        LJMP    ?Subroutine2
          CFI EndBlock cfiBlock215
//  693 	return ;
//  694 }
//  695 
//  696 /**
//  697   * @author   古么宁
//  698   * @brief    硬件上接收到的数据到命令行的传输
//  699   * @param    shellin : 交互
//  700   * @param    recv    : 硬件层所接收到的数据缓冲区地址
//  701   * @param    len     : 硬件层所接收到的数据长度
//  702   * @return   don't care
//  703 */

        RSEG NEAR_CODE:CODE:NOROOT(0)
//  704 void cmdline_gets(struct shell_input * shellin,char * recv,int len)
cmdline_gets:
          CFI Block cfiBlock216 Using cfiCommon0
          CFI Function cmdline_gets
        CODE
//  705 {
        FUNCALL cmdline_gets, shell_getchar
        LOCFRAME ISTACK, 0, STACK
        LOCFRAME PSTACK, 0, STACK
        LOCFRAME XSTACK, 19, STACK
        LOCFRAME IOVERLAY, 0, STATIC
        LOCFRAME DOVERLAY, 0, STATIC
        ARGFRAME ISTACK, 0, STACK
        ARGFRAME PSTACK, 0, STACK
        ARGFRAME XSTACK, 19, STACK
        ARGFRAME IOVERLAY, 0, STATIC
        ARGFRAME DOVERLAY, 0, STATIC
        FUNCALL cmdline_gets, printf
        LOCFRAME ISTACK, 0, STACK
        LOCFRAME PSTACK, 0, STACK
        LOCFRAME XSTACK, 19, STACK
        LOCFRAME IOVERLAY, 0, STATIC
        LOCFRAME DOVERLAY, 0, STATIC
        ARGFRAME ISTACK, 0, STACK
        ARGFRAME PSTACK, 0, STACK
        ARGFRAME XSTACK, 19, STACK
        ARGFRAME IOVERLAY, 0, STATIC
        ARGFRAME DOVERLAY, 0, STATIC
        FUNCALL cmdline_gets, memcpy
        LOCFRAME ISTACK, 0, STACK
        LOCFRAME PSTACK, 0, STACK
        LOCFRAME XSTACK, 21, STACK
        LOCFRAME IOVERLAY, 0, STATIC
        LOCFRAME DOVERLAY, 0, STATIC
        ARGFRAME ISTACK, 0, STACK
        ARGFRAME PSTACK, 0, STACK
        ARGFRAME XSTACK, 21, STACK
        ARGFRAME IOVERLAY, 0, STATIC
        ARGFRAME DOVERLAY, 0, STATIC
        FUNCALL cmdline_gets, shell_parse
        LOCFRAME ISTACK, 0, STACK
        LOCFRAME PSTACK, 0, STACK
        LOCFRAME XSTACK, 19, STACK
        LOCFRAME IOVERLAY, 0, STATIC
        LOCFRAME DOVERLAY, 0, STATIC
        ARGFRAME ISTACK, 0, STACK
        ARGFRAME PSTACK, 0, STACK
        ARGFRAME XSTACK, 19, STACK
        ARGFRAME IOVERLAY, 0, STATIC
        ARGFRAME DOVERLAY, 0, STATIC
        FUNCALL cmdline_gets, printf
        LOCFRAME ISTACK, 0, STACK
        LOCFRAME PSTACK, 0, STACK
        LOCFRAME XSTACK, 21, STACK
        LOCFRAME IOVERLAY, 0, STATIC
        LOCFRAME DOVERLAY, 0, STATIC
        ARGFRAME ISTACK, 0, STACK
        ARGFRAME PSTACK, 0, STACK
        ARGFRAME XSTACK, 21, STACK
        ARGFRAME IOVERLAY, 0, STATIC
        ARGFRAME DOVERLAY, 0, STATIC
        FUNCALL cmdline_gets, printf
        LOCFRAME ISTACK, 0, STACK
        LOCFRAME PSTACK, 0, STACK
        LOCFRAME XSTACK, 21, STACK
        LOCFRAME IOVERLAY, 0, STATIC
        LOCFRAME DOVERLAY, 0, STATIC
        ARGFRAME ISTACK, 0, STACK
        ARGFRAME PSTACK, 0, STACK
        ARGFRAME XSTACK, 21, STACK
        ARGFRAME IOVERLAY, 0, STATIC
        ARGFRAME DOVERLAY, 0, STATIC
        FUNCALL cmdline_gets, shell_backspace
        LOCFRAME ISTACK, 0, STACK
        LOCFRAME PSTACK, 0, STACK
        LOCFRAME XSTACK, 19, STACK
        LOCFRAME IOVERLAY, 0, STATIC
        LOCFRAME DOVERLAY, 0, STATIC
        ARGFRAME ISTACK, 0, STACK
        ARGFRAME PSTACK, 0, STACK
        ARGFRAME XSTACK, 19, STACK
        ARGFRAME IOVERLAY, 0, STATIC
        ARGFRAME DOVERLAY, 0, STATIC
        FUNCALL cmdline_gets, shell_tab
        LOCFRAME ISTACK, 0, STACK
        LOCFRAME PSTACK, 0, STACK
        LOCFRAME XSTACK, 19, STACK
        LOCFRAME IOVERLAY, 0, STATIC
        LOCFRAME DOVERLAY, 0, STATIC
        ARGFRAME ISTACK, 0, STACK
        ARGFRAME PSTACK, 0, STACK
        ARGFRAME XSTACK, 19, STACK
        ARGFRAME IOVERLAY, 0, STATIC
        ARGFRAME DOVERLAY, 0, STATIC
        FUNCALL cmdline_gets, shell_show_history
        LOCFRAME ISTACK, 0, STACK
        LOCFRAME PSTACK, 0, STACK
        LOCFRAME XSTACK, 23, STACK
        LOCFRAME IOVERLAY, 0, STATIC
        LOCFRAME DOVERLAY, 0, STATIC
        ARGFRAME ISTACK, 0, STACK
        ARGFRAME PSTACK, 0, STACK
        ARGFRAME XSTACK, 23, STACK
        ARGFRAME IOVERLAY, 0, STATIC
        ARGFRAME DOVERLAY, 0, STATIC
        FUNCALL cmdline_gets, shell_show_history
        LOCFRAME ISTACK, 0, STACK
        LOCFRAME PSTACK, 0, STACK
        LOCFRAME XSTACK, 23, STACK
        LOCFRAME IOVERLAY, 0, STATIC
        LOCFRAME DOVERLAY, 0, STATIC
        ARGFRAME ISTACK, 0, STACK
        ARGFRAME PSTACK, 0, STACK
        ARGFRAME XSTACK, 23, STACK
        ARGFRAME IOVERLAY, 0, STATIC
        ARGFRAME DOVERLAY, 0, STATIC
        REQUIRE ?V0
        REQUIRE ?V1
        REQUIRE ?V2
        REQUIRE ?V3
        REQUIRE ?V4
        REQUIRE ?V5
        REQUIRE ?V6
        REQUIRE ?V7
        MOV     A,#-0xf
        LCALL   ?FUNC_ENTER_XDATA
          CFI DPH0 load(1, XDATA, add(CFA_XSP16, literal(-1)))
          CFI DPL0 load(1, XDATA, add(CFA_XSP16, literal(-2)))
          CFI ?RET_HIGH load(1, XDATA, add(CFA_XSP16, literal(-3)))
          CFI ?RET_LOW load(1, XDATA, add(CFA_XSP16, literal(-4)))
          CFI R7 load(1, XDATA, add(CFA_XSP16, literal(-5)))
          CFI V7 load(1, XDATA, add(CFA_XSP16, literal(-6)))
          CFI V6 load(1, XDATA, add(CFA_XSP16, literal(-7)))
          CFI V5 load(1, XDATA, add(CFA_XSP16, literal(-8)))
          CFI V4 load(1, XDATA, add(CFA_XSP16, literal(-9)))
          CFI V3 load(1, XDATA, add(CFA_XSP16, literal(-10)))
          CFI V2 load(1, XDATA, add(CFA_XSP16, literal(-11)))
          CFI V1 load(1, XDATA, add(CFA_XSP16, literal(-12)))
          CFI V0 load(1, XDATA, add(CFA_XSP16, literal(-13)))
          CFI VB load(1, XDATA, add(CFA_XSP16, literal(-14)))
          CFI R6 load(1, XDATA, add(CFA_XSP16, literal(-15)))
          CFI CFA_SP SP+0
          CFI CFA_XSP16 add(XSP16, 15)
        ; Saved register size: 15
        ; Auto size: 4
        MOV     A,#-0x4
        LCALL   ?ALLOC_XSTACK8
          CFI CFA_XSP16 add(XSP16, 19)
        MOV     ?V0,R2
        MOV     ?V1,R3
        MOV     ?V2,R4
        MOV     ?V3,R5
//  706 	int state = 0 ;
        MOV     R6,#0x0
//  707 
//  708 	for (char * end = recv + len ; recv < end ; ++recv) {
        MOV     A,#0x13
        LCALL   ?XSTACK_DISP0_8
        LCALL   ??Subroutine62_0
??CrossCallReturnLabel_138:
        MOV     A,R4
        ADD     A,R0
        MOV     R0,A
        MOV     A,R5
        ADDC    A,R1
        MOV     R1,A
        MOV     A,#0x2
        LCALL   ?XSTACK_DISP0_8
        LCALL   ??Subroutine57_0
??CrossCallReturnLabel_128:
        MOV     A,R2
        ADD     A,#0x6a
        MOV     ?V6,A
        CLR     A
        ADDC    A,?V1
        MOV     ?V7,A
        SJMP    ??cmdline_gets_0
//  709 		if (0 == state) {
//  710 			/* 普通字符计入内存;否则判断特殊功能字符 */
//  711 			if (*recv > 0x1F && *recv < 0x7f)
//  712 				shell_getchar(shellin,*recv);
//  713 			else
//  714 			switch (*recv) {
//  715         case KEYCODE_ENTER:
//  716           if (shellin->tail){
//  717             printf("\r\n");
//  718             shell_record(shellin);
//  719             shell_parse(&shellcmdroot ,shellin);
//  720           }
//  721           else{
//  722             printf("\r\n%s",shellin->sign);
//  723           }
//  724           break;
//  725         case KEYCODE_ESC :
//  726           state = 1;
//  727           break;
//  728         case KEYCODE_CTRL_C:
//  729           shellin->edit = 0;
//  730           shellin->tail = 0;
//  731           printf("^C\r\n%s",shellin->sign);
//  732           break;
//  733         case KEYCODE_BACKSPACE :
//  734         case 0x7f: /* for putty */
//  735           if (shellin->edit)
//  736             shell_backspace(shellin);
//  737           break;
//  738         case KEYCODE_TAB:
//  739           shell_tab(shellin);
//  740           break;
//  741         default: ;
//  742 			}
//  743 		}
//  744 		else 
//  745 		if (1 == state){ 
//  746 			/* 判断是否是箭头内容 */
//  747 			state = (*recv == '[') ? 2 : 0 ;
//  748 		}
//  749 		else{
//  750 			/* if (2 == state) 响应箭头内容 */
//  751 			switch(*recv){  
//  752         case 'A'://上箭头
//  753           shell_show_history(shellin,0);
//  754           break;
//  755         case 'B'://下箭头
//  756           shell_show_history(shellin,1);
//  757           break;
//  758         case 'C'://右箭头
//  759           if ( shellin->tail != shellin->edit)
//  760             printl(&shellin->cmdline[shellin->edit++],1);
//  761           break;
//  762         case 'D'://左箭头
//  763           if (shellin->edit){
??cmdline_gets_1:
        MOV     DPL,?V6
        MOV     DPH,?V7
        MOVX    A,@DPTR
        JZ      ??cmdline_gets_2
//  764             --shellin->edit;
        DEC     A
        LCALL   ??Subroutine52_0
//  765             printl("\b",1);
??CrossCallReturnLabel_97:
        JZ      ??cmdline_gets_2
        ; Setup parameters for indirect call
        MOV     R4,#0x1
        MOV     R5,#0x0
        MOV     R2,#`?<Constant "\\b">` & 0xff
        MOV     R3,#(`?<Constant "\\b">` >> 8) & 0xff
//  766           }
??cmdline_gets_3:
        LCALL   ??Subroutine65_0
??CrossCallReturnLabel_145:
        LCALL   ?CALL_IND
??cmdline_gets_2:
        MOV     DPL,?V2
        MOV     DPH,?V3
        INC     DPTR
        MOV     ?V2,DPL
        MOV     ?V3,DPH
??cmdline_gets_0:
        MOV     A,#0x2
        LCALL   ?XSTACK_DISP0_8
        LCALL   ??Subroutine62_0
??CrossCallReturnLabel_139:
        CLR     C
        MOV     A,?V2
        SUBB    A,R0
        MOV     A,?V3
        SUBB    A,R1
        JC      $+5
        LJMP    ??cmdline_gets_4
        MOV     A,R6
        JZ      $+5
        LJMP    ??cmdline_gets_5
        MOV     DPL,?V2
        MOV     DPH,?V3
        MOVX    A,@DPTR
        MOV     R1,A
        MOV     A,#-0x20
        ADD     A,R1
        CLR     C
        SUBB    A,#0x5f
        JNC     ??cmdline_gets_6
        ; Setup parameters for call to function shell_getchar
        MOV     R2,?V0
        MOV     R3,?V1
        LCALL   shell_getchar
        SJMP    ??cmdline_gets_2
??cmdline_gets_6:
        MOV     A,R1
        ADD     A,#-0x3
        JNZ     $+5
        LJMP    ??cmdline_gets_7
        ADD     A,#-0x5
        JNZ     $+5
        LJMP    ??cmdline_gets_8
        DEC     A
        JNZ     $+5
        LJMP    ??cmdline_gets_9
        ADD     A,#-0x4
        JZ      ??cmdline_gets_10
        ADD     A,#-0xe
        JNZ     $+5
        LJMP    ??cmdline_gets_11
        ADD     A,#-0x64
        JNZ     $+5
        LJMP    ??cmdline_gets_8
        SJMP    ??cmdline_gets_2
??cmdline_gets_10:
        LCALL   ?Subroutine35
??CrossCallReturnLabel_59:
        JNZ     $+5
        LJMP    ??cmdline_gets_12
        ; Setup parameters for call to function printf
        MOV     R2,#`?<Constant "\\r\\n">` & 0xff
        MOV     R3,#(`?<Constant "\\r\\n">` >> 8) & 0xff
        LCALL   printf
        LCALL   ?Subroutine34
??CrossCallReturnLabel_57:
        MOVX    A,@DPTR
        MOV     R2,A
        MOV     B,#0x32
        MUL     AB
        MOV     R0,A
        MOV     R1,B
        MOV     A,?V0
        ADD     A,R0
        MOV     R0,A
        MOV     A,?V1
        ADDC    A,R1
        MOV     R1,A
        MOV     A,R0
        ADD     A,#0x6e
        JNC     ??cmdline_gets_13
        INC     R1
??cmdline_gets_13:
        MOV     DPL,?XSP + 0
        MOV     DPH,?XSP + 1
        LCALL   ??Subroutine58_0
??CrossCallReturnLabel_118:
        MOV     A,R2
        ADD     A,#0x1
        MOV     R0,A
        CLR     A
        ADDC    A,#0x0
        MOV     R1,A
        MOV     R2,#0x4
        MOV     R3,#0x0
        LCALL   ?S_DIV_MOD
        LCALL   ?Subroutine34
??CrossCallReturnLabel_58:
        MOV     A,R2
        MOVX    @DPTR,A
        MOV     A,?V0
        ADD     A,#0x6d
        MOV     DPL,A
        CLR     A
        ADDC    A,?V1
        MOV     DPH,A
        MOV     A,R2
        LCALL   ?Subroutine8
??CrossCallReturnLabel_7:
        MOVX    A,@DPTR
        MOV     ?V4,A
        MOV     ?V5,#0x0
        MOV     R0,#?V4
        LCALL   ?PUSH_XSTACK_I_TWO
          CFI CFA_XSP16 add(XSP16, 21)
        MOV     A,?V0
        ADD     A,#0x38
        MOV     R4,A
        CLR     A
        ADDC    A,?V1
        MOV     R5,A
        MOV     A,#0x2
        LCALL   ?XSTACK_DISP0_8
        LCALL   ??Subroutine55_0
??CrossCallReturnLabel_111:
        LCALL   memcpy
        MOV     A,#0x2
        LCALL   ?DEALLOC_XSTACK8
          CFI CFA_XSP16 add(XSP16, 19)
        LCALL   ?Subroutine35
??CrossCallReturnLabel_60:
        MOV     R0,A
        MOV     DPL,?XSP + 0
        MOV     DPH,?XSP + 1
        MOVX    A,@DPTR
        ADD     A,R0
        MOV     R2,A
        INC     DPTR
        MOVX    A,@DPTR
        ADDC    A,#0x0
        MOV     DPL,R2
        MOV     DPH,A
        CLR     A
        MOVX    @DPTR,A
        ; Setup parameters for call to function shell_parse
        MOV     R4,?V0
        MOV     R5,?V1
        MOV     R2,#shellcmdroot & 0xff
        MOV     R3,#(shellcmdroot >> 8) & 0xff
        LCALL   shell_parse
        LJMP    ??cmdline_gets_2
??cmdline_gets_12:
        ; Setup parameters for call to function printf
        LCALL   ?Subroutine32
??CrossCallReturnLabel_53:
        LCALL   ?PUSH_XSTACK_I_TWO
          CFI CFA_XSP16 add(XSP16, 21)
        MOV     R2,#`?<Constant "\\r\\n%s">` & 0xff
        MOV     R3,#(`?<Constant "\\r\\n%s">` >> 8) & 0xff
??cmdline_gets_14:
        LCALL   printf
        MOV     A,#0x2
        LCALL   ?DEALLOC_XSTACK8
          CFI CFA_XSP16 add(XSP16, 19)
        LJMP    ??cmdline_gets_2
??cmdline_gets_11:
        MOV     R6,#0x1
        LJMP    ??cmdline_gets_2
??cmdline_gets_7:
        MOV     DPL,?V6
        MOV     DPH,?V7
        CLR     A
        LCALL   ?Subroutine8
??CrossCallReturnLabel_8:
        CLR     A
        MOVX    @DPTR,A
        ; Setup parameters for call to function printf
        LCALL   ?Subroutine32
??CrossCallReturnLabel_54:
        LCALL   ?PUSH_XSTACK_I_TWO
          CFI CFA_XSP16 add(XSP16, 21)
        MOV     R2,#`?<Constant "^C\\r\\n%s">` & 0xff
        MOV     R3,#(`?<Constant "^C\\r\\n%s">` >> 8) & 0xff
        SJMP    ??cmdline_gets_14
          CFI CFA_XSP16 add(XSP16, 19)
??cmdline_gets_8:
        MOV     DPL,?V6
        MOV     DPH,?V7
        MOVX    A,@DPTR
        JNZ     $+5
        LJMP    ??cmdline_gets_2
        ; Setup parameters for call to function shell_backspace
        MOV     R2,?V0
        MOV     R3,?V1
        LCALL   shell_backspace
        LJMP    ??cmdline_gets_2
??cmdline_gets_9:
        ; Setup parameters for call to function shell_tab
        MOV     R2,?V0
        MOV     R3,?V1
        LCALL   shell_tab
        LJMP    ??cmdline_gets_2
??cmdline_gets_5:
        XRL     A,#0x1
        MOV     DPL,?V2
        MOV     DPH,?V3
        JNZ     ??cmdline_gets_15
        MOVX    A,@DPTR
        XRL     A,#0x5b
        JNZ     ??cmdline_gets_16
        MOV     R6,#0x2
        LJMP    ??cmdline_gets_2
??cmdline_gets_16:
        MOV     R6,#0x0
        LJMP    ??cmdline_gets_2
??cmdline_gets_15:
        MOVX    A,@DPTR
        ADD     A,#-0x41
        JZ      ??cmdline_gets_17
        DEC     A
        JZ      ??cmdline_gets_18
        DEC     A
        JZ      ??cmdline_gets_19
        DEC     A
        JNZ     $+5
        LJMP    ??cmdline_gets_1
        LJMP    ??cmdline_gets_2
??cmdline_gets_17:
        ; Setup parameters for call to function shell_show_history
        MOV     DPTR,#__Constant_0
??cmdline_gets_20:
        LCALL   ?PUSH_XSTACK8_X_FOUR
          CFI CFA_XSP16 add(XSP16, 23)
        MOV     R2,?V0
        MOV     R3,?V1
        LCALL   shell_show_history
        MOV     A,#0x4
        LCALL   ?DEALLOC_XSTACK8
          CFI CFA_XSP16 add(XSP16, 19)
        LJMP    ??cmdline_gets_2
??cmdline_gets_18:
        ; Setup parameters for call to function shell_show_history
        MOV     DPTR,#__Constant_1
        SJMP    ??cmdline_gets_20
??cmdline_gets_19:
        MOV     DPL,?V6
        MOV     DPH,?V7
        MOVX    A,@DPTR
        MOV     R2,A
        LCALL   ?Subroutine35
??CrossCallReturnLabel_61:
        XRL     A,R2
        JNZ     $+5
        LJMP    ??cmdline_gets_2
        LCALL   ?Subroutine20
??CrossCallReturnLabel_34:
        JNZ     $+5
        LJMP    ??cmdline_gets_2
        MOV     A,#0x1
        ADD     A,R2
        MOV     DPL,?V6
        MOV     DPH,?V7
        MOVX    @DPTR,A
        ; Setup parameters for indirect call
        MOV     R4,#0x1
        MOV     R5,#0x0
        MOV     A,?V0
        ADD     A,R2
        MOV     R0,A
        CLR     A
        ADDC    A,?V1
        MOV     R1,A
        MOV     A,R0
        ADD     A,#0x38
        MOV     R2,A
        CLR     A
        ADDC    A,R1
        MOV     R3,A
        MOV     DPTR,#current_puts
        MOVX    A,@DPTR
        MOV     R0,A
        INC     DPTR
        LJMP    ??cmdline_gets_3
//  767           break;
//  768         default:;
//  769 			} //switch 箭头内容
//  770 		} // if (2 == state) //响应箭头内容
//  771 	} //for ( ; len && *recv; --len,++recv)
//  772 	return ;
??cmdline_gets_4:
        LJMP    ?Subroutine0
          CFI EndBlock cfiBlock216
//  773 }

        RSEG NEAR_CODE:CODE:NOROOT(0)
?Subroutine35:
          CFI Block cfiCond217 Using cfiCommon0
          CFI Function cmdline_gets
          CFI Conditional ??CrossCallReturnLabel_59
          CFI R6 load(1, XDATA, add(CFA_XSP16, literal(-15)))
          CFI VB load(1, XDATA, add(CFA_XSP16, literal(-14)))
          CFI V0 load(1, XDATA, add(CFA_XSP16, literal(-13)))
          CFI V1 load(1, XDATA, add(CFA_XSP16, literal(-12)))
          CFI V2 load(1, XDATA, add(CFA_XSP16, literal(-11)))
          CFI V3 load(1, XDATA, add(CFA_XSP16, literal(-10)))
          CFI V4 load(1, XDATA, add(CFA_XSP16, literal(-9)))
          CFI V5 load(1, XDATA, add(CFA_XSP16, literal(-8)))
          CFI V6 load(1, XDATA, add(CFA_XSP16, literal(-7)))
          CFI V7 load(1, XDATA, add(CFA_XSP16, literal(-6)))
          CFI R7 load(1, XDATA, add(CFA_XSP16, literal(-5)))
          CFI ?RET_LOW load(1, XDATA, add(CFA_XSP16, literal(-4)))
          CFI ?RET_HIGH load(1, XDATA, add(CFA_XSP16, literal(-3)))
          CFI DPL0 load(1, XDATA, add(CFA_XSP16, literal(-2)))
          CFI DPH0 load(1, XDATA, add(CFA_XSP16, literal(-1)))
          CFI CFA_XSP16 add(XSP16, 19)
          CFI Block cfiCond218 Using cfiCommon0
          CFI (cfiCond218) Function cmdline_gets
          CFI (cfiCond218) Conditional ??CrossCallReturnLabel_60
          CFI (cfiCond218) R6 load(1, XDATA, add(CFA_XSP16, literal(-15)))
          CFI (cfiCond218) VB load(1, XDATA, add(CFA_XSP16, literal(-14)))
          CFI (cfiCond218) V0 load(1, XDATA, add(CFA_XSP16, literal(-13)))
          CFI (cfiCond218) V1 load(1, XDATA, add(CFA_XSP16, literal(-12)))
          CFI (cfiCond218) V2 load(1, XDATA, add(CFA_XSP16, literal(-11)))
          CFI (cfiCond218) V3 load(1, XDATA, add(CFA_XSP16, literal(-10)))
          CFI (cfiCond218) V4 load(1, XDATA, add(CFA_XSP16, literal(-9)))
          CFI (cfiCond218) V5 load(1, XDATA, add(CFA_XSP16, literal(-8)))
          CFI (cfiCond218) V6 load(1, XDATA, add(CFA_XSP16, literal(-7)))
          CFI (cfiCond218) V7 load(1, XDATA, add(CFA_XSP16, literal(-6)))
          CFI (cfiCond218) R7 load(1, XDATA, add(CFA_XSP16, literal(-5)))
          CFI (cfiCond218) ?RET_LOW load(1, XDATA, add(CFA_XSP16, literal(-4)))
          CFI (cfiCond218) ?RET_HIGH load(1, XDATA, add(CFA_XSP16, literal(-3)))
          CFI (cfiCond218) DPL0 load(1, XDATA, add(CFA_XSP16, literal(-2)))
          CFI (cfiCond218) DPH0 load(1, XDATA, add(CFA_XSP16, literal(-1)))
          CFI (cfiCond218) CFA_XSP16 add(XSP16, 19)
          CFI Block cfiCond219 Using cfiCommon0
          CFI (cfiCond219) Function cmdline_gets
          CFI (cfiCond219) Conditional ??CrossCallReturnLabel_61
          CFI (cfiCond219) R6 load(1, XDATA, add(CFA_XSP16, literal(-15)))
          CFI (cfiCond219) VB load(1, XDATA, add(CFA_XSP16, literal(-14)))
          CFI (cfiCond219) V0 load(1, XDATA, add(CFA_XSP16, literal(-13)))
          CFI (cfiCond219) V1 load(1, XDATA, add(CFA_XSP16, literal(-12)))
          CFI (cfiCond219) V2 load(1, XDATA, add(CFA_XSP16, literal(-11)))
          CFI (cfiCond219) V3 load(1, XDATA, add(CFA_XSP16, literal(-10)))
          CFI (cfiCond219) V4 load(1, XDATA, add(CFA_XSP16, literal(-9)))
          CFI (cfiCond219) V5 load(1, XDATA, add(CFA_XSP16, literal(-8)))
          CFI (cfiCond219) V6 load(1, XDATA, add(CFA_XSP16, literal(-7)))
          CFI (cfiCond219) V7 load(1, XDATA, add(CFA_XSP16, literal(-6)))
          CFI (cfiCond219) R7 load(1, XDATA, add(CFA_XSP16, literal(-5)))
          CFI (cfiCond219) ?RET_LOW load(1, XDATA, add(CFA_XSP16, literal(-4)))
          CFI (cfiCond219) ?RET_HIGH load(1, XDATA, add(CFA_XSP16, literal(-3)))
          CFI (cfiCond219) DPL0 load(1, XDATA, add(CFA_XSP16, literal(-2)))
          CFI (cfiCond219) DPH0 load(1, XDATA, add(CFA_XSP16, literal(-1)))
          CFI (cfiCond219) CFA_XSP16 add(XSP16, 19)
          CFI Block cfiPicker220 Using cfiCommon1
          CFI (cfiPicker220) NoFunction
          CFI (cfiPicker220) Picker
        LCALL   ?Subroutine47
??CrossCallReturnLabel_82:
        MOVX    A,@DPTR
        RET
          CFI EndBlock cfiCond217
          CFI EndBlock cfiCond218
          CFI EndBlock cfiCond219
          CFI EndBlock cfiPicker220

        RSEG NEAR_CODE:CODE:NOROOT(0)
?Subroutine34:
          CFI Block cfiCond221 Using cfiCommon0
          CFI Function cmdline_gets
          CFI Conditional ??CrossCallReturnLabel_57
          CFI R6 load(1, XDATA, add(CFA_XSP16, literal(-15)))
          CFI VB load(1, XDATA, add(CFA_XSP16, literal(-14)))
          CFI V0 load(1, XDATA, add(CFA_XSP16, literal(-13)))
          CFI V1 load(1, XDATA, add(CFA_XSP16, literal(-12)))
          CFI V2 load(1, XDATA, add(CFA_XSP16, literal(-11)))
          CFI V3 load(1, XDATA, add(CFA_XSP16, literal(-10)))
          CFI V4 load(1, XDATA, add(CFA_XSP16, literal(-9)))
          CFI V5 load(1, XDATA, add(CFA_XSP16, literal(-8)))
          CFI V6 load(1, XDATA, add(CFA_XSP16, literal(-7)))
          CFI V7 load(1, XDATA, add(CFA_XSP16, literal(-6)))
          CFI R7 load(1, XDATA, add(CFA_XSP16, literal(-5)))
          CFI ?RET_LOW load(1, XDATA, add(CFA_XSP16, literal(-4)))
          CFI ?RET_HIGH load(1, XDATA, add(CFA_XSP16, literal(-3)))
          CFI DPL0 load(1, XDATA, add(CFA_XSP16, literal(-2)))
          CFI DPH0 load(1, XDATA, add(CFA_XSP16, literal(-1)))
          CFI CFA_XSP16 add(XSP16, 19)
          CFI Block cfiCond222 Using cfiCommon0
          CFI (cfiCond222) Function cmdline_gets
          CFI (cfiCond222) Conditional ??CrossCallReturnLabel_58
          CFI (cfiCond222) R6 load(1, XDATA, add(CFA_XSP16, literal(-15)))
          CFI (cfiCond222) VB load(1, XDATA, add(CFA_XSP16, literal(-14)))
          CFI (cfiCond222) V0 load(1, XDATA, add(CFA_XSP16, literal(-13)))
          CFI (cfiCond222) V1 load(1, XDATA, add(CFA_XSP16, literal(-12)))
          CFI (cfiCond222) V2 load(1, XDATA, add(CFA_XSP16, literal(-11)))
          CFI (cfiCond222) V3 load(1, XDATA, add(CFA_XSP16, literal(-10)))
          CFI (cfiCond222) V4 load(1, XDATA, add(CFA_XSP16, literal(-9)))
          CFI (cfiCond222) V5 load(1, XDATA, add(CFA_XSP16, literal(-8)))
          CFI (cfiCond222) V6 load(1, XDATA, add(CFA_XSP16, literal(-7)))
          CFI (cfiCond222) V7 load(1, XDATA, add(CFA_XSP16, literal(-6)))
          CFI (cfiCond222) R7 load(1, XDATA, add(CFA_XSP16, literal(-5)))
          CFI (cfiCond222) ?RET_LOW load(1, XDATA, add(CFA_XSP16, literal(-4)))
          CFI (cfiCond222) ?RET_HIGH load(1, XDATA, add(CFA_XSP16, literal(-3)))
          CFI (cfiCond222) DPL0 load(1, XDATA, add(CFA_XSP16, literal(-2)))
          CFI (cfiCond222) DPH0 load(1, XDATA, add(CFA_XSP16, literal(-1)))
          CFI (cfiCond222) CFA_XSP16 add(XSP16, 19)
          CFI Block cfiPicker223 Using cfiCommon1
          CFI (cfiPicker223) NoFunction
          CFI (cfiPicker223) Picker
        MOV     A,?V0
        ADD     A,#0x6c
        MOV     DPL,A
        CLR     A
        ADDC    A,?V1
        MOV     DPH,A
        RET
          CFI EndBlock cfiCond221
          CFI EndBlock cfiCond222
          CFI EndBlock cfiPicker223

        RSEG NEAR_CODE:CODE:NOROOT(0)
?Subroutine32:
          CFI Block cfiCond224 Using cfiCommon0
          CFI Function cmdline_gets
          CFI Conditional ??CrossCallReturnLabel_53
          CFI R6 load(1, XDATA, add(CFA_XSP16, literal(-15)))
          CFI VB load(1, XDATA, add(CFA_XSP16, literal(-14)))
          CFI V0 load(1, XDATA, add(CFA_XSP16, literal(-13)))
          CFI V1 load(1, XDATA, add(CFA_XSP16, literal(-12)))
          CFI V2 load(1, XDATA, add(CFA_XSP16, literal(-11)))
          CFI V3 load(1, XDATA, add(CFA_XSP16, literal(-10)))
          CFI V4 load(1, XDATA, add(CFA_XSP16, literal(-9)))
          CFI V5 load(1, XDATA, add(CFA_XSP16, literal(-8)))
          CFI V6 load(1, XDATA, add(CFA_XSP16, literal(-7)))
          CFI V7 load(1, XDATA, add(CFA_XSP16, literal(-6)))
          CFI R7 load(1, XDATA, add(CFA_XSP16, literal(-5)))
          CFI ?RET_LOW load(1, XDATA, add(CFA_XSP16, literal(-4)))
          CFI ?RET_HIGH load(1, XDATA, add(CFA_XSP16, literal(-3)))
          CFI DPL0 load(1, XDATA, add(CFA_XSP16, literal(-2)))
          CFI DPH0 load(1, XDATA, add(CFA_XSP16, literal(-1)))
          CFI CFA_XSP16 add(XSP16, 19)
          CFI Block cfiCond225 Using cfiCommon0
          CFI (cfiCond225) Function cmdline_gets
          CFI (cfiCond225) Conditional ??CrossCallReturnLabel_54
          CFI (cfiCond225) R6 load(1, XDATA, add(CFA_XSP16, literal(-15)))
          CFI (cfiCond225) VB load(1, XDATA, add(CFA_XSP16, literal(-14)))
          CFI (cfiCond225) V0 load(1, XDATA, add(CFA_XSP16, literal(-13)))
          CFI (cfiCond225) V1 load(1, XDATA, add(CFA_XSP16, literal(-12)))
          CFI (cfiCond225) V2 load(1, XDATA, add(CFA_XSP16, literal(-11)))
          CFI (cfiCond225) V3 load(1, XDATA, add(CFA_XSP16, literal(-10)))
          CFI (cfiCond225) V4 load(1, XDATA, add(CFA_XSP16, literal(-9)))
          CFI (cfiCond225) V5 load(1, XDATA, add(CFA_XSP16, literal(-8)))
          CFI (cfiCond225) V6 load(1, XDATA, add(CFA_XSP16, literal(-7)))
          CFI (cfiCond225) V7 load(1, XDATA, add(CFA_XSP16, literal(-6)))
          CFI (cfiCond225) R7 load(1, XDATA, add(CFA_XSP16, literal(-5)))
          CFI (cfiCond225) ?RET_LOW load(1, XDATA, add(CFA_XSP16, literal(-4)))
          CFI (cfiCond225) ?RET_HIGH load(1, XDATA, add(CFA_XSP16, literal(-3)))
          CFI (cfiCond225) DPL0 load(1, XDATA, add(CFA_XSP16, literal(-2)))
          CFI (cfiCond225) DPH0 load(1, XDATA, add(CFA_XSP16, literal(-1)))
          CFI (cfiCond225) CFA_XSP16 add(XSP16, 19)
          CFI Block cfiPicker226 Using cfiCommon1
          CFI (cfiPicker226) NoFunction
          CFI (cfiPicker226) Picker
        MOV     A,?V0
        ADD     A,#0x6
        MOV     ?V4,A
        CLR     A
        ADDC    A,?V1
        MOV     ?V5,A
        MOV     R0,#?V4
        RET
          CFI EndBlock cfiCond224
          CFI EndBlock cfiCond225
          CFI EndBlock cfiPicker226

        RSEG NEAR_CODE:CODE:NOROOT(0)
?Subroutine28:
          CFI Block cfiCond227 Using cfiCommon0
          CFI Function cmdline_param
          CFI Conditional ??CrossCallReturnLabel_140
          CFI R6 load(1, XDATA, add(CFA_XSP16, literal(-14)))
          CFI VB load(1, XDATA, add(CFA_XSP16, literal(-13)))
          CFI V0 load(1, XDATA, add(CFA_XSP16, literal(-12)))
          CFI V1 load(1, XDATA, add(CFA_XSP16, literal(-11)))
          CFI V2 load(1, XDATA, add(CFA_XSP16, literal(-10)))
          CFI V3 load(1, XDATA, add(CFA_XSP16, literal(-9)))
          CFI V4 load(1, XDATA, add(CFA_XSP16, literal(-8)))
          CFI V5 load(1, XDATA, add(CFA_XSP16, literal(-7)))
          CFI V6 load(1, XDATA, add(CFA_XSP16, literal(-6)))
          CFI R7 load(1, XDATA, add(CFA_XSP16, literal(-5)))
          CFI ?RET_LOW load(1, XDATA, add(CFA_XSP16, literal(-4)))
          CFI ?RET_HIGH load(1, XDATA, add(CFA_XSP16, literal(-3)))
          CFI DPL0 load(1, XDATA, add(CFA_XSP16, literal(-2)))
          CFI DPH0 load(1, XDATA, add(CFA_XSP16, literal(-1)))
          CFI CFA_XSP16 add(XSP16, 14)
          CFI Block cfiCond228 Using cfiCommon0
          CFI (cfiCond228) Function cmdline_param
          CFI (cfiCond228) Conditional ??CrossCallReturnLabel_141
          CFI (cfiCond228) R6 load(1, XDATA, add(CFA_XSP16, literal(-14)))
          CFI (cfiCond228) VB load(1, XDATA, add(CFA_XSP16, literal(-13)))
          CFI (cfiCond228) V0 load(1, XDATA, add(CFA_XSP16, literal(-12)))
          CFI (cfiCond228) V1 load(1, XDATA, add(CFA_XSP16, literal(-11)))
          CFI (cfiCond228) V2 load(1, XDATA, add(CFA_XSP16, literal(-10)))
          CFI (cfiCond228) V3 load(1, XDATA, add(CFA_XSP16, literal(-9)))
          CFI (cfiCond228) V4 load(1, XDATA, add(CFA_XSP16, literal(-8)))
          CFI (cfiCond228) V5 load(1, XDATA, add(CFA_XSP16, literal(-7)))
          CFI (cfiCond228) V6 load(1, XDATA, add(CFA_XSP16, literal(-6)))
          CFI (cfiCond228) R7 load(1, XDATA, add(CFA_XSP16, literal(-5)))
          CFI (cfiCond228) ?RET_LOW load(1, XDATA, add(CFA_XSP16, literal(-4)))
          CFI (cfiCond228) ?RET_HIGH load(1, XDATA, add(CFA_XSP16, literal(-3)))
          CFI (cfiCond228) DPL0 load(1, XDATA, add(CFA_XSP16, literal(-2)))
          CFI (cfiCond228) DPH0 load(1, XDATA, add(CFA_XSP16, literal(-1)))
          CFI (cfiCond228) CFA_XSP16 add(XSP16, 14)
          CFI Block cfiPicker229 Using cfiCommon1
          CFI (cfiPicker229) NoFunction
          CFI (cfiPicker229) Picker
        MOV     DPL,?V2
        MOV     DPH,?V3
          CFI EndBlock cfiCond227
          CFI EndBlock cfiCond228
          CFI EndBlock cfiPicker229
        REQUIRE ??Subroutine62_0
        ; // Fall through to label ??Subroutine62_0

        RSEG NEAR_CODE:CODE:NOROOT(0)
??Subroutine62_0:
          CFI Block cfiCond230 Using cfiCommon0
          CFI Function _shell_register
          CFI Conditional ??CrossCallReturnLabel_136
          CFI R6 load(1, XDATA, add(CFA_XSP16, literal(-15)))
          CFI VB load(1, XDATA, add(CFA_XSP16, literal(-14)))
          CFI V0 load(1, XDATA, add(CFA_XSP16, literal(-13)))
          CFI V1 load(1, XDATA, add(CFA_XSP16, literal(-12)))
          CFI V2 load(1, XDATA, add(CFA_XSP16, literal(-11)))
          CFI V3 load(1, XDATA, add(CFA_XSP16, literal(-10)))
          CFI V4 load(1, XDATA, add(CFA_XSP16, literal(-9)))
          CFI V5 load(1, XDATA, add(CFA_XSP16, literal(-8)))
          CFI V6 load(1, XDATA, add(CFA_XSP16, literal(-7)))
          CFI V7 load(1, XDATA, add(CFA_XSP16, literal(-6)))
          CFI R7 load(1, XDATA, add(CFA_XSP16, literal(-5)))
          CFI ?RET_LOW load(1, XDATA, add(CFA_XSP16, literal(-4)))
          CFI ?RET_HIGH load(1, XDATA, add(CFA_XSP16, literal(-3)))
          CFI DPL0 load(1, XDATA, add(CFA_XSP16, literal(-2)))
          CFI DPH0 load(1, XDATA, add(CFA_XSP16, literal(-1)))
          CFI CFA_XSP16 add(XSP16, 37)
          CFI Block cfiCond231 Using cfiCommon0
          CFI (cfiCond231) Function _shell_register
          CFI (cfiCond231) Conditional ??CrossCallReturnLabel_137
          CFI (cfiCond231) R6 load(1, XDATA, add(CFA_XSP16, literal(-15)))
          CFI (cfiCond231) VB load(1, XDATA, add(CFA_XSP16, literal(-14)))
          CFI (cfiCond231) V0 load(1, XDATA, add(CFA_XSP16, literal(-13)))
          CFI (cfiCond231) V1 load(1, XDATA, add(CFA_XSP16, literal(-12)))
          CFI (cfiCond231) V2 load(1, XDATA, add(CFA_XSP16, literal(-11)))
          CFI (cfiCond231) V3 load(1, XDATA, add(CFA_XSP16, literal(-10)))
          CFI (cfiCond231) V4 load(1, XDATA, add(CFA_XSP16, literal(-9)))
          CFI (cfiCond231) V5 load(1, XDATA, add(CFA_XSP16, literal(-8)))
          CFI (cfiCond231) V6 load(1, XDATA, add(CFA_XSP16, literal(-7)))
          CFI (cfiCond231) V7 load(1, XDATA, add(CFA_XSP16, literal(-6)))
          CFI (cfiCond231) R7 load(1, XDATA, add(CFA_XSP16, literal(-5)))
          CFI (cfiCond231) ?RET_LOW load(1, XDATA, add(CFA_XSP16, literal(-4)))
          CFI (cfiCond231) ?RET_HIGH load(1, XDATA, add(CFA_XSP16, literal(-3)))
          CFI (cfiCond231) DPL0 load(1, XDATA, add(CFA_XSP16, literal(-2)))
          CFI (cfiCond231) DPH0 load(1, XDATA, add(CFA_XSP16, literal(-1)))
          CFI (cfiCond231) CFA_XSP16 add(XSP16, 37)
          CFI Block cfiCond232 Using cfiCommon0
          CFI (cfiCond232) Function cmdline_gets
          CFI (cfiCond232) Conditional ??CrossCallReturnLabel_138
          CFI (cfiCond232) R6 load(1, XDATA, add(CFA_XSP16, literal(-15)))
          CFI (cfiCond232) VB load(1, XDATA, add(CFA_XSP16, literal(-14)))
          CFI (cfiCond232) V0 load(1, XDATA, add(CFA_XSP16, literal(-13)))
          CFI (cfiCond232) V1 load(1, XDATA, add(CFA_XSP16, literal(-12)))
          CFI (cfiCond232) V2 load(1, XDATA, add(CFA_XSP16, literal(-11)))
          CFI (cfiCond232) V3 load(1, XDATA, add(CFA_XSP16, literal(-10)))
          CFI (cfiCond232) V4 load(1, XDATA, add(CFA_XSP16, literal(-9)))
          CFI (cfiCond232) V5 load(1, XDATA, add(CFA_XSP16, literal(-8)))
          CFI (cfiCond232) V6 load(1, XDATA, add(CFA_XSP16, literal(-7)))
          CFI (cfiCond232) V7 load(1, XDATA, add(CFA_XSP16, literal(-6)))
          CFI (cfiCond232) R7 load(1, XDATA, add(CFA_XSP16, literal(-5)))
          CFI (cfiCond232) ?RET_LOW load(1, XDATA, add(CFA_XSP16, literal(-4)))
          CFI (cfiCond232) ?RET_HIGH load(1, XDATA, add(CFA_XSP16, literal(-3)))
          CFI (cfiCond232) DPL0 load(1, XDATA, add(CFA_XSP16, literal(-2)))
          CFI (cfiCond232) DPH0 load(1, XDATA, add(CFA_XSP16, literal(-1)))
          CFI (cfiCond232) CFA_XSP16 add(XSP16, 19)
          CFI Block cfiCond233 Using cfiCommon0
          CFI (cfiCond233) Function cmdline_gets
          CFI (cfiCond233) Conditional ??CrossCallReturnLabel_139
          CFI (cfiCond233) R6 load(1, XDATA, add(CFA_XSP16, literal(-15)))
          CFI (cfiCond233) VB load(1, XDATA, add(CFA_XSP16, literal(-14)))
          CFI (cfiCond233) V0 load(1, XDATA, add(CFA_XSP16, literal(-13)))
          CFI (cfiCond233) V1 load(1, XDATA, add(CFA_XSP16, literal(-12)))
          CFI (cfiCond233) V2 load(1, XDATA, add(CFA_XSP16, literal(-11)))
          CFI (cfiCond233) V3 load(1, XDATA, add(CFA_XSP16, literal(-10)))
          CFI (cfiCond233) V4 load(1, XDATA, add(CFA_XSP16, literal(-9)))
          CFI (cfiCond233) V5 load(1, XDATA, add(CFA_XSP16, literal(-8)))
          CFI (cfiCond233) V6 load(1, XDATA, add(CFA_XSP16, literal(-7)))
          CFI (cfiCond233) V7 load(1, XDATA, add(CFA_XSP16, literal(-6)))
          CFI (cfiCond233) R7 load(1, XDATA, add(CFA_XSP16, literal(-5)))
          CFI (cfiCond233) ?RET_LOW load(1, XDATA, add(CFA_XSP16, literal(-4)))
          CFI (cfiCond233) ?RET_HIGH load(1, XDATA, add(CFA_XSP16, literal(-3)))
          CFI (cfiCond233) DPL0 load(1, XDATA, add(CFA_XSP16, literal(-2)))
          CFI (cfiCond233) DPH0 load(1, XDATA, add(CFA_XSP16, literal(-1)))
          CFI (cfiCond233) CFA_XSP16 add(XSP16, 19)
          CFI Block cfiCond234 Using cfiCommon0
          CFI (cfiCond234) Function cmdline_param
          CFI (cfiCond234) Conditional ??CrossCallReturnLabel_140
          CFI (cfiCond234) R6 load(1, XDATA, add(CFA_XSP16, literal(-14)))
          CFI (cfiCond234) VB load(1, XDATA, add(CFA_XSP16, literal(-13)))
          CFI (cfiCond234) V0 load(1, XDATA, add(CFA_XSP16, literal(-12)))
          CFI (cfiCond234) V1 load(1, XDATA, add(CFA_XSP16, literal(-11)))
          CFI (cfiCond234) V2 load(1, XDATA, add(CFA_XSP16, literal(-10)))
          CFI (cfiCond234) V3 load(1, XDATA, add(CFA_XSP16, literal(-9)))
          CFI (cfiCond234) V4 load(1, XDATA, add(CFA_XSP16, literal(-8)))
          CFI (cfiCond234) V5 load(1, XDATA, add(CFA_XSP16, literal(-7)))
          CFI (cfiCond234) V6 load(1, XDATA, add(CFA_XSP16, literal(-6)))
          CFI (cfiCond234) R7 load(1, XDATA, add(CFA_XSP16, literal(-5)))
          CFI (cfiCond234) ?RET_LOW load(1, XDATA, add(CFA_XSP16, literal(-4)))
          CFI (cfiCond234) ?RET_HIGH load(1, XDATA, add(CFA_XSP16, literal(-3)))
          CFI (cfiCond234) DPL0 load(1, XDATA, add(CFA_XSP16, literal(-2)))
          CFI (cfiCond234) DPH0 load(1, XDATA, add(CFA_XSP16, literal(-1)))
          CFI (cfiCond234) CFA_XSP16 add(XSP16, 14)
          CFI Block cfiCond235 Using cfiCommon0
          CFI (cfiCond235) Function cmdline_param
          CFI (cfiCond235) Conditional ??CrossCallReturnLabel_141
          CFI (cfiCond235) R6 load(1, XDATA, add(CFA_XSP16, literal(-14)))
          CFI (cfiCond235) VB load(1, XDATA, add(CFA_XSP16, literal(-13)))
          CFI (cfiCond235) V0 load(1, XDATA, add(CFA_XSP16, literal(-12)))
          CFI (cfiCond235) V1 load(1, XDATA, add(CFA_XSP16, literal(-11)))
          CFI (cfiCond235) V2 load(1, XDATA, add(CFA_XSP16, literal(-10)))
          CFI (cfiCond235) V3 load(1, XDATA, add(CFA_XSP16, literal(-9)))
          CFI (cfiCond235) V4 load(1, XDATA, add(CFA_XSP16, literal(-8)))
          CFI (cfiCond235) V5 load(1, XDATA, add(CFA_XSP16, literal(-7)))
          CFI (cfiCond235) V6 load(1, XDATA, add(CFA_XSP16, literal(-6)))
          CFI (cfiCond235) R7 load(1, XDATA, add(CFA_XSP16, literal(-5)))
          CFI (cfiCond235) ?RET_LOW load(1, XDATA, add(CFA_XSP16, literal(-4)))
          CFI (cfiCond235) ?RET_HIGH load(1, XDATA, add(CFA_XSP16, literal(-3)))
          CFI (cfiCond235) DPL0 load(1, XDATA, add(CFA_XSP16, literal(-2)))
          CFI (cfiCond235) DPH0 load(1, XDATA, add(CFA_XSP16, literal(-1)))
          CFI (cfiCond235) CFA_XSP16 add(XSP16, 14)
          CFI Block cfiPicker236 Using cfiCommon1
          CFI (cfiPicker236) NoFunction
          CFI (cfiPicker236) Picker
        LCALL   ??Subroutine66_0
??CrossCallReturnLabel_160:
        RET
          CFI EndBlock cfiCond230
          CFI EndBlock cfiCond231
          CFI EndBlock cfiCond232
          CFI EndBlock cfiCond233
          CFI EndBlock cfiCond234
          CFI EndBlock cfiCond235
          CFI EndBlock cfiPicker236

        RSEG NEAR_CODE:CODE:NOROOT(0)
?Subroutine20:
          CFI Block cfiCond237 Using cfiCommon0
          CFI Function shell_show_history
          CFI Conditional ??CrossCallReturnLabel_32
          CFI R6 load(1, XDATA, add(CFA_XSP16, literal(-14)))
          CFI VB load(1, XDATA, add(CFA_XSP16, literal(-13)))
          CFI V0 load(1, XDATA, add(CFA_XSP16, literal(-12)))
          CFI V1 load(1, XDATA, add(CFA_XSP16, literal(-11)))
          CFI V2 load(1, XDATA, add(CFA_XSP16, literal(-10)))
          CFI V3 load(1, XDATA, add(CFA_XSP16, literal(-9)))
          CFI V4 load(1, XDATA, add(CFA_XSP16, literal(-8)))
          CFI V5 load(1, XDATA, add(CFA_XSP16, literal(-7)))
          CFI V6 load(1, XDATA, add(CFA_XSP16, literal(-6)))
          CFI R7 load(1, XDATA, add(CFA_XSP16, literal(-5)))
          CFI ?RET_LOW load(1, XDATA, add(CFA_XSP16, literal(-4)))
          CFI ?RET_HIGH load(1, XDATA, add(CFA_XSP16, literal(-3)))
          CFI DPL0 load(1, XDATA, add(CFA_XSP16, literal(-2)))
          CFI DPH0 load(1, XDATA, add(CFA_XSP16, literal(-1)))
          CFI CFA_XSP16 add(XSP16, 14)
          CFI Block cfiCond238 Using cfiCommon0
          CFI (cfiCond238) Function welcome_gets
          CFI (cfiCond238) Conditional ??CrossCallReturnLabel_33
          CFI (cfiCond238) R6 load(1, XDATA, add(CFA_XSP16, literal(-9)))
          CFI (cfiCond238) VB load(1, XDATA, add(CFA_XSP16, literal(-8)))
          CFI (cfiCond238) V0 load(1, XDATA, add(CFA_XSP16, literal(-7)))
          CFI (cfiCond238) V1 load(1, XDATA, add(CFA_XSP16, literal(-6)))
          CFI (cfiCond238) R7 load(1, XDATA, add(CFA_XSP16, literal(-5)))
          CFI (cfiCond238) ?RET_LOW load(1, XDATA, add(CFA_XSP16, literal(-4)))
          CFI (cfiCond238) ?RET_HIGH load(1, XDATA, add(CFA_XSP16, literal(-3)))
          CFI (cfiCond238) DPL0 load(1, XDATA, add(CFA_XSP16, literal(-2)))
          CFI (cfiCond238) DPH0 load(1, XDATA, add(CFA_XSP16, literal(-1)))
          CFI (cfiCond238) CFA_XSP16 add(XSP16, 9)
          CFI Block cfiCond239 Using cfiCommon0
          CFI (cfiCond239) Function cmdline_gets
          CFI (cfiCond239) Conditional ??CrossCallReturnLabel_34
          CFI (cfiCond239) R6 load(1, XDATA, add(CFA_XSP16, literal(-15)))
          CFI (cfiCond239) VB load(1, XDATA, add(CFA_XSP16, literal(-14)))
          CFI (cfiCond239) V0 load(1, XDATA, add(CFA_XSP16, literal(-13)))
          CFI (cfiCond239) V1 load(1, XDATA, add(CFA_XSP16, literal(-12)))
          CFI (cfiCond239) V2 load(1, XDATA, add(CFA_XSP16, literal(-11)))
          CFI (cfiCond239) V3 load(1, XDATA, add(CFA_XSP16, literal(-10)))
          CFI (cfiCond239) V4 load(1, XDATA, add(CFA_XSP16, literal(-9)))
          CFI (cfiCond239) V5 load(1, XDATA, add(CFA_XSP16, literal(-8)))
          CFI (cfiCond239) V6 load(1, XDATA, add(CFA_XSP16, literal(-7)))
          CFI (cfiCond239) V7 load(1, XDATA, add(CFA_XSP16, literal(-6)))
          CFI (cfiCond239) R7 load(1, XDATA, add(CFA_XSP16, literal(-5)))
          CFI (cfiCond239) ?RET_LOW load(1, XDATA, add(CFA_XSP16, literal(-4)))
          CFI (cfiCond239) ?RET_HIGH load(1, XDATA, add(CFA_XSP16, literal(-3)))
          CFI (cfiCond239) DPL0 load(1, XDATA, add(CFA_XSP16, literal(-2)))
          CFI (cfiCond239) DPH0 load(1, XDATA, add(CFA_XSP16, literal(-1)))
          CFI (cfiCond239) CFA_XSP16 add(XSP16, 19)
          CFI Block cfiCond240 Using cfiCommon0
          CFI (cfiCond240) Function confirm_gets
          CFI (cfiCond240) Conditional ??CrossCallReturnLabel_35
          CFI (cfiCond240) R6 load(1, XDATA, add(CFA_XSP16, literal(-13)))
          CFI (cfiCond240) VB load(1, XDATA, add(CFA_XSP16, literal(-12)))
          CFI (cfiCond240) V0 load(1, XDATA, add(CFA_XSP16, literal(-11)))
          CFI (cfiCond240) V1 load(1, XDATA, add(CFA_XSP16, literal(-10)))
          CFI (cfiCond240) V2 load(1, XDATA, add(CFA_XSP16, literal(-9)))
          CFI (cfiCond240) V3 load(1, XDATA, add(CFA_XSP16, literal(-8)))
          CFI (cfiCond240) V4 load(1, XDATA, add(CFA_XSP16, literal(-7)))
          CFI (cfiCond240) V5 load(1, XDATA, add(CFA_XSP16, literal(-6)))
          CFI (cfiCond240) R7 load(1, XDATA, add(CFA_XSP16, literal(-5)))
          CFI (cfiCond240) ?RET_LOW load(1, XDATA, add(CFA_XSP16, literal(-4)))
          CFI (cfiCond240) ?RET_HIGH load(1, XDATA, add(CFA_XSP16, literal(-3)))
          CFI (cfiCond240) DPL0 load(1, XDATA, add(CFA_XSP16, literal(-2)))
          CFI (cfiCond240) DPH0 load(1, XDATA, add(CFA_XSP16, literal(-1)))
          CFI (cfiCond240) CFA_XSP16 add(XSP16, 15)
          CFI Block cfiPicker241 Using cfiCommon1
          CFI (cfiPicker241) NoFunction
          CFI (cfiPicker241) Picker
        LCALL   ?Subroutine46
??CrossCallReturnLabel_158:
        MOV     A,R0
        ORL     A,R1
        RET
          CFI EndBlock cfiCond237
          CFI EndBlock cfiCond238
          CFI EndBlock cfiCond239
          CFI EndBlock cfiCond240
          CFI EndBlock cfiPicker241

        RSEG NEAR_CODE:CODE:NOROOT(0)
?Subroutine8:
          CFI Block cfiCond242 Using cfiCommon0
          CFI Function cmdline_gets
          CFI Conditional ??CrossCallReturnLabel_7
          CFI R6 load(1, XDATA, add(CFA_XSP16, literal(-15)))
          CFI VB load(1, XDATA, add(CFA_XSP16, literal(-14)))
          CFI V0 load(1, XDATA, add(CFA_XSP16, literal(-13)))
          CFI V1 load(1, XDATA, add(CFA_XSP16, literal(-12)))
          CFI V2 load(1, XDATA, add(CFA_XSP16, literal(-11)))
          CFI V3 load(1, XDATA, add(CFA_XSP16, literal(-10)))
          CFI V4 load(1, XDATA, add(CFA_XSP16, literal(-9)))
          CFI V5 load(1, XDATA, add(CFA_XSP16, literal(-8)))
          CFI V6 load(1, XDATA, add(CFA_XSP16, literal(-7)))
          CFI V7 load(1, XDATA, add(CFA_XSP16, literal(-6)))
          CFI R7 load(1, XDATA, add(CFA_XSP16, literal(-5)))
          CFI ?RET_LOW load(1, XDATA, add(CFA_XSP16, literal(-4)))
          CFI ?RET_HIGH load(1, XDATA, add(CFA_XSP16, literal(-3)))
          CFI DPL0 load(1, XDATA, add(CFA_XSP16, literal(-2)))
          CFI DPH0 load(1, XDATA, add(CFA_XSP16, literal(-1)))
          CFI CFA_XSP16 add(XSP16, 19)
          CFI Block cfiCond243 Using cfiCommon0
          CFI (cfiCond243) Function cmdline_gets
          CFI (cfiCond243) Conditional ??CrossCallReturnLabel_8
          CFI (cfiCond243) R6 load(1, XDATA, add(CFA_XSP16, literal(-15)))
          CFI (cfiCond243) VB load(1, XDATA, add(CFA_XSP16, literal(-14)))
          CFI (cfiCond243) V0 load(1, XDATA, add(CFA_XSP16, literal(-13)))
          CFI (cfiCond243) V1 load(1, XDATA, add(CFA_XSP16, literal(-12)))
          CFI (cfiCond243) V2 load(1, XDATA, add(CFA_XSP16, literal(-11)))
          CFI (cfiCond243) V3 load(1, XDATA, add(CFA_XSP16, literal(-10)))
          CFI (cfiCond243) V4 load(1, XDATA, add(CFA_XSP16, literal(-9)))
          CFI (cfiCond243) V5 load(1, XDATA, add(CFA_XSP16, literal(-8)))
          CFI (cfiCond243) V6 load(1, XDATA, add(CFA_XSP16, literal(-7)))
          CFI (cfiCond243) V7 load(1, XDATA, add(CFA_XSP16, literal(-6)))
          CFI (cfiCond243) R7 load(1, XDATA, add(CFA_XSP16, literal(-5)))
          CFI (cfiCond243) ?RET_LOW load(1, XDATA, add(CFA_XSP16, literal(-4)))
          CFI (cfiCond243) ?RET_HIGH load(1, XDATA, add(CFA_XSP16, literal(-3)))
          CFI (cfiCond243) DPL0 load(1, XDATA, add(CFA_XSP16, literal(-2)))
          CFI (cfiCond243) DPH0 load(1, XDATA, add(CFA_XSP16, literal(-1)))
          CFI (cfiCond243) CFA_XSP16 add(XSP16, 19)
          CFI Block cfiPicker244 Using cfiCommon1
          CFI (cfiPicker244) NoFunction
          CFI (cfiPicker244) Picker
        MOVX    @DPTR,A
        ; Setup parameters for call to function memcpy
        LCALL   ?Subroutine47
??CrossCallReturnLabel_81:
        RET
          CFI EndBlock cfiCond242
          CFI EndBlock cfiCond243
          CFI EndBlock cfiPicker244

        RSEG NEAR_CODE:CODE:NOROOT(0)
?Subroutine47:
          CFI Block cfiCond245 Using cfiCommon0
          CFI Function cmdline_gets
          CFI Conditional ??CrossCallReturnLabel_82, ??CrossCallReturnLabel_59
          CFI R6 load(1, XDATA, add(CFA_XSP16, literal(-15)))
          CFI VB load(1, XDATA, add(CFA_XSP16, literal(-14)))
          CFI V0 load(1, XDATA, add(CFA_XSP16, literal(-13)))
          CFI V1 load(1, XDATA, add(CFA_XSP16, literal(-12)))
          CFI V2 load(1, XDATA, add(CFA_XSP16, literal(-11)))
          CFI V3 load(1, XDATA, add(CFA_XSP16, literal(-10)))
          CFI V4 load(1, XDATA, add(CFA_XSP16, literal(-9)))
          CFI V5 load(1, XDATA, add(CFA_XSP16, literal(-8)))
          CFI V6 load(1, XDATA, add(CFA_XSP16, literal(-7)))
          CFI V7 load(1, XDATA, add(CFA_XSP16, literal(-6)))
          CFI R7 load(1, XDATA, add(CFA_XSP16, literal(-5)))
          CFI ?RET_LOW load(1, XDATA, add(CFA_XSP16, literal(-4)))
          CFI ?RET_HIGH load(1, XDATA, add(CFA_XSP16, literal(-3)))
          CFI DPL0 load(1, XDATA, add(CFA_XSP16, literal(-2)))
          CFI DPH0 load(1, XDATA, add(CFA_XSP16, literal(-1)))
          CFI CFA_SP SP+-4
          CFI CFA_XSP16 add(XSP16, 19)
          CFI Block cfiCond246 Using cfiCommon0
          CFI (cfiCond246) Function cmdline_gets
          CFI (cfiCond246) Conditional ??CrossCallReturnLabel_82, ??CrossCallReturnLabel_60
          CFI (cfiCond246) R6 load(1, XDATA, add(CFA_XSP16, literal(-15)))
          CFI (cfiCond246) VB load(1, XDATA, add(CFA_XSP16, literal(-14)))
          CFI (cfiCond246) V0 load(1, XDATA, add(CFA_XSP16, literal(-13)))
          CFI (cfiCond246) V1 load(1, XDATA, add(CFA_XSP16, literal(-12)))
          CFI (cfiCond246) V2 load(1, XDATA, add(CFA_XSP16, literal(-11)))
          CFI (cfiCond246) V3 load(1, XDATA, add(CFA_XSP16, literal(-10)))
          CFI (cfiCond246) V4 load(1, XDATA, add(CFA_XSP16, literal(-9)))
          CFI (cfiCond246) V5 load(1, XDATA, add(CFA_XSP16, literal(-8)))
          CFI (cfiCond246) V6 load(1, XDATA, add(CFA_XSP16, literal(-7)))
          CFI (cfiCond246) V7 load(1, XDATA, add(CFA_XSP16, literal(-6)))
          CFI (cfiCond246) R7 load(1, XDATA, add(CFA_XSP16, literal(-5)))
          CFI (cfiCond246) ?RET_LOW load(1, XDATA, add(CFA_XSP16, literal(-4)))
          CFI (cfiCond246) ?RET_HIGH load(1, XDATA, add(CFA_XSP16, literal(-3)))
          CFI (cfiCond246) DPL0 load(1, XDATA, add(CFA_XSP16, literal(-2)))
          CFI (cfiCond246) DPH0 load(1, XDATA, add(CFA_XSP16, literal(-1)))
          CFI (cfiCond246) CFA_SP SP+-4
          CFI (cfiCond246) CFA_XSP16 add(XSP16, 19)
          CFI Block cfiCond247 Using cfiCommon0
          CFI (cfiCond247) Function cmdline_gets
          CFI (cfiCond247) Conditional ??CrossCallReturnLabel_82, ??CrossCallReturnLabel_61
          CFI (cfiCond247) R6 load(1, XDATA, add(CFA_XSP16, literal(-15)))
          CFI (cfiCond247) VB load(1, XDATA, add(CFA_XSP16, literal(-14)))
          CFI (cfiCond247) V0 load(1, XDATA, add(CFA_XSP16, literal(-13)))
          CFI (cfiCond247) V1 load(1, XDATA, add(CFA_XSP16, literal(-12)))
          CFI (cfiCond247) V2 load(1, XDATA, add(CFA_XSP16, literal(-11)))
          CFI (cfiCond247) V3 load(1, XDATA, add(CFA_XSP16, literal(-10)))
          CFI (cfiCond247) V4 load(1, XDATA, add(CFA_XSP16, literal(-9)))
          CFI (cfiCond247) V5 load(1, XDATA, add(CFA_XSP16, literal(-8)))
          CFI (cfiCond247) V6 load(1, XDATA, add(CFA_XSP16, literal(-7)))
          CFI (cfiCond247) V7 load(1, XDATA, add(CFA_XSP16, literal(-6)))
          CFI (cfiCond247) R7 load(1, XDATA, add(CFA_XSP16, literal(-5)))
          CFI (cfiCond247) ?RET_LOW load(1, XDATA, add(CFA_XSP16, literal(-4)))
          CFI (cfiCond247) ?RET_HIGH load(1, XDATA, add(CFA_XSP16, literal(-3)))
          CFI (cfiCond247) DPL0 load(1, XDATA, add(CFA_XSP16, literal(-2)))
          CFI (cfiCond247) DPH0 load(1, XDATA, add(CFA_XSP16, literal(-1)))
          CFI (cfiCond247) CFA_SP SP+-4
          CFI (cfiCond247) CFA_XSP16 add(XSP16, 19)
          CFI Block cfiCond248 Using cfiCommon0
          CFI (cfiCond248) Function cmdline_gets
          CFI (cfiCond248) Conditional ??CrossCallReturnLabel_81, ??CrossCallReturnLabel_7
          CFI (cfiCond248) R6 load(1, XDATA, add(CFA_XSP16, literal(-15)))
          CFI (cfiCond248) VB load(1, XDATA, add(CFA_XSP16, literal(-14)))
          CFI (cfiCond248) V0 load(1, XDATA, add(CFA_XSP16, literal(-13)))
          CFI (cfiCond248) V1 load(1, XDATA, add(CFA_XSP16, literal(-12)))
          CFI (cfiCond248) V2 load(1, XDATA, add(CFA_XSP16, literal(-11)))
          CFI (cfiCond248) V3 load(1, XDATA, add(CFA_XSP16, literal(-10)))
          CFI (cfiCond248) V4 load(1, XDATA, add(CFA_XSP16, literal(-9)))
          CFI (cfiCond248) V5 load(1, XDATA, add(CFA_XSP16, literal(-8)))
          CFI (cfiCond248) V6 load(1, XDATA, add(CFA_XSP16, literal(-7)))
          CFI (cfiCond248) V7 load(1, XDATA, add(CFA_XSP16, literal(-6)))
          CFI (cfiCond248) R7 load(1, XDATA, add(CFA_XSP16, literal(-5)))
          CFI (cfiCond248) ?RET_LOW load(1, XDATA, add(CFA_XSP16, literal(-4)))
          CFI (cfiCond248) ?RET_HIGH load(1, XDATA, add(CFA_XSP16, literal(-3)))
          CFI (cfiCond248) DPL0 load(1, XDATA, add(CFA_XSP16, literal(-2)))
          CFI (cfiCond248) DPH0 load(1, XDATA, add(CFA_XSP16, literal(-1)))
          CFI (cfiCond248) CFA_SP SP+-4
          CFI (cfiCond248) CFA_XSP16 add(XSP16, 19)
          CFI Block cfiCond249 Using cfiCommon0
          CFI (cfiCond249) Function cmdline_gets
          CFI (cfiCond249) Conditional ??CrossCallReturnLabel_81, ??CrossCallReturnLabel_8
          CFI (cfiCond249) R6 load(1, XDATA, add(CFA_XSP16, literal(-15)))
          CFI (cfiCond249) VB load(1, XDATA, add(CFA_XSP16, literal(-14)))
          CFI (cfiCond249) V0 load(1, XDATA, add(CFA_XSP16, literal(-13)))
          CFI (cfiCond249) V1 load(1, XDATA, add(CFA_XSP16, literal(-12)))
          CFI (cfiCond249) V2 load(1, XDATA, add(CFA_XSP16, literal(-11)))
          CFI (cfiCond249) V3 load(1, XDATA, add(CFA_XSP16, literal(-10)))
          CFI (cfiCond249) V4 load(1, XDATA, add(CFA_XSP16, literal(-9)))
          CFI (cfiCond249) V5 load(1, XDATA, add(CFA_XSP16, literal(-8)))
          CFI (cfiCond249) V6 load(1, XDATA, add(CFA_XSP16, literal(-7)))
          CFI (cfiCond249) V7 load(1, XDATA, add(CFA_XSP16, literal(-6)))
          CFI (cfiCond249) R7 load(1, XDATA, add(CFA_XSP16, literal(-5)))
          CFI (cfiCond249) ?RET_LOW load(1, XDATA, add(CFA_XSP16, literal(-4)))
          CFI (cfiCond249) ?RET_HIGH load(1, XDATA, add(CFA_XSP16, literal(-3)))
          CFI (cfiCond249) DPL0 load(1, XDATA, add(CFA_XSP16, literal(-2)))
          CFI (cfiCond249) DPH0 load(1, XDATA, add(CFA_XSP16, literal(-1)))
          CFI (cfiCond249) CFA_SP SP+-4
          CFI (cfiCond249) CFA_XSP16 add(XSP16, 19)
          CFI Block cfiPicker250 Using cfiCommon1
          CFI (cfiPicker250) NoFunction
          CFI (cfiPicker250) Picker
        MOV     A,?V0
        ADD     A,#0x6b
        MOV     DPL,A
        CLR     A
        ADDC    A,?V1
        MOV     DPH,A
        RET
          CFI EndBlock cfiCond245
          CFI EndBlock cfiCond246
          CFI EndBlock cfiCond247
          CFI EndBlock cfiCond248
          CFI EndBlock cfiCond249
          CFI EndBlock cfiPicker250
//  774 
//  775 /**
//  776   * @brief    命令行信息确认，如果输入 y/Y 则执行命令
//  777   * @param    shellin : 交互
//  778   * @param    buf     : 硬件层所接收到的数据缓冲区地址
//  779   * @param    len     : 硬件层所接收到的数据长度
//  780   * @return   don't care
//  781 */

        RSEG NEAR_CODE:CODE:NOROOT(0)
//  782 static void confirm_gets(struct shell_input * shellin ,char * buf , int len)
confirm_gets:
          CFI Block cfiBlock251 Using cfiCommon0
          CFI Function confirm_gets
        CODE
//  783 {
        FUNCALL confirm_gets, memcpy
        LOCFRAME ISTACK, 0, STACK
        LOCFRAME PSTACK, 0, STACK
        LOCFRAME XSTACK, 17, STACK
        LOCFRAME IOVERLAY, 0, STATIC
        LOCFRAME DOVERLAY, 0, STATIC
        ARGFRAME ISTACK, 0, STACK
        ARGFRAME PSTACK, 0, STACK
        ARGFRAME XSTACK, 17, STACK
        ARGFRAME IOVERLAY, 0, STATIC
        ARGFRAME DOVERLAY, 0, STATIC
        FUNCALL confirm_gets, printf
        LOCFRAME ISTACK, 0, STACK
        LOCFRAME PSTACK, 0, STACK
        LOCFRAME XSTACK, 15, STACK
        LOCFRAME IOVERLAY, 0, STATIC
        LOCFRAME DOVERLAY, 0, STATIC
        ARGFRAME ISTACK, 0, STACK
        ARGFRAME PSTACK, 0, STACK
        ARGFRAME XSTACK, 15, STACK
        ARGFRAME IOVERLAY, 0, STATIC
        ARGFRAME DOVERLAY, 0, STATIC
        REQUIRE ?V0
        REQUIRE ?V1
        REQUIRE ?V2
        REQUIRE ?V3
        REQUIRE ?V4
        REQUIRE ?V5
        MOV     A,#-0xd
        LCALL   ?FUNC_ENTER_XDATA
          CFI DPH0 load(1, XDATA, add(CFA_XSP16, literal(-1)))
          CFI DPL0 load(1, XDATA, add(CFA_XSP16, literal(-2)))
          CFI ?RET_HIGH load(1, XDATA, add(CFA_XSP16, literal(-3)))
          CFI ?RET_LOW load(1, XDATA, add(CFA_XSP16, literal(-4)))
          CFI R7 load(1, XDATA, add(CFA_XSP16, literal(-5)))
          CFI V5 load(1, XDATA, add(CFA_XSP16, literal(-6)))
          CFI V4 load(1, XDATA, add(CFA_XSP16, literal(-7)))
          CFI V3 load(1, XDATA, add(CFA_XSP16, literal(-8)))
          CFI V2 load(1, XDATA, add(CFA_XSP16, literal(-9)))
          CFI V1 load(1, XDATA, add(CFA_XSP16, literal(-10)))
          CFI V0 load(1, XDATA, add(CFA_XSP16, literal(-11)))
          CFI VB load(1, XDATA, add(CFA_XSP16, literal(-12)))
          CFI R6 load(1, XDATA, add(CFA_XSP16, literal(-13)))
          CFI CFA_SP SP+0
          CFI CFA_XSP16 add(XSP16, 13)
        ; Saved register size: 13
        ; Auto size: 2
        MOV     A,#-0x2
        LCALL   ?ALLOC_XSTACK8
          CFI CFA_XSP16 add(XSP16, 15)
        MOV     ?V0,R2
        MOV     ?V1,R3
        MOV     A,R4
        MOV     R2,A
        MOV     A,R5
        MOV     R3,A
//  784 	char * option = &shellin->cmdline[COMMANDLINE_MAX_LEN-1];
        MOV     A,?V0
        ADD     A,#0x69
        MOV     R6,A
        CLR     A
        ADDC    A,?V1
        MOV     R7,A
//  785 
//  786 	if (0 == *option) { //先输入 [Y/y/N/n] ，其他按键无效
        MOV     DPL,R2
        MOV     DPH,R3
        MOVX    A,@DPTR
        MOV     R0,A
        MOV     DPL,R6
        MOV     DPH,R7
        MOVX    A,@DPTR
        JNZ     ??confirm_gets_0
//  787 		if ('Y' == *buf || 'y' == *buf || 'N' == *buf || 'n' == *buf) {
        MOV     A,#0x59
        XRL     A,R0
        JZ      ??confirm_gets_1
        MOV     A,#0x79
        XRL     A,R0
        JZ      ??confirm_gets_1
        MOV     A,#0x4e
        XRL     A,R0
        JZ      ??confirm_gets_1
        MOV     A,#0x6e
        XRL     A,R0
        JZ      $+5
        LJMP    ??confirm_gets_2
//  788 			*option = *buf;
??confirm_gets_1:
        MOV     A,R0
        LCALL   ??Subroutine52_0
//  789 			printl(buf,1);
??CrossCallReturnLabel_98:
        JNZ     $+5
        LJMP    ??confirm_gets_2
        ; Setup parameters for indirect call
        MOV     R4,#0x1
        MOV     R5,#0x0
        LJMP    ??confirm_gets_3
//  790 		}
//  791 	}
//  792 	else
//  793 	if (KEYCODE_BACKSPACE == *buf) { //回退键
??confirm_gets_0:
        MOV     A,#0x8
        XRL     A,R0
        JNZ     ??confirm_gets_4
//  794 		printl("\b \b",3);
        LCALL   ?Subroutine20
??CrossCallReturnLabel_35:
        JZ      ??confirm_gets_5
        ; Setup parameters for indirect call
        MOV     R4,#0x3
        MOV     R5,#0x0
        MOV     R2,#`?<Constant "\\b \\b">` & 0xff
        MOV     R3,#(`?<Constant "\\b \\b">` >> 8) & 0xff
        LCALL   ??Subroutine65_0
??CrossCallReturnLabel_146:
        LCALL   ?CALL_IND
//  795 		*option = 0;
??confirm_gets_5:
        MOV     DPL,R6
        MOV     DPH,R7
        CLR     A
        MOVX    @DPTR,A
        LJMP    ??confirm_gets_2
//  796 	}
//  797 	else
//  798 	if ('\r' == *buf || '\n' == *buf) {//按回车确定
??confirm_gets_4:
        MOV     A,#0xd
        XRL     A,R0
        JZ      ??confirm_gets_6
        MOV     A,#0xa
        XRL     A,R0
        JZ      $+5
        LJMP    ??confirm_gets_2
//  799 //		cmd_fn_t yestodo = (cmd_fn_t)shellin->apparg;
//  800     cmd_fn_t yestodo;
//  801     memcpy(&yestodo, &shellin->apparg, sizeof(cmd_fn_t));
??confirm_gets_6:
        MOV     A,?V0
        ADD     A,#0x4
        MOV     ?V4,A
        CLR     A
        ADDC    A,?V1
        MOV     ?V5,A
        ; Setup parameters for call to function memcpy
        MOV     ?V2,#0x2
        MOV     ?V3,#0x0
        MOV     R0,#?V2
        LCALL   ?PUSH_XSTACK_I_TWO
          CFI CFA_XSP16 add(XSP16, 17)
        MOV     R4,?V4
        MOV     R5,?V5
        MOV     A,#0x2
        LCALL   ?XSTACK_DISP101_8
        LCALL   memcpy
        MOV     A,#0x2
        LCALL   ?DEALLOC_XSTACK8
          CFI CFA_XSP16 add(XSP16, 15)
//  802  		char opt = *option ; 
        MOV     DPL,R6
        MOV     DPH,R7
        MOVX    A,@DPTR
        MOV     ?V2,A
//  803 		
//  804 		*option = 0 ;  //shellin->cmdline[COMMANDLINE_MAX_LEN-1] = 0;
        CLR     A
        MOVX    @DPTR,A
//  805 		shellin->gets   = cmdline_gets;//数据回归为命令行模式
        MOV     DPL,?V0
        MOV     DPH,?V1
        MOV     A,#cmdline_gets & 0xff
        MOVX    @DPTR,A
        INC     DPTR
        MOV     A,#(cmdline_gets >> 8) & 0xff
        MOVX    @DPTR,A
//  806 		shellin->apparg = NULL;
        MOV     DPL,?V4
        MOV     DPH,?V5
        CLR     A
        MOVX    @DPTR,A
        INC     DPTR
        LCALL   ??Subroutine52_0
//  807 
//  808 		printl("\r\n",2);
??CrossCallReturnLabel_99:
        JZ      ??confirm_gets_7
        ; Setup parameters for indirect call
        MOV     R4,#0x2
        MOV     R5,#0x0
        MOV     R2,#`?<Constant "\\r\\n">` & 0xff
        MOV     R3,#(`?<Constant "\\r\\n">` >> 8) & 0xff
        LCALL   ??Subroutine65_0
??CrossCallReturnLabel_147:
        LCALL   ?CALL_IND
//  809 
//  810 		if ( 'Y' == opt || 'y' == opt) 
??confirm_gets_7:
        MOV     A,#0x59
        XRL     A,?V2
        JZ      ??confirm_gets_8
        MOV     A,#0x79
        XRL     A,?V2
        JNZ     ??confirm_gets_9
//  811 			yestodo(shellin->cmdline);
??confirm_gets_8:
        ; Setup parameters for indirect call
        MOV     A,?V0
        ADD     A,#0x38
        MOV     R2,A
        CLR     A
        ADDC    A,?V1
        MOV     R3,A
        MOV     DPL,?XSP + 0
        MOV     DPH,?XSP + 1
        MOVX    A,@DPTR
        MOV     R0,A
        INC     DPTR
??confirm_gets_3:
        LCALL   ??Subroutine65_0
??CrossCallReturnLabel_148:
        LCALL   ?CALL_IND
        SJMP    ??confirm_gets_2
//  812 		else
//  813 			printf("cancel this operation\r\n");
??confirm_gets_9:
        ; Setup parameters for call to function printf
        MOV     R2,#`?<Constant "cancel this operation\\r\\n">` & 0xff
        MOV     R3,#(`?<Constant "cancel this operation\\r\\n">` >> 8) & 0xff
        LCALL   printf
//  814 	}
//  815 }
??confirm_gets_2:
        MOV     A,#0x2
        LCALL   ?DEALLOC_XSTACK8
          CFI CFA_XSP16 add(XSP16, 13)
        MOV     R7,#0x6
        LJMP    ?FUNC_LEAVE_XDATA
          CFI EndBlock cfiBlock251

        RSEG NEAR_CODE:CODE:NOROOT(0)
?Subroutine22:
          CFI Block cfiCond252 Using cfiCommon0
          CFI Function shell_tab
          CFI Conditional ??CrossCallReturnLabel_154
          CFI R6 load(1, XDATA, add(CFA_XSP16, literal(-15)))
          CFI VB load(1, XDATA, add(CFA_XSP16, literal(-14)))
          CFI V0 load(1, XDATA, add(CFA_XSP16, literal(-13)))
          CFI V1 load(1, XDATA, add(CFA_XSP16, literal(-12)))
          CFI V2 load(1, XDATA, add(CFA_XSP16, literal(-11)))
          CFI V3 load(1, XDATA, add(CFA_XSP16, literal(-10)))
          CFI V4 load(1, XDATA, add(CFA_XSP16, literal(-9)))
          CFI V5 load(1, XDATA, add(CFA_XSP16, literal(-8)))
          CFI V6 load(1, XDATA, add(CFA_XSP16, literal(-7)))
          CFI V7 load(1, XDATA, add(CFA_XSP16, literal(-6)))
          CFI R7 load(1, XDATA, add(CFA_XSP16, literal(-5)))
          CFI ?RET_LOW load(1, XDATA, add(CFA_XSP16, literal(-4)))
          CFI ?RET_HIGH load(1, XDATA, add(CFA_XSP16, literal(-3)))
          CFI DPL0 load(1, XDATA, add(CFA_XSP16, literal(-2)))
          CFI DPH0 load(1, XDATA, add(CFA_XSP16, literal(-1)))
          CFI CFA_XSP16 add(XSP16, 45)
          CFI Block cfiCond253 Using cfiCommon0
          CFI (cfiCond253) Function shell_backspace
          CFI (cfiCond253) Conditional ??CrossCallReturnLabel_155
          CFI (cfiCond253) R6 load(1, XDATA, add(CFA_XSP16, literal(-15)))
          CFI (cfiCond253) VB load(1, XDATA, add(CFA_XSP16, literal(-14)))
          CFI (cfiCond253) V0 load(1, XDATA, add(CFA_XSP16, literal(-13)))
          CFI (cfiCond253) V1 load(1, XDATA, add(CFA_XSP16, literal(-12)))
          CFI (cfiCond253) V2 load(1, XDATA, add(CFA_XSP16, literal(-11)))
          CFI (cfiCond253) V3 load(1, XDATA, add(CFA_XSP16, literal(-10)))
          CFI (cfiCond253) V4 load(1, XDATA, add(CFA_XSP16, literal(-9)))
          CFI (cfiCond253) V5 load(1, XDATA, add(CFA_XSP16, literal(-8)))
          CFI (cfiCond253) V6 load(1, XDATA, add(CFA_XSP16, literal(-7)))
          CFI (cfiCond253) V7 load(1, XDATA, add(CFA_XSP16, literal(-6)))
          CFI (cfiCond253) R7 load(1, XDATA, add(CFA_XSP16, literal(-5)))
          CFI (cfiCond253) ?RET_LOW load(1, XDATA, add(CFA_XSP16, literal(-4)))
          CFI (cfiCond253) ?RET_HIGH load(1, XDATA, add(CFA_XSP16, literal(-3)))
          CFI (cfiCond253) DPL0 load(1, XDATA, add(CFA_XSP16, literal(-2)))
          CFI (cfiCond253) DPH0 load(1, XDATA, add(CFA_XSP16, literal(-1)))
          CFI (cfiCond253) CFA_XSP16 add(XSP16, 117)
          CFI Block cfiPicker254 Using cfiCommon1
          CFI (cfiPicker254) NoFunction
          CFI (cfiPicker254) Picker
        MOV     DPTR,#current_puts
          CFI EndBlock cfiCond252
          CFI EndBlock cfiCond253
          CFI EndBlock cfiPicker254
        REQUIRE ??Subroutine63_0
        ; // Fall through to label ??Subroutine63_0

        RSEG NEAR_CODE:CODE:NOROOT(0)
??Subroutine63_0:
          CFI Block cfiCond255 Using cfiCommon0
          CFI Function shell_tab
          CFI Conditional ??CrossCallReturnLabel_150
          CFI R6 load(1, XDATA, add(CFA_XSP16, literal(-15)))
          CFI VB load(1, XDATA, add(CFA_XSP16, literal(-14)))
          CFI V0 load(1, XDATA, add(CFA_XSP16, literal(-13)))
          CFI V1 load(1, XDATA, add(CFA_XSP16, literal(-12)))
          CFI V2 load(1, XDATA, add(CFA_XSP16, literal(-11)))
          CFI V3 load(1, XDATA, add(CFA_XSP16, literal(-10)))
          CFI V4 load(1, XDATA, add(CFA_XSP16, literal(-9)))
          CFI V5 load(1, XDATA, add(CFA_XSP16, literal(-8)))
          CFI V6 load(1, XDATA, add(CFA_XSP16, literal(-7)))
          CFI V7 load(1, XDATA, add(CFA_XSP16, literal(-6)))
          CFI R7 load(1, XDATA, add(CFA_XSP16, literal(-5)))
          CFI ?RET_LOW load(1, XDATA, add(CFA_XSP16, literal(-4)))
          CFI ?RET_HIGH load(1, XDATA, add(CFA_XSP16, literal(-3)))
          CFI DPL0 load(1, XDATA, add(CFA_XSP16, literal(-2)))
          CFI DPH0 load(1, XDATA, add(CFA_XSP16, literal(-1)))
          CFI CFA_XSP16 add(XSP16, 45)
          CFI Block cfiCond256 Using cfiCommon0
          CFI (cfiCond256) Function shell_tab
          CFI (cfiCond256) Conditional ??CrossCallReturnLabel_151
          CFI (cfiCond256) R6 load(1, XDATA, add(CFA_XSP16, literal(-15)))
          CFI (cfiCond256) VB load(1, XDATA, add(CFA_XSP16, literal(-14)))
          CFI (cfiCond256) V0 load(1, XDATA, add(CFA_XSP16, literal(-13)))
          CFI (cfiCond256) V1 load(1, XDATA, add(CFA_XSP16, literal(-12)))
          CFI (cfiCond256) V2 load(1, XDATA, add(CFA_XSP16, literal(-11)))
          CFI (cfiCond256) V3 load(1, XDATA, add(CFA_XSP16, literal(-10)))
          CFI (cfiCond256) V4 load(1, XDATA, add(CFA_XSP16, literal(-9)))
          CFI (cfiCond256) V5 load(1, XDATA, add(CFA_XSP16, literal(-8)))
          CFI (cfiCond256) V6 load(1, XDATA, add(CFA_XSP16, literal(-7)))
          CFI (cfiCond256) V7 load(1, XDATA, add(CFA_XSP16, literal(-6)))
          CFI (cfiCond256) R7 load(1, XDATA, add(CFA_XSP16, literal(-5)))
          CFI (cfiCond256) ?RET_LOW load(1, XDATA, add(CFA_XSP16, literal(-4)))
          CFI (cfiCond256) ?RET_HIGH load(1, XDATA, add(CFA_XSP16, literal(-3)))
          CFI (cfiCond256) DPL0 load(1, XDATA, add(CFA_XSP16, literal(-2)))
          CFI (cfiCond256) DPH0 load(1, XDATA, add(CFA_XSP16, literal(-1)))
          CFI (cfiCond256) CFA_XSP16 add(XSP16, 45)
          CFI Block cfiCond257 Using cfiCommon0
          CFI (cfiCond257) Function shell_parse
          CFI (cfiCond257) Conditional ??CrossCallReturnLabel_152
          CFI (cfiCond257) R6 load(1, XDATA, add(CFA_XSP16, literal(-15)))
          CFI (cfiCond257) VB load(1, XDATA, add(CFA_XSP16, literal(-14)))
          CFI (cfiCond257) V0 load(1, XDATA, add(CFA_XSP16, literal(-13)))
          CFI (cfiCond257) V1 load(1, XDATA, add(CFA_XSP16, literal(-12)))
          CFI (cfiCond257) V2 load(1, XDATA, add(CFA_XSP16, literal(-11)))
          CFI (cfiCond257) V3 load(1, XDATA, add(CFA_XSP16, literal(-10)))
          CFI (cfiCond257) V4 load(1, XDATA, add(CFA_XSP16, literal(-9)))
          CFI (cfiCond257) V5 load(1, XDATA, add(CFA_XSP16, literal(-8)))
          CFI (cfiCond257) V6 load(1, XDATA, add(CFA_XSP16, literal(-7)))
          CFI (cfiCond257) V7 load(1, XDATA, add(CFA_XSP16, literal(-6)))
          CFI (cfiCond257) R7 load(1, XDATA, add(CFA_XSP16, literal(-5)))
          CFI (cfiCond257) ?RET_LOW load(1, XDATA, add(CFA_XSP16, literal(-4)))
          CFI (cfiCond257) ?RET_HIGH load(1, XDATA, add(CFA_XSP16, literal(-3)))
          CFI (cfiCond257) DPL0 load(1, XDATA, add(CFA_XSP16, literal(-2)))
          CFI (cfiCond257) DPH0 load(1, XDATA, add(CFA_XSP16, literal(-1)))
          CFI (cfiCond257) CFA_XSP16 add(XSP16, 43)
          CFI Block cfiCond258 Using cfiCommon0
          CFI (cfiCond258) Function shell_parse
          CFI (cfiCond258) Conditional ??CrossCallReturnLabel_153
          CFI (cfiCond258) R6 load(1, XDATA, add(CFA_XSP16, literal(-15)))
          CFI (cfiCond258) VB load(1, XDATA, add(CFA_XSP16, literal(-14)))
          CFI (cfiCond258) V0 load(1, XDATA, add(CFA_XSP16, literal(-13)))
          CFI (cfiCond258) V1 load(1, XDATA, add(CFA_XSP16, literal(-12)))
          CFI (cfiCond258) V2 load(1, XDATA, add(CFA_XSP16, literal(-11)))
          CFI (cfiCond258) V3 load(1, XDATA, add(CFA_XSP16, literal(-10)))
          CFI (cfiCond258) V4 load(1, XDATA, add(CFA_XSP16, literal(-9)))
          CFI (cfiCond258) V5 load(1, XDATA, add(CFA_XSP16, literal(-8)))
          CFI (cfiCond258) V6 load(1, XDATA, add(CFA_XSP16, literal(-7)))
          CFI (cfiCond258) V7 load(1, XDATA, add(CFA_XSP16, literal(-6)))
          CFI (cfiCond258) R7 load(1, XDATA, add(CFA_XSP16, literal(-5)))
          CFI (cfiCond258) ?RET_LOW load(1, XDATA, add(CFA_XSP16, literal(-4)))
          CFI (cfiCond258) ?RET_HIGH load(1, XDATA, add(CFA_XSP16, literal(-3)))
          CFI (cfiCond258) DPL0 load(1, XDATA, add(CFA_XSP16, literal(-2)))
          CFI (cfiCond258) DPH0 load(1, XDATA, add(CFA_XSP16, literal(-1)))
          CFI (cfiCond258) CFA_XSP16 add(XSP16, 43)
          CFI Block cfiCond259 Using cfiCommon0
          CFI (cfiCond259) Function shell_tab
          CFI (cfiCond259) Conditional ??CrossCallReturnLabel_154
          CFI (cfiCond259) R6 load(1, XDATA, add(CFA_XSP16, literal(-15)))
          CFI (cfiCond259) VB load(1, XDATA, add(CFA_XSP16, literal(-14)))
          CFI (cfiCond259) V0 load(1, XDATA, add(CFA_XSP16, literal(-13)))
          CFI (cfiCond259) V1 load(1, XDATA, add(CFA_XSP16, literal(-12)))
          CFI (cfiCond259) V2 load(1, XDATA, add(CFA_XSP16, literal(-11)))
          CFI (cfiCond259) V3 load(1, XDATA, add(CFA_XSP16, literal(-10)))
          CFI (cfiCond259) V4 load(1, XDATA, add(CFA_XSP16, literal(-9)))
          CFI (cfiCond259) V5 load(1, XDATA, add(CFA_XSP16, literal(-8)))
          CFI (cfiCond259) V6 load(1, XDATA, add(CFA_XSP16, literal(-7)))
          CFI (cfiCond259) V7 load(1, XDATA, add(CFA_XSP16, literal(-6)))
          CFI (cfiCond259) R7 load(1, XDATA, add(CFA_XSP16, literal(-5)))
          CFI (cfiCond259) ?RET_LOW load(1, XDATA, add(CFA_XSP16, literal(-4)))
          CFI (cfiCond259) ?RET_HIGH load(1, XDATA, add(CFA_XSP16, literal(-3)))
          CFI (cfiCond259) DPL0 load(1, XDATA, add(CFA_XSP16, literal(-2)))
          CFI (cfiCond259) DPH0 load(1, XDATA, add(CFA_XSP16, literal(-1)))
          CFI (cfiCond259) CFA_XSP16 add(XSP16, 45)
          CFI Block cfiCond260 Using cfiCommon0
          CFI (cfiCond260) Function shell_backspace
          CFI (cfiCond260) Conditional ??CrossCallReturnLabel_155
          CFI (cfiCond260) R6 load(1, XDATA, add(CFA_XSP16, literal(-15)))
          CFI (cfiCond260) VB load(1, XDATA, add(CFA_XSP16, literal(-14)))
          CFI (cfiCond260) V0 load(1, XDATA, add(CFA_XSP16, literal(-13)))
          CFI (cfiCond260) V1 load(1, XDATA, add(CFA_XSP16, literal(-12)))
          CFI (cfiCond260) V2 load(1, XDATA, add(CFA_XSP16, literal(-11)))
          CFI (cfiCond260) V3 load(1, XDATA, add(CFA_XSP16, literal(-10)))
          CFI (cfiCond260) V4 load(1, XDATA, add(CFA_XSP16, literal(-9)))
          CFI (cfiCond260) V5 load(1, XDATA, add(CFA_XSP16, literal(-8)))
          CFI (cfiCond260) V6 load(1, XDATA, add(CFA_XSP16, literal(-7)))
          CFI (cfiCond260) V7 load(1, XDATA, add(CFA_XSP16, literal(-6)))
          CFI (cfiCond260) R7 load(1, XDATA, add(CFA_XSP16, literal(-5)))
          CFI (cfiCond260) ?RET_LOW load(1, XDATA, add(CFA_XSP16, literal(-4)))
          CFI (cfiCond260) ?RET_HIGH load(1, XDATA, add(CFA_XSP16, literal(-3)))
          CFI (cfiCond260) DPL0 load(1, XDATA, add(CFA_XSP16, literal(-2)))
          CFI (cfiCond260) DPH0 load(1, XDATA, add(CFA_XSP16, literal(-1)))
          CFI (cfiCond260) CFA_XSP16 add(XSP16, 117)
          CFI Block cfiPicker261 Using cfiCommon1
          CFI (cfiPicker261) NoFunction
          CFI (cfiPicker261) Picker
        MOVX    A,@DPTR
        MOV     R0,A
          CFI EndBlock cfiCond255
          CFI EndBlock cfiCond256
          CFI EndBlock cfiCond257
          CFI EndBlock cfiCond258
          CFI EndBlock cfiCond259
          CFI EndBlock cfiCond260
          CFI EndBlock cfiPicker261
        REQUIRE ??Subroutine64_0
        ; // Fall through to label ??Subroutine64_0

        RSEG NEAR_CODE:CODE:NOROOT(0)
??Subroutine64_0:
          CFI Block cfiCond262 Using cfiCommon0
          CFI Function shell_parse
          CFI Conditional ??CrossCallReturnLabel_149
          CFI R6 load(1, XDATA, add(CFA_XSP16, literal(-15)))
          CFI VB load(1, XDATA, add(CFA_XSP16, literal(-14)))
          CFI V0 load(1, XDATA, add(CFA_XSP16, literal(-13)))
          CFI V1 load(1, XDATA, add(CFA_XSP16, literal(-12)))
          CFI V2 load(1, XDATA, add(CFA_XSP16, literal(-11)))
          CFI V3 load(1, XDATA, add(CFA_XSP16, literal(-10)))
          CFI V4 load(1, XDATA, add(CFA_XSP16, literal(-9)))
          CFI V5 load(1, XDATA, add(CFA_XSP16, literal(-8)))
          CFI V6 load(1, XDATA, add(CFA_XSP16, literal(-7)))
          CFI V7 load(1, XDATA, add(CFA_XSP16, literal(-6)))
          CFI R7 load(1, XDATA, add(CFA_XSP16, literal(-5)))
          CFI ?RET_LOW load(1, XDATA, add(CFA_XSP16, literal(-4)))
          CFI ?RET_HIGH load(1, XDATA, add(CFA_XSP16, literal(-3)))
          CFI DPL0 load(1, XDATA, add(CFA_XSP16, literal(-2)))
          CFI DPH0 load(1, XDATA, add(CFA_XSP16, literal(-1)))
          CFI CFA_XSP16 add(XSP16, 43)
          CFI Block cfiCond263 Using cfiCommon0
          CFI (cfiCond263) Function shell_tab
          CFI (cfiCond263) Conditional ??CrossCallReturnLabel_150
          CFI (cfiCond263) R6 load(1, XDATA, add(CFA_XSP16, literal(-15)))
          CFI (cfiCond263) VB load(1, XDATA, add(CFA_XSP16, literal(-14)))
          CFI (cfiCond263) V0 load(1, XDATA, add(CFA_XSP16, literal(-13)))
          CFI (cfiCond263) V1 load(1, XDATA, add(CFA_XSP16, literal(-12)))
          CFI (cfiCond263) V2 load(1, XDATA, add(CFA_XSP16, literal(-11)))
          CFI (cfiCond263) V3 load(1, XDATA, add(CFA_XSP16, literal(-10)))
          CFI (cfiCond263) V4 load(1, XDATA, add(CFA_XSP16, literal(-9)))
          CFI (cfiCond263) V5 load(1, XDATA, add(CFA_XSP16, literal(-8)))
          CFI (cfiCond263) V6 load(1, XDATA, add(CFA_XSP16, literal(-7)))
          CFI (cfiCond263) V7 load(1, XDATA, add(CFA_XSP16, literal(-6)))
          CFI (cfiCond263) R7 load(1, XDATA, add(CFA_XSP16, literal(-5)))
          CFI (cfiCond263) ?RET_LOW load(1, XDATA, add(CFA_XSP16, literal(-4)))
          CFI (cfiCond263) ?RET_HIGH load(1, XDATA, add(CFA_XSP16, literal(-3)))
          CFI (cfiCond263) DPL0 load(1, XDATA, add(CFA_XSP16, literal(-2)))
          CFI (cfiCond263) DPH0 load(1, XDATA, add(CFA_XSP16, literal(-1)))
          CFI (cfiCond263) CFA_XSP16 add(XSP16, 45)
          CFI Block cfiCond264 Using cfiCommon0
          CFI (cfiCond264) Function shell_tab
          CFI (cfiCond264) Conditional ??CrossCallReturnLabel_151
          CFI (cfiCond264) R6 load(1, XDATA, add(CFA_XSP16, literal(-15)))
          CFI (cfiCond264) VB load(1, XDATA, add(CFA_XSP16, literal(-14)))
          CFI (cfiCond264) V0 load(1, XDATA, add(CFA_XSP16, literal(-13)))
          CFI (cfiCond264) V1 load(1, XDATA, add(CFA_XSP16, literal(-12)))
          CFI (cfiCond264) V2 load(1, XDATA, add(CFA_XSP16, literal(-11)))
          CFI (cfiCond264) V3 load(1, XDATA, add(CFA_XSP16, literal(-10)))
          CFI (cfiCond264) V4 load(1, XDATA, add(CFA_XSP16, literal(-9)))
          CFI (cfiCond264) V5 load(1, XDATA, add(CFA_XSP16, literal(-8)))
          CFI (cfiCond264) V6 load(1, XDATA, add(CFA_XSP16, literal(-7)))
          CFI (cfiCond264) V7 load(1, XDATA, add(CFA_XSP16, literal(-6)))
          CFI (cfiCond264) R7 load(1, XDATA, add(CFA_XSP16, literal(-5)))
          CFI (cfiCond264) ?RET_LOW load(1, XDATA, add(CFA_XSP16, literal(-4)))
          CFI (cfiCond264) ?RET_HIGH load(1, XDATA, add(CFA_XSP16, literal(-3)))
          CFI (cfiCond264) DPL0 load(1, XDATA, add(CFA_XSP16, literal(-2)))
          CFI (cfiCond264) DPH0 load(1, XDATA, add(CFA_XSP16, literal(-1)))
          CFI (cfiCond264) CFA_XSP16 add(XSP16, 45)
          CFI Block cfiCond265 Using cfiCommon0
          CFI (cfiCond265) Function shell_parse
          CFI (cfiCond265) Conditional ??CrossCallReturnLabel_152
          CFI (cfiCond265) R6 load(1, XDATA, add(CFA_XSP16, literal(-15)))
          CFI (cfiCond265) VB load(1, XDATA, add(CFA_XSP16, literal(-14)))
          CFI (cfiCond265) V0 load(1, XDATA, add(CFA_XSP16, literal(-13)))
          CFI (cfiCond265) V1 load(1, XDATA, add(CFA_XSP16, literal(-12)))
          CFI (cfiCond265) V2 load(1, XDATA, add(CFA_XSP16, literal(-11)))
          CFI (cfiCond265) V3 load(1, XDATA, add(CFA_XSP16, literal(-10)))
          CFI (cfiCond265) V4 load(1, XDATA, add(CFA_XSP16, literal(-9)))
          CFI (cfiCond265) V5 load(1, XDATA, add(CFA_XSP16, literal(-8)))
          CFI (cfiCond265) V6 load(1, XDATA, add(CFA_XSP16, literal(-7)))
          CFI (cfiCond265) V7 load(1, XDATA, add(CFA_XSP16, literal(-6)))
          CFI (cfiCond265) R7 load(1, XDATA, add(CFA_XSP16, literal(-5)))
          CFI (cfiCond265) ?RET_LOW load(1, XDATA, add(CFA_XSP16, literal(-4)))
          CFI (cfiCond265) ?RET_HIGH load(1, XDATA, add(CFA_XSP16, literal(-3)))
          CFI (cfiCond265) DPL0 load(1, XDATA, add(CFA_XSP16, literal(-2)))
          CFI (cfiCond265) DPH0 load(1, XDATA, add(CFA_XSP16, literal(-1)))
          CFI (cfiCond265) CFA_XSP16 add(XSP16, 43)
          CFI Block cfiCond266 Using cfiCommon0
          CFI (cfiCond266) Function shell_parse
          CFI (cfiCond266) Conditional ??CrossCallReturnLabel_153
          CFI (cfiCond266) R6 load(1, XDATA, add(CFA_XSP16, literal(-15)))
          CFI (cfiCond266) VB load(1, XDATA, add(CFA_XSP16, literal(-14)))
          CFI (cfiCond266) V0 load(1, XDATA, add(CFA_XSP16, literal(-13)))
          CFI (cfiCond266) V1 load(1, XDATA, add(CFA_XSP16, literal(-12)))
          CFI (cfiCond266) V2 load(1, XDATA, add(CFA_XSP16, literal(-11)))
          CFI (cfiCond266) V3 load(1, XDATA, add(CFA_XSP16, literal(-10)))
          CFI (cfiCond266) V4 load(1, XDATA, add(CFA_XSP16, literal(-9)))
          CFI (cfiCond266) V5 load(1, XDATA, add(CFA_XSP16, literal(-8)))
          CFI (cfiCond266) V6 load(1, XDATA, add(CFA_XSP16, literal(-7)))
          CFI (cfiCond266) V7 load(1, XDATA, add(CFA_XSP16, literal(-6)))
          CFI (cfiCond266) R7 load(1, XDATA, add(CFA_XSP16, literal(-5)))
          CFI (cfiCond266) ?RET_LOW load(1, XDATA, add(CFA_XSP16, literal(-4)))
          CFI (cfiCond266) ?RET_HIGH load(1, XDATA, add(CFA_XSP16, literal(-3)))
          CFI (cfiCond266) DPL0 load(1, XDATA, add(CFA_XSP16, literal(-2)))
          CFI (cfiCond266) DPH0 load(1, XDATA, add(CFA_XSP16, literal(-1)))
          CFI (cfiCond266) CFA_XSP16 add(XSP16, 43)
          CFI Block cfiCond267 Using cfiCommon0
          CFI (cfiCond267) Function shell_tab
          CFI (cfiCond267) Conditional ??CrossCallReturnLabel_154
          CFI (cfiCond267) R6 load(1, XDATA, add(CFA_XSP16, literal(-15)))
          CFI (cfiCond267) VB load(1, XDATA, add(CFA_XSP16, literal(-14)))
          CFI (cfiCond267) V0 load(1, XDATA, add(CFA_XSP16, literal(-13)))
          CFI (cfiCond267) V1 load(1, XDATA, add(CFA_XSP16, literal(-12)))
          CFI (cfiCond267) V2 load(1, XDATA, add(CFA_XSP16, literal(-11)))
          CFI (cfiCond267) V3 load(1, XDATA, add(CFA_XSP16, literal(-10)))
          CFI (cfiCond267) V4 load(1, XDATA, add(CFA_XSP16, literal(-9)))
          CFI (cfiCond267) V5 load(1, XDATA, add(CFA_XSP16, literal(-8)))
          CFI (cfiCond267) V6 load(1, XDATA, add(CFA_XSP16, literal(-7)))
          CFI (cfiCond267) V7 load(1, XDATA, add(CFA_XSP16, literal(-6)))
          CFI (cfiCond267) R7 load(1, XDATA, add(CFA_XSP16, literal(-5)))
          CFI (cfiCond267) ?RET_LOW load(1, XDATA, add(CFA_XSP16, literal(-4)))
          CFI (cfiCond267) ?RET_HIGH load(1, XDATA, add(CFA_XSP16, literal(-3)))
          CFI (cfiCond267) DPL0 load(1, XDATA, add(CFA_XSP16, literal(-2)))
          CFI (cfiCond267) DPH0 load(1, XDATA, add(CFA_XSP16, literal(-1)))
          CFI (cfiCond267) CFA_XSP16 add(XSP16, 45)
          CFI Block cfiCond268 Using cfiCommon0
          CFI (cfiCond268) Function shell_backspace
          CFI (cfiCond268) Conditional ??CrossCallReturnLabel_155
          CFI (cfiCond268) R6 load(1, XDATA, add(CFA_XSP16, literal(-15)))
          CFI (cfiCond268) VB load(1, XDATA, add(CFA_XSP16, literal(-14)))
          CFI (cfiCond268) V0 load(1, XDATA, add(CFA_XSP16, literal(-13)))
          CFI (cfiCond268) V1 load(1, XDATA, add(CFA_XSP16, literal(-12)))
          CFI (cfiCond268) V2 load(1, XDATA, add(CFA_XSP16, literal(-11)))
          CFI (cfiCond268) V3 load(1, XDATA, add(CFA_XSP16, literal(-10)))
          CFI (cfiCond268) V4 load(1, XDATA, add(CFA_XSP16, literal(-9)))
          CFI (cfiCond268) V5 load(1, XDATA, add(CFA_XSP16, literal(-8)))
          CFI (cfiCond268) V6 load(1, XDATA, add(CFA_XSP16, literal(-7)))
          CFI (cfiCond268) V7 load(1, XDATA, add(CFA_XSP16, literal(-6)))
          CFI (cfiCond268) R7 load(1, XDATA, add(CFA_XSP16, literal(-5)))
          CFI (cfiCond268) ?RET_LOW load(1, XDATA, add(CFA_XSP16, literal(-4)))
          CFI (cfiCond268) ?RET_HIGH load(1, XDATA, add(CFA_XSP16, literal(-3)))
          CFI (cfiCond268) DPL0 load(1, XDATA, add(CFA_XSP16, literal(-2)))
          CFI (cfiCond268) DPH0 load(1, XDATA, add(CFA_XSP16, literal(-1)))
          CFI (cfiCond268) CFA_XSP16 add(XSP16, 117)
          CFI Block cfiPicker269 Using cfiCommon1
          CFI (cfiPicker269) NoFunction
          CFI (cfiPicker269) Picker
        INC     DPTR
          CFI EndBlock cfiCond262
          CFI EndBlock cfiCond263
          CFI EndBlock cfiCond264
          CFI EndBlock cfiCond265
          CFI EndBlock cfiCond266
          CFI EndBlock cfiCond267
          CFI EndBlock cfiCond268
          CFI EndBlock cfiPicker269
        REQUIRE ??Subroutine65_0
        ; // Fall through to label ??Subroutine65_0

        RSEG NEAR_CODE:CODE:NOROOT(0)
??Subroutine65_0:
          CFI Block cfiCond270 Using cfiCommon0
          CFI Function shell_show_history
          CFI Conditional ??CrossCallReturnLabel_142
          CFI R6 load(1, XDATA, add(CFA_XSP16, literal(-14)))
          CFI VB load(1, XDATA, add(CFA_XSP16, literal(-13)))
          CFI V0 load(1, XDATA, add(CFA_XSP16, literal(-12)))
          CFI V1 load(1, XDATA, add(CFA_XSP16, literal(-11)))
          CFI V2 load(1, XDATA, add(CFA_XSP16, literal(-10)))
          CFI V3 load(1, XDATA, add(CFA_XSP16, literal(-9)))
          CFI V4 load(1, XDATA, add(CFA_XSP16, literal(-8)))
          CFI V5 load(1, XDATA, add(CFA_XSP16, literal(-7)))
          CFI V6 load(1, XDATA, add(CFA_XSP16, literal(-6)))
          CFI R7 load(1, XDATA, add(CFA_XSP16, literal(-5)))
          CFI ?RET_LOW load(1, XDATA, add(CFA_XSP16, literal(-4)))
          CFI ?RET_HIGH load(1, XDATA, add(CFA_XSP16, literal(-3)))
          CFI DPL0 load(1, XDATA, add(CFA_XSP16, literal(-2)))
          CFI DPH0 load(1, XDATA, add(CFA_XSP16, literal(-1)))
          CFI CFA_XSP16 add(XSP16, 14)
          CFI Block cfiCond271 Using cfiCommon0
          CFI (cfiCond271) Function shell_getchar
          CFI (cfiCond271) Conditional ??CrossCallReturnLabel_143
          CFI (cfiCond271) R6 load(1, XDATA, add(CFA_XSP16, literal(-14)))
          CFI (cfiCond271) VB load(1, XDATA, add(CFA_XSP16, literal(-13)))
          CFI (cfiCond271) V0 load(1, XDATA, add(CFA_XSP16, literal(-12)))
          CFI (cfiCond271) V1 load(1, XDATA, add(CFA_XSP16, literal(-11)))
          CFI (cfiCond271) V2 load(1, XDATA, add(CFA_XSP16, literal(-10)))
          CFI (cfiCond271) V3 load(1, XDATA, add(CFA_XSP16, literal(-9)))
          CFI (cfiCond271) V4 load(1, XDATA, add(CFA_XSP16, literal(-8)))
          CFI (cfiCond271) V5 load(1, XDATA, add(CFA_XSP16, literal(-7)))
          CFI (cfiCond271) V6 load(1, XDATA, add(CFA_XSP16, literal(-6)))
          CFI (cfiCond271) R7 load(1, XDATA, add(CFA_XSP16, literal(-5)))
          CFI (cfiCond271) ?RET_LOW load(1, XDATA, add(CFA_XSP16, literal(-4)))
          CFI (cfiCond271) ?RET_HIGH load(1, XDATA, add(CFA_XSP16, literal(-3)))
          CFI (cfiCond271) DPL0 load(1, XDATA, add(CFA_XSP16, literal(-2)))
          CFI (cfiCond271) DPH0 load(1, XDATA, add(CFA_XSP16, literal(-1)))
          CFI (cfiCond271) CFA_XSP16 add(XSP16, 117)
          CFI Block cfiCond272 Using cfiCommon0
          CFI (cfiCond272) Function welcome_gets
          CFI (cfiCond272) Conditional ??CrossCallReturnLabel_144
          CFI (cfiCond272) R6 load(1, XDATA, add(CFA_XSP16, literal(-9)))
          CFI (cfiCond272) VB load(1, XDATA, add(CFA_XSP16, literal(-8)))
          CFI (cfiCond272) V0 load(1, XDATA, add(CFA_XSP16, literal(-7)))
          CFI (cfiCond272) V1 load(1, XDATA, add(CFA_XSP16, literal(-6)))
          CFI (cfiCond272) R7 load(1, XDATA, add(CFA_XSP16, literal(-5)))
          CFI (cfiCond272) ?RET_LOW load(1, XDATA, add(CFA_XSP16, literal(-4)))
          CFI (cfiCond272) ?RET_HIGH load(1, XDATA, add(CFA_XSP16, literal(-3)))
          CFI (cfiCond272) DPL0 load(1, XDATA, add(CFA_XSP16, literal(-2)))
          CFI (cfiCond272) DPH0 load(1, XDATA, add(CFA_XSP16, literal(-1)))
          CFI (cfiCond272) CFA_XSP16 add(XSP16, 9)
          CFI Block cfiCond273 Using cfiCommon0
          CFI (cfiCond273) Function cmdline_gets
          CFI (cfiCond273) Conditional ??CrossCallReturnLabel_145
          CFI (cfiCond273) R6 load(1, XDATA, add(CFA_XSP16, literal(-15)))
          CFI (cfiCond273) VB load(1, XDATA, add(CFA_XSP16, literal(-14)))
          CFI (cfiCond273) V0 load(1, XDATA, add(CFA_XSP16, literal(-13)))
          CFI (cfiCond273) V1 load(1, XDATA, add(CFA_XSP16, literal(-12)))
          CFI (cfiCond273) V2 load(1, XDATA, add(CFA_XSP16, literal(-11)))
          CFI (cfiCond273) V3 load(1, XDATA, add(CFA_XSP16, literal(-10)))
          CFI (cfiCond273) V4 load(1, XDATA, add(CFA_XSP16, literal(-9)))
          CFI (cfiCond273) V5 load(1, XDATA, add(CFA_XSP16, literal(-8)))
          CFI (cfiCond273) V6 load(1, XDATA, add(CFA_XSP16, literal(-7)))
          CFI (cfiCond273) V7 load(1, XDATA, add(CFA_XSP16, literal(-6)))
          CFI (cfiCond273) R7 load(1, XDATA, add(CFA_XSP16, literal(-5)))
          CFI (cfiCond273) ?RET_LOW load(1, XDATA, add(CFA_XSP16, literal(-4)))
          CFI (cfiCond273) ?RET_HIGH load(1, XDATA, add(CFA_XSP16, literal(-3)))
          CFI (cfiCond273) DPL0 load(1, XDATA, add(CFA_XSP16, literal(-2)))
          CFI (cfiCond273) DPH0 load(1, XDATA, add(CFA_XSP16, literal(-1)))
          CFI (cfiCond273) CFA_XSP16 add(XSP16, 19)
          CFI Block cfiCond274 Using cfiCommon0
          CFI (cfiCond274) Function confirm_gets
          CFI (cfiCond274) Conditional ??CrossCallReturnLabel_146
          CFI (cfiCond274) R6 load(1, XDATA, add(CFA_XSP16, literal(-13)))
          CFI (cfiCond274) VB load(1, XDATA, add(CFA_XSP16, literal(-12)))
          CFI (cfiCond274) V0 load(1, XDATA, add(CFA_XSP16, literal(-11)))
          CFI (cfiCond274) V1 load(1, XDATA, add(CFA_XSP16, literal(-10)))
          CFI (cfiCond274) V2 load(1, XDATA, add(CFA_XSP16, literal(-9)))
          CFI (cfiCond274) V3 load(1, XDATA, add(CFA_XSP16, literal(-8)))
          CFI (cfiCond274) V4 load(1, XDATA, add(CFA_XSP16, literal(-7)))
          CFI (cfiCond274) V5 load(1, XDATA, add(CFA_XSP16, literal(-6)))
          CFI (cfiCond274) R7 load(1, XDATA, add(CFA_XSP16, literal(-5)))
          CFI (cfiCond274) ?RET_LOW load(1, XDATA, add(CFA_XSP16, literal(-4)))
          CFI (cfiCond274) ?RET_HIGH load(1, XDATA, add(CFA_XSP16, literal(-3)))
          CFI (cfiCond274) DPL0 load(1, XDATA, add(CFA_XSP16, literal(-2)))
          CFI (cfiCond274) DPH0 load(1, XDATA, add(CFA_XSP16, literal(-1)))
          CFI (cfiCond274) CFA_XSP16 add(XSP16, 15)
          CFI Block cfiCond275 Using cfiCommon0
          CFI (cfiCond275) Function confirm_gets
          CFI (cfiCond275) Conditional ??CrossCallReturnLabel_147
          CFI (cfiCond275) R6 load(1, XDATA, add(CFA_XSP16, literal(-13)))
          CFI (cfiCond275) VB load(1, XDATA, add(CFA_XSP16, literal(-12)))
          CFI (cfiCond275) V0 load(1, XDATA, add(CFA_XSP16, literal(-11)))
          CFI (cfiCond275) V1 load(1, XDATA, add(CFA_XSP16, literal(-10)))
          CFI (cfiCond275) V2 load(1, XDATA, add(CFA_XSP16, literal(-9)))
          CFI (cfiCond275) V3 load(1, XDATA, add(CFA_XSP16, literal(-8)))
          CFI (cfiCond275) V4 load(1, XDATA, add(CFA_XSP16, literal(-7)))
          CFI (cfiCond275) V5 load(1, XDATA, add(CFA_XSP16, literal(-6)))
          CFI (cfiCond275) R7 load(1, XDATA, add(CFA_XSP16, literal(-5)))
          CFI (cfiCond275) ?RET_LOW load(1, XDATA, add(CFA_XSP16, literal(-4)))
          CFI (cfiCond275) ?RET_HIGH load(1, XDATA, add(CFA_XSP16, literal(-3)))
          CFI (cfiCond275) DPL0 load(1, XDATA, add(CFA_XSP16, literal(-2)))
          CFI (cfiCond275) DPH0 load(1, XDATA, add(CFA_XSP16, literal(-1)))
          CFI (cfiCond275) CFA_XSP16 add(XSP16, 15)
          CFI Block cfiCond276 Using cfiCommon0
          CFI (cfiCond276) Function confirm_gets
          CFI (cfiCond276) Conditional ??CrossCallReturnLabel_148
          CFI (cfiCond276) R6 load(1, XDATA, add(CFA_XSP16, literal(-13)))
          CFI (cfiCond276) VB load(1, XDATA, add(CFA_XSP16, literal(-12)))
          CFI (cfiCond276) V0 load(1, XDATA, add(CFA_XSP16, literal(-11)))
          CFI (cfiCond276) V1 load(1, XDATA, add(CFA_XSP16, literal(-10)))
          CFI (cfiCond276) V2 load(1, XDATA, add(CFA_XSP16, literal(-9)))
          CFI (cfiCond276) V3 load(1, XDATA, add(CFA_XSP16, literal(-8)))
          CFI (cfiCond276) V4 load(1, XDATA, add(CFA_XSP16, literal(-7)))
          CFI (cfiCond276) V5 load(1, XDATA, add(CFA_XSP16, literal(-6)))
          CFI (cfiCond276) R7 load(1, XDATA, add(CFA_XSP16, literal(-5)))
          CFI (cfiCond276) ?RET_LOW load(1, XDATA, add(CFA_XSP16, literal(-4)))
          CFI (cfiCond276) ?RET_HIGH load(1, XDATA, add(CFA_XSP16, literal(-3)))
          CFI (cfiCond276) DPL0 load(1, XDATA, add(CFA_XSP16, literal(-2)))
          CFI (cfiCond276) DPH0 load(1, XDATA, add(CFA_XSP16, literal(-1)))
          CFI (cfiCond276) CFA_XSP16 add(XSP16, 15)
          CFI Block cfiCond277 Using cfiCommon0
          CFI (cfiCond277) Function shell_parse
          CFI (cfiCond277) Conditional ??CrossCallReturnLabel_149
          CFI (cfiCond277) R6 load(1, XDATA, add(CFA_XSP16, literal(-15)))
          CFI (cfiCond277) VB load(1, XDATA, add(CFA_XSP16, literal(-14)))
          CFI (cfiCond277) V0 load(1, XDATA, add(CFA_XSP16, literal(-13)))
          CFI (cfiCond277) V1 load(1, XDATA, add(CFA_XSP16, literal(-12)))
          CFI (cfiCond277) V2 load(1, XDATA, add(CFA_XSP16, literal(-11)))
          CFI (cfiCond277) V3 load(1, XDATA, add(CFA_XSP16, literal(-10)))
          CFI (cfiCond277) V4 load(1, XDATA, add(CFA_XSP16, literal(-9)))
          CFI (cfiCond277) V5 load(1, XDATA, add(CFA_XSP16, literal(-8)))
          CFI (cfiCond277) V6 load(1, XDATA, add(CFA_XSP16, literal(-7)))
          CFI (cfiCond277) V7 load(1, XDATA, add(CFA_XSP16, literal(-6)))
          CFI (cfiCond277) R7 load(1, XDATA, add(CFA_XSP16, literal(-5)))
          CFI (cfiCond277) ?RET_LOW load(1, XDATA, add(CFA_XSP16, literal(-4)))
          CFI (cfiCond277) ?RET_HIGH load(1, XDATA, add(CFA_XSP16, literal(-3)))
          CFI (cfiCond277) DPL0 load(1, XDATA, add(CFA_XSP16, literal(-2)))
          CFI (cfiCond277) DPH0 load(1, XDATA, add(CFA_XSP16, literal(-1)))
          CFI (cfiCond277) CFA_XSP16 add(XSP16, 43)
          CFI Block cfiCond278 Using cfiCommon0
          CFI (cfiCond278) Function shell_tab
          CFI (cfiCond278) Conditional ??CrossCallReturnLabel_150
          CFI (cfiCond278) R6 load(1, XDATA, add(CFA_XSP16, literal(-15)))
          CFI (cfiCond278) VB load(1, XDATA, add(CFA_XSP16, literal(-14)))
          CFI (cfiCond278) V0 load(1, XDATA, add(CFA_XSP16, literal(-13)))
          CFI (cfiCond278) V1 load(1, XDATA, add(CFA_XSP16, literal(-12)))
          CFI (cfiCond278) V2 load(1, XDATA, add(CFA_XSP16, literal(-11)))
          CFI (cfiCond278) V3 load(1, XDATA, add(CFA_XSP16, literal(-10)))
          CFI (cfiCond278) V4 load(1, XDATA, add(CFA_XSP16, literal(-9)))
          CFI (cfiCond278) V5 load(1, XDATA, add(CFA_XSP16, literal(-8)))
          CFI (cfiCond278) V6 load(1, XDATA, add(CFA_XSP16, literal(-7)))
          CFI (cfiCond278) V7 load(1, XDATA, add(CFA_XSP16, literal(-6)))
          CFI (cfiCond278) R7 load(1, XDATA, add(CFA_XSP16, literal(-5)))
          CFI (cfiCond278) ?RET_LOW load(1, XDATA, add(CFA_XSP16, literal(-4)))
          CFI (cfiCond278) ?RET_HIGH load(1, XDATA, add(CFA_XSP16, literal(-3)))
          CFI (cfiCond278) DPL0 load(1, XDATA, add(CFA_XSP16, literal(-2)))
          CFI (cfiCond278) DPH0 load(1, XDATA, add(CFA_XSP16, literal(-1)))
          CFI (cfiCond278) CFA_XSP16 add(XSP16, 45)
          CFI Block cfiCond279 Using cfiCommon0
          CFI (cfiCond279) Function shell_tab
          CFI (cfiCond279) Conditional ??CrossCallReturnLabel_151
          CFI (cfiCond279) R6 load(1, XDATA, add(CFA_XSP16, literal(-15)))
          CFI (cfiCond279) VB load(1, XDATA, add(CFA_XSP16, literal(-14)))
          CFI (cfiCond279) V0 load(1, XDATA, add(CFA_XSP16, literal(-13)))
          CFI (cfiCond279) V1 load(1, XDATA, add(CFA_XSP16, literal(-12)))
          CFI (cfiCond279) V2 load(1, XDATA, add(CFA_XSP16, literal(-11)))
          CFI (cfiCond279) V3 load(1, XDATA, add(CFA_XSP16, literal(-10)))
          CFI (cfiCond279) V4 load(1, XDATA, add(CFA_XSP16, literal(-9)))
          CFI (cfiCond279) V5 load(1, XDATA, add(CFA_XSP16, literal(-8)))
          CFI (cfiCond279) V6 load(1, XDATA, add(CFA_XSP16, literal(-7)))
          CFI (cfiCond279) V7 load(1, XDATA, add(CFA_XSP16, literal(-6)))
          CFI (cfiCond279) R7 load(1, XDATA, add(CFA_XSP16, literal(-5)))
          CFI (cfiCond279) ?RET_LOW load(1, XDATA, add(CFA_XSP16, literal(-4)))
          CFI (cfiCond279) ?RET_HIGH load(1, XDATA, add(CFA_XSP16, literal(-3)))
          CFI (cfiCond279) DPL0 load(1, XDATA, add(CFA_XSP16, literal(-2)))
          CFI (cfiCond279) DPH0 load(1, XDATA, add(CFA_XSP16, literal(-1)))
          CFI (cfiCond279) CFA_XSP16 add(XSP16, 45)
          CFI Block cfiCond280 Using cfiCommon0
          CFI (cfiCond280) Function shell_parse
          CFI (cfiCond280) Conditional ??CrossCallReturnLabel_152
          CFI (cfiCond280) R6 load(1, XDATA, add(CFA_XSP16, literal(-15)))
          CFI (cfiCond280) VB load(1, XDATA, add(CFA_XSP16, literal(-14)))
          CFI (cfiCond280) V0 load(1, XDATA, add(CFA_XSP16, literal(-13)))
          CFI (cfiCond280) V1 load(1, XDATA, add(CFA_XSP16, literal(-12)))
          CFI (cfiCond280) V2 load(1, XDATA, add(CFA_XSP16, literal(-11)))
          CFI (cfiCond280) V3 load(1, XDATA, add(CFA_XSP16, literal(-10)))
          CFI (cfiCond280) V4 load(1, XDATA, add(CFA_XSP16, literal(-9)))
          CFI (cfiCond280) V5 load(1, XDATA, add(CFA_XSP16, literal(-8)))
          CFI (cfiCond280) V6 load(1, XDATA, add(CFA_XSP16, literal(-7)))
          CFI (cfiCond280) V7 load(1, XDATA, add(CFA_XSP16, literal(-6)))
          CFI (cfiCond280) R7 load(1, XDATA, add(CFA_XSP16, literal(-5)))
          CFI (cfiCond280) ?RET_LOW load(1, XDATA, add(CFA_XSP16, literal(-4)))
          CFI (cfiCond280) ?RET_HIGH load(1, XDATA, add(CFA_XSP16, literal(-3)))
          CFI (cfiCond280) DPL0 load(1, XDATA, add(CFA_XSP16, literal(-2)))
          CFI (cfiCond280) DPH0 load(1, XDATA, add(CFA_XSP16, literal(-1)))
          CFI (cfiCond280) CFA_XSP16 add(XSP16, 43)
          CFI Block cfiCond281 Using cfiCommon0
          CFI (cfiCond281) Function shell_parse
          CFI (cfiCond281) Conditional ??CrossCallReturnLabel_153
          CFI (cfiCond281) R6 load(1, XDATA, add(CFA_XSP16, literal(-15)))
          CFI (cfiCond281) VB load(1, XDATA, add(CFA_XSP16, literal(-14)))
          CFI (cfiCond281) V0 load(1, XDATA, add(CFA_XSP16, literal(-13)))
          CFI (cfiCond281) V1 load(1, XDATA, add(CFA_XSP16, literal(-12)))
          CFI (cfiCond281) V2 load(1, XDATA, add(CFA_XSP16, literal(-11)))
          CFI (cfiCond281) V3 load(1, XDATA, add(CFA_XSP16, literal(-10)))
          CFI (cfiCond281) V4 load(1, XDATA, add(CFA_XSP16, literal(-9)))
          CFI (cfiCond281) V5 load(1, XDATA, add(CFA_XSP16, literal(-8)))
          CFI (cfiCond281) V6 load(1, XDATA, add(CFA_XSP16, literal(-7)))
          CFI (cfiCond281) V7 load(1, XDATA, add(CFA_XSP16, literal(-6)))
          CFI (cfiCond281) R7 load(1, XDATA, add(CFA_XSP16, literal(-5)))
          CFI (cfiCond281) ?RET_LOW load(1, XDATA, add(CFA_XSP16, literal(-4)))
          CFI (cfiCond281) ?RET_HIGH load(1, XDATA, add(CFA_XSP16, literal(-3)))
          CFI (cfiCond281) DPL0 load(1, XDATA, add(CFA_XSP16, literal(-2)))
          CFI (cfiCond281) DPH0 load(1, XDATA, add(CFA_XSP16, literal(-1)))
          CFI (cfiCond281) CFA_XSP16 add(XSP16, 43)
          CFI Block cfiCond282 Using cfiCommon0
          CFI (cfiCond282) Function shell_tab
          CFI (cfiCond282) Conditional ??CrossCallReturnLabel_154
          CFI (cfiCond282) R6 load(1, XDATA, add(CFA_XSP16, literal(-15)))
          CFI (cfiCond282) VB load(1, XDATA, add(CFA_XSP16, literal(-14)))
          CFI (cfiCond282) V0 load(1, XDATA, add(CFA_XSP16, literal(-13)))
          CFI (cfiCond282) V1 load(1, XDATA, add(CFA_XSP16, literal(-12)))
          CFI (cfiCond282) V2 load(1, XDATA, add(CFA_XSP16, literal(-11)))
          CFI (cfiCond282) V3 load(1, XDATA, add(CFA_XSP16, literal(-10)))
          CFI (cfiCond282) V4 load(1, XDATA, add(CFA_XSP16, literal(-9)))
          CFI (cfiCond282) V5 load(1, XDATA, add(CFA_XSP16, literal(-8)))
          CFI (cfiCond282) V6 load(1, XDATA, add(CFA_XSP16, literal(-7)))
          CFI (cfiCond282) V7 load(1, XDATA, add(CFA_XSP16, literal(-6)))
          CFI (cfiCond282) R7 load(1, XDATA, add(CFA_XSP16, literal(-5)))
          CFI (cfiCond282) ?RET_LOW load(1, XDATA, add(CFA_XSP16, literal(-4)))
          CFI (cfiCond282) ?RET_HIGH load(1, XDATA, add(CFA_XSP16, literal(-3)))
          CFI (cfiCond282) DPL0 load(1, XDATA, add(CFA_XSP16, literal(-2)))
          CFI (cfiCond282) DPH0 load(1, XDATA, add(CFA_XSP16, literal(-1)))
          CFI (cfiCond282) CFA_XSP16 add(XSP16, 45)
          CFI Block cfiCond283 Using cfiCommon0
          CFI (cfiCond283) Function shell_backspace
          CFI (cfiCond283) Conditional ??CrossCallReturnLabel_155
          CFI (cfiCond283) R6 load(1, XDATA, add(CFA_XSP16, literal(-15)))
          CFI (cfiCond283) VB load(1, XDATA, add(CFA_XSP16, literal(-14)))
          CFI (cfiCond283) V0 load(1, XDATA, add(CFA_XSP16, literal(-13)))
          CFI (cfiCond283) V1 load(1, XDATA, add(CFA_XSP16, literal(-12)))
          CFI (cfiCond283) V2 load(1, XDATA, add(CFA_XSP16, literal(-11)))
          CFI (cfiCond283) V3 load(1, XDATA, add(CFA_XSP16, literal(-10)))
          CFI (cfiCond283) V4 load(1, XDATA, add(CFA_XSP16, literal(-9)))
          CFI (cfiCond283) V5 load(1, XDATA, add(CFA_XSP16, literal(-8)))
          CFI (cfiCond283) V6 load(1, XDATA, add(CFA_XSP16, literal(-7)))
          CFI (cfiCond283) V7 load(1, XDATA, add(CFA_XSP16, literal(-6)))
          CFI (cfiCond283) R7 load(1, XDATA, add(CFA_XSP16, literal(-5)))
          CFI (cfiCond283) ?RET_LOW load(1, XDATA, add(CFA_XSP16, literal(-4)))
          CFI (cfiCond283) ?RET_HIGH load(1, XDATA, add(CFA_XSP16, literal(-3)))
          CFI (cfiCond283) DPL0 load(1, XDATA, add(CFA_XSP16, literal(-2)))
          CFI (cfiCond283) DPH0 load(1, XDATA, add(CFA_XSP16, literal(-1)))
          CFI (cfiCond283) CFA_XSP16 add(XSP16, 117)
          CFI Block cfiPicker284 Using cfiCommon1
          CFI (cfiPicker284) NoFunction
          CFI (cfiPicker284) Picker
        MOVX    A,@DPTR
        MOV     DPH,A
        MOV     DPL,R0
        RET
          CFI EndBlock cfiCond270
          CFI EndBlock cfiCond271
          CFI EndBlock cfiCond272
          CFI EndBlock cfiCond273
          CFI EndBlock cfiCond274
          CFI EndBlock cfiCond275
          CFI EndBlock cfiCond276
          CFI EndBlock cfiCond277
          CFI EndBlock cfiCond278
          CFI EndBlock cfiCond279
          CFI EndBlock cfiCond280
          CFI EndBlock cfiCond281
          CFI EndBlock cfiCond282
          CFI EndBlock cfiCond283
          CFI EndBlock cfiPicker284
//  816 
//  817 /**
//  818   * @brief    命令行信息确认，如果输入 y/Y 则执行命令
//  819   * @param    shell  : 输入交互
//  820   * @param    info   : 选项信息
//  821   * @param    yestodo: 输入 y/Y 后所需执行的命令
//  822   * @return   don't care
//  823 */

        RSEG NEAR_CODE:CODE:NOROOT(0)
//  824 void shell_confirm(struct shell_input * shellin ,char * info ,cmd_fn_t yestodo)
shell_confirm:
          CFI Block cfiBlock285 Using cfiCommon0
          CFI Function shell_confirm
        CODE
//  825 {
        FUNCALL shell_confirm, printf
        LOCFRAME ISTACK, 0, STACK
        LOCFRAME PSTACK, 0, STACK
        LOCFRAME XSTACK, 11, STACK
        LOCFRAME IOVERLAY, 0, STATIC
        LOCFRAME DOVERLAY, 0, STATIC
        ARGFRAME ISTACK, 0, STACK
        ARGFRAME PSTACK, 0, STACK
        ARGFRAME XSTACK, 11, STACK
        ARGFRAME IOVERLAY, 0, STATIC
        ARGFRAME DOVERLAY, 0, STATIC
        FUNCALL shell_confirm, memcpy
        LOCFRAME ISTACK, 0, STACK
        LOCFRAME PSTACK, 0, STACK
        LOCFRAME XSTACK, 11, STACK
        LOCFRAME IOVERLAY, 0, STATIC
        LOCFRAME DOVERLAY, 0, STATIC
        ARGFRAME ISTACK, 0, STACK
        ARGFRAME PSTACK, 0, STACK
        ARGFRAME XSTACK, 11, STACK
        ARGFRAME IOVERLAY, 0, STATIC
        ARGFRAME DOVERLAY, 0, STATIC
        REQUIRE ?V0
        REQUIRE ?V1
        MOV     A,#-0x9
        LCALL   ?FUNC_ENTER_XDATA
          CFI DPH0 load(1, XDATA, add(CFA_XSP16, literal(-1)))
          CFI DPL0 load(1, XDATA, add(CFA_XSP16, literal(-2)))
          CFI ?RET_HIGH load(1, XDATA, add(CFA_XSP16, literal(-3)))
          CFI ?RET_LOW load(1, XDATA, add(CFA_XSP16, literal(-4)))
          CFI R7 load(1, XDATA, add(CFA_XSP16, literal(-5)))
          CFI V1 load(1, XDATA, add(CFA_XSP16, literal(-6)))
          CFI V0 load(1, XDATA, add(CFA_XSP16, literal(-7)))
          CFI VB load(1, XDATA, add(CFA_XSP16, literal(-8)))
          CFI R6 load(1, XDATA, add(CFA_XSP16, literal(-9)))
          CFI CFA_SP SP+0
          CFI CFA_XSP16 add(XSP16, 9)
        ; Saved register size: 9
        ; Auto size: 0
        MOV     A,R2
        MOV     R6,A
        MOV     A,R3
        MOV     R7,A
//  826 	printf("%s [Y/N] ",info);
        ; Setup parameters for call to function printf
        MOV     ?V0,R4
        MOV     ?V1,R5
        MOV     R0,#?V0
        LCALL   ?PUSH_XSTACK_I_TWO
          CFI CFA_XSP16 add(XSP16, 11)
        MOV     R2,#`?<Constant "%s [Y/N] ">` & 0xff
        MOV     R3,#(`?<Constant "%s [Y/N] ">` >> 8) & 0xff
        LCALL   printf
        MOV     A,#0x2
        LCALL   ?DEALLOC_XSTACK8
          CFI CFA_XSP16 add(XSP16, 9)
//  827 	shellin->gets = confirm_gets;// 数据流获取至 confirm_gets
        MOV     DPL,R6
        MOV     DPH,R7
        MOV     A,#confirm_gets & 0xff
        MOVX    @DPTR,A
        INC     DPTR
        MOV     A,#(confirm_gets >> 8) & 0xff
        MOVX    @DPTR,A
//  828 //	shellin->apparg = (void*)yestodo;
//  829   memcpy(&shellin->apparg, &yestodo, sizeof(cmd_fn_t));
        ; Setup parameters for call to function memcpy
        MOV     ?V0,#0x2
        MOV     ?V1,#0x0
        MOV     R0,#?V0
        LCALL   ?PUSH_XSTACK_I_TWO
          CFI CFA_XSP16 add(XSP16, 11)
        MOV     A,#0xb
        LCALL   ?XSTACK_DISP102_8
        MOV     A,R6
        ADD     A,#0x4
        MOV     R2,A
        CLR     A
        ADDC    A,R7
        MOV     R3,A
        LCALL   memcpy
        MOV     A,#0x2
        LCALL   ?DEALLOC_XSTACK8
          CFI CFA_XSP16 add(XSP16, 9)
//  830 	shellin->cmdline[COMMANDLINE_MAX_LEN-1] = 0;
        MOV     A,R6
        ADD     A,#0x69
        MOV     DPL,A
        CLR     A
        ADDC    A,R7
        MOV     DPH,A
        CLR     A
        MOVX    @DPTR,A
//  831 }
        LJMP    ??Subroutine60_0
          CFI EndBlock cfiBlock285
//  832 
//  833 /**
//  834   * @author   古么宁
//  835   * @brief    初始化一个 shell 交互，默认输入为 cmdline_gets
//  836   * @param    shellin   : 需要初始化的 shell 交互 
//  837   * @param    shellputs : shell 对应输出，如从串口输出。
//  838   * @param    ...       : 对 gets 和 sign 重定义，如追加 MODIFY_SIGN,"shell>>"
//  839   * @return   don't care
//  840 */

        RSEG NEAR_CODE:CODE:NOROOT(0)
//  841 void shell_input_init(struct shell_input * shellin , fmt_puts_t shellputs,...)
shell_input_init:
          CFI Block cfiBlock286 Using cfiCommon0
          CFI Function shell_input_init
        CODE
//  842 {
        FUNCALL shell_input_init, strcpy
        LOCFRAME ISTACK, 0, STACK
        LOCFRAME PSTACK, 0, STACK
        LOCFRAME XSTACK, 19, STACK
        LOCFRAME IOVERLAY, 0, STATIC
        LOCFRAME DOVERLAY, 0, STATIC
        ARGFRAME ISTACK, 0, STACK
        ARGFRAME PSTACK, 0, STACK
        ARGFRAME XSTACK, 19, STACK
        ARGFRAME IOVERLAY, 0, STATIC
        ARGFRAME DOVERLAY, 0, STATIC
        REQUIRE ?V0
        REQUIRE ?V1
        REQUIRE ?V2
        REQUIRE ?V3
        REQUIRE ?V4
        REQUIRE ?V5
        REQUIRE ?V6
        REQUIRE ?V7
        MOV     A,#-0xf
        LCALL   ?FUNC_ENTER_XDATA
          CFI DPH0 load(1, XDATA, add(CFA_XSP16, literal(-1)))
          CFI DPL0 load(1, XDATA, add(CFA_XSP16, literal(-2)))
          CFI ?RET_HIGH load(1, XDATA, add(CFA_XSP16, literal(-3)))
          CFI ?RET_LOW load(1, XDATA, add(CFA_XSP16, literal(-4)))
          CFI R7 load(1, XDATA, add(CFA_XSP16, literal(-5)))
          CFI V7 load(1, XDATA, add(CFA_XSP16, literal(-6)))
          CFI V6 load(1, XDATA, add(CFA_XSP16, literal(-7)))
          CFI V5 load(1, XDATA, add(CFA_XSP16, literal(-8)))
          CFI V4 load(1, XDATA, add(CFA_XSP16, literal(-9)))
          CFI V3 load(1, XDATA, add(CFA_XSP16, literal(-10)))
          CFI V2 load(1, XDATA, add(CFA_XSP16, literal(-11)))
          CFI V1 load(1, XDATA, add(CFA_XSP16, literal(-12)))
          CFI V0 load(1, XDATA, add(CFA_XSP16, literal(-13)))
          CFI VB load(1, XDATA, add(CFA_XSP16, literal(-14)))
          CFI R6 load(1, XDATA, add(CFA_XSP16, literal(-15)))
          CFI CFA_SP SP+0
          CFI CFA_XSP16 add(XSP16, 15)
        ; Saved register size: 15
        ; Auto size: 4
        MOV     A,#-0x4
        LCALL   ?ALLOC_XSTACK8
          CFI CFA_XSP16 add(XSP16, 19)
        MOV     A,#0x2
        LCALL   ?XSTACK_DISP0_8
        MOV     A,R4
        MOVX    @DPTR,A
        INC     DPTR
        MOV     A,R5
        MOVX    @DPTR,A
//  843 	uint32_t arg  ;
//  844 	char * shellsign = DEFAULT_INPUTSIGN;
        MOV     R6,#DEFAULT_INPUTSIGN & 0xff
        MOV     R7,#(DEFAULT_INPUTSIGN >> 8) & 0xff
//  845 	shellgets_t shellgets = welcome_gets;
        MOV     R4,#welcome_gets & 0xff
        MOV     R5,#(welcome_gets >> 8) & 0xff
//  846 	
//  847 	va_list ap;
//  848 	va_start(ap, shellputs); //检测有无新定义 
        MOV     A,#0x13
        LCALL   ?XSTACK_DISP100_8
        MOV     DPL,?XSP + 0
        MOV     DPH,?XSP + 1
        MOV     A,R0
        LCALL   ?Subroutine5
//  849 
//  850 	arg = va_arg(ap, unsigned int) ;
??CrossCallReturnLabel_6:
        MOV     ?V4,A
        INC     DPTR
        MOVX    A,@DPTR
        MOV     ?V5,A
        CLR     A
        MOV     ?V6,A
        MOV     ?V7,A
        SJMP    ??shell_input_init_0
//  851 	for (; MODIFY_MASK == (arg & (~0x0f)) ; arg = va_arg(ap, unsigned int) ) {
//  852 		if (MODIFY_SIGN == arg) //如果重定义当前交互的输入标志
//  853 			shellsign = va_arg(ap, char*);
//  854 		else
//  855 		if (MODIFY_GETS == arg) //如果重定义当前交互的输入流向
??shell_input_init_1:
        MOV     DPTR,#__Constant_abcd4322
        MOV     R0,#?V4
        LCALL   ?L_EQ_X
        JNZ     ??CrossCallReturnLabel_131
//  856     {
//  857 //      shellgets = (shellgets_t)va_arg(ap, void*);
//  858       void* shellgets_ptr = va_arg(ap, void*);
        MOV     DPL,?XSP + 0
        MOV     DPH,?XSP + 1
        LCALL   ?Subroutine19
??CrossCallReturnLabel_31:
        INC     DPTR
        MOVX    A,@DPTR
        MOV     R5,A
??shell_input_init_2:
        LCALL   ?Subroutine7
//  859       memcpy(&shellgets, &shellgets_ptr, sizeof(shellgets_t));
//  860     }	
??CrossCallReturnLabel_131:
        LCALL   ?Subroutine21
??CrossCallReturnLabel_162:
        MOV     ?V4,A
        INC     DPTR
        MOVX    A,@DPTR
        MOV     ?V5,A
??shell_input_init_0:
        LCALL   ?Subroutine7
??CrossCallReturnLabel_132:
        MOV     ?V0,?V4
        MOV     ?V1,?V5
        MOV     ?V2,?V6
        MOV     ?V3,?V7
        MOV     DPTR,#__Constant_fffffff0
        MOV     R0,#?V0
        LCALL   ?L_AND_X
        MOV     DPH,#(__Constant_abcd4320 >> 8) & 0xff
        MOV     DPL,#__Constant_abcd4320 & 0xff
        MOV     R0,#?V0
        LCALL   ?L_EQ_X
        JNZ     ??shell_input_init_3
        MOV     DPTR,#__Constant_abcd4321
        MOV     R0,#?V4
        LCALL   ?L_EQ_X
        JNZ     ??shell_input_init_1
        LCALL   ?Subroutine21
//  861 	}
??CrossCallReturnLabel_163:
        MOV     R6,A
        INC     DPTR
        MOVX    A,@DPTR
        MOV     R7,A
        SJMP    ??shell_input_init_2
//  862 
//  863 	va_end(ap);
//  864 
//  865 	shellin->tail = 0;
??shell_input_init_3:
        MOV     A,R2
        ADD     A,#0x6b
        LCALL   ?Subroutine40
//  866 	shellin->edit = 0;
??CrossCallReturnLabel_71:
        MOV     A,R2
        ADD     A,#0x6a
        LCALL   ?Subroutine40
//  867 	shellin->puts = shellputs;
??CrossCallReturnLabel_72:
        MOV     A,#0x2
        LCALL   ?XSTACK_DISP0_8
        LCALL   ?Subroutine27
??CrossCallReturnLabel_46:
        INC     DPTR
        INC     DPTR
        LCALL   ??Subroutine57_0
//  868 	shellin->gets = shellgets;
??CrossCallReturnLabel_129:
        MOV     DPL,R2
        MOV     DPH,R3
        MOV     A,R4
        MOVX    @DPTR,A
        INC     DPTR
        MOV     A,R5
        LCALL   ?Subroutine11
//  869   shellin->gets = cmdline_gets;
??CrossCallReturnLabel_18:
        MOV     A,#cmdline_gets & 0xff
        MOVX    @DPTR,A
        INC     DPTR
        MOV     A,#(cmdline_gets >> 8) & 0xff
        MOVX    @DPTR,A
//  870 	shellin->htywrt  = 0;
        MOV     A,R2
        ADD     A,#0x6c
        LCALL   ?Subroutine40
//  871 	shellin->htyread = 0;
??CrossCallReturnLabel_73:
        MOV     A,R2
        ADD     A,#0x6d
        MOV     DPL,A
        CLR     A
        ADDC    A,R3
        MOV     DPH,A
        CLR     A
        LCALL   ?Subroutine11
//  872 	shellin->apparg  = NULL;
??CrossCallReturnLabel_19:
        INC     DPTR
        INC     DPTR
        INC     DPTR
        INC     DPTR
        MOVX    @DPTR,A
        INC     DPTR
        MOVX    @DPTR,A
//  873 	strcpy(shellin->sign, shellsign);
        ; Setup parameters for call to function strcpy
        MOV     A,R6
        MOV     R4,A
        MOV     A,R7
        MOV     R5,A
        MOV     A,R2
        ADD     A,#0x6
        MOV     R2,A
        JNC     ??shell_input_init_4
        INC     R3
??shell_input_init_4:
        LCALL   strcpy
//  874 }
        LJMP    ?Subroutine0
          CFI EndBlock cfiBlock286

        RSEG NEAR_CODE:CODE:NOROOT(0)
?Subroutine40:
          CFI Block cfiCond287 Using cfiCommon0
          CFI Function shell_getchar
          CFI Conditional ??CrossCallReturnLabel_70
          CFI R6 load(1, XDATA, add(CFA_XSP16, literal(-14)))
          CFI VB load(1, XDATA, add(CFA_XSP16, literal(-13)))
          CFI V0 load(1, XDATA, add(CFA_XSP16, literal(-12)))
          CFI V1 load(1, XDATA, add(CFA_XSP16, literal(-11)))
          CFI V2 load(1, XDATA, add(CFA_XSP16, literal(-10)))
          CFI V3 load(1, XDATA, add(CFA_XSP16, literal(-9)))
          CFI V4 load(1, XDATA, add(CFA_XSP16, literal(-8)))
          CFI V5 load(1, XDATA, add(CFA_XSP16, literal(-7)))
          CFI V6 load(1, XDATA, add(CFA_XSP16, literal(-6)))
          CFI R7 load(1, XDATA, add(CFA_XSP16, literal(-5)))
          CFI ?RET_LOW load(1, XDATA, add(CFA_XSP16, literal(-4)))
          CFI ?RET_HIGH load(1, XDATA, add(CFA_XSP16, literal(-3)))
          CFI DPL0 load(1, XDATA, add(CFA_XSP16, literal(-2)))
          CFI DPH0 load(1, XDATA, add(CFA_XSP16, literal(-1)))
          CFI CFA_XSP16 add(XSP16, 117)
          CFI Block cfiCond288 Using cfiCommon0
          CFI (cfiCond288) Function shell_input_init
          CFI (cfiCond288) Conditional ??CrossCallReturnLabel_71
          CFI (cfiCond288) R6 load(1, XDATA, add(CFA_XSP16, literal(-15)))
          CFI (cfiCond288) VB load(1, XDATA, add(CFA_XSP16, literal(-14)))
          CFI (cfiCond288) V0 load(1, XDATA, add(CFA_XSP16, literal(-13)))
          CFI (cfiCond288) V1 load(1, XDATA, add(CFA_XSP16, literal(-12)))
          CFI (cfiCond288) V2 load(1, XDATA, add(CFA_XSP16, literal(-11)))
          CFI (cfiCond288) V3 load(1, XDATA, add(CFA_XSP16, literal(-10)))
          CFI (cfiCond288) V4 load(1, XDATA, add(CFA_XSP16, literal(-9)))
          CFI (cfiCond288) V5 load(1, XDATA, add(CFA_XSP16, literal(-8)))
          CFI (cfiCond288) V6 load(1, XDATA, add(CFA_XSP16, literal(-7)))
          CFI (cfiCond288) V7 load(1, XDATA, add(CFA_XSP16, literal(-6)))
          CFI (cfiCond288) R7 load(1, XDATA, add(CFA_XSP16, literal(-5)))
          CFI (cfiCond288) ?RET_LOW load(1, XDATA, add(CFA_XSP16, literal(-4)))
          CFI (cfiCond288) ?RET_HIGH load(1, XDATA, add(CFA_XSP16, literal(-3)))
          CFI (cfiCond288) DPL0 load(1, XDATA, add(CFA_XSP16, literal(-2)))
          CFI (cfiCond288) DPH0 load(1, XDATA, add(CFA_XSP16, literal(-1)))
          CFI (cfiCond288) CFA_XSP16 add(XSP16, 19)
          CFI Block cfiCond289 Using cfiCommon0
          CFI (cfiCond289) Function shell_input_init
          CFI (cfiCond289) Conditional ??CrossCallReturnLabel_72
          CFI (cfiCond289) R6 load(1, XDATA, add(CFA_XSP16, literal(-15)))
          CFI (cfiCond289) VB load(1, XDATA, add(CFA_XSP16, literal(-14)))
          CFI (cfiCond289) V0 load(1, XDATA, add(CFA_XSP16, literal(-13)))
          CFI (cfiCond289) V1 load(1, XDATA, add(CFA_XSP16, literal(-12)))
          CFI (cfiCond289) V2 load(1, XDATA, add(CFA_XSP16, literal(-11)))
          CFI (cfiCond289) V3 load(1, XDATA, add(CFA_XSP16, literal(-10)))
          CFI (cfiCond289) V4 load(1, XDATA, add(CFA_XSP16, literal(-9)))
          CFI (cfiCond289) V5 load(1, XDATA, add(CFA_XSP16, literal(-8)))
          CFI (cfiCond289) V6 load(1, XDATA, add(CFA_XSP16, literal(-7)))
          CFI (cfiCond289) V7 load(1, XDATA, add(CFA_XSP16, literal(-6)))
          CFI (cfiCond289) R7 load(1, XDATA, add(CFA_XSP16, literal(-5)))
          CFI (cfiCond289) ?RET_LOW load(1, XDATA, add(CFA_XSP16, literal(-4)))
          CFI (cfiCond289) ?RET_HIGH load(1, XDATA, add(CFA_XSP16, literal(-3)))
          CFI (cfiCond289) DPL0 load(1, XDATA, add(CFA_XSP16, literal(-2)))
          CFI (cfiCond289) DPH0 load(1, XDATA, add(CFA_XSP16, literal(-1)))
          CFI (cfiCond289) CFA_XSP16 add(XSP16, 19)
          CFI Block cfiCond290 Using cfiCommon0
          CFI (cfiCond290) Function shell_input_init
          CFI (cfiCond290) Conditional ??CrossCallReturnLabel_73
          CFI (cfiCond290) R6 load(1, XDATA, add(CFA_XSP16, literal(-15)))
          CFI (cfiCond290) VB load(1, XDATA, add(CFA_XSP16, literal(-14)))
          CFI (cfiCond290) V0 load(1, XDATA, add(CFA_XSP16, literal(-13)))
          CFI (cfiCond290) V1 load(1, XDATA, add(CFA_XSP16, literal(-12)))
          CFI (cfiCond290) V2 load(1, XDATA, add(CFA_XSP16, literal(-11)))
          CFI (cfiCond290) V3 load(1, XDATA, add(CFA_XSP16, literal(-10)))
          CFI (cfiCond290) V4 load(1, XDATA, add(CFA_XSP16, literal(-9)))
          CFI (cfiCond290) V5 load(1, XDATA, add(CFA_XSP16, literal(-8)))
          CFI (cfiCond290) V6 load(1, XDATA, add(CFA_XSP16, literal(-7)))
          CFI (cfiCond290) V7 load(1, XDATA, add(CFA_XSP16, literal(-6)))
          CFI (cfiCond290) R7 load(1, XDATA, add(CFA_XSP16, literal(-5)))
          CFI (cfiCond290) ?RET_LOW load(1, XDATA, add(CFA_XSP16, literal(-4)))
          CFI (cfiCond290) ?RET_HIGH load(1, XDATA, add(CFA_XSP16, literal(-3)))
          CFI (cfiCond290) DPL0 load(1, XDATA, add(CFA_XSP16, literal(-2)))
          CFI (cfiCond290) DPH0 load(1, XDATA, add(CFA_XSP16, literal(-1)))
          CFI (cfiCond290) CFA_XSP16 add(XSP16, 19)
          CFI Block cfiPicker291 Using cfiCommon1
          CFI (cfiPicker291) NoFunction
          CFI (cfiPicker291) Picker
        MOV     DPL,A
        CLR     A
        ADDC    A,R3
        MOV     DPH,A
        CLR     A
        MOVX    @DPTR,A
        RET
          CFI EndBlock cfiCond287
          CFI EndBlock cfiCond288
          CFI EndBlock cfiCond289
          CFI EndBlock cfiCond290
          CFI EndBlock cfiPicker291

        RSEG NEAR_CODE:CODE:NOROOT(0)
?Subroutine27:
          CFI Block cfiCond292 Using cfiCommon0
          CFI Function _shell_register
          CFI Conditional ??CrossCallReturnLabel_45
          CFI R6 load(1, XDATA, add(CFA_XSP16, literal(-15)))
          CFI VB load(1, XDATA, add(CFA_XSP16, literal(-14)))
          CFI V0 load(1, XDATA, add(CFA_XSP16, literal(-13)))
          CFI V1 load(1, XDATA, add(CFA_XSP16, literal(-12)))
          CFI V2 load(1, XDATA, add(CFA_XSP16, literal(-11)))
          CFI V3 load(1, XDATA, add(CFA_XSP16, literal(-10)))
          CFI V4 load(1, XDATA, add(CFA_XSP16, literal(-9)))
          CFI V5 load(1, XDATA, add(CFA_XSP16, literal(-8)))
          CFI V6 load(1, XDATA, add(CFA_XSP16, literal(-7)))
          CFI V7 load(1, XDATA, add(CFA_XSP16, literal(-6)))
          CFI R7 load(1, XDATA, add(CFA_XSP16, literal(-5)))
          CFI ?RET_LOW load(1, XDATA, add(CFA_XSP16, literal(-4)))
          CFI ?RET_HIGH load(1, XDATA, add(CFA_XSP16, literal(-3)))
          CFI DPL0 load(1, XDATA, add(CFA_XSP16, literal(-2)))
          CFI DPH0 load(1, XDATA, add(CFA_XSP16, literal(-1)))
          CFI CFA_XSP16 add(XSP16, 37)
          CFI Block cfiCond293 Using cfiCommon0
          CFI (cfiCond293) Function shell_input_init
          CFI (cfiCond293) Conditional ??CrossCallReturnLabel_46
          CFI (cfiCond293) R6 load(1, XDATA, add(CFA_XSP16, literal(-15)))
          CFI (cfiCond293) VB load(1, XDATA, add(CFA_XSP16, literal(-14)))
          CFI (cfiCond293) V0 load(1, XDATA, add(CFA_XSP16, literal(-13)))
          CFI (cfiCond293) V1 load(1, XDATA, add(CFA_XSP16, literal(-12)))
          CFI (cfiCond293) V2 load(1, XDATA, add(CFA_XSP16, literal(-11)))
          CFI (cfiCond293) V3 load(1, XDATA, add(CFA_XSP16, literal(-10)))
          CFI (cfiCond293) V4 load(1, XDATA, add(CFA_XSP16, literal(-9)))
          CFI (cfiCond293) V5 load(1, XDATA, add(CFA_XSP16, literal(-8)))
          CFI (cfiCond293) V6 load(1, XDATA, add(CFA_XSP16, literal(-7)))
          CFI (cfiCond293) V7 load(1, XDATA, add(CFA_XSP16, literal(-6)))
          CFI (cfiCond293) R7 load(1, XDATA, add(CFA_XSP16, literal(-5)))
          CFI (cfiCond293) ?RET_LOW load(1, XDATA, add(CFA_XSP16, literal(-4)))
          CFI (cfiCond293) ?RET_HIGH load(1, XDATA, add(CFA_XSP16, literal(-3)))
          CFI (cfiCond293) DPL0 load(1, XDATA, add(CFA_XSP16, literal(-2)))
          CFI (cfiCond293) DPH0 load(1, XDATA, add(CFA_XSP16, literal(-1)))
          CFI (cfiCond293) CFA_XSP16 add(XSP16, 19)
          CFI Block cfiPicker294 Using cfiCommon1
          CFI (cfiPicker294) NoFunction
          CFI (cfiPicker294) Picker
        LCALL   ??Subroutine66_0
??CrossCallReturnLabel_157:
        MOV     DPL,R2
        MOV     DPH,R3
        RET
          CFI EndBlock cfiCond292
          CFI EndBlock cfiCond293
          CFI EndBlock cfiPicker294

        RSEG NEAR_CODE:CODE:NOROOT(0)
?Subroutine46:
          CFI Block cfiCond295 Using cfiCommon0
          CFI Function shell_backspace
          CFI Conditional ??CrossCallReturnLabel_159, ??CrossCallReturnLabel_95
          CFI R6 load(1, XDATA, add(CFA_XSP16, literal(-15)))
          CFI VB load(1, XDATA, add(CFA_XSP16, literal(-14)))
          CFI V0 load(1, XDATA, add(CFA_XSP16, literal(-13)))
          CFI V1 load(1, XDATA, add(CFA_XSP16, literal(-12)))
          CFI V2 load(1, XDATA, add(CFA_XSP16, literal(-11)))
          CFI V3 load(1, XDATA, add(CFA_XSP16, literal(-10)))
          CFI V4 load(1, XDATA, add(CFA_XSP16, literal(-9)))
          CFI V5 load(1, XDATA, add(CFA_XSP16, literal(-8)))
          CFI V6 load(1, XDATA, add(CFA_XSP16, literal(-7)))
          CFI V7 load(1, XDATA, add(CFA_XSP16, literal(-6)))
          CFI R7 load(1, XDATA, add(CFA_XSP16, literal(-5)))
          CFI ?RET_LOW load(1, XDATA, add(CFA_XSP16, literal(-4)))
          CFI ?RET_HIGH load(1, XDATA, add(CFA_XSP16, literal(-3)))
          CFI DPL0 load(1, XDATA, add(CFA_XSP16, literal(-2)))
          CFI DPH0 load(1, XDATA, add(CFA_XSP16, literal(-1)))
          CFI CFA_SP SP+-4
          CFI CFA_XSP16 add(XSP16, 117)
          CFI Block cfiCond296 Using cfiCommon0
          CFI (cfiCond296) Function shell_getchar
          CFI (cfiCond296) Conditional ??CrossCallReturnLabel_159, ??CrossCallReturnLabel_96
          CFI (cfiCond296) R6 load(1, XDATA, add(CFA_XSP16, literal(-14)))
          CFI (cfiCond296) VB load(1, XDATA, add(CFA_XSP16, literal(-13)))
          CFI (cfiCond296) V0 load(1, XDATA, add(CFA_XSP16, literal(-12)))
          CFI (cfiCond296) V1 load(1, XDATA, add(CFA_XSP16, literal(-11)))
          CFI (cfiCond296) V2 load(1, XDATA, add(CFA_XSP16, literal(-10)))
          CFI (cfiCond296) V3 load(1, XDATA, add(CFA_XSP16, literal(-9)))
          CFI (cfiCond296) V4 load(1, XDATA, add(CFA_XSP16, literal(-8)))
          CFI (cfiCond296) V5 load(1, XDATA, add(CFA_XSP16, literal(-7)))
          CFI (cfiCond296) V6 load(1, XDATA, add(CFA_XSP16, literal(-6)))
          CFI (cfiCond296) R7 load(1, XDATA, add(CFA_XSP16, literal(-5)))
          CFI (cfiCond296) ?RET_LOW load(1, XDATA, add(CFA_XSP16, literal(-4)))
          CFI (cfiCond296) ?RET_HIGH load(1, XDATA, add(CFA_XSP16, literal(-3)))
          CFI (cfiCond296) DPL0 load(1, XDATA, add(CFA_XSP16, literal(-2)))
          CFI (cfiCond296) DPH0 load(1, XDATA, add(CFA_XSP16, literal(-1)))
          CFI (cfiCond296) CFA_SP SP+-4
          CFI (cfiCond296) CFA_XSP16 add(XSP16, 117)
          CFI Block cfiCond297 Using cfiCommon0
          CFI (cfiCond297) Function cmdline_gets
          CFI (cfiCond297) Conditional ??CrossCallReturnLabel_159, ??CrossCallReturnLabel_97
          CFI (cfiCond297) R6 load(1, XDATA, add(CFA_XSP16, literal(-15)))
          CFI (cfiCond297) VB load(1, XDATA, add(CFA_XSP16, literal(-14)))
          CFI (cfiCond297) V0 load(1, XDATA, add(CFA_XSP16, literal(-13)))
          CFI (cfiCond297) V1 load(1, XDATA, add(CFA_XSP16, literal(-12)))
          CFI (cfiCond297) V2 load(1, XDATA, add(CFA_XSP16, literal(-11)))
          CFI (cfiCond297) V3 load(1, XDATA, add(CFA_XSP16, literal(-10)))
          CFI (cfiCond297) V4 load(1, XDATA, add(CFA_XSP16, literal(-9)))
          CFI (cfiCond297) V5 load(1, XDATA, add(CFA_XSP16, literal(-8)))
          CFI (cfiCond297) V6 load(1, XDATA, add(CFA_XSP16, literal(-7)))
          CFI (cfiCond297) V7 load(1, XDATA, add(CFA_XSP16, literal(-6)))
          CFI (cfiCond297) R7 load(1, XDATA, add(CFA_XSP16, literal(-5)))
          CFI (cfiCond297) ?RET_LOW load(1, XDATA, add(CFA_XSP16, literal(-4)))
          CFI (cfiCond297) ?RET_HIGH load(1, XDATA, add(CFA_XSP16, literal(-3)))
          CFI (cfiCond297) DPL0 load(1, XDATA, add(CFA_XSP16, literal(-2)))
          CFI (cfiCond297) DPH0 load(1, XDATA, add(CFA_XSP16, literal(-1)))
          CFI (cfiCond297) CFA_SP SP+-4
          CFI (cfiCond297) CFA_XSP16 add(XSP16, 19)
          CFI Block cfiCond298 Using cfiCommon0
          CFI (cfiCond298) Function confirm_gets
          CFI (cfiCond298) Conditional ??CrossCallReturnLabel_159, ??CrossCallReturnLabel_98
          CFI (cfiCond298) R6 load(1, XDATA, add(CFA_XSP16, literal(-13)))
          CFI (cfiCond298) VB load(1, XDATA, add(CFA_XSP16, literal(-12)))
          CFI (cfiCond298) V0 load(1, XDATA, add(CFA_XSP16, literal(-11)))
          CFI (cfiCond298) V1 load(1, XDATA, add(CFA_XSP16, literal(-10)))
          CFI (cfiCond298) V2 load(1, XDATA, add(CFA_XSP16, literal(-9)))
          CFI (cfiCond298) V3 load(1, XDATA, add(CFA_XSP16, literal(-8)))
          CFI (cfiCond298) V4 load(1, XDATA, add(CFA_XSP16, literal(-7)))
          CFI (cfiCond298) V5 load(1, XDATA, add(CFA_XSP16, literal(-6)))
          CFI (cfiCond298) R7 load(1, XDATA, add(CFA_XSP16, literal(-5)))
          CFI (cfiCond298) ?RET_LOW load(1, XDATA, add(CFA_XSP16, literal(-4)))
          CFI (cfiCond298) ?RET_HIGH load(1, XDATA, add(CFA_XSP16, literal(-3)))
          CFI (cfiCond298) DPL0 load(1, XDATA, add(CFA_XSP16, literal(-2)))
          CFI (cfiCond298) DPH0 load(1, XDATA, add(CFA_XSP16, literal(-1)))
          CFI (cfiCond298) CFA_SP SP+-4
          CFI (cfiCond298) CFA_XSP16 add(XSP16, 15)
          CFI Block cfiCond299 Using cfiCommon0
          CFI (cfiCond299) Function confirm_gets
          CFI (cfiCond299) Conditional ??CrossCallReturnLabel_159, ??CrossCallReturnLabel_99
          CFI (cfiCond299) R6 load(1, XDATA, add(CFA_XSP16, literal(-13)))
          CFI (cfiCond299) VB load(1, XDATA, add(CFA_XSP16, literal(-12)))
          CFI (cfiCond299) V0 load(1, XDATA, add(CFA_XSP16, literal(-11)))
          CFI (cfiCond299) V1 load(1, XDATA, add(CFA_XSP16, literal(-10)))
          CFI (cfiCond299) V2 load(1, XDATA, add(CFA_XSP16, literal(-9)))
          CFI (cfiCond299) V3 load(1, XDATA, add(CFA_XSP16, literal(-8)))
          CFI (cfiCond299) V4 load(1, XDATA, add(CFA_XSP16, literal(-7)))
          CFI (cfiCond299) V5 load(1, XDATA, add(CFA_XSP16, literal(-6)))
          CFI (cfiCond299) R7 load(1, XDATA, add(CFA_XSP16, literal(-5)))
          CFI (cfiCond299) ?RET_LOW load(1, XDATA, add(CFA_XSP16, literal(-4)))
          CFI (cfiCond299) ?RET_HIGH load(1, XDATA, add(CFA_XSP16, literal(-3)))
          CFI (cfiCond299) DPL0 load(1, XDATA, add(CFA_XSP16, literal(-2)))
          CFI (cfiCond299) DPH0 load(1, XDATA, add(CFA_XSP16, literal(-1)))
          CFI (cfiCond299) CFA_SP SP+-4
          CFI (cfiCond299) CFA_XSP16 add(XSP16, 15)
          CFI Block cfiCond300 Using cfiCommon0
          CFI (cfiCond300) Function shell_show_history
          CFI (cfiCond300) Conditional ??CrossCallReturnLabel_158, ??CrossCallReturnLabel_32
          CFI (cfiCond300) R6 load(1, XDATA, add(CFA_XSP16, literal(-14)))
          CFI (cfiCond300) VB load(1, XDATA, add(CFA_XSP16, literal(-13)))
          CFI (cfiCond300) V0 load(1, XDATA, add(CFA_XSP16, literal(-12)))
          CFI (cfiCond300) V1 load(1, XDATA, add(CFA_XSP16, literal(-11)))
          CFI (cfiCond300) V2 load(1, XDATA, add(CFA_XSP16, literal(-10)))
          CFI (cfiCond300) V3 load(1, XDATA, add(CFA_XSP16, literal(-9)))
          CFI (cfiCond300) V4 load(1, XDATA, add(CFA_XSP16, literal(-8)))
          CFI (cfiCond300) V5 load(1, XDATA, add(CFA_XSP16, literal(-7)))
          CFI (cfiCond300) V6 load(1, XDATA, add(CFA_XSP16, literal(-6)))
          CFI (cfiCond300) R7 load(1, XDATA, add(CFA_XSP16, literal(-5)))
          CFI (cfiCond300) ?RET_LOW load(1, XDATA, add(CFA_XSP16, literal(-4)))
          CFI (cfiCond300) ?RET_HIGH load(1, XDATA, add(CFA_XSP16, literal(-3)))
          CFI (cfiCond300) DPL0 load(1, XDATA, add(CFA_XSP16, literal(-2)))
          CFI (cfiCond300) DPH0 load(1, XDATA, add(CFA_XSP16, literal(-1)))
          CFI (cfiCond300) CFA_SP SP+-4
          CFI (cfiCond300) CFA_XSP16 add(XSP16, 14)
          CFI Block cfiCond301 Using cfiCommon0
          CFI (cfiCond301) Function welcome_gets
          CFI (cfiCond301) Conditional ??CrossCallReturnLabel_158, ??CrossCallReturnLabel_33
          CFI (cfiCond301) R6 load(1, XDATA, add(CFA_XSP16, literal(-9)))
          CFI (cfiCond301) VB load(1, XDATA, add(CFA_XSP16, literal(-8)))
          CFI (cfiCond301) V0 load(1, XDATA, add(CFA_XSP16, literal(-7)))
          CFI (cfiCond301) V1 load(1, XDATA, add(CFA_XSP16, literal(-6)))
          CFI (cfiCond301) R7 load(1, XDATA, add(CFA_XSP16, literal(-5)))
          CFI (cfiCond301) ?RET_LOW load(1, XDATA, add(CFA_XSP16, literal(-4)))
          CFI (cfiCond301) ?RET_HIGH load(1, XDATA, add(CFA_XSP16, literal(-3)))
          CFI (cfiCond301) DPL0 load(1, XDATA, add(CFA_XSP16, literal(-2)))
          CFI (cfiCond301) DPH0 load(1, XDATA, add(CFA_XSP16, literal(-1)))
          CFI (cfiCond301) CFA_SP SP+-4
          CFI (cfiCond301) CFA_XSP16 add(XSP16, 9)
          CFI Block cfiCond302 Using cfiCommon0
          CFI (cfiCond302) Function cmdline_gets
          CFI (cfiCond302) Conditional ??CrossCallReturnLabel_158, ??CrossCallReturnLabel_34
          CFI (cfiCond302) R6 load(1, XDATA, add(CFA_XSP16, literal(-15)))
          CFI (cfiCond302) VB load(1, XDATA, add(CFA_XSP16, literal(-14)))
          CFI (cfiCond302) V0 load(1, XDATA, add(CFA_XSP16, literal(-13)))
          CFI (cfiCond302) V1 load(1, XDATA, add(CFA_XSP16, literal(-12)))
          CFI (cfiCond302) V2 load(1, XDATA, add(CFA_XSP16, literal(-11)))
          CFI (cfiCond302) V3 load(1, XDATA, add(CFA_XSP16, literal(-10)))
          CFI (cfiCond302) V4 load(1, XDATA, add(CFA_XSP16, literal(-9)))
          CFI (cfiCond302) V5 load(1, XDATA, add(CFA_XSP16, literal(-8)))
          CFI (cfiCond302) V6 load(1, XDATA, add(CFA_XSP16, literal(-7)))
          CFI (cfiCond302) V7 load(1, XDATA, add(CFA_XSP16, literal(-6)))
          CFI (cfiCond302) R7 load(1, XDATA, add(CFA_XSP16, literal(-5)))
          CFI (cfiCond302) ?RET_LOW load(1, XDATA, add(CFA_XSP16, literal(-4)))
          CFI (cfiCond302) ?RET_HIGH load(1, XDATA, add(CFA_XSP16, literal(-3)))
          CFI (cfiCond302) DPL0 load(1, XDATA, add(CFA_XSP16, literal(-2)))
          CFI (cfiCond302) DPH0 load(1, XDATA, add(CFA_XSP16, literal(-1)))
          CFI (cfiCond302) CFA_SP SP+-4
          CFI (cfiCond302) CFA_XSP16 add(XSP16, 19)
          CFI Block cfiCond303 Using cfiCommon0
          CFI (cfiCond303) Function confirm_gets
          CFI (cfiCond303) Conditional ??CrossCallReturnLabel_158, ??CrossCallReturnLabel_35
          CFI (cfiCond303) R6 load(1, XDATA, add(CFA_XSP16, literal(-13)))
          CFI (cfiCond303) VB load(1, XDATA, add(CFA_XSP16, literal(-12)))
          CFI (cfiCond303) V0 load(1, XDATA, add(CFA_XSP16, literal(-11)))
          CFI (cfiCond303) V1 load(1, XDATA, add(CFA_XSP16, literal(-10)))
          CFI (cfiCond303) V2 load(1, XDATA, add(CFA_XSP16, literal(-9)))
          CFI (cfiCond303) V3 load(1, XDATA, add(CFA_XSP16, literal(-8)))
          CFI (cfiCond303) V4 load(1, XDATA, add(CFA_XSP16, literal(-7)))
          CFI (cfiCond303) V5 load(1, XDATA, add(CFA_XSP16, literal(-6)))
          CFI (cfiCond303) R7 load(1, XDATA, add(CFA_XSP16, literal(-5)))
          CFI (cfiCond303) ?RET_LOW load(1, XDATA, add(CFA_XSP16, literal(-4)))
          CFI (cfiCond303) ?RET_HIGH load(1, XDATA, add(CFA_XSP16, literal(-3)))
          CFI (cfiCond303) DPL0 load(1, XDATA, add(CFA_XSP16, literal(-2)))
          CFI (cfiCond303) DPH0 load(1, XDATA, add(CFA_XSP16, literal(-1)))
          CFI (cfiCond303) CFA_SP SP+-4
          CFI (cfiCond303) CFA_XSP16 add(XSP16, 15)
          CFI Block cfiPicker304 Using cfiCommon1
          CFI (cfiPicker304) NoFunction
          CFI (cfiPicker304) Picker
        MOV     DPTR,#current_puts
          CFI EndBlock cfiCond295
          CFI EndBlock cfiCond296
          CFI EndBlock cfiCond297
          CFI EndBlock cfiCond298
          CFI EndBlock cfiCond299
          CFI EndBlock cfiCond300
          CFI EndBlock cfiCond301
          CFI EndBlock cfiCond302
          CFI EndBlock cfiCond303
          CFI EndBlock cfiPicker304
        REQUIRE ??Subroutine66_0
        ; // Fall through to label ??Subroutine66_0

        RSEG NEAR_CODE:CODE:NOROOT(0)
??Subroutine66_0:
          CFI Block cfiCond305 Using cfiCommon0
          CFI Function _shell_register
          CFI Conditional ??CrossCallReturnLabel_156, ??CrossCallReturnLabel_27
          CFI R6 load(1, XDATA, add(CFA_XSP16, literal(-15)))
          CFI VB load(1, XDATA, add(CFA_XSP16, literal(-14)))
          CFI V0 load(1, XDATA, add(CFA_XSP16, literal(-13)))
          CFI V1 load(1, XDATA, add(CFA_XSP16, literal(-12)))
          CFI V2 load(1, XDATA, add(CFA_XSP16, literal(-11)))
          CFI V3 load(1, XDATA, add(CFA_XSP16, literal(-10)))
          CFI V4 load(1, XDATA, add(CFA_XSP16, literal(-9)))
          CFI V5 load(1, XDATA, add(CFA_XSP16, literal(-8)))
          CFI V6 load(1, XDATA, add(CFA_XSP16, literal(-7)))
          CFI V7 load(1, XDATA, add(CFA_XSP16, literal(-6)))
          CFI R7 load(1, XDATA, add(CFA_XSP16, literal(-5)))
          CFI ?RET_LOW load(1, XDATA, add(CFA_XSP16, literal(-4)))
          CFI ?RET_HIGH load(1, XDATA, add(CFA_XSP16, literal(-3)))
          CFI DPL0 load(1, XDATA, add(CFA_XSP16, literal(-2)))
          CFI DPH0 load(1, XDATA, add(CFA_XSP16, literal(-1)))
          CFI CFA_SP SP+-4
          CFI CFA_XSP16 add(XSP16, 37)
          CFI Block cfiCond306 Using cfiCommon0
          CFI (cfiCond306) Function _shell_register
          CFI (cfiCond306) Conditional ??CrossCallReturnLabel_156, ??CrossCallReturnLabel_28
          CFI (cfiCond306) R6 load(1, XDATA, add(CFA_XSP16, literal(-15)))
          CFI (cfiCond306) VB load(1, XDATA, add(CFA_XSP16, literal(-14)))
          CFI (cfiCond306) V0 load(1, XDATA, add(CFA_XSP16, literal(-13)))
          CFI (cfiCond306) V1 load(1, XDATA, add(CFA_XSP16, literal(-12)))
          CFI (cfiCond306) V2 load(1, XDATA, add(CFA_XSP16, literal(-11)))
          CFI (cfiCond306) V3 load(1, XDATA, add(CFA_XSP16, literal(-10)))
          CFI (cfiCond306) V4 load(1, XDATA, add(CFA_XSP16, literal(-9)))
          CFI (cfiCond306) V5 load(1, XDATA, add(CFA_XSP16, literal(-8)))
          CFI (cfiCond306) V6 load(1, XDATA, add(CFA_XSP16, literal(-7)))
          CFI (cfiCond306) V7 load(1, XDATA, add(CFA_XSP16, literal(-6)))
          CFI (cfiCond306) R7 load(1, XDATA, add(CFA_XSP16, literal(-5)))
          CFI (cfiCond306) ?RET_LOW load(1, XDATA, add(CFA_XSP16, literal(-4)))
          CFI (cfiCond306) ?RET_HIGH load(1, XDATA, add(CFA_XSP16, literal(-3)))
          CFI (cfiCond306) DPL0 load(1, XDATA, add(CFA_XSP16, literal(-2)))
          CFI (cfiCond306) DPH0 load(1, XDATA, add(CFA_XSP16, literal(-1)))
          CFI (cfiCond306) CFA_SP SP+-4
          CFI (cfiCond306) CFA_XSP16 add(XSP16, 37)
          CFI Block cfiCond307 Using cfiCommon0
          CFI (cfiCond307) Function cmdline_param
          CFI (cfiCond307) Conditional ??CrossCallReturnLabel_160, ??CrossCallReturnLabel_140
          CFI (cfiCond307) R6 load(1, XDATA, add(CFA_XSP16, literal(-14)))
          CFI (cfiCond307) VB load(1, XDATA, add(CFA_XSP16, literal(-13)))
          CFI (cfiCond307) V0 load(1, XDATA, add(CFA_XSP16, literal(-12)))
          CFI (cfiCond307) V1 load(1, XDATA, add(CFA_XSP16, literal(-11)))
          CFI (cfiCond307) V2 load(1, XDATA, add(CFA_XSP16, literal(-10)))
          CFI (cfiCond307) V3 load(1, XDATA, add(CFA_XSP16, literal(-9)))
          CFI (cfiCond307) V4 load(1, XDATA, add(CFA_XSP16, literal(-8)))
          CFI (cfiCond307) V5 load(1, XDATA, add(CFA_XSP16, literal(-7)))
          CFI (cfiCond307) V6 load(1, XDATA, add(CFA_XSP16, literal(-6)))
          CFI (cfiCond307) R7 load(1, XDATA, add(CFA_XSP16, literal(-5)))
          CFI (cfiCond307) ?RET_LOW load(1, XDATA, add(CFA_XSP16, literal(-4)))
          CFI (cfiCond307) ?RET_HIGH load(1, XDATA, add(CFA_XSP16, literal(-3)))
          CFI (cfiCond307) DPL0 load(1, XDATA, add(CFA_XSP16, literal(-2)))
          CFI (cfiCond307) DPH0 load(1, XDATA, add(CFA_XSP16, literal(-1)))
          CFI (cfiCond307) CFA_SP SP+-4
          CFI (cfiCond307) CFA_XSP16 add(XSP16, 14)
          CFI Block cfiCond308 Using cfiCommon0
          CFI (cfiCond308) Function cmdline_param
          CFI (cfiCond308) Conditional ??CrossCallReturnLabel_160, ??CrossCallReturnLabel_141
          CFI (cfiCond308) R6 load(1, XDATA, add(CFA_XSP16, literal(-14)))
          CFI (cfiCond308) VB load(1, XDATA, add(CFA_XSP16, literal(-13)))
          CFI (cfiCond308) V0 load(1, XDATA, add(CFA_XSP16, literal(-12)))
          CFI (cfiCond308) V1 load(1, XDATA, add(CFA_XSP16, literal(-11)))
          CFI (cfiCond308) V2 load(1, XDATA, add(CFA_XSP16, literal(-10)))
          CFI (cfiCond308) V3 load(1, XDATA, add(CFA_XSP16, literal(-9)))
          CFI (cfiCond308) V4 load(1, XDATA, add(CFA_XSP16, literal(-8)))
          CFI (cfiCond308) V5 load(1, XDATA, add(CFA_XSP16, literal(-7)))
          CFI (cfiCond308) V6 load(1, XDATA, add(CFA_XSP16, literal(-6)))
          CFI (cfiCond308) R7 load(1, XDATA, add(CFA_XSP16, literal(-5)))
          CFI (cfiCond308) ?RET_LOW load(1, XDATA, add(CFA_XSP16, literal(-4)))
          CFI (cfiCond308) ?RET_HIGH load(1, XDATA, add(CFA_XSP16, literal(-3)))
          CFI (cfiCond308) DPL0 load(1, XDATA, add(CFA_XSP16, literal(-2)))
          CFI (cfiCond308) DPH0 load(1, XDATA, add(CFA_XSP16, literal(-1)))
          CFI (cfiCond308) CFA_SP SP+-4
          CFI (cfiCond308) CFA_XSP16 add(XSP16, 14)
          CFI Block cfiCond309 Using cfiCommon0
          CFI (cfiCond309) Function _shell_register
          CFI (cfiCond309) Conditional ??CrossCallReturnLabel_160, ??CrossCallReturnLabel_136
          CFI (cfiCond309) R6 load(1, XDATA, add(CFA_XSP16, literal(-15)))
          CFI (cfiCond309) VB load(1, XDATA, add(CFA_XSP16, literal(-14)))
          CFI (cfiCond309) V0 load(1, XDATA, add(CFA_XSP16, literal(-13)))
          CFI (cfiCond309) V1 load(1, XDATA, add(CFA_XSP16, literal(-12)))
          CFI (cfiCond309) V2 load(1, XDATA, add(CFA_XSP16, literal(-11)))
          CFI (cfiCond309) V3 load(1, XDATA, add(CFA_XSP16, literal(-10)))
          CFI (cfiCond309) V4 load(1, XDATA, add(CFA_XSP16, literal(-9)))
          CFI (cfiCond309) V5 load(1, XDATA, add(CFA_XSP16, literal(-8)))
          CFI (cfiCond309) V6 load(1, XDATA, add(CFA_XSP16, literal(-7)))
          CFI (cfiCond309) V7 load(1, XDATA, add(CFA_XSP16, literal(-6)))
          CFI (cfiCond309) R7 load(1, XDATA, add(CFA_XSP16, literal(-5)))
          CFI (cfiCond309) ?RET_LOW load(1, XDATA, add(CFA_XSP16, literal(-4)))
          CFI (cfiCond309) ?RET_HIGH load(1, XDATA, add(CFA_XSP16, literal(-3)))
          CFI (cfiCond309) DPL0 load(1, XDATA, add(CFA_XSP16, literal(-2)))
          CFI (cfiCond309) DPH0 load(1, XDATA, add(CFA_XSP16, literal(-1)))
          CFI (cfiCond309) CFA_SP SP+-4
          CFI (cfiCond309) CFA_XSP16 add(XSP16, 37)
          CFI Block cfiCond310 Using cfiCommon0
          CFI (cfiCond310) Function _shell_register
          CFI (cfiCond310) Conditional ??CrossCallReturnLabel_160, ??CrossCallReturnLabel_137
          CFI (cfiCond310) R6 load(1, XDATA, add(CFA_XSP16, literal(-15)))
          CFI (cfiCond310) VB load(1, XDATA, add(CFA_XSP16, literal(-14)))
          CFI (cfiCond310) V0 load(1, XDATA, add(CFA_XSP16, literal(-13)))
          CFI (cfiCond310) V1 load(1, XDATA, add(CFA_XSP16, literal(-12)))
          CFI (cfiCond310) V2 load(1, XDATA, add(CFA_XSP16, literal(-11)))
          CFI (cfiCond310) V3 load(1, XDATA, add(CFA_XSP16, literal(-10)))
          CFI (cfiCond310) V4 load(1, XDATA, add(CFA_XSP16, literal(-9)))
          CFI (cfiCond310) V5 load(1, XDATA, add(CFA_XSP16, literal(-8)))
          CFI (cfiCond310) V6 load(1, XDATA, add(CFA_XSP16, literal(-7)))
          CFI (cfiCond310) V7 load(1, XDATA, add(CFA_XSP16, literal(-6)))
          CFI (cfiCond310) R7 load(1, XDATA, add(CFA_XSP16, literal(-5)))
          CFI (cfiCond310) ?RET_LOW load(1, XDATA, add(CFA_XSP16, literal(-4)))
          CFI (cfiCond310) ?RET_HIGH load(1, XDATA, add(CFA_XSP16, literal(-3)))
          CFI (cfiCond310) DPL0 load(1, XDATA, add(CFA_XSP16, literal(-2)))
          CFI (cfiCond310) DPH0 load(1, XDATA, add(CFA_XSP16, literal(-1)))
          CFI (cfiCond310) CFA_SP SP+-4
          CFI (cfiCond310) CFA_XSP16 add(XSP16, 37)
          CFI Block cfiCond311 Using cfiCommon0
          CFI (cfiCond311) Function cmdline_gets
          CFI (cfiCond311) Conditional ??CrossCallReturnLabel_160, ??CrossCallReturnLabel_138
          CFI (cfiCond311) R6 load(1, XDATA, add(CFA_XSP16, literal(-15)))
          CFI (cfiCond311) VB load(1, XDATA, add(CFA_XSP16, literal(-14)))
          CFI (cfiCond311) V0 load(1, XDATA, add(CFA_XSP16, literal(-13)))
          CFI (cfiCond311) V1 load(1, XDATA, add(CFA_XSP16, literal(-12)))
          CFI (cfiCond311) V2 load(1, XDATA, add(CFA_XSP16, literal(-11)))
          CFI (cfiCond311) V3 load(1, XDATA, add(CFA_XSP16, literal(-10)))
          CFI (cfiCond311) V4 load(1, XDATA, add(CFA_XSP16, literal(-9)))
          CFI (cfiCond311) V5 load(1, XDATA, add(CFA_XSP16, literal(-8)))
          CFI (cfiCond311) V6 load(1, XDATA, add(CFA_XSP16, literal(-7)))
          CFI (cfiCond311) V7 load(1, XDATA, add(CFA_XSP16, literal(-6)))
          CFI (cfiCond311) R7 load(1, XDATA, add(CFA_XSP16, literal(-5)))
          CFI (cfiCond311) ?RET_LOW load(1, XDATA, add(CFA_XSP16, literal(-4)))
          CFI (cfiCond311) ?RET_HIGH load(1, XDATA, add(CFA_XSP16, literal(-3)))
          CFI (cfiCond311) DPL0 load(1, XDATA, add(CFA_XSP16, literal(-2)))
          CFI (cfiCond311) DPH0 load(1, XDATA, add(CFA_XSP16, literal(-1)))
          CFI (cfiCond311) CFA_SP SP+-4
          CFI (cfiCond311) CFA_XSP16 add(XSP16, 19)
          CFI Block cfiCond312 Using cfiCommon0
          CFI (cfiCond312) Function cmdline_gets
          CFI (cfiCond312) Conditional ??CrossCallReturnLabel_160, ??CrossCallReturnLabel_139
          CFI (cfiCond312) R6 load(1, XDATA, add(CFA_XSP16, literal(-15)))
          CFI (cfiCond312) VB load(1, XDATA, add(CFA_XSP16, literal(-14)))
          CFI (cfiCond312) V0 load(1, XDATA, add(CFA_XSP16, literal(-13)))
          CFI (cfiCond312) V1 load(1, XDATA, add(CFA_XSP16, literal(-12)))
          CFI (cfiCond312) V2 load(1, XDATA, add(CFA_XSP16, literal(-11)))
          CFI (cfiCond312) V3 load(1, XDATA, add(CFA_XSP16, literal(-10)))
          CFI (cfiCond312) V4 load(1, XDATA, add(CFA_XSP16, literal(-9)))
          CFI (cfiCond312) V5 load(1, XDATA, add(CFA_XSP16, literal(-8)))
          CFI (cfiCond312) V6 load(1, XDATA, add(CFA_XSP16, literal(-7)))
          CFI (cfiCond312) V7 load(1, XDATA, add(CFA_XSP16, literal(-6)))
          CFI (cfiCond312) R7 load(1, XDATA, add(CFA_XSP16, literal(-5)))
          CFI (cfiCond312) ?RET_LOW load(1, XDATA, add(CFA_XSP16, literal(-4)))
          CFI (cfiCond312) ?RET_HIGH load(1, XDATA, add(CFA_XSP16, literal(-3)))
          CFI (cfiCond312) DPL0 load(1, XDATA, add(CFA_XSP16, literal(-2)))
          CFI (cfiCond312) DPH0 load(1, XDATA, add(CFA_XSP16, literal(-1)))
          CFI (cfiCond312) CFA_SP SP+-4
          CFI (cfiCond312) CFA_XSP16 add(XSP16, 19)
          CFI Block cfiCond313 Using cfiCommon0
          CFI (cfiCond313) Function _shell_register
          CFI (cfiCond313) Conditional ??CrossCallReturnLabel_157, ??CrossCallReturnLabel_45
          CFI (cfiCond313) R6 load(1, XDATA, add(CFA_XSP16, literal(-15)))
          CFI (cfiCond313) VB load(1, XDATA, add(CFA_XSP16, literal(-14)))
          CFI (cfiCond313) V0 load(1, XDATA, add(CFA_XSP16, literal(-13)))
          CFI (cfiCond313) V1 load(1, XDATA, add(CFA_XSP16, literal(-12)))
          CFI (cfiCond313) V2 load(1, XDATA, add(CFA_XSP16, literal(-11)))
          CFI (cfiCond313) V3 load(1, XDATA, add(CFA_XSP16, literal(-10)))
          CFI (cfiCond313) V4 load(1, XDATA, add(CFA_XSP16, literal(-9)))
          CFI (cfiCond313) V5 load(1, XDATA, add(CFA_XSP16, literal(-8)))
          CFI (cfiCond313) V6 load(1, XDATA, add(CFA_XSP16, literal(-7)))
          CFI (cfiCond313) V7 load(1, XDATA, add(CFA_XSP16, literal(-6)))
          CFI (cfiCond313) R7 load(1, XDATA, add(CFA_XSP16, literal(-5)))
          CFI (cfiCond313) ?RET_LOW load(1, XDATA, add(CFA_XSP16, literal(-4)))
          CFI (cfiCond313) ?RET_HIGH load(1, XDATA, add(CFA_XSP16, literal(-3)))
          CFI (cfiCond313) DPL0 load(1, XDATA, add(CFA_XSP16, literal(-2)))
          CFI (cfiCond313) DPH0 load(1, XDATA, add(CFA_XSP16, literal(-1)))
          CFI (cfiCond313) CFA_SP SP+-4
          CFI (cfiCond313) CFA_XSP16 add(XSP16, 37)
          CFI Block cfiCond314 Using cfiCommon0
          CFI (cfiCond314) Function shell_input_init
          CFI (cfiCond314) Conditional ??CrossCallReturnLabel_157, ??CrossCallReturnLabel_46
          CFI (cfiCond314) R6 load(1, XDATA, add(CFA_XSP16, literal(-15)))
          CFI (cfiCond314) VB load(1, XDATA, add(CFA_XSP16, literal(-14)))
          CFI (cfiCond314) V0 load(1, XDATA, add(CFA_XSP16, literal(-13)))
          CFI (cfiCond314) V1 load(1, XDATA, add(CFA_XSP16, literal(-12)))
          CFI (cfiCond314) V2 load(1, XDATA, add(CFA_XSP16, literal(-11)))
          CFI (cfiCond314) V3 load(1, XDATA, add(CFA_XSP16, literal(-10)))
          CFI (cfiCond314) V4 load(1, XDATA, add(CFA_XSP16, literal(-9)))
          CFI (cfiCond314) V5 load(1, XDATA, add(CFA_XSP16, literal(-8)))
          CFI (cfiCond314) V6 load(1, XDATA, add(CFA_XSP16, literal(-7)))
          CFI (cfiCond314) V7 load(1, XDATA, add(CFA_XSP16, literal(-6)))
          CFI (cfiCond314) R7 load(1, XDATA, add(CFA_XSP16, literal(-5)))
          CFI (cfiCond314) ?RET_LOW load(1, XDATA, add(CFA_XSP16, literal(-4)))
          CFI (cfiCond314) ?RET_HIGH load(1, XDATA, add(CFA_XSP16, literal(-3)))
          CFI (cfiCond314) DPL0 load(1, XDATA, add(CFA_XSP16, literal(-2)))
          CFI (cfiCond314) DPH0 load(1, XDATA, add(CFA_XSP16, literal(-1)))
          CFI (cfiCond314) CFA_SP SP+-4
          CFI (cfiCond314) CFA_XSP16 add(XSP16, 19)
          CFI Block cfiCond315 Using cfiCommon0
          CFI (cfiCond315) Function shell_backspace
          CFI (cfiCond315) Conditional ??CrossCallReturnLabel_159, ??CrossCallReturnLabel_95
          CFI (cfiCond315) R6 load(1, XDATA, add(CFA_XSP16, literal(-15)))
          CFI (cfiCond315) VB load(1, XDATA, add(CFA_XSP16, literal(-14)))
          CFI (cfiCond315) V0 load(1, XDATA, add(CFA_XSP16, literal(-13)))
          CFI (cfiCond315) V1 load(1, XDATA, add(CFA_XSP16, literal(-12)))
          CFI (cfiCond315) V2 load(1, XDATA, add(CFA_XSP16, literal(-11)))
          CFI (cfiCond315) V3 load(1, XDATA, add(CFA_XSP16, literal(-10)))
          CFI (cfiCond315) V4 load(1, XDATA, add(CFA_XSP16, literal(-9)))
          CFI (cfiCond315) V5 load(1, XDATA, add(CFA_XSP16, literal(-8)))
          CFI (cfiCond315) V6 load(1, XDATA, add(CFA_XSP16, literal(-7)))
          CFI (cfiCond315) V7 load(1, XDATA, add(CFA_XSP16, literal(-6)))
          CFI (cfiCond315) R7 load(1, XDATA, add(CFA_XSP16, literal(-5)))
          CFI (cfiCond315) ?RET_LOW load(1, XDATA, add(CFA_XSP16, literal(-4)))
          CFI (cfiCond315) ?RET_HIGH load(1, XDATA, add(CFA_XSP16, literal(-3)))
          CFI (cfiCond315) DPL0 load(1, XDATA, add(CFA_XSP16, literal(-2)))
          CFI (cfiCond315) DPH0 load(1, XDATA, add(CFA_XSP16, literal(-1)))
          CFI (cfiCond315) CFA_SP SP+-4
          CFI (cfiCond315) CFA_XSP16 add(XSP16, 117)
          CFI Block cfiCond316 Using cfiCommon0
          CFI (cfiCond316) Function shell_getchar
          CFI (cfiCond316) Conditional ??CrossCallReturnLabel_159, ??CrossCallReturnLabel_96
          CFI (cfiCond316) R6 load(1, XDATA, add(CFA_XSP16, literal(-14)))
          CFI (cfiCond316) VB load(1, XDATA, add(CFA_XSP16, literal(-13)))
          CFI (cfiCond316) V0 load(1, XDATA, add(CFA_XSP16, literal(-12)))
          CFI (cfiCond316) V1 load(1, XDATA, add(CFA_XSP16, literal(-11)))
          CFI (cfiCond316) V2 load(1, XDATA, add(CFA_XSP16, literal(-10)))
          CFI (cfiCond316) V3 load(1, XDATA, add(CFA_XSP16, literal(-9)))
          CFI (cfiCond316) V4 load(1, XDATA, add(CFA_XSP16, literal(-8)))
          CFI (cfiCond316) V5 load(1, XDATA, add(CFA_XSP16, literal(-7)))
          CFI (cfiCond316) V6 load(1, XDATA, add(CFA_XSP16, literal(-6)))
          CFI (cfiCond316) R7 load(1, XDATA, add(CFA_XSP16, literal(-5)))
          CFI (cfiCond316) ?RET_LOW load(1, XDATA, add(CFA_XSP16, literal(-4)))
          CFI (cfiCond316) ?RET_HIGH load(1, XDATA, add(CFA_XSP16, literal(-3)))
          CFI (cfiCond316) DPL0 load(1, XDATA, add(CFA_XSP16, literal(-2)))
          CFI (cfiCond316) DPH0 load(1, XDATA, add(CFA_XSP16, literal(-1)))
          CFI (cfiCond316) CFA_SP SP+-4
          CFI (cfiCond316) CFA_XSP16 add(XSP16, 117)
          CFI Block cfiCond317 Using cfiCommon0
          CFI (cfiCond317) Function cmdline_gets
          CFI (cfiCond317) Conditional ??CrossCallReturnLabel_159, ??CrossCallReturnLabel_97
          CFI (cfiCond317) R6 load(1, XDATA, add(CFA_XSP16, literal(-15)))
          CFI (cfiCond317) VB load(1, XDATA, add(CFA_XSP16, literal(-14)))
          CFI (cfiCond317) V0 load(1, XDATA, add(CFA_XSP16, literal(-13)))
          CFI (cfiCond317) V1 load(1, XDATA, add(CFA_XSP16, literal(-12)))
          CFI (cfiCond317) V2 load(1, XDATA, add(CFA_XSP16, literal(-11)))
          CFI (cfiCond317) V3 load(1, XDATA, add(CFA_XSP16, literal(-10)))
          CFI (cfiCond317) V4 load(1, XDATA, add(CFA_XSP16, literal(-9)))
          CFI (cfiCond317) V5 load(1, XDATA, add(CFA_XSP16, literal(-8)))
          CFI (cfiCond317) V6 load(1, XDATA, add(CFA_XSP16, literal(-7)))
          CFI (cfiCond317) V7 load(1, XDATA, add(CFA_XSP16, literal(-6)))
          CFI (cfiCond317) R7 load(1, XDATA, add(CFA_XSP16, literal(-5)))
          CFI (cfiCond317) ?RET_LOW load(1, XDATA, add(CFA_XSP16, literal(-4)))
          CFI (cfiCond317) ?RET_HIGH load(1, XDATA, add(CFA_XSP16, literal(-3)))
          CFI (cfiCond317) DPL0 load(1, XDATA, add(CFA_XSP16, literal(-2)))
          CFI (cfiCond317) DPH0 load(1, XDATA, add(CFA_XSP16, literal(-1)))
          CFI (cfiCond317) CFA_SP SP+-4
          CFI (cfiCond317) CFA_XSP16 add(XSP16, 19)
          CFI Block cfiCond318 Using cfiCommon0
          CFI (cfiCond318) Function confirm_gets
          CFI (cfiCond318) Conditional ??CrossCallReturnLabel_159, ??CrossCallReturnLabel_98
          CFI (cfiCond318) R6 load(1, XDATA, add(CFA_XSP16, literal(-13)))
          CFI (cfiCond318) VB load(1, XDATA, add(CFA_XSP16, literal(-12)))
          CFI (cfiCond318) V0 load(1, XDATA, add(CFA_XSP16, literal(-11)))
          CFI (cfiCond318) V1 load(1, XDATA, add(CFA_XSP16, literal(-10)))
          CFI (cfiCond318) V2 load(1, XDATA, add(CFA_XSP16, literal(-9)))
          CFI (cfiCond318) V3 load(1, XDATA, add(CFA_XSP16, literal(-8)))
          CFI (cfiCond318) V4 load(1, XDATA, add(CFA_XSP16, literal(-7)))
          CFI (cfiCond318) V5 load(1, XDATA, add(CFA_XSP16, literal(-6)))
          CFI (cfiCond318) R7 load(1, XDATA, add(CFA_XSP16, literal(-5)))
          CFI (cfiCond318) ?RET_LOW load(1, XDATA, add(CFA_XSP16, literal(-4)))
          CFI (cfiCond318) ?RET_HIGH load(1, XDATA, add(CFA_XSP16, literal(-3)))
          CFI (cfiCond318) DPL0 load(1, XDATA, add(CFA_XSP16, literal(-2)))
          CFI (cfiCond318) DPH0 load(1, XDATA, add(CFA_XSP16, literal(-1)))
          CFI (cfiCond318) CFA_SP SP+-4
          CFI (cfiCond318) CFA_XSP16 add(XSP16, 15)
          CFI Block cfiCond319 Using cfiCommon0
          CFI (cfiCond319) Function confirm_gets
          CFI (cfiCond319) Conditional ??CrossCallReturnLabel_159, ??CrossCallReturnLabel_99
          CFI (cfiCond319) R6 load(1, XDATA, add(CFA_XSP16, literal(-13)))
          CFI (cfiCond319) VB load(1, XDATA, add(CFA_XSP16, literal(-12)))
          CFI (cfiCond319) V0 load(1, XDATA, add(CFA_XSP16, literal(-11)))
          CFI (cfiCond319) V1 load(1, XDATA, add(CFA_XSP16, literal(-10)))
          CFI (cfiCond319) V2 load(1, XDATA, add(CFA_XSP16, literal(-9)))
          CFI (cfiCond319) V3 load(1, XDATA, add(CFA_XSP16, literal(-8)))
          CFI (cfiCond319) V4 load(1, XDATA, add(CFA_XSP16, literal(-7)))
          CFI (cfiCond319) V5 load(1, XDATA, add(CFA_XSP16, literal(-6)))
          CFI (cfiCond319) R7 load(1, XDATA, add(CFA_XSP16, literal(-5)))
          CFI (cfiCond319) ?RET_LOW load(1, XDATA, add(CFA_XSP16, literal(-4)))
          CFI (cfiCond319) ?RET_HIGH load(1, XDATA, add(CFA_XSP16, literal(-3)))
          CFI (cfiCond319) DPL0 load(1, XDATA, add(CFA_XSP16, literal(-2)))
          CFI (cfiCond319) DPH0 load(1, XDATA, add(CFA_XSP16, literal(-1)))
          CFI (cfiCond319) CFA_SP SP+-4
          CFI (cfiCond319) CFA_XSP16 add(XSP16, 15)
          CFI Block cfiCond320 Using cfiCommon0
          CFI (cfiCond320) Function shell_show_history
          CFI (cfiCond320) Conditional ??CrossCallReturnLabel_158, ??CrossCallReturnLabel_32
          CFI (cfiCond320) R6 load(1, XDATA, add(CFA_XSP16, literal(-14)))
          CFI (cfiCond320) VB load(1, XDATA, add(CFA_XSP16, literal(-13)))
          CFI (cfiCond320) V0 load(1, XDATA, add(CFA_XSP16, literal(-12)))
          CFI (cfiCond320) V1 load(1, XDATA, add(CFA_XSP16, literal(-11)))
          CFI (cfiCond320) V2 load(1, XDATA, add(CFA_XSP16, literal(-10)))
          CFI (cfiCond320) V3 load(1, XDATA, add(CFA_XSP16, literal(-9)))
          CFI (cfiCond320) V4 load(1, XDATA, add(CFA_XSP16, literal(-8)))
          CFI (cfiCond320) V5 load(1, XDATA, add(CFA_XSP16, literal(-7)))
          CFI (cfiCond320) V6 load(1, XDATA, add(CFA_XSP16, literal(-6)))
          CFI (cfiCond320) R7 load(1, XDATA, add(CFA_XSP16, literal(-5)))
          CFI (cfiCond320) ?RET_LOW load(1, XDATA, add(CFA_XSP16, literal(-4)))
          CFI (cfiCond320) ?RET_HIGH load(1, XDATA, add(CFA_XSP16, literal(-3)))
          CFI (cfiCond320) DPL0 load(1, XDATA, add(CFA_XSP16, literal(-2)))
          CFI (cfiCond320) DPH0 load(1, XDATA, add(CFA_XSP16, literal(-1)))
          CFI (cfiCond320) CFA_SP SP+-4
          CFI (cfiCond320) CFA_XSP16 add(XSP16, 14)
          CFI Block cfiCond321 Using cfiCommon0
          CFI (cfiCond321) Function welcome_gets
          CFI (cfiCond321) Conditional ??CrossCallReturnLabel_158, ??CrossCallReturnLabel_33
          CFI (cfiCond321) R6 load(1, XDATA, add(CFA_XSP16, literal(-9)))
          CFI (cfiCond321) VB load(1, XDATA, add(CFA_XSP16, literal(-8)))
          CFI (cfiCond321) V0 load(1, XDATA, add(CFA_XSP16, literal(-7)))
          CFI (cfiCond321) V1 load(1, XDATA, add(CFA_XSP16, literal(-6)))
          CFI (cfiCond321) R7 load(1, XDATA, add(CFA_XSP16, literal(-5)))
          CFI (cfiCond321) ?RET_LOW load(1, XDATA, add(CFA_XSP16, literal(-4)))
          CFI (cfiCond321) ?RET_HIGH load(1, XDATA, add(CFA_XSP16, literal(-3)))
          CFI (cfiCond321) DPL0 load(1, XDATA, add(CFA_XSP16, literal(-2)))
          CFI (cfiCond321) DPH0 load(1, XDATA, add(CFA_XSP16, literal(-1)))
          CFI (cfiCond321) CFA_SP SP+-4
          CFI (cfiCond321) CFA_XSP16 add(XSP16, 9)
          CFI Block cfiCond322 Using cfiCommon0
          CFI (cfiCond322) Function cmdline_gets
          CFI (cfiCond322) Conditional ??CrossCallReturnLabel_158, ??CrossCallReturnLabel_34
          CFI (cfiCond322) R6 load(1, XDATA, add(CFA_XSP16, literal(-15)))
          CFI (cfiCond322) VB load(1, XDATA, add(CFA_XSP16, literal(-14)))
          CFI (cfiCond322) V0 load(1, XDATA, add(CFA_XSP16, literal(-13)))
          CFI (cfiCond322) V1 load(1, XDATA, add(CFA_XSP16, literal(-12)))
          CFI (cfiCond322) V2 load(1, XDATA, add(CFA_XSP16, literal(-11)))
          CFI (cfiCond322) V3 load(1, XDATA, add(CFA_XSP16, literal(-10)))
          CFI (cfiCond322) V4 load(1, XDATA, add(CFA_XSP16, literal(-9)))
          CFI (cfiCond322) V5 load(1, XDATA, add(CFA_XSP16, literal(-8)))
          CFI (cfiCond322) V6 load(1, XDATA, add(CFA_XSP16, literal(-7)))
          CFI (cfiCond322) V7 load(1, XDATA, add(CFA_XSP16, literal(-6)))
          CFI (cfiCond322) R7 load(1, XDATA, add(CFA_XSP16, literal(-5)))
          CFI (cfiCond322) ?RET_LOW load(1, XDATA, add(CFA_XSP16, literal(-4)))
          CFI (cfiCond322) ?RET_HIGH load(1, XDATA, add(CFA_XSP16, literal(-3)))
          CFI (cfiCond322) DPL0 load(1, XDATA, add(CFA_XSP16, literal(-2)))
          CFI (cfiCond322) DPH0 load(1, XDATA, add(CFA_XSP16, literal(-1)))
          CFI (cfiCond322) CFA_SP SP+-4
          CFI (cfiCond322) CFA_XSP16 add(XSP16, 19)
          CFI Block cfiCond323 Using cfiCommon0
          CFI (cfiCond323) Function confirm_gets
          CFI (cfiCond323) Conditional ??CrossCallReturnLabel_158, ??CrossCallReturnLabel_35
          CFI (cfiCond323) R6 load(1, XDATA, add(CFA_XSP16, literal(-13)))
          CFI (cfiCond323) VB load(1, XDATA, add(CFA_XSP16, literal(-12)))
          CFI (cfiCond323) V0 load(1, XDATA, add(CFA_XSP16, literal(-11)))
          CFI (cfiCond323) V1 load(1, XDATA, add(CFA_XSP16, literal(-10)))
          CFI (cfiCond323) V2 load(1, XDATA, add(CFA_XSP16, literal(-9)))
          CFI (cfiCond323) V3 load(1, XDATA, add(CFA_XSP16, literal(-8)))
          CFI (cfiCond323) V4 load(1, XDATA, add(CFA_XSP16, literal(-7)))
          CFI (cfiCond323) V5 load(1, XDATA, add(CFA_XSP16, literal(-6)))
          CFI (cfiCond323) R7 load(1, XDATA, add(CFA_XSP16, literal(-5)))
          CFI (cfiCond323) ?RET_LOW load(1, XDATA, add(CFA_XSP16, literal(-4)))
          CFI (cfiCond323) ?RET_HIGH load(1, XDATA, add(CFA_XSP16, literal(-3)))
          CFI (cfiCond323) DPL0 load(1, XDATA, add(CFA_XSP16, literal(-2)))
          CFI (cfiCond323) DPH0 load(1, XDATA, add(CFA_XSP16, literal(-1)))
          CFI (cfiCond323) CFA_SP SP+-4
          CFI (cfiCond323) CFA_XSP16 add(XSP16, 15)
          CFI Block cfiPicker324 Using cfiCommon1
          CFI (cfiPicker324) NoFunction
          CFI (cfiPicker324) Picker
        MOVX    A,@DPTR
        MOV     R0,A
        INC     DPTR
        MOVX    A,@DPTR
        MOV     R1,A
        RET
          CFI EndBlock cfiCond305
          CFI EndBlock cfiCond306
          CFI EndBlock cfiCond307
          CFI EndBlock cfiCond308
          CFI EndBlock cfiCond309
          CFI EndBlock cfiCond310
          CFI EndBlock cfiCond311
          CFI EndBlock cfiCond312
          CFI EndBlock cfiCond313
          CFI EndBlock cfiCond314
          CFI EndBlock cfiCond315
          CFI EndBlock cfiCond316
          CFI EndBlock cfiCond317
          CFI EndBlock cfiCond318
          CFI EndBlock cfiCond319
          CFI EndBlock cfiCond320
          CFI EndBlock cfiCond321
          CFI EndBlock cfiCond322
          CFI EndBlock cfiCond323
          CFI EndBlock cfiPicker324

        RSEG NEAR_CODE:CODE:NOROOT(0)
?Subroutine21:
          CFI Block cfiCond325 Using cfiCommon0
          CFI Function shell_input_init
          CFI Conditional ??CrossCallReturnLabel_162
          CFI R6 load(1, XDATA, add(CFA_XSP16, literal(-15)))
          CFI VB load(1, XDATA, add(CFA_XSP16, literal(-14)))
          CFI V0 load(1, XDATA, add(CFA_XSP16, literal(-13)))
          CFI V1 load(1, XDATA, add(CFA_XSP16, literal(-12)))
          CFI V2 load(1, XDATA, add(CFA_XSP16, literal(-11)))
          CFI V3 load(1, XDATA, add(CFA_XSP16, literal(-10)))
          CFI V4 load(1, XDATA, add(CFA_XSP16, literal(-9)))
          CFI V5 load(1, XDATA, add(CFA_XSP16, literal(-8)))
          CFI V6 load(1, XDATA, add(CFA_XSP16, literal(-7)))
          CFI V7 load(1, XDATA, add(CFA_XSP16, literal(-6)))
          CFI R7 load(1, XDATA, add(CFA_XSP16, literal(-5)))
          CFI ?RET_LOW load(1, XDATA, add(CFA_XSP16, literal(-4)))
          CFI ?RET_HIGH load(1, XDATA, add(CFA_XSP16, literal(-3)))
          CFI DPL0 load(1, XDATA, add(CFA_XSP16, literal(-2)))
          CFI DPH0 load(1, XDATA, add(CFA_XSP16, literal(-1)))
          CFI CFA_XSP16 add(XSP16, 19)
          CFI Block cfiCond326 Using cfiCommon0
          CFI (cfiCond326) Function shell_input_init
          CFI (cfiCond326) Conditional ??CrossCallReturnLabel_163
          CFI (cfiCond326) R6 load(1, XDATA, add(CFA_XSP16, literal(-15)))
          CFI (cfiCond326) VB load(1, XDATA, add(CFA_XSP16, literal(-14)))
          CFI (cfiCond326) V0 load(1, XDATA, add(CFA_XSP16, literal(-13)))
          CFI (cfiCond326) V1 load(1, XDATA, add(CFA_XSP16, literal(-12)))
          CFI (cfiCond326) V2 load(1, XDATA, add(CFA_XSP16, literal(-11)))
          CFI (cfiCond326) V3 load(1, XDATA, add(CFA_XSP16, literal(-10)))
          CFI (cfiCond326) V4 load(1, XDATA, add(CFA_XSP16, literal(-9)))
          CFI (cfiCond326) V5 load(1, XDATA, add(CFA_XSP16, literal(-8)))
          CFI (cfiCond326) V6 load(1, XDATA, add(CFA_XSP16, literal(-7)))
          CFI (cfiCond326) V7 load(1, XDATA, add(CFA_XSP16, literal(-6)))
          CFI (cfiCond326) R7 load(1, XDATA, add(CFA_XSP16, literal(-5)))
          CFI (cfiCond326) ?RET_LOW load(1, XDATA, add(CFA_XSP16, literal(-4)))
          CFI (cfiCond326) ?RET_HIGH load(1, XDATA, add(CFA_XSP16, literal(-3)))
          CFI (cfiCond326) DPL0 load(1, XDATA, add(CFA_XSP16, literal(-2)))
          CFI (cfiCond326) DPH0 load(1, XDATA, add(CFA_XSP16, literal(-1)))
          CFI (cfiCond326) CFA_XSP16 add(XSP16, 19)
          CFI Block cfiPicker327 Using cfiCommon1
          CFI (cfiPicker327) NoFunction
          CFI (cfiPicker327) Picker
        MOV     DPL,?XSP + 0
        MOV     DPH,?XSP + 1
          CFI EndBlock cfiCond325
          CFI EndBlock cfiCond326
          CFI EndBlock cfiPicker327
        REQUIRE ??Subroutine67_0
        ; // Fall through to label ??Subroutine67_0

        RSEG NEAR_CODE:CODE:NOROOT(0)
??Subroutine67_0:
          CFI Block cfiCond328 Using cfiCommon0
          CFI Function shell_tab
          CFI Conditional ??CrossCallReturnLabel_161
          CFI R6 load(1, XDATA, add(CFA_XSP16, literal(-15)))
          CFI VB load(1, XDATA, add(CFA_XSP16, literal(-14)))
          CFI V0 load(1, XDATA, add(CFA_XSP16, literal(-13)))
          CFI V1 load(1, XDATA, add(CFA_XSP16, literal(-12)))
          CFI V2 load(1, XDATA, add(CFA_XSP16, literal(-11)))
          CFI V3 load(1, XDATA, add(CFA_XSP16, literal(-10)))
          CFI V4 load(1, XDATA, add(CFA_XSP16, literal(-9)))
          CFI V5 load(1, XDATA, add(CFA_XSP16, literal(-8)))
          CFI V6 load(1, XDATA, add(CFA_XSP16, literal(-7)))
          CFI V7 load(1, XDATA, add(CFA_XSP16, literal(-6)))
          CFI R7 load(1, XDATA, add(CFA_XSP16, literal(-5)))
          CFI ?RET_LOW load(1, XDATA, add(CFA_XSP16, literal(-4)))
          CFI ?RET_HIGH load(1, XDATA, add(CFA_XSP16, literal(-3)))
          CFI DPL0 load(1, XDATA, add(CFA_XSP16, literal(-2)))
          CFI DPH0 load(1, XDATA, add(CFA_XSP16, literal(-1)))
          CFI CFA_XSP16 add(XSP16, 45)
          CFI Block cfiCond329 Using cfiCommon0
          CFI (cfiCond329) Function shell_input_init
          CFI (cfiCond329) Conditional ??CrossCallReturnLabel_162
          CFI (cfiCond329) R6 load(1, XDATA, add(CFA_XSP16, literal(-15)))
          CFI (cfiCond329) VB load(1, XDATA, add(CFA_XSP16, literal(-14)))
          CFI (cfiCond329) V0 load(1, XDATA, add(CFA_XSP16, literal(-13)))
          CFI (cfiCond329) V1 load(1, XDATA, add(CFA_XSP16, literal(-12)))
          CFI (cfiCond329) V2 load(1, XDATA, add(CFA_XSP16, literal(-11)))
          CFI (cfiCond329) V3 load(1, XDATA, add(CFA_XSP16, literal(-10)))
          CFI (cfiCond329) V4 load(1, XDATA, add(CFA_XSP16, literal(-9)))
          CFI (cfiCond329) V5 load(1, XDATA, add(CFA_XSP16, literal(-8)))
          CFI (cfiCond329) V6 load(1, XDATA, add(CFA_XSP16, literal(-7)))
          CFI (cfiCond329) V7 load(1, XDATA, add(CFA_XSP16, literal(-6)))
          CFI (cfiCond329) R7 load(1, XDATA, add(CFA_XSP16, literal(-5)))
          CFI (cfiCond329) ?RET_LOW load(1, XDATA, add(CFA_XSP16, literal(-4)))
          CFI (cfiCond329) ?RET_HIGH load(1, XDATA, add(CFA_XSP16, literal(-3)))
          CFI (cfiCond329) DPL0 load(1, XDATA, add(CFA_XSP16, literal(-2)))
          CFI (cfiCond329) DPH0 load(1, XDATA, add(CFA_XSP16, literal(-1)))
          CFI (cfiCond329) CFA_XSP16 add(XSP16, 19)
          CFI Block cfiCond330 Using cfiCommon0
          CFI (cfiCond330) Function shell_input_init
          CFI (cfiCond330) Conditional ??CrossCallReturnLabel_163
          CFI (cfiCond330) R6 load(1, XDATA, add(CFA_XSP16, literal(-15)))
          CFI (cfiCond330) VB load(1, XDATA, add(CFA_XSP16, literal(-14)))
          CFI (cfiCond330) V0 load(1, XDATA, add(CFA_XSP16, literal(-13)))
          CFI (cfiCond330) V1 load(1, XDATA, add(CFA_XSP16, literal(-12)))
          CFI (cfiCond330) V2 load(1, XDATA, add(CFA_XSP16, literal(-11)))
          CFI (cfiCond330) V3 load(1, XDATA, add(CFA_XSP16, literal(-10)))
          CFI (cfiCond330) V4 load(1, XDATA, add(CFA_XSP16, literal(-9)))
          CFI (cfiCond330) V5 load(1, XDATA, add(CFA_XSP16, literal(-8)))
          CFI (cfiCond330) V6 load(1, XDATA, add(CFA_XSP16, literal(-7)))
          CFI (cfiCond330) V7 load(1, XDATA, add(CFA_XSP16, literal(-6)))
          CFI (cfiCond330) R7 load(1, XDATA, add(CFA_XSP16, literal(-5)))
          CFI (cfiCond330) ?RET_LOW load(1, XDATA, add(CFA_XSP16, literal(-4)))
          CFI (cfiCond330) ?RET_HIGH load(1, XDATA, add(CFA_XSP16, literal(-3)))
          CFI (cfiCond330) DPL0 load(1, XDATA, add(CFA_XSP16, literal(-2)))
          CFI (cfiCond330) DPH0 load(1, XDATA, add(CFA_XSP16, literal(-1)))
          CFI (cfiCond330) CFA_XSP16 add(XSP16, 19)
          CFI Block cfiPicker331 Using cfiCommon1
          CFI (cfiPicker331) NoFunction
          CFI (cfiPicker331) Picker
        LCALL   ?Subroutine44
??CrossCallReturnLabel_167:
        RET
          CFI EndBlock cfiCond328
          CFI EndBlock cfiCond329
          CFI EndBlock cfiCond330
          CFI EndBlock cfiPicker331

        RSEG NEAR_CODE:CODE:NOROOT(0)
?Subroutine5:
          CFI Block cfiCond332 Using cfiCommon0
          CFI Function shell_parse
          CFI Conditional ??CrossCallReturnLabel_5
          CFI R6 load(1, XDATA, add(CFA_XSP16, literal(-15)))
          CFI VB load(1, XDATA, add(CFA_XSP16, literal(-14)))
          CFI V0 load(1, XDATA, add(CFA_XSP16, literal(-13)))
          CFI V1 load(1, XDATA, add(CFA_XSP16, literal(-12)))
          CFI V2 load(1, XDATA, add(CFA_XSP16, literal(-11)))
          CFI V3 load(1, XDATA, add(CFA_XSP16, literal(-10)))
          CFI V4 load(1, XDATA, add(CFA_XSP16, literal(-9)))
          CFI V5 load(1, XDATA, add(CFA_XSP16, literal(-8)))
          CFI V6 load(1, XDATA, add(CFA_XSP16, literal(-7)))
          CFI V7 load(1, XDATA, add(CFA_XSP16, literal(-6)))
          CFI R7 load(1, XDATA, add(CFA_XSP16, literal(-5)))
          CFI ?RET_LOW load(1, XDATA, add(CFA_XSP16, literal(-4)))
          CFI ?RET_HIGH load(1, XDATA, add(CFA_XSP16, literal(-3)))
          CFI DPL0 load(1, XDATA, add(CFA_XSP16, literal(-2)))
          CFI DPH0 load(1, XDATA, add(CFA_XSP16, literal(-1)))
          CFI CFA_XSP16 add(XSP16, 43)
          CFI Block cfiCond333 Using cfiCommon0
          CFI (cfiCond333) Function shell_input_init
          CFI (cfiCond333) Conditional ??CrossCallReturnLabel_6
          CFI (cfiCond333) R6 load(1, XDATA, add(CFA_XSP16, literal(-15)))
          CFI (cfiCond333) VB load(1, XDATA, add(CFA_XSP16, literal(-14)))
          CFI (cfiCond333) V0 load(1, XDATA, add(CFA_XSP16, literal(-13)))
          CFI (cfiCond333) V1 load(1, XDATA, add(CFA_XSP16, literal(-12)))
          CFI (cfiCond333) V2 load(1, XDATA, add(CFA_XSP16, literal(-11)))
          CFI (cfiCond333) V3 load(1, XDATA, add(CFA_XSP16, literal(-10)))
          CFI (cfiCond333) V4 load(1, XDATA, add(CFA_XSP16, literal(-9)))
          CFI (cfiCond333) V5 load(1, XDATA, add(CFA_XSP16, literal(-8)))
          CFI (cfiCond333) V6 load(1, XDATA, add(CFA_XSP16, literal(-7)))
          CFI (cfiCond333) V7 load(1, XDATA, add(CFA_XSP16, literal(-6)))
          CFI (cfiCond333) R7 load(1, XDATA, add(CFA_XSP16, literal(-5)))
          CFI (cfiCond333) ?RET_LOW load(1, XDATA, add(CFA_XSP16, literal(-4)))
          CFI (cfiCond333) ?RET_HIGH load(1, XDATA, add(CFA_XSP16, literal(-3)))
          CFI (cfiCond333) DPL0 load(1, XDATA, add(CFA_XSP16, literal(-2)))
          CFI (cfiCond333) DPH0 load(1, XDATA, add(CFA_XSP16, literal(-1)))
          CFI (cfiCond333) CFA_XSP16 add(XSP16, 19)
          CFI Block cfiPicker334 Using cfiCommon1
          CFI (cfiPicker334) NoFunction
          CFI (cfiPicker334) Picker
        MOVX    @DPTR,A
        INC     DPTR
        MOV     A,R1
        MOVX    @DPTR,A
        MOV     DPL,?XSP + 0
        MOV     DPH,?XSP + 1
        LCALL   ?Subroutine44
??CrossCallReturnLabel_164:
        RET
          CFI EndBlock cfiCond332
          CFI EndBlock cfiCond333
          CFI EndBlock cfiPicker334

        RSEG NEAR_CODE:CODE:NOROOT(0)
?Subroutine44:
          CFI Block cfiCond335 Using cfiCommon0
          CFI Function checkout
          CFI Conditional ??CrossCallReturnLabel_166, ??CrossCallReturnLabel_87
          CFI R6 load(1, XDATA, add(CFA_XSP16, literal(-15)))
          CFI VB load(1, XDATA, add(CFA_XSP16, literal(-14)))
          CFI V0 load(1, XDATA, add(CFA_XSP16, literal(-13)))
          CFI V1 load(1, XDATA, add(CFA_XSP16, literal(-12)))
          CFI V2 load(1, XDATA, add(CFA_XSP16, literal(-11)))
          CFI V3 load(1, XDATA, add(CFA_XSP16, literal(-10)))
          CFI V4 load(1, XDATA, add(CFA_XSP16, literal(-9)))
          CFI V5 load(1, XDATA, add(CFA_XSP16, literal(-8)))
          CFI V6 load(1, XDATA, add(CFA_XSP16, literal(-7)))
          CFI V7 load(1, XDATA, add(CFA_XSP16, literal(-6)))
          CFI R7 load(1, XDATA, add(CFA_XSP16, literal(-5)))
          CFI ?RET_LOW load(1, XDATA, add(CFA_XSP16, literal(-4)))
          CFI ?RET_HIGH load(1, XDATA, add(CFA_XSP16, literal(-3)))
          CFI DPL0 load(1, XDATA, add(CFA_XSP16, literal(-2)))
          CFI DPH0 load(1, XDATA, add(CFA_XSP16, literal(-1)))
          CFI CFA_SP SP+-4
          CFI CFA_XSP16 add(XSP16, 27)
          CFI Block cfiCond336 Using cfiCommon0
          CFI (cfiCond336) Function shell_parse
          CFI (cfiCond336) Conditional ??CrossCallReturnLabel_166, ??CrossCallReturnLabel_88
          CFI (cfiCond336) R6 load(1, XDATA, add(CFA_XSP16, literal(-15)))
          CFI (cfiCond336) VB load(1, XDATA, add(CFA_XSP16, literal(-14)))
          CFI (cfiCond336) V0 load(1, XDATA, add(CFA_XSP16, literal(-13)))
          CFI (cfiCond336) V1 load(1, XDATA, add(CFA_XSP16, literal(-12)))
          CFI (cfiCond336) V2 load(1, XDATA, add(CFA_XSP16, literal(-11)))
          CFI (cfiCond336) V3 load(1, XDATA, add(CFA_XSP16, literal(-10)))
          CFI (cfiCond336) V4 load(1, XDATA, add(CFA_XSP16, literal(-9)))
          CFI (cfiCond336) V5 load(1, XDATA, add(CFA_XSP16, literal(-8)))
          CFI (cfiCond336) V6 load(1, XDATA, add(CFA_XSP16, literal(-7)))
          CFI (cfiCond336) V7 load(1, XDATA, add(CFA_XSP16, literal(-6)))
          CFI (cfiCond336) R7 load(1, XDATA, add(CFA_XSP16, literal(-5)))
          CFI (cfiCond336) ?RET_LOW load(1, XDATA, add(CFA_XSP16, literal(-4)))
          CFI (cfiCond336) ?RET_HIGH load(1, XDATA, add(CFA_XSP16, literal(-3)))
          CFI (cfiCond336) DPL0 load(1, XDATA, add(CFA_XSP16, literal(-2)))
          CFI (cfiCond336) DPH0 load(1, XDATA, add(CFA_XSP16, literal(-1)))
          CFI (cfiCond336) CFA_SP SP+-4
          CFI (cfiCond336) CFA_XSP16 add(XSP16, 43)
          CFI Block cfiCond337 Using cfiCommon0
          CFI (cfiCond337) Function shell_tab
          CFI (cfiCond337) Conditional ??CrossCallReturnLabel_166, ??CrossCallReturnLabel_85
          CFI (cfiCond337) R6 load(1, XDATA, add(CFA_XSP16, literal(-15)))
          CFI (cfiCond337) VB load(1, XDATA, add(CFA_XSP16, literal(-14)))
          CFI (cfiCond337) V0 load(1, XDATA, add(CFA_XSP16, literal(-13)))
          CFI (cfiCond337) V1 load(1, XDATA, add(CFA_XSP16, literal(-12)))
          CFI (cfiCond337) V2 load(1, XDATA, add(CFA_XSP16, literal(-11)))
          CFI (cfiCond337) V3 load(1, XDATA, add(CFA_XSP16, literal(-10)))
          CFI (cfiCond337) V4 load(1, XDATA, add(CFA_XSP16, literal(-9)))
          CFI (cfiCond337) V5 load(1, XDATA, add(CFA_XSP16, literal(-8)))
          CFI (cfiCond337) V6 load(1, XDATA, add(CFA_XSP16, literal(-7)))
          CFI (cfiCond337) V7 load(1, XDATA, add(CFA_XSP16, literal(-6)))
          CFI (cfiCond337) R7 load(1, XDATA, add(CFA_XSP16, literal(-5)))
          CFI (cfiCond337) ?RET_LOW load(1, XDATA, add(CFA_XSP16, literal(-4)))
          CFI (cfiCond337) ?RET_HIGH load(1, XDATA, add(CFA_XSP16, literal(-3)))
          CFI (cfiCond337) DPL0 load(1, XDATA, add(CFA_XSP16, literal(-2)))
          CFI (cfiCond337) DPH0 load(1, XDATA, add(CFA_XSP16, literal(-1)))
          CFI (cfiCond337) CFA_SP SP+-4
          CFI (cfiCond337) CFA_XSP16 add(XSP16, 45)
          CFI Block cfiCond338 Using cfiCommon0
          CFI (cfiCond338) Function _shell_register
          CFI (cfiCond338) Conditional ??CrossCallReturnLabel_166, ??CrossCallReturnLabel_86
          CFI (cfiCond338) R6 load(1, XDATA, add(CFA_XSP16, literal(-15)))
          CFI (cfiCond338) VB load(1, XDATA, add(CFA_XSP16, literal(-14)))
          CFI (cfiCond338) V0 load(1, XDATA, add(CFA_XSP16, literal(-13)))
          CFI (cfiCond338) V1 load(1, XDATA, add(CFA_XSP16, literal(-12)))
          CFI (cfiCond338) V2 load(1, XDATA, add(CFA_XSP16, literal(-11)))
          CFI (cfiCond338) V3 load(1, XDATA, add(CFA_XSP16, literal(-10)))
          CFI (cfiCond338) V4 load(1, XDATA, add(CFA_XSP16, literal(-9)))
          CFI (cfiCond338) V5 load(1, XDATA, add(CFA_XSP16, literal(-8)))
          CFI (cfiCond338) V6 load(1, XDATA, add(CFA_XSP16, literal(-7)))
          CFI (cfiCond338) V7 load(1, XDATA, add(CFA_XSP16, literal(-6)))
          CFI (cfiCond338) R7 load(1, XDATA, add(CFA_XSP16, literal(-5)))
          CFI (cfiCond338) ?RET_LOW load(1, XDATA, add(CFA_XSP16, literal(-4)))
          CFI (cfiCond338) ?RET_HIGH load(1, XDATA, add(CFA_XSP16, literal(-3)))
          CFI (cfiCond338) DPL0 load(1, XDATA, add(CFA_XSP16, literal(-2)))
          CFI (cfiCond338) DPH0 load(1, XDATA, add(CFA_XSP16, literal(-1)))
          CFI (cfiCond338) CFA_SP SP+-4
          CFI (cfiCond338) CFA_XSP16 add(XSP16, 37)
          CFI Block cfiCond339 Using cfiCommon0
          CFI (cfiCond339) Function shell_tab
          CFI (cfiCond339) Conditional ??CrossCallReturnLabel_165, ??CrossCallReturnLabel_29
          CFI (cfiCond339) R6 load(1, XDATA, add(CFA_XSP16, literal(-15)))
          CFI (cfiCond339) VB load(1, XDATA, add(CFA_XSP16, literal(-14)))
          CFI (cfiCond339) V0 load(1, XDATA, add(CFA_XSP16, literal(-13)))
          CFI (cfiCond339) V1 load(1, XDATA, add(CFA_XSP16, literal(-12)))
          CFI (cfiCond339) V2 load(1, XDATA, add(CFA_XSP16, literal(-11)))
          CFI (cfiCond339) V3 load(1, XDATA, add(CFA_XSP16, literal(-10)))
          CFI (cfiCond339) V4 load(1, XDATA, add(CFA_XSP16, literal(-9)))
          CFI (cfiCond339) V5 load(1, XDATA, add(CFA_XSP16, literal(-8)))
          CFI (cfiCond339) V6 load(1, XDATA, add(CFA_XSP16, literal(-7)))
          CFI (cfiCond339) V7 load(1, XDATA, add(CFA_XSP16, literal(-6)))
          CFI (cfiCond339) R7 load(1, XDATA, add(CFA_XSP16, literal(-5)))
          CFI (cfiCond339) ?RET_LOW load(1, XDATA, add(CFA_XSP16, literal(-4)))
          CFI (cfiCond339) ?RET_HIGH load(1, XDATA, add(CFA_XSP16, literal(-3)))
          CFI (cfiCond339) DPL0 load(1, XDATA, add(CFA_XSP16, literal(-2)))
          CFI (cfiCond339) DPH0 load(1, XDATA, add(CFA_XSP16, literal(-1)))
          CFI (cfiCond339) CFA_SP SP+-4
          CFI (cfiCond339) CFA_XSP16 add(XSP16, 45)
          CFI Block cfiCond340 Using cfiCommon0
          CFI (cfiCond340) Function _shell_register
          CFI (cfiCond340) Conditional ??CrossCallReturnLabel_165, ??CrossCallReturnLabel_30
          CFI (cfiCond340) R6 load(1, XDATA, add(CFA_XSP16, literal(-15)))
          CFI (cfiCond340) VB load(1, XDATA, add(CFA_XSP16, literal(-14)))
          CFI (cfiCond340) V0 load(1, XDATA, add(CFA_XSP16, literal(-13)))
          CFI (cfiCond340) V1 load(1, XDATA, add(CFA_XSP16, literal(-12)))
          CFI (cfiCond340) V2 load(1, XDATA, add(CFA_XSP16, literal(-11)))
          CFI (cfiCond340) V3 load(1, XDATA, add(CFA_XSP16, literal(-10)))
          CFI (cfiCond340) V4 load(1, XDATA, add(CFA_XSP16, literal(-9)))
          CFI (cfiCond340) V5 load(1, XDATA, add(CFA_XSP16, literal(-8)))
          CFI (cfiCond340) V6 load(1, XDATA, add(CFA_XSP16, literal(-7)))
          CFI (cfiCond340) V7 load(1, XDATA, add(CFA_XSP16, literal(-6)))
          CFI (cfiCond340) R7 load(1, XDATA, add(CFA_XSP16, literal(-5)))
          CFI (cfiCond340) ?RET_LOW load(1, XDATA, add(CFA_XSP16, literal(-4)))
          CFI (cfiCond340) ?RET_HIGH load(1, XDATA, add(CFA_XSP16, literal(-3)))
          CFI (cfiCond340) DPL0 load(1, XDATA, add(CFA_XSP16, literal(-2)))
          CFI (cfiCond340) DPH0 load(1, XDATA, add(CFA_XSP16, literal(-1)))
          CFI (cfiCond340) CFA_SP SP+-4
          CFI (cfiCond340) CFA_XSP16 add(XSP16, 37)
          CFI Block cfiCond341 Using cfiCommon0
          CFI (cfiCond341) Function shell_input_init
          CFI (cfiCond341) Conditional ??CrossCallReturnLabel_165, ??CrossCallReturnLabel_31
          CFI (cfiCond341) R6 load(1, XDATA, add(CFA_XSP16, literal(-15)))
          CFI (cfiCond341) VB load(1, XDATA, add(CFA_XSP16, literal(-14)))
          CFI (cfiCond341) V0 load(1, XDATA, add(CFA_XSP16, literal(-13)))
          CFI (cfiCond341) V1 load(1, XDATA, add(CFA_XSP16, literal(-12)))
          CFI (cfiCond341) V2 load(1, XDATA, add(CFA_XSP16, literal(-11)))
          CFI (cfiCond341) V3 load(1, XDATA, add(CFA_XSP16, literal(-10)))
          CFI (cfiCond341) V4 load(1, XDATA, add(CFA_XSP16, literal(-9)))
          CFI (cfiCond341) V5 load(1, XDATA, add(CFA_XSP16, literal(-8)))
          CFI (cfiCond341) V6 load(1, XDATA, add(CFA_XSP16, literal(-7)))
          CFI (cfiCond341) V7 load(1, XDATA, add(CFA_XSP16, literal(-6)))
          CFI (cfiCond341) R7 load(1, XDATA, add(CFA_XSP16, literal(-5)))
          CFI (cfiCond341) ?RET_LOW load(1, XDATA, add(CFA_XSP16, literal(-4)))
          CFI (cfiCond341) ?RET_HIGH load(1, XDATA, add(CFA_XSP16, literal(-3)))
          CFI (cfiCond341) DPL0 load(1, XDATA, add(CFA_XSP16, literal(-2)))
          CFI (cfiCond341) DPH0 load(1, XDATA, add(CFA_XSP16, literal(-1)))
          CFI (cfiCond341) CFA_SP SP+-4
          CFI (cfiCond341) CFA_XSP16 add(XSP16, 19)
          CFI Block cfiCond342 Using cfiCommon0
          CFI (cfiCond342) Function shell_input_init
          CFI (cfiCond342) Conditional ??CrossCallReturnLabel_167, ??CrossCallReturnLabel_162
          CFI (cfiCond342) R6 load(1, XDATA, add(CFA_XSP16, literal(-15)))
          CFI (cfiCond342) VB load(1, XDATA, add(CFA_XSP16, literal(-14)))
          CFI (cfiCond342) V0 load(1, XDATA, add(CFA_XSP16, literal(-13)))
          CFI (cfiCond342) V1 load(1, XDATA, add(CFA_XSP16, literal(-12)))
          CFI (cfiCond342) V2 load(1, XDATA, add(CFA_XSP16, literal(-11)))
          CFI (cfiCond342) V3 load(1, XDATA, add(CFA_XSP16, literal(-10)))
          CFI (cfiCond342) V4 load(1, XDATA, add(CFA_XSP16, literal(-9)))
          CFI (cfiCond342) V5 load(1, XDATA, add(CFA_XSP16, literal(-8)))
          CFI (cfiCond342) V6 load(1, XDATA, add(CFA_XSP16, literal(-7)))
          CFI (cfiCond342) V7 load(1, XDATA, add(CFA_XSP16, literal(-6)))
          CFI (cfiCond342) R7 load(1, XDATA, add(CFA_XSP16, literal(-5)))
          CFI (cfiCond342) ?RET_LOW load(1, XDATA, add(CFA_XSP16, literal(-4)))
          CFI (cfiCond342) ?RET_HIGH load(1, XDATA, add(CFA_XSP16, literal(-3)))
          CFI (cfiCond342) DPL0 load(1, XDATA, add(CFA_XSP16, literal(-2)))
          CFI (cfiCond342) DPH0 load(1, XDATA, add(CFA_XSP16, literal(-1)))
          CFI (cfiCond342) CFA_SP SP+-4
          CFI (cfiCond342) CFA_XSP16 add(XSP16, 19)
          CFI Block cfiCond343 Using cfiCommon0
          CFI (cfiCond343) Function shell_input_init
          CFI (cfiCond343) Conditional ??CrossCallReturnLabel_167, ??CrossCallReturnLabel_163
          CFI (cfiCond343) R6 load(1, XDATA, add(CFA_XSP16, literal(-15)))
          CFI (cfiCond343) VB load(1, XDATA, add(CFA_XSP16, literal(-14)))
          CFI (cfiCond343) V0 load(1, XDATA, add(CFA_XSP16, literal(-13)))
          CFI (cfiCond343) V1 load(1, XDATA, add(CFA_XSP16, literal(-12)))
          CFI (cfiCond343) V2 load(1, XDATA, add(CFA_XSP16, literal(-11)))
          CFI (cfiCond343) V3 load(1, XDATA, add(CFA_XSP16, literal(-10)))
          CFI (cfiCond343) V4 load(1, XDATA, add(CFA_XSP16, literal(-9)))
          CFI (cfiCond343) V5 load(1, XDATA, add(CFA_XSP16, literal(-8)))
          CFI (cfiCond343) V6 load(1, XDATA, add(CFA_XSP16, literal(-7)))
          CFI (cfiCond343) V7 load(1, XDATA, add(CFA_XSP16, literal(-6)))
          CFI (cfiCond343) R7 load(1, XDATA, add(CFA_XSP16, literal(-5)))
          CFI (cfiCond343) ?RET_LOW load(1, XDATA, add(CFA_XSP16, literal(-4)))
          CFI (cfiCond343) ?RET_HIGH load(1, XDATA, add(CFA_XSP16, literal(-3)))
          CFI (cfiCond343) DPL0 load(1, XDATA, add(CFA_XSP16, literal(-2)))
          CFI (cfiCond343) DPH0 load(1, XDATA, add(CFA_XSP16, literal(-1)))
          CFI (cfiCond343) CFA_SP SP+-4
          CFI (cfiCond343) CFA_XSP16 add(XSP16, 19)
          CFI Block cfiCond344 Using cfiCommon0
          CFI (cfiCond344) Function shell_tab
          CFI (cfiCond344) Conditional ??CrossCallReturnLabel_167, ??CrossCallReturnLabel_161
          CFI (cfiCond344) R6 load(1, XDATA, add(CFA_XSP16, literal(-15)))
          CFI (cfiCond344) VB load(1, XDATA, add(CFA_XSP16, literal(-14)))
          CFI (cfiCond344) V0 load(1, XDATA, add(CFA_XSP16, literal(-13)))
          CFI (cfiCond344) V1 load(1, XDATA, add(CFA_XSP16, literal(-12)))
          CFI (cfiCond344) V2 load(1, XDATA, add(CFA_XSP16, literal(-11)))
          CFI (cfiCond344) V3 load(1, XDATA, add(CFA_XSP16, literal(-10)))
          CFI (cfiCond344) V4 load(1, XDATA, add(CFA_XSP16, literal(-9)))
          CFI (cfiCond344) V5 load(1, XDATA, add(CFA_XSP16, literal(-8)))
          CFI (cfiCond344) V6 load(1, XDATA, add(CFA_XSP16, literal(-7)))
          CFI (cfiCond344) V7 load(1, XDATA, add(CFA_XSP16, literal(-6)))
          CFI (cfiCond344) R7 load(1, XDATA, add(CFA_XSP16, literal(-5)))
          CFI (cfiCond344) ?RET_LOW load(1, XDATA, add(CFA_XSP16, literal(-4)))
          CFI (cfiCond344) ?RET_HIGH load(1, XDATA, add(CFA_XSP16, literal(-3)))
          CFI (cfiCond344) DPL0 load(1, XDATA, add(CFA_XSP16, literal(-2)))
          CFI (cfiCond344) DPH0 load(1, XDATA, add(CFA_XSP16, literal(-1)))
          CFI (cfiCond344) CFA_SP SP+-4
          CFI (cfiCond344) CFA_XSP16 add(XSP16, 45)
          CFI Block cfiCond345 Using cfiCommon0
          CFI (cfiCond345) Function shell_parse
          CFI (cfiCond345) Conditional ??CrossCallReturnLabel_164, ??CrossCallReturnLabel_5
          CFI (cfiCond345) R6 load(1, XDATA, add(CFA_XSP16, literal(-15)))
          CFI (cfiCond345) VB load(1, XDATA, add(CFA_XSP16, literal(-14)))
          CFI (cfiCond345) V0 load(1, XDATA, add(CFA_XSP16, literal(-13)))
          CFI (cfiCond345) V1 load(1, XDATA, add(CFA_XSP16, literal(-12)))
          CFI (cfiCond345) V2 load(1, XDATA, add(CFA_XSP16, literal(-11)))
          CFI (cfiCond345) V3 load(1, XDATA, add(CFA_XSP16, literal(-10)))
          CFI (cfiCond345) V4 load(1, XDATA, add(CFA_XSP16, literal(-9)))
          CFI (cfiCond345) V5 load(1, XDATA, add(CFA_XSP16, literal(-8)))
          CFI (cfiCond345) V6 load(1, XDATA, add(CFA_XSP16, literal(-7)))
          CFI (cfiCond345) V7 load(1, XDATA, add(CFA_XSP16, literal(-6)))
          CFI (cfiCond345) R7 load(1, XDATA, add(CFA_XSP16, literal(-5)))
          CFI (cfiCond345) ?RET_LOW load(1, XDATA, add(CFA_XSP16, literal(-4)))
          CFI (cfiCond345) ?RET_HIGH load(1, XDATA, add(CFA_XSP16, literal(-3)))
          CFI (cfiCond345) DPL0 load(1, XDATA, add(CFA_XSP16, literal(-2)))
          CFI (cfiCond345) DPH0 load(1, XDATA, add(CFA_XSP16, literal(-1)))
          CFI (cfiCond345) CFA_SP SP+-4
          CFI (cfiCond345) CFA_XSP16 add(XSP16, 43)
          CFI Block cfiCond346 Using cfiCommon0
          CFI (cfiCond346) Function shell_input_init
          CFI (cfiCond346) Conditional ??CrossCallReturnLabel_164, ??CrossCallReturnLabel_6
          CFI (cfiCond346) R6 load(1, XDATA, add(CFA_XSP16, literal(-15)))
          CFI (cfiCond346) VB load(1, XDATA, add(CFA_XSP16, literal(-14)))
          CFI (cfiCond346) V0 load(1, XDATA, add(CFA_XSP16, literal(-13)))
          CFI (cfiCond346) V1 load(1, XDATA, add(CFA_XSP16, literal(-12)))
          CFI (cfiCond346) V2 load(1, XDATA, add(CFA_XSP16, literal(-11)))
          CFI (cfiCond346) V3 load(1, XDATA, add(CFA_XSP16, literal(-10)))
          CFI (cfiCond346) V4 load(1, XDATA, add(CFA_XSP16, literal(-9)))
          CFI (cfiCond346) V5 load(1, XDATA, add(CFA_XSP16, literal(-8)))
          CFI (cfiCond346) V6 load(1, XDATA, add(CFA_XSP16, literal(-7)))
          CFI (cfiCond346) V7 load(1, XDATA, add(CFA_XSP16, literal(-6)))
          CFI (cfiCond346) R7 load(1, XDATA, add(CFA_XSP16, literal(-5)))
          CFI (cfiCond346) ?RET_LOW load(1, XDATA, add(CFA_XSP16, literal(-4)))
          CFI (cfiCond346) ?RET_HIGH load(1, XDATA, add(CFA_XSP16, literal(-3)))
          CFI (cfiCond346) DPL0 load(1, XDATA, add(CFA_XSP16, literal(-2)))
          CFI (cfiCond346) DPH0 load(1, XDATA, add(CFA_XSP16, literal(-1)))
          CFI (cfiCond346) CFA_SP SP+-4
          CFI (cfiCond346) CFA_XSP16 add(XSP16, 19)
          CFI Block cfiPicker347 Using cfiCommon1
          CFI (cfiPicker347) NoFunction
          CFI (cfiPicker347) Picker
        LCALL   ?Subroutine49
??CrossCallReturnLabel_169:
        MOVX    A,@DPTR
        RET
          CFI EndBlock cfiCond335
          CFI EndBlock cfiCond336
          CFI EndBlock cfiCond337
          CFI EndBlock cfiCond338
          CFI EndBlock cfiCond339
          CFI EndBlock cfiCond340
          CFI EndBlock cfiCond341
          CFI EndBlock cfiCond342
          CFI EndBlock cfiCond343
          CFI EndBlock cfiCond344
          CFI EndBlock cfiCond345
          CFI EndBlock cfiCond346
          CFI EndBlock cfiPicker347

        RSEG NEAR_CODE:CODE:NOROOT(0)
?Subroutine49:
          CFI Block cfiCond348 Using cfiCommon0
          CFI Function shell_tab
          CFI Conditional ??CrossCallReturnLabel_168, ??CrossCallReturnLabel_25
          CFI R6 load(1, XDATA, add(CFA_XSP16, literal(-15)))
          CFI VB load(1, XDATA, add(CFA_XSP16, literal(-14)))
          CFI V0 load(1, XDATA, add(CFA_XSP16, literal(-13)))
          CFI V1 load(1, XDATA, add(CFA_XSP16, literal(-12)))
          CFI V2 load(1, XDATA, add(CFA_XSP16, literal(-11)))
          CFI V3 load(1, XDATA, add(CFA_XSP16, literal(-10)))
          CFI V4 load(1, XDATA, add(CFA_XSP16, literal(-9)))
          CFI V5 load(1, XDATA, add(CFA_XSP16, literal(-8)))
          CFI V6 load(1, XDATA, add(CFA_XSP16, literal(-7)))
          CFI V7 load(1, XDATA, add(CFA_XSP16, literal(-6)))
          CFI R7 load(1, XDATA, add(CFA_XSP16, literal(-5)))
          CFI ?RET_LOW load(1, XDATA, add(CFA_XSP16, literal(-4)))
          CFI ?RET_HIGH load(1, XDATA, add(CFA_XSP16, literal(-3)))
          CFI DPL0 load(1, XDATA, add(CFA_XSP16, literal(-2)))
          CFI DPH0 load(1, XDATA, add(CFA_XSP16, literal(-1)))
          CFI CFA_SP SP+-4
          CFI CFA_XSP16 add(XSP16, 45)
          CFI Block cfiCond349 Using cfiCommon0
          CFI (cfiCond349) Function shell_tab
          CFI (cfiCond349) Conditional ??CrossCallReturnLabel_168, ??CrossCallReturnLabel_26
          CFI (cfiCond349) R6 load(1, XDATA, add(CFA_XSP16, literal(-15)))
          CFI (cfiCond349) VB load(1, XDATA, add(CFA_XSP16, literal(-14)))
          CFI (cfiCond349) V0 load(1, XDATA, add(CFA_XSP16, literal(-13)))
          CFI (cfiCond349) V1 load(1, XDATA, add(CFA_XSP16, literal(-12)))
          CFI (cfiCond349) V2 load(1, XDATA, add(CFA_XSP16, literal(-11)))
          CFI (cfiCond349) V3 load(1, XDATA, add(CFA_XSP16, literal(-10)))
          CFI (cfiCond349) V4 load(1, XDATA, add(CFA_XSP16, literal(-9)))
          CFI (cfiCond349) V5 load(1, XDATA, add(CFA_XSP16, literal(-8)))
          CFI (cfiCond349) V6 load(1, XDATA, add(CFA_XSP16, literal(-7)))
          CFI (cfiCond349) V7 load(1, XDATA, add(CFA_XSP16, literal(-6)))
          CFI (cfiCond349) R7 load(1, XDATA, add(CFA_XSP16, literal(-5)))
          CFI (cfiCond349) ?RET_LOW load(1, XDATA, add(CFA_XSP16, literal(-4)))
          CFI (cfiCond349) ?RET_HIGH load(1, XDATA, add(CFA_XSP16, literal(-3)))
          CFI (cfiCond349) DPL0 load(1, XDATA, add(CFA_XSP16, literal(-2)))
          CFI (cfiCond349) DPH0 load(1, XDATA, add(CFA_XSP16, literal(-1)))
          CFI (cfiCond349) CFA_SP SP+-4
          CFI (cfiCond349) CFA_XSP16 add(XSP16, 45)
          CFI Block cfiCond350 Using cfiCommon0
          CFI (cfiCond350) Function checkout
          CFI (cfiCond350) Conditional ??CrossCallReturnLabel_169, ??CrossCallReturnLabel_166, ??CrossCallReturnLabel_87
          CFI (cfiCond350) R6 load(1, XDATA, add(CFA_XSP16, literal(-15)))
          CFI (cfiCond350) VB load(1, XDATA, add(CFA_XSP16, literal(-14)))
          CFI (cfiCond350) V0 load(1, XDATA, add(CFA_XSP16, literal(-13)))
          CFI (cfiCond350) V1 load(1, XDATA, add(CFA_XSP16, literal(-12)))
          CFI (cfiCond350) V2 load(1, XDATA, add(CFA_XSP16, literal(-11)))
          CFI (cfiCond350) V3 load(1, XDATA, add(CFA_XSP16, literal(-10)))
          CFI (cfiCond350) V4 load(1, XDATA, add(CFA_XSP16, literal(-9)))
          CFI (cfiCond350) V5 load(1, XDATA, add(CFA_XSP16, literal(-8)))
          CFI (cfiCond350) V6 load(1, XDATA, add(CFA_XSP16, literal(-7)))
          CFI (cfiCond350) V7 load(1, XDATA, add(CFA_XSP16, literal(-6)))
          CFI (cfiCond350) R7 load(1, XDATA, add(CFA_XSP16, literal(-5)))
          CFI (cfiCond350) ?RET_LOW load(1, XDATA, add(CFA_XSP16, literal(-4)))
          CFI (cfiCond350) ?RET_HIGH load(1, XDATA, add(CFA_XSP16, literal(-3)))
          CFI (cfiCond350) DPL0 load(1, XDATA, add(CFA_XSP16, literal(-2)))
          CFI (cfiCond350) DPH0 load(1, XDATA, add(CFA_XSP16, literal(-1)))
          CFI (cfiCond350) CFA_SP SP+-6
          CFI (cfiCond350) CFA_XSP16 add(XSP16, 27)
          CFI Block cfiCond351 Using cfiCommon0
          CFI (cfiCond351) Function shell_parse
          CFI (cfiCond351) Conditional ??CrossCallReturnLabel_169, ??CrossCallReturnLabel_166, ??CrossCallReturnLabel_88
          CFI (cfiCond351) R6 load(1, XDATA, add(CFA_XSP16, literal(-15)))
          CFI (cfiCond351) VB load(1, XDATA, add(CFA_XSP16, literal(-14)))
          CFI (cfiCond351) V0 load(1, XDATA, add(CFA_XSP16, literal(-13)))
          CFI (cfiCond351) V1 load(1, XDATA, add(CFA_XSP16, literal(-12)))
          CFI (cfiCond351) V2 load(1, XDATA, add(CFA_XSP16, literal(-11)))
          CFI (cfiCond351) V3 load(1, XDATA, add(CFA_XSP16, literal(-10)))
          CFI (cfiCond351) V4 load(1, XDATA, add(CFA_XSP16, literal(-9)))
          CFI (cfiCond351) V5 load(1, XDATA, add(CFA_XSP16, literal(-8)))
          CFI (cfiCond351) V6 load(1, XDATA, add(CFA_XSP16, literal(-7)))
          CFI (cfiCond351) V7 load(1, XDATA, add(CFA_XSP16, literal(-6)))
          CFI (cfiCond351) R7 load(1, XDATA, add(CFA_XSP16, literal(-5)))
          CFI (cfiCond351) ?RET_LOW load(1, XDATA, add(CFA_XSP16, literal(-4)))
          CFI (cfiCond351) ?RET_HIGH load(1, XDATA, add(CFA_XSP16, literal(-3)))
          CFI (cfiCond351) DPL0 load(1, XDATA, add(CFA_XSP16, literal(-2)))
          CFI (cfiCond351) DPH0 load(1, XDATA, add(CFA_XSP16, literal(-1)))
          CFI (cfiCond351) CFA_SP SP+-6
          CFI (cfiCond351) CFA_XSP16 add(XSP16, 43)
          CFI Block cfiCond352 Using cfiCommon0
          CFI (cfiCond352) Function shell_tab
          CFI (cfiCond352) Conditional ??CrossCallReturnLabel_169, ??CrossCallReturnLabel_166, ??CrossCallReturnLabel_85
          CFI (cfiCond352) R6 load(1, XDATA, add(CFA_XSP16, literal(-15)))
          CFI (cfiCond352) VB load(1, XDATA, add(CFA_XSP16, literal(-14)))
          CFI (cfiCond352) V0 load(1, XDATA, add(CFA_XSP16, literal(-13)))
          CFI (cfiCond352) V1 load(1, XDATA, add(CFA_XSP16, literal(-12)))
          CFI (cfiCond352) V2 load(1, XDATA, add(CFA_XSP16, literal(-11)))
          CFI (cfiCond352) V3 load(1, XDATA, add(CFA_XSP16, literal(-10)))
          CFI (cfiCond352) V4 load(1, XDATA, add(CFA_XSP16, literal(-9)))
          CFI (cfiCond352) V5 load(1, XDATA, add(CFA_XSP16, literal(-8)))
          CFI (cfiCond352) V6 load(1, XDATA, add(CFA_XSP16, literal(-7)))
          CFI (cfiCond352) V7 load(1, XDATA, add(CFA_XSP16, literal(-6)))
          CFI (cfiCond352) R7 load(1, XDATA, add(CFA_XSP16, literal(-5)))
          CFI (cfiCond352) ?RET_LOW load(1, XDATA, add(CFA_XSP16, literal(-4)))
          CFI (cfiCond352) ?RET_HIGH load(1, XDATA, add(CFA_XSP16, literal(-3)))
          CFI (cfiCond352) DPL0 load(1, XDATA, add(CFA_XSP16, literal(-2)))
          CFI (cfiCond352) DPH0 load(1, XDATA, add(CFA_XSP16, literal(-1)))
          CFI (cfiCond352) CFA_SP SP+-6
          CFI (cfiCond352) CFA_XSP16 add(XSP16, 45)
          CFI Block cfiCond353 Using cfiCommon0
          CFI (cfiCond353) Function _shell_register
          CFI (cfiCond353) Conditional ??CrossCallReturnLabel_169, ??CrossCallReturnLabel_166, ??CrossCallReturnLabel_86
          CFI (cfiCond353) R6 load(1, XDATA, add(CFA_XSP16, literal(-15)))
          CFI (cfiCond353) VB load(1, XDATA, add(CFA_XSP16, literal(-14)))
          CFI (cfiCond353) V0 load(1, XDATA, add(CFA_XSP16, literal(-13)))
          CFI (cfiCond353) V1 load(1, XDATA, add(CFA_XSP16, literal(-12)))
          CFI (cfiCond353) V2 load(1, XDATA, add(CFA_XSP16, literal(-11)))
          CFI (cfiCond353) V3 load(1, XDATA, add(CFA_XSP16, literal(-10)))
          CFI (cfiCond353) V4 load(1, XDATA, add(CFA_XSP16, literal(-9)))
          CFI (cfiCond353) V5 load(1, XDATA, add(CFA_XSP16, literal(-8)))
          CFI (cfiCond353) V6 load(1, XDATA, add(CFA_XSP16, literal(-7)))
          CFI (cfiCond353) V7 load(1, XDATA, add(CFA_XSP16, literal(-6)))
          CFI (cfiCond353) R7 load(1, XDATA, add(CFA_XSP16, literal(-5)))
          CFI (cfiCond353) ?RET_LOW load(1, XDATA, add(CFA_XSP16, literal(-4)))
          CFI (cfiCond353) ?RET_HIGH load(1, XDATA, add(CFA_XSP16, literal(-3)))
          CFI (cfiCond353) DPL0 load(1, XDATA, add(CFA_XSP16, literal(-2)))
          CFI (cfiCond353) DPH0 load(1, XDATA, add(CFA_XSP16, literal(-1)))
          CFI (cfiCond353) CFA_SP SP+-6
          CFI (cfiCond353) CFA_XSP16 add(XSP16, 37)
          CFI Block cfiCond354 Using cfiCommon0
          CFI (cfiCond354) Function shell_tab
          CFI (cfiCond354) Conditional ??CrossCallReturnLabel_169, ??CrossCallReturnLabel_165, ??CrossCallReturnLabel_29
          CFI (cfiCond354) R6 load(1, XDATA, add(CFA_XSP16, literal(-15)))
          CFI (cfiCond354) VB load(1, XDATA, add(CFA_XSP16, literal(-14)))
          CFI (cfiCond354) V0 load(1, XDATA, add(CFA_XSP16, literal(-13)))
          CFI (cfiCond354) V1 load(1, XDATA, add(CFA_XSP16, literal(-12)))
          CFI (cfiCond354) V2 load(1, XDATA, add(CFA_XSP16, literal(-11)))
          CFI (cfiCond354) V3 load(1, XDATA, add(CFA_XSP16, literal(-10)))
          CFI (cfiCond354) V4 load(1, XDATA, add(CFA_XSP16, literal(-9)))
          CFI (cfiCond354) V5 load(1, XDATA, add(CFA_XSP16, literal(-8)))
          CFI (cfiCond354) V6 load(1, XDATA, add(CFA_XSP16, literal(-7)))
          CFI (cfiCond354) V7 load(1, XDATA, add(CFA_XSP16, literal(-6)))
          CFI (cfiCond354) R7 load(1, XDATA, add(CFA_XSP16, literal(-5)))
          CFI (cfiCond354) ?RET_LOW load(1, XDATA, add(CFA_XSP16, literal(-4)))
          CFI (cfiCond354) ?RET_HIGH load(1, XDATA, add(CFA_XSP16, literal(-3)))
          CFI (cfiCond354) DPL0 load(1, XDATA, add(CFA_XSP16, literal(-2)))
          CFI (cfiCond354) DPH0 load(1, XDATA, add(CFA_XSP16, literal(-1)))
          CFI (cfiCond354) CFA_SP SP+-6
          CFI (cfiCond354) CFA_XSP16 add(XSP16, 45)
          CFI Block cfiCond355 Using cfiCommon0
          CFI (cfiCond355) Function _shell_register
          CFI (cfiCond355) Conditional ??CrossCallReturnLabel_169, ??CrossCallReturnLabel_165, ??CrossCallReturnLabel_30
          CFI (cfiCond355) R6 load(1, XDATA, add(CFA_XSP16, literal(-15)))
          CFI (cfiCond355) VB load(1, XDATA, add(CFA_XSP16, literal(-14)))
          CFI (cfiCond355) V0 load(1, XDATA, add(CFA_XSP16, literal(-13)))
          CFI (cfiCond355) V1 load(1, XDATA, add(CFA_XSP16, literal(-12)))
          CFI (cfiCond355) V2 load(1, XDATA, add(CFA_XSP16, literal(-11)))
          CFI (cfiCond355) V3 load(1, XDATA, add(CFA_XSP16, literal(-10)))
          CFI (cfiCond355) V4 load(1, XDATA, add(CFA_XSP16, literal(-9)))
          CFI (cfiCond355) V5 load(1, XDATA, add(CFA_XSP16, literal(-8)))
          CFI (cfiCond355) V6 load(1, XDATA, add(CFA_XSP16, literal(-7)))
          CFI (cfiCond355) V7 load(1, XDATA, add(CFA_XSP16, literal(-6)))
          CFI (cfiCond355) R7 load(1, XDATA, add(CFA_XSP16, literal(-5)))
          CFI (cfiCond355) ?RET_LOW load(1, XDATA, add(CFA_XSP16, literal(-4)))
          CFI (cfiCond355) ?RET_HIGH load(1, XDATA, add(CFA_XSP16, literal(-3)))
          CFI (cfiCond355) DPL0 load(1, XDATA, add(CFA_XSP16, literal(-2)))
          CFI (cfiCond355) DPH0 load(1, XDATA, add(CFA_XSP16, literal(-1)))
          CFI (cfiCond355) CFA_SP SP+-6
          CFI (cfiCond355) CFA_XSP16 add(XSP16, 37)
          CFI Block cfiCond356 Using cfiCommon0
          CFI (cfiCond356) Function shell_input_init
          CFI (cfiCond356) Conditional ??CrossCallReturnLabel_169, ??CrossCallReturnLabel_165, ??CrossCallReturnLabel_31
          CFI (cfiCond356) R6 load(1, XDATA, add(CFA_XSP16, literal(-15)))
          CFI (cfiCond356) VB load(1, XDATA, add(CFA_XSP16, literal(-14)))
          CFI (cfiCond356) V0 load(1, XDATA, add(CFA_XSP16, literal(-13)))
          CFI (cfiCond356) V1 load(1, XDATA, add(CFA_XSP16, literal(-12)))
          CFI (cfiCond356) V2 load(1, XDATA, add(CFA_XSP16, literal(-11)))
          CFI (cfiCond356) V3 load(1, XDATA, add(CFA_XSP16, literal(-10)))
          CFI (cfiCond356) V4 load(1, XDATA, add(CFA_XSP16, literal(-9)))
          CFI (cfiCond356) V5 load(1, XDATA, add(CFA_XSP16, literal(-8)))
          CFI (cfiCond356) V6 load(1, XDATA, add(CFA_XSP16, literal(-7)))
          CFI (cfiCond356) V7 load(1, XDATA, add(CFA_XSP16, literal(-6)))
          CFI (cfiCond356) R7 load(1, XDATA, add(CFA_XSP16, literal(-5)))
          CFI (cfiCond356) ?RET_LOW load(1, XDATA, add(CFA_XSP16, literal(-4)))
          CFI (cfiCond356) ?RET_HIGH load(1, XDATA, add(CFA_XSP16, literal(-3)))
          CFI (cfiCond356) DPL0 load(1, XDATA, add(CFA_XSP16, literal(-2)))
          CFI (cfiCond356) DPH0 load(1, XDATA, add(CFA_XSP16, literal(-1)))
          CFI (cfiCond356) CFA_SP SP+-6
          CFI (cfiCond356) CFA_XSP16 add(XSP16, 19)
          CFI Block cfiCond357 Using cfiCommon0
          CFI (cfiCond357) Function shell_input_init
          CFI (cfiCond357) Conditional ??CrossCallReturnLabel_169, ??CrossCallReturnLabel_167, ??CrossCallReturnLabel_162
          CFI (cfiCond357) R6 load(1, XDATA, add(CFA_XSP16, literal(-15)))
          CFI (cfiCond357) VB load(1, XDATA, add(CFA_XSP16, literal(-14)))
          CFI (cfiCond357) V0 load(1, XDATA, add(CFA_XSP16, literal(-13)))
          CFI (cfiCond357) V1 load(1, XDATA, add(CFA_XSP16, literal(-12)))
          CFI (cfiCond357) V2 load(1, XDATA, add(CFA_XSP16, literal(-11)))
          CFI (cfiCond357) V3 load(1, XDATA, add(CFA_XSP16, literal(-10)))
          CFI (cfiCond357) V4 load(1, XDATA, add(CFA_XSP16, literal(-9)))
          CFI (cfiCond357) V5 load(1, XDATA, add(CFA_XSP16, literal(-8)))
          CFI (cfiCond357) V6 load(1, XDATA, add(CFA_XSP16, literal(-7)))
          CFI (cfiCond357) V7 load(1, XDATA, add(CFA_XSP16, literal(-6)))
          CFI (cfiCond357) R7 load(1, XDATA, add(CFA_XSP16, literal(-5)))
          CFI (cfiCond357) ?RET_LOW load(1, XDATA, add(CFA_XSP16, literal(-4)))
          CFI (cfiCond357) ?RET_HIGH load(1, XDATA, add(CFA_XSP16, literal(-3)))
          CFI (cfiCond357) DPL0 load(1, XDATA, add(CFA_XSP16, literal(-2)))
          CFI (cfiCond357) DPH0 load(1, XDATA, add(CFA_XSP16, literal(-1)))
          CFI (cfiCond357) CFA_SP SP+-6
          CFI (cfiCond357) CFA_XSP16 add(XSP16, 19)
          CFI Block cfiCond358 Using cfiCommon0
          CFI (cfiCond358) Function shell_input_init
          CFI (cfiCond358) Conditional ??CrossCallReturnLabel_169, ??CrossCallReturnLabel_167, ??CrossCallReturnLabel_163
          CFI (cfiCond358) R6 load(1, XDATA, add(CFA_XSP16, literal(-15)))
          CFI (cfiCond358) VB load(1, XDATA, add(CFA_XSP16, literal(-14)))
          CFI (cfiCond358) V0 load(1, XDATA, add(CFA_XSP16, literal(-13)))
          CFI (cfiCond358) V1 load(1, XDATA, add(CFA_XSP16, literal(-12)))
          CFI (cfiCond358) V2 load(1, XDATA, add(CFA_XSP16, literal(-11)))
          CFI (cfiCond358) V3 load(1, XDATA, add(CFA_XSP16, literal(-10)))
          CFI (cfiCond358) V4 load(1, XDATA, add(CFA_XSP16, literal(-9)))
          CFI (cfiCond358) V5 load(1, XDATA, add(CFA_XSP16, literal(-8)))
          CFI (cfiCond358) V6 load(1, XDATA, add(CFA_XSP16, literal(-7)))
          CFI (cfiCond358) V7 load(1, XDATA, add(CFA_XSP16, literal(-6)))
          CFI (cfiCond358) R7 load(1, XDATA, add(CFA_XSP16, literal(-5)))
          CFI (cfiCond358) ?RET_LOW load(1, XDATA, add(CFA_XSP16, literal(-4)))
          CFI (cfiCond358) ?RET_HIGH load(1, XDATA, add(CFA_XSP16, literal(-3)))
          CFI (cfiCond358) DPL0 load(1, XDATA, add(CFA_XSP16, literal(-2)))
          CFI (cfiCond358) DPH0 load(1, XDATA, add(CFA_XSP16, literal(-1)))
          CFI (cfiCond358) CFA_SP SP+-6
          CFI (cfiCond358) CFA_XSP16 add(XSP16, 19)
          CFI Block cfiCond359 Using cfiCommon0
          CFI (cfiCond359) Function shell_tab
          CFI (cfiCond359) Conditional ??CrossCallReturnLabel_169, ??CrossCallReturnLabel_167, ??CrossCallReturnLabel_161
          CFI (cfiCond359) R6 load(1, XDATA, add(CFA_XSP16, literal(-15)))
          CFI (cfiCond359) VB load(1, XDATA, add(CFA_XSP16, literal(-14)))
          CFI (cfiCond359) V0 load(1, XDATA, add(CFA_XSP16, literal(-13)))
          CFI (cfiCond359) V1 load(1, XDATA, add(CFA_XSP16, literal(-12)))
          CFI (cfiCond359) V2 load(1, XDATA, add(CFA_XSP16, literal(-11)))
          CFI (cfiCond359) V3 load(1, XDATA, add(CFA_XSP16, literal(-10)))
          CFI (cfiCond359) V4 load(1, XDATA, add(CFA_XSP16, literal(-9)))
          CFI (cfiCond359) V5 load(1, XDATA, add(CFA_XSP16, literal(-8)))
          CFI (cfiCond359) V6 load(1, XDATA, add(CFA_XSP16, literal(-7)))
          CFI (cfiCond359) V7 load(1, XDATA, add(CFA_XSP16, literal(-6)))
          CFI (cfiCond359) R7 load(1, XDATA, add(CFA_XSP16, literal(-5)))
          CFI (cfiCond359) ?RET_LOW load(1, XDATA, add(CFA_XSP16, literal(-4)))
          CFI (cfiCond359) ?RET_HIGH load(1, XDATA, add(CFA_XSP16, literal(-3)))
          CFI (cfiCond359) DPL0 load(1, XDATA, add(CFA_XSP16, literal(-2)))
          CFI (cfiCond359) DPH0 load(1, XDATA, add(CFA_XSP16, literal(-1)))
          CFI (cfiCond359) CFA_SP SP+-6
          CFI (cfiCond359) CFA_XSP16 add(XSP16, 45)
          CFI Block cfiCond360 Using cfiCommon0
          CFI (cfiCond360) Function shell_parse
          CFI (cfiCond360) Conditional ??CrossCallReturnLabel_169, ??CrossCallReturnLabel_164, ??CrossCallReturnLabel_5
          CFI (cfiCond360) R6 load(1, XDATA, add(CFA_XSP16, literal(-15)))
          CFI (cfiCond360) VB load(1, XDATA, add(CFA_XSP16, literal(-14)))
          CFI (cfiCond360) V0 load(1, XDATA, add(CFA_XSP16, literal(-13)))
          CFI (cfiCond360) V1 load(1, XDATA, add(CFA_XSP16, literal(-12)))
          CFI (cfiCond360) V2 load(1, XDATA, add(CFA_XSP16, literal(-11)))
          CFI (cfiCond360) V3 load(1, XDATA, add(CFA_XSP16, literal(-10)))
          CFI (cfiCond360) V4 load(1, XDATA, add(CFA_XSP16, literal(-9)))
          CFI (cfiCond360) V5 load(1, XDATA, add(CFA_XSP16, literal(-8)))
          CFI (cfiCond360) V6 load(1, XDATA, add(CFA_XSP16, literal(-7)))
          CFI (cfiCond360) V7 load(1, XDATA, add(CFA_XSP16, literal(-6)))
          CFI (cfiCond360) R7 load(1, XDATA, add(CFA_XSP16, literal(-5)))
          CFI (cfiCond360) ?RET_LOW load(1, XDATA, add(CFA_XSP16, literal(-4)))
          CFI (cfiCond360) ?RET_HIGH load(1, XDATA, add(CFA_XSP16, literal(-3)))
          CFI (cfiCond360) DPL0 load(1, XDATA, add(CFA_XSP16, literal(-2)))
          CFI (cfiCond360) DPH0 load(1, XDATA, add(CFA_XSP16, literal(-1)))
          CFI (cfiCond360) CFA_SP SP+-6
          CFI (cfiCond360) CFA_XSP16 add(XSP16, 43)
          CFI Block cfiCond361 Using cfiCommon0
          CFI (cfiCond361) Function shell_input_init
          CFI (cfiCond361) Conditional ??CrossCallReturnLabel_169, ??CrossCallReturnLabel_164, ??CrossCallReturnLabel_6
          CFI (cfiCond361) R6 load(1, XDATA, add(CFA_XSP16, literal(-15)))
          CFI (cfiCond361) VB load(1, XDATA, add(CFA_XSP16, literal(-14)))
          CFI (cfiCond361) V0 load(1, XDATA, add(CFA_XSP16, literal(-13)))
          CFI (cfiCond361) V1 load(1, XDATA, add(CFA_XSP16, literal(-12)))
          CFI (cfiCond361) V2 load(1, XDATA, add(CFA_XSP16, literal(-11)))
          CFI (cfiCond361) V3 load(1, XDATA, add(CFA_XSP16, literal(-10)))
          CFI (cfiCond361) V4 load(1, XDATA, add(CFA_XSP16, literal(-9)))
          CFI (cfiCond361) V5 load(1, XDATA, add(CFA_XSP16, literal(-8)))
          CFI (cfiCond361) V6 load(1, XDATA, add(CFA_XSP16, literal(-7)))
          CFI (cfiCond361) V7 load(1, XDATA, add(CFA_XSP16, literal(-6)))
          CFI (cfiCond361) R7 load(1, XDATA, add(CFA_XSP16, literal(-5)))
          CFI (cfiCond361) ?RET_LOW load(1, XDATA, add(CFA_XSP16, literal(-4)))
          CFI (cfiCond361) ?RET_HIGH load(1, XDATA, add(CFA_XSP16, literal(-3)))
          CFI (cfiCond361) DPL0 load(1, XDATA, add(CFA_XSP16, literal(-2)))
          CFI (cfiCond361) DPH0 load(1, XDATA, add(CFA_XSP16, literal(-1)))
          CFI (cfiCond361) CFA_SP SP+-6
          CFI (cfiCond361) CFA_XSP16 add(XSP16, 19)
          CFI Block cfiPicker362 Using cfiCommon1
          CFI (cfiPicker362) NoFunction
          CFI (cfiPicker362) Picker
        MOVX    A,@DPTR
        MOV     R0,A
        INC     DPTR
        MOVX    A,@DPTR
        MOV     DPH,A
        MOV     DPL,R0
        RET
          CFI EndBlock cfiCond348
          CFI EndBlock cfiCond349
          CFI EndBlock cfiCond350
          CFI EndBlock cfiCond351
          CFI EndBlock cfiCond352
          CFI EndBlock cfiCond353
          CFI EndBlock cfiCond354
          CFI EndBlock cfiCond355
          CFI EndBlock cfiCond356
          CFI EndBlock cfiCond357
          CFI EndBlock cfiCond358
          CFI EndBlock cfiCond359
          CFI EndBlock cfiCond360
          CFI EndBlock cfiCond361
          CFI EndBlock cfiPicker362
//  875 
//  876 
//  877 /**
//  878   * @author   古么宁
//  879   * @brief    shell 初始化,注册几条基本的命令。允许不初始化。
//  880   * @param    defaultsign : 重定义默认输出标志，为 NULL 则不修改默认标志
//  881   * @param    puts        : printf,printf,printl 的默认输出，如从串口输出，为 NULL 则不打印信息。
//  882   * @return   don't care
//  883 */

        RSEG NEAR_CODE:CODE:NOROOT(0)
//  884 void shell_init(char * defaultsign ,fmt_puts_t puts)
shell_init:
          CFI Block cfiBlock363 Using cfiCommon0
          CFI Function shell_init
        CODE
//  885 {
        FUNCALL shell_init, strncpy
        LOCFRAME ISTACK, 0, STACK
        LOCFRAME PSTACK, 0, STACK
        LOCFRAME XSTACK, 11, STACK
        LOCFRAME IOVERLAY, 0, STATIC
        LOCFRAME DOVERLAY, 0, STATIC
        ARGFRAME ISTACK, 0, STACK
        ARGFRAME PSTACK, 0, STACK
        ARGFRAME XSTACK, 11, STACK
        ARGFRAME IOVERLAY, 0, STATIC
        ARGFRAME DOVERLAY, 0, STATIC
        FUNCALL shell_init, _shell_register
        LOCFRAME ISTACK, 0, STACK
        LOCFRAME PSTACK, 0, STACK
        LOCFRAME XSTACK, 11, STACK
        LOCFRAME IOVERLAY, 0, STATIC
        LOCFRAME DOVERLAY, 0, STATIC
        ARGFRAME ISTACK, 0, STACK
        ARGFRAME PSTACK, 0, STACK
        ARGFRAME XSTACK, 11, STACK
        ARGFRAME IOVERLAY, 0, STATIC
        ARGFRAME DOVERLAY, 0, STATIC
        FUNCALL shell_init, _shell_register
        LOCFRAME ISTACK, 0, STACK
        LOCFRAME PSTACK, 0, STACK
        LOCFRAME XSTACK, 11, STACK
        LOCFRAME IOVERLAY, 0, STATIC
        LOCFRAME DOVERLAY, 0, STATIC
        ARGFRAME ISTACK, 0, STACK
        ARGFRAME PSTACK, 0, STACK
        ARGFRAME XSTACK, 11, STACK
        ARGFRAME IOVERLAY, 0, STATIC
        ARGFRAME DOVERLAY, 0, STATIC
        REQUIRE ?V0
        REQUIRE ?V1
        MOV     A,#-0x9
        LCALL   ?FUNC_ENTER_XDATA
          CFI DPH0 load(1, XDATA, add(CFA_XSP16, literal(-1)))
          CFI DPL0 load(1, XDATA, add(CFA_XSP16, literal(-2)))
          CFI ?RET_HIGH load(1, XDATA, add(CFA_XSP16, literal(-3)))
          CFI ?RET_LOW load(1, XDATA, add(CFA_XSP16, literal(-4)))
          CFI R7 load(1, XDATA, add(CFA_XSP16, literal(-5)))
          CFI V1 load(1, XDATA, add(CFA_XSP16, literal(-6)))
          CFI V0 load(1, XDATA, add(CFA_XSP16, literal(-7)))
          CFI VB load(1, XDATA, add(CFA_XSP16, literal(-8)))
          CFI R6 load(1, XDATA, add(CFA_XSP16, literal(-9)))
          CFI CFA_SP SP+0
          CFI CFA_XSP16 add(XSP16, 9)
        ; Saved register size: 9
        ; Auto size: 0
        MOV     A,R4
        MOV     R6,A
        MOV     A,R5
        MOV     R7,A
//  886 	if (defaultsign)
        MOV     A,R2
        ORL     A,R3
        JZ      ??shell_init_0
//  887 		strncpy(DEFAULT_INPUTSIGN,defaultsign,COMMANDLINE_MAX_LEN);
        ; Setup parameters for call to function strncpy
        MOV     ?V0,#0x32
        MOV     ?V1,#0x0
        MOV     R0,#?V0
        LCALL   ?PUSH_XSTACK_I_TWO
          CFI CFA_XSP16 add(XSP16, 11)
        MOV     A,R2
        MOV     R4,A
        MOV     A,R3
        MOV     R5,A
        MOV     R2,#DEFAULT_INPUTSIGN & 0xff
        MOV     R3,#(DEFAULT_INPUTSIGN >> 8) & 0xff
        LCALL   strncpy
        MOV     A,#0x2
        LCALL   ?DEALLOC_XSTACK8
          CFI CFA_XSP16 add(XSP16, 9)
//  888 	//strcpy(DEFAULT_INPUTSIGN,defaultsign);
//  889 
//  890 	current_puts = puts ;
??shell_init_0:
        MOV     DPTR,#current_puts
        MOV     A,R6
        MOVX    @DPTR,A
        INC     DPTR
        MOV     A,R7
        MOVX    @DPTR,A
//  891 	default_puts = puts ;
        MOV     DPTR,#default_puts
        MOV     A,R6
        MOVX    @DPTR,A
        INC     DPTR
        MOV     A,R7
        MOVX    @DPTR,A
//  892 	
//  893 	/* 注册一些基本命令 */
//  894 	shell_register_command("help"     ,shell_list_cmd);
        ; Setup parameters for call to function _shell_register
        MOV     ?V0,#shell_list_cmd & 0xff
        MOV     ?V1,#(shell_list_cmd >> 8) & 0xff
        MOV     R0,#?V0
        LCALL   ?PUSH_XSTACK_I_TWO
          CFI CFA_XSP16 add(XSP16, 11)
        MOV     R4,#`?<Constant "help">` & 0xff
        MOV     R5,#(`?<Constant "help">` >> 8) & 0xff
        MOV     R2,#??newcmd & 0xff
        MOV     R3,#(??newcmd >> 8) & 0xff
        LCALL   _shell_register
        MOV     A,#0x2
        LCALL   ?DEALLOC_XSTACK8
          CFI CFA_XSP16 add(XSP16, 9)
//  895 	shell_register_command("clear"        ,shell_clean_screen);
        ; Setup parameters for call to function _shell_register
        MOV     ?V0,#shell_clean_screen & 0xff
        MOV     ?V1,#(shell_clean_screen >> 8) & 0xff
        MOV     R0,#?V0
        LCALL   ?PUSH_XSTACK_I_TWO
          CFI CFA_XSP16 add(XSP16, 11)
        MOV     R4,#`?<Constant "clear">` & 0xff
        MOV     R5,#(`?<Constant "clear">` >> 8) & 0xff
        MOV     R2,#??newcmd_1 & 0xff
        MOV     R3,#(??newcmd_1 >> 8) & 0xff
        LCALL   _shell_register
        LJMP    ?Subroutine2
          CFI EndBlock cfiBlock363
//  896 }

        RSEG XDATA_Z:XDATA:NOROOT(0)
        DATA8
??newcmd:
        DS 10
        REQUIRE __INIT_XDATA_Z

        RSEG XDATA_Z:XDATA:NOROOT(0)
        DATA8
??newcmd_1:
        DS 10
        REQUIRE __INIT_XDATA_Z

        RSEG XDATA_ID:CODE:NOROOT(0)
`?<Initializer for <Constant "\\033[2K\\r%s">>`:
        DB "\033[2K\015%s"

        RSEG XDATA_ID:CODE:NOROOT(0)
`?<Initializer for <Constant "\\r\\n\\t%s">>`:
        DB "\015\012\t%s"

        RSEG XDATA_ID:CODE:NOROOT(0)
`?<Initializer for <Constant "\\r\\n%s%s">>`:
        DB "\015\012%s%s"

        RSEG XDATA_ID:CODE:NOROOT(0)
`?<Initializer for <Constant {0}>>`:
        DATA8
        DB 0
        DB 0, 0, 0, 0, 0, 0, 0, 0
        DB 0, 0, 0, 0, 0, 0, 0, 0
        DB 0, 0, 0, 0, 0, 0, 0, 0
        DB 0, 0, 0, 0, 0, 0, 0, 0
        DB 0, 0, 0, 0, 0, 0, 0, 0
        DB 0, 0, 0, 0, 0, 0, 0, 0
        DB 0, 0, 0, 0, 0, 0, 0, 0
        DB 0, 0, 0, 0, 0, 0, 0, 0
        DB 0, 0, 0, 0, 0, 0, 0, 0
        DB 0, 0, 0, 0, 0, 0, 0, 0
        DB 0, 0, 0, 0, 0, 0, 0, 0
        DB 0, 0, 0, 0, 0, 0, 0, 0
        DB 0, 0, 0

        RSEG XDATA_ID:CODE:NOROOT(0)
`?<Initializer for <Constant {0}>>_1`:
        DATA8
        DB 0
        DB 0, 0, 0, 0, 0, 0, 0, 0
        DB 0, 0, 0, 0, 0, 0, 0, 0
        DB 0, 0, 0, 0, 0, 0, 0, 0
        DB 0, 0, 0, 0, 0, 0, 0, 0
        DB 0, 0, 0, 0, 0, 0, 0, 0
        DB 0, 0, 0, 0, 0, 0, 0, 0
        DB 0, 0, 0, 0, 0, 0, 0, 0
        DB 0, 0, 0, 0, 0, 0, 0, 0
        DB 0, 0, 0, 0, 0, 0, 0, 0
        DB 0, 0, 0, 0, 0, 0, 0, 0
        DB 0, 0, 0, 0, 0, 0, 0, 0
        DB 0, 0, 0, 0, 0, 0, 0, 0
        DB 0, 0, 0

        RSEG XDATA_ID:CODE:NOROOT(0)
`?<Initializer for <Constant "\\r\\n\\tno reply:%s`:
        DB "\015\012\tno reply:%s\015\012"

        RSEG XDATA_ID:CODE:NOROOT(0)
`?<Initializer for <Constant "\\033[2J\\033[%ld;%`:
        DB "\033[2J\033[%ld;%ldH%s"

        RSEG XDATA_ID:CODE:NOROOT(0)
`?<Initializer for <Constant "\\r\\n(%c)------">>`:
        DB "\015\012(%c)------"

        RSEG XDATA_ID:CODE:NOROOT(0)
`?<Initializer for <Constant "\\r\\n\\r\\n%s">>`:
        DB "\015\012\015\012%s"

        RSEG XDATA_ID:CODE:NOROOT(0)
`?<Initializer for <Constant "\\r\\n">>`:
        DB "\015\012"

        RSEG XDATA_ID:CODE:NOROOT(0)
`?<Initializer for <Constant "\\r\\n%s">>`:
        DB "\015\012%s"

        RSEG XDATA_ID:CODE:NOROOT(0)
`?<Initializer for <Constant "^C\\r\\n%s">>`:
        DB "^C\015\012%s"

        RSEG XDATA_ID:CODE:NOROOT(0)
`?<Initializer for <Constant "\\b">>`:
        DB "\010"

        RSEG XDATA_ID:CODE:NOROOT(0)
`?<Initializer for <Constant "\\b \\b">>`:
        DB "\010 \010"

        RSEG XDATA_ID:CODE:NOROOT(0)
`?<Initializer for <Constant "cancel this opera`:
        DB "cancel this operation\015\012"

        RSEG XDATA_ID:CODE:NOROOT(0)
`?<Initializer for <Constant "%s [Y/N] ">>`:
        DB "%s [Y/N] "

        RSEG XDATA_ID:CODE:NOROOT(0)
`?<Initializer for <Constant "help">>`:
        DB "help"

        RSEG XDATA_ID:CODE:NOROOT(0)
`?<Initializer for <Constant "clear">>`:
        DB "clear"

        RSEG XDATA_ID:CODE:NOROOT(0)
`?<Initializer for F_CRC8_Table>`:
        DATA8
        DB 0
        DB 49
        DB 98
        DB 83
        DB 196
        DB 245
        DB 166
        DB 151
        DB 185
        DB 136
        DB 219
        DB 234
        DB 125
        DB 76
        DB 31
        DB 46
        DB 67
        DB 114
        DB 33
        DB 16
        DB 135
        DB 182
        DB 229
        DB 212
        DB 250
        DB 203
        DB 152
        DB 169
        DB 62
        DB 15
        DB 92
        DB 109
        DB 134
        DB 183
        DB 228
        DB 213
        DB 66
        DB 115
        DB 32
        DB 17
        DB 63
        DB 14
        DB 93
        DB 108
        DB 251
        DB 202
        DB 153
        DB 168
        DB 197
        DB 244
        DB 167
        DB 150
        DB 1
        DB 48
        DB 99
        DB 82
        DB 124
        DB 77
        DB 30
        DB 47
        DB 184
        DB 137
        DB 218
        DB 235
        DB 61
        DB 12
        DB 95
        DB 110
        DB 249
        DB 200
        DB 155
        DB 170
        DB 132
        DB 181
        DB 230
        DB 215
        DB 64
        DB 113
        DB 34
        DB 19
        DB 126
        DB 79
        DB 28
        DB 45
        DB 186
        DB 139
        DB 216
        DB 233
        DB 199
        DB 246
        DB 165
        DB 148
        DB 3
        DB 50
        DB 97
        DB 80
        DB 187
        DB 138
        DB 217
        DB 232
        DB 127
        DB 78
        DB 29
        DB 44
        DB 2
        DB 51
        DB 96
        DB 81
        DB 198
        DB 247
        DB 164
        DB 149
        DB 248
        DB 201
        DB 154
        DB 171
        DB 60
        DB 13
        DB 94
        DB 111
        DB 65
        DB 112
        DB 35
        DB 18
        DB 133
        DB 180
        DB 231
        DB 214
        DB 122
        DB 75
        DB 24
        DB 41
        DB 190
        DB 143
        DB 220
        DB 237
        DB 195
        DB 242
        DB 161
        DB 144
        DB 7
        DB 54
        DB 101
        DB 84
        DB 57
        DB 8
        DB 91
        DB 106
        DB 253
        DB 204
        DB 159
        DB 174
        DB 128
        DB 177
        DB 226
        DB 211
        DB 68
        DB 117
        DB 38
        DB 23
        DB 252
        DB 205
        DB 158
        DB 175
        DB 56
        DB 9
        DB 90
        DB 107
        DB 69
        DB 116
        DB 39
        DB 22
        DB 129
        DB 176
        DB 227
        DB 210
        DB 191
        DB 142
        DB 221
        DB 236
        DB 123
        DB 74
        DB 25
        DB 40
        DB 6
        DB 55
        DB 100
        DB 85
        DB 194
        DB 243
        DB 160
        DB 145
        DB 71
        DB 118
        DB 37
        DB 20
        DB 131
        DB 178
        DB 225
        DB 208
        DB 254
        DB 207
        DB 156
        DB 173
        DB 58
        DB 11
        DB 88
        DB 105
        DB 4
        DB 53
        DB 102
        DB 87
        DB 192
        DB 241
        DB 162
        DB 147
        DB 189
        DB 140
        DB 223
        DB 238
        DB 121
        DB 72
        DB 27
        DB 42
        DB 193
        DB 240
        DB 163
        DB 146
        DB 5
        DB 52
        DB 103
        DB 86
        DB 120
        DB 73
        DB 26
        DB 43
        DB 188
        DB 141
        DB 222
        DB 239
        DB 130
        DB 179
        DB 224
        DB 209
        DB 70
        DB 119
        DB 36
        DB 21
        DB 59
        DB 10
        DB 89
        DB 104
        DB 255
        DB 206
        DB 157
        DB 172

        RSEG XDATA_ID:CODE:NOROOT(0)
`?<Initializer for B_CRC8_Table>`:
        DATA8
        DB 0
        DB 94
        DB 188
        DB 226
        DB 97
        DB 63
        DB 221
        DB 131
        DB 194
        DB 156
        DB 126
        DB 32
        DB 163
        DB 253
        DB 31
        DB 65
        DB 157
        DB 195
        DB 33
        DB 127
        DB 252
        DB 162
        DB 64
        DB 30
        DB 95
        DB 1
        DB 227
        DB 189
        DB 62
        DB 96
        DB 130
        DB 220
        DB 35
        DB 125
        DB 159
        DB 193
        DB 66
        DB 28
        DB 254
        DB 160
        DB 225
        DB 191
        DB 93
        DB 3
        DB 128
        DB 222
        DB 60
        DB 98
        DB 190
        DB 224
        DB 2
        DB 92
        DB 223
        DB 129
        DB 99
        DB 61
        DB 124
        DB 34
        DB 192
        DB 158
        DB 29
        DB 67
        DB 161
        DB 255
        DB 70
        DB 24
        DB 250
        DB 164
        DB 39
        DB 121
        DB 155
        DB 197
        DB 132
        DB 218
        DB 56
        DB 102
        DB 229
        DB 187
        DB 89
        DB 7
        DB 219
        DB 133
        DB 103
        DB 57
        DB 186
        DB 228
        DB 6
        DB 88
        DB 25
        DB 71
        DB 165
        DB 251
        DB 120
        DB 38
        DB 196
        DB 154
        DB 101
        DB 59
        DB 217
        DB 135
        DB 4
        DB 90
        DB 184
        DB 230
        DB 167
        DB 249
        DB 27
        DB 69
        DB 198
        DB 152
        DB 122
        DB 36
        DB 248
        DB 166
        DB 68
        DB 26
        DB 153
        DB 199
        DB 37
        DB 123
        DB 58
        DB 100
        DB 134
        DB 216
        DB 91
        DB 5
        DB 231
        DB 185
        DB 140
        DB 210
        DB 48
        DB 110
        DB 237
        DB 179
        DB 81
        DB 15
        DB 78
        DB 16
        DB 242
        DB 172
        DB 47
        DB 113
        DB 147
        DB 205
        DB 17
        DB 79
        DB 173
        DB 243
        DB 112
        DB 46
        DB 204
        DB 146
        DB 211
        DB 141
        DB 111
        DB 49
        DB 178
        DB 236
        DB 14
        DB 80
        DB 175
        DB 241
        DB 19
        DB 77
        DB 206
        DB 144
        DB 114
        DB 44
        DB 109
        DB 51
        DB 209
        DB 143
        DB 12
        DB 82
        DB 176
        DB 238
        DB 50
        DB 108
        DB 142
        DB 208
        DB 83
        DB 13
        DB 239
        DB 177
        DB 240
        DB 174
        DB 76
        DB 18
        DB 145
        DB 207
        DB 45
        DB 115
        DB 202
        DB 148
        DB 118
        DB 40
        DB 171
        DB 245
        DB 23
        DB 73
        DB 8
        DB 86
        DB 180
        DB 234
        DB 105
        DB 55
        DB 213
        DB 139
        DB 87
        DB 9
        DB 235
        DB 181
        DB 54
        DB 104
        DB 138
        DB 212
        DB 149
        DB 203
        DB 41
        DB 119
        DB 244
        DB 170
        DB 72
        DB 22
        DB 233
        DB 183
        DB 85
        DB 11
        DB 136
        DB 214
        DB 52
        DB 106
        DB 43
        DB 117
        DB 151
        DB 201
        DB 74
        DB 20
        DB 246
        DB 168
        DB 116
        DB 42
        DB 200
        DB 150
        DB 21
        DB 75
        DB 169
        DB 247
        DB 182
        DB 232
        DB 10
        DB 84
        DB 215
        DB 137
        DB 107
        DB 53

        RSEG XDATA_ID:CODE:NOROOT(0)
`?<Initializer for DEFAULT_INPUTSIGN>`:
        DB "~ # "
        DB 0, 0, 0, 0, 0, 0, 0, 0
        DB 0, 0, 0, 0, 0, 0, 0, 0
        DB 0, 0, 0, 0, 0, 0, 0, 0
        DB 0, 0, 0, 0, 0, 0, 0, 0
        DB 0, 0, 0, 0, 0, 0, 0, 0
        DB 0, 0, 0, 0, 0

        RSEG XDATA_ID:CODE:NOROOT(0)
`?<Initializer for consolologo>`:
        DB 0DH, 0AH, 20H, 20H, 5FH, 5FH, 5FH, 5FH
        DB 5FH, 20H, 20H, 20H, 20H, 20H, 20H, 20H
        DB 20H, 20H, 20H, 20H, 20H, 20H, 20H, 20H
        DB 20H, 20H, 20H, 20H, 20H, 20H, 20H, 20H
        DB 20H, 5FH, 5FH, 0DH, 0AH, 20H, 2FH, 20H
        DB 5FH, 5FH, 5FH, 5FH, 5CH, 20H, 20H, 20H
        DB 20H, 20H, 20H, 20H, 20H, 20H, 20H, 20H
        DB 20H, 20H, 20H, 20H, 20H, 20H, 20H, 20H
        DB 20H, 20H, 20H, 2FH, 5CH, 20H, 5CH, 0DH
        DB 0AH, 2FH, 5CH, 20H, 5CH, 5FH, 5FH, 5FH
        DB 2FH, 20H, 20H, 20H, 5FH, 5FH, 5FH, 5FH
        DB 20H, 20H, 5FH, 5FH, 5FH, 5FH, 20H, 20H
        DB 5FH, 5FH, 5FH, 5FH, 20H, 20H, 5FH, 5CH
        DB 5FH, 5CH, 20H, 5CH, 20H, 20H, 20H, 20H
        DB 20H, 5FH, 5FH, 5FH, 5FH, 0DH, 0AH, 5CH
        DB 20H, 5CH, 20H, 5CH, 20H, 20H, 20H, 20H
        DB 20H, 2FH, 20H, 5FH, 5FH, 20H, 5CH, 2FH
        DB 20H, 5FH, 5FH, 20H, 5CH, 2FH, 20H, 5FH
        DB 5FH, 5FH, 5CH, 2FH, 20H, 5FH, 5FH, 20H
        DB 5CH, 20H, 5CH, 20H, 20H, 20H, 2FH, 20H
        DB 5FH, 5FH, 20H, 5CH, 0DH, 0AH, 20H, 5CH
        DB 20H, 5CH, 20H, 5CH, 5FH, 5FH, 5FH, 4CH
        DB 5CH, 20H, 5CH, 4CH, 5CH, 20H, 5CH, 20H
        DB 5CH, 2FH, 5CH, 20H, 5CH, 5FH, 5FH, 5FH
        DB 5FH, 20H, 5CH, 20H, 5CH, 4CH, 5CH, 20H
        DB 5CH, 20H, 5CH, 5FH, 4CH, 5CH, 20H, 20H
        DB 5FH, 5FH, 5FH, 4CH, 0DH, 0AH, 20H, 20H
        DB 5CH, 20H, 5CH, 5FH, 5FH, 5FH, 5FH, 5FH
        DB 5FH, 5CH, 5FH, 5FH, 5FH, 5FH, 2FH, 5CH
        DB 5FH, 5CH, 20H, 5CH, 5FH, 5CH, 5FH, 5FH
        DB 5FH, 5FH, 2FH, 5CH, 5FH, 5FH, 5FH, 5FH
        DB 2FH, 5CH, 5FH, 5FH, 5FH, 5FH, 5CH, 5FH
        DB 5FH, 5FH, 5FH, 2FH, 0DH, 0AH, 20H, 20H
        DB 20H, 5CH, 2FH, 5FH, 5FH, 5FH, 5FH, 5FH
        DB 5FH, 2FH, 5FH, 5FH, 5FH, 2FH, 5CH, 2FH
        DB 5FH, 2FH, 5CH, 2FH, 5FH, 2FH, 5FH, 5FH
        DB 5FH, 2FH, 5CH, 2FH, 5FH, 5FH, 5FH, 2FH
        DB 5CH, 2FH, 5FH, 5FH, 5FH, 5FH, 2FH, 5FH
        DB 5FH, 5FH, 2FH, 0DH, 0AH, 20H, 20H, 20H
        DB 20H, 43H, 4FH, 50H, 59H, 52H, 49H, 47H
        DB 48H, 54H, 28H, 63H, 29H, 3AH, 47H, 6FH
        DB 6FH, 64H, 4DH, 6FH, 72H, 6EH, 69H, 6EH
        DB 67H, 9, 9, 32H, 30H, 31H, 39H, 2FH
        DB 30H, 36H, 0DH, 0AH, 0DH, 0AH, 0

        RSEG XDATA_ID:CODE:NOROOT(0)
`?<Initializer for __Constant_1>`:
        DATA32
        DD 1

        RSEG XDATA_ID:CODE:NOROOT(0)
`?<Initializer for __Constant_ffffffff>`:
        DATA32
        DD -1

        RSEG XDATA_ID:CODE:NOROOT(0)
`?<Initializer for __Constant_a>`:
        DATA32
        DD 10

        RSEG XDATA_ID:CODE:NOROOT(0)
`?<Initializer for __Constant_3ffffff>`:
        DATA32
        DD 67108863

        RSEG XDATA_ID:CODE:NOROOT(0)
`?<Initializer for __Constant_fc000000>`:
        DATA32
        DD 4227858432

        RSEG XDATA_ID:CODE:NOROOT(0)
`?<Initializer for __Constant_3e00000>`:
        DATA32
        DD 65011712

        RSEG XDATA_ID:CODE:NOROOT(0)
`?<Initializer for __Constant_1f0000>`:
        DATA32
        DD 2031616

        RSEG XDATA_ID:CODE:NOROOT(0)
`?<Initializer for __Constant_ff00>`:
        DATA32
        DD 65280

        RSEG XDATA_ID:CODE:NOROOT(0)
`?<Initializer for __Constant_ff>`:
        DATA32
        DD 255

        RSEG XDATA_ID:CODE:NOROOT(0)
`?<Initializer for __Constant_87654321>`:
        DATA32
        DD 2271560481

        RSEG XDATA_ID:CODE:NOROOT(0)
`?<Initializer for __Constant_0>`:
        DATA32
        DD 0

        RSEG XDATA_ID:CODE:NOROOT(0)
`?<Initializer for __Constant_3e0ffff>`:
        DATA32
        DD 65077247

        RSEG XDATA_ID:CODE:NOROOT(0)
`?<Initializer for __Constant_abcd4322>`:
        DATA32
        DD 2882356002

        RSEG XDATA_ID:CODE:NOROOT(0)
`?<Initializer for __Constant_fffffff0>`:
        DATA32
        DD 4294967280

        RSEG XDATA_ID:CODE:NOROOT(0)
`?<Initializer for __Constant_abcd4320>`:
        DATA32
        DD 2882356000

        RSEG XDATA_ID:CODE:NOROOT(0)
`?<Initializer for __Constant_abcd4321>`:
        DATA32
        DD 2882356001

        END
// 
// 5 564 bytes in segment NEAR_CODE
// 1 318 bytes in segment XDATA_I
// 1 318 bytes in segment XDATA_ID
//    26 bytes in segment XDATA_Z
// 
// 6 818 bytes of CODE  memory (+ 64 bytes shared)
// 1 280 bytes of XDATA memory (+ 64 bytes shared)
//
//Errors: none
//Warnings: none
