###############################################################################
#
# IAR C/C++ Compiler V9.10.1.2146 for 8051                07/Jul/2023  16:40:20
# Copyright 2004-2014 IAR Systems AB.
# Standalone license - IAR Embedded Workbench for 8051
#
#    Core               =  plain
#    Code model         =  near
#    Data model         =  large
#    Calling convention =  xdata reentrant
#    Constant location  =  data
#    Dptr setup         =  1,16
#                          
#    Source file        =  
#        I:\1_git_code\EPnode_OTA\CC2530
#        IAP\CC2530_stack\zstack-2.4.0-1.4.0x\Projects\zstack\Samples\CC2530-IAP\Source\iap\ymodem.c
#    Command line       =  
#        "I:\1_git_code\EPnode_OTA\CC2530
#        IAP\CC2530_stack\zstack-2.4.0-1.4.0x\Projects\zstack\Samples\CC2530-IAP\Source\iap\ymodem.c"
#        -D HAL_SB_BOOT_CODE -D HAL_UART=TRUE -D HAL_UART_DMA=0 -D
#        HAL_UART_ISR=1 -D HAL_UART_ISR_RX_MAX=254 -lC
#        "I:\1_git_code\EPnode_OTA\CC2530
#        IAP\CC2530_stack\zstack-2.4.0-1.4.0x\Projects\zstack\Samples\CC2530-IAP\CC2530\CC2530BL\List\"
#        -lA "I:\1_git_code\EPnode_OTA\CC2530
#        IAP\CC2530_stack\zstack-2.4.0-1.4.0x\Projects\zstack\Samples\CC2530-IAP\CC2530\CC2530BL\List\"
#        --diag_suppress Pe001,Pa010,Pa050 -o "I:\1_git_code\EPnode_OTA\CC2530
#        IAP\CC2530_stack\zstack-2.4.0-1.4.0x\Projects\zstack\Samples\CC2530-IAP\CC2530\CC2530BL\Obj\"
#        -e --debug --core=plain --dptr=16,1 --data_model=large
#        --code_model=near --calling_convention=xdata_reentrant
#        --place_constants=data --nr_virtual_regs 8 -I
#        "I:\1_git_code\EPnode_OTA\CC2530
#        IAP\CC2530_stack\zstack-2.4.0-1.4.0x\Projects\zstack\Samples\CC2530-IAP\CC2530\..\Source\drive\"
#        -I "I:\1_git_code\EPnode_OTA\CC2530
#        IAP\CC2530_stack\zstack-2.4.0-1.4.0x\Projects\zstack\Samples\CC2530-IAP\CC2530\..\Source\iap\"
#        -I "I:\1_git_code\EPnode_OTA\CC2530
#        IAP\CC2530_stack\zstack-2.4.0-1.4.0x\Projects\zstack\Samples\CC2530-IAP\CC2530\..\Source\shell\"
#        -I "I:\1_git_code\EPnode_OTA\CC2530
#        IAP\CC2530_stack\zstack-2.4.0-1.4.0x\Projects\zstack\Samples\CC2530-IAP\CC2530\..\Source\sys\"
#        -I "I:\1_git_code\EPnode_OTA\CC2530
#        IAP\CC2530_stack\zstack-2.4.0-1.4.0x\Projects\zstack\Samples\CC2530-IAP\CC2530\..\Source\"
#        -I "I:\1_git_code\EPnode_OTA\CC2530
#        IAP\CC2530_stack\zstack-2.4.0-1.4.0x\Projects\zstack\Samples\CC2530-IAP\CC2530\source\"
#        -I "I:\1_git_code\EPnode_OTA\CC2530
#        IAP\CC2530_stack\zstack-2.4.0-1.4.0x\Projects\zstack\Samples\CC2530-IAP\CC2530\..\..\common\"
#        -I "I:\1_git_code\EPnode_OTA\CC2530
#        IAP\CC2530_stack\zstack-2.4.0-1.4.0x\Projects\zstack\Samples\CC2530-IAP\CC2530\..\..\..\ZMain\TI2530DB\"
#        -I "I:\1_git_code\EPnode_OTA\CC2530
#        IAP\CC2530_stack\zstack-2.4.0-1.4.0x\Projects\zstack\Samples\CC2530-IAP\CC2530\..\..\..\..\..\Components\hal\include\"
#        -I "I:\1_git_code\EPnode_OTA\CC2530
#        IAP\CC2530_stack\zstack-2.4.0-1.4.0x\Projects\zstack\Samples\CC2530-IAP\CC2530\..\..\..\..\..\Components\hal\target\_COMMON\CC2530\"
#        -I "I:\1_git_code\EPnode_OTA\CC2530
#        IAP\CC2530_stack\zstack-2.4.0-1.4.0x\Projects\zstack\Samples\CC2530-IAP\CC2530\..\..\..\..\..\Components\hal\target\CC2530EB\"
#        -I "I:\1_git_code\EPnode_OTA\CC2530
#        IAP\CC2530_stack\zstack-2.4.0-1.4.0x\Projects\zstack\Samples\CC2530-IAP\CC2530\..\..\..\..\..\Components\osal\include\"
#        -I "I:\1_git_code\EPnode_OTA\CC2530
#        IAP\CC2530_stack\zstack-2.4.0-1.4.0x\Projects\zstack\Samples\CC2530-IAP\CC2530\..\..\..\..\..\Components\services\saddr\"
#        -Ohz
#    List file          =  
#        I:\1_git_code\EPnode_OTA\CC2530
#        IAP\CC2530_stack\zstack-2.4.0-1.4.0x\Projects\zstack\Samples\CC2530-IAP\CC2530\CC2530BL\List\ymodem.lst
#    Object file        =  
#        I:\1_git_code\EPnode_OTA\CC2530
#        IAP\CC2530_stack\zstack-2.4.0-1.4.0x\Projects\zstack\Samples\CC2530-IAP\CC2530\CC2530BL\Obj\ymodem.r51
#
###############################################################################

I:\1_git_code\EPnode_OTA\CC2530 IAP\CC2530_stack\zstack-2.4.0-1.4.0x\Projects\zstack\Samples\CC2530-IAP\Source\iap\ymodem.c
      1          /**
      2            ******************************************************************************
      3            * @file    IAP/src/ymodem.c 
      4            * @author  MCD Application Team
      5            * @version V3.3.0
      6            * @date    10/15/2010
      7            * @brief   This file provides all the software functions related to the ymodem 
      8            *          protocol.
      9            ******************************************************************************
     10            * @copy
     11            *
     12            * THE PRESENT FIRMWARE WHICH IS FOR GUIDANCE ONLY AIMS AT PROVIDING CUSTOMERS
     13            * WITH CODING INFORMATION REGARDING THEIR PRODUCTS IN ORDER FOR THEM TO SAVE
     14            * TIME. AS A RESULT, STMICROELECTRONICS SHALL NOT BE HELD LIABLE FOR ANY
     15            * DIRECT, INDIRECT OR CONSEQUENTIAL DAMAGES WITH RESPECT TO ANY CLAIMS ARISING
     16            * FROM THE CONTENT OF SUCH FIRMWARE AND/OR THE USE MADE BY CUSTOMERS OF THE
     17            * CODING INFORMATION CONTAINED HEREIN IN CONNECTION WITH THEIR PRODUCTS.
     18            *
     19            * <h2><center>&copy; COPYRIGHT 2010 STMicroelectronics</center></h2>
     20            */
     21          
     22          /** @addtogroup IAP
     23            * @{
     24            */ 
     25            
     26          /* Includes ------------------------------------------------------------------*/
     27          #include "sys.h"
     28          #include "ymodem.h"
     29          #include "stdio.h"
     30          #include "string.h"
     31          #include "iap_config.h"
     32          #include "uart.h"
     33          #include "hal_flash.h"
     34          

   \                                 In  segment XDATA_Z, align 1, keep-with-next
     35          uint8_t file_name[FILE_NAME_LENGTH];
   \                     file_name:
   \   000000                DS 256
   \   000100                REQUIRE __INIT_XDATA_Z

   \                                 In  segment XDATA_Z, align 1, keep-with-next
     36          uint8_t packet_data[PACKET_1K_SIZE + PACKET_OVERHEAD];
   \                     packet_data:
   \   000000                DS 1029
   \   000405                REQUIRE __INIT_XDATA_Z

   \                                 In  segment XDATA_Z, align 1, keep-with-next
     37          static uint8_t tcp_valid=0;
   \                     tcp_valid:
   \   000000                DS 1
   \   000001                REQUIRE __INIT_XDATA_Z
     38          
     39          /**
     40            * @brief  Receive byte from sender,阻塞式运行
     41            * @param  c: Character
     42            * @param  timeout: Timeout
     43            * @retval 0: Byte received
     44            *         -1: Timeout
     45            */

   \                                 In  segment NEAR_CODE, align 1, keep-with-next
     46          static  int32_t Receive_Byte (uint8_t *c, uint32_t timeout)
   \                     Receive_Byte:
     47          {
   \   000000                REQUIRE ?V0
   \   000000                REQUIRE ?V1
   \   000000                REQUIRE ?V2
   \   000000                REQUIRE ?V3
   \   000000                REQUIRE ?V4
   \   000000                REQUIRE ?V5
   \   000000                REQUIRE ?V6
   \   000000                REQUIRE ?V7
   \   000000   74F1         MOV     A,#-0xf
   \   000002   12....       LCALL   ?FUNC_ENTER_XDATA
   \   000005                ; Saved register size: 15
   \   000005                ; Auto size: 0
   \   000005   EA           MOV     A,R2
   \   000006   FE           MOV     R6,A
   \   000007   EB           MOV     A,R3
   \   000008   FF           MOV     R7,A
   \   000009   740F         MOV     A,#0xf
   \   00000B   12....       LCALL   ?XSTACK_DISP0_8
   \   00000E   78..         MOV     R0,#?V0
   \   000010   12....       LCALL   ?L_MOV_X
     48            while (timeout-- > 0)
   \                     ??Receive_Byte_0:
   \   000013   85....       MOV     ?V4,?V0
   \   000016   85....       MOV     ?V5,?V1
   \   000019   85....       MOV     ?V6,?V2
   \   00001C   85....       MOV     ?V7,?V3
   \   00001F   90....       MOV     DPTR,#__Constant_ffffffff
   \   000022   78..         MOV     R0,#?V0
   \   000024   12....       LCALL   ?L_ADD_X
   \   000027   12....       LCALL   ?Subroutine1
   \                     ??CrossCallReturnLabel_0:
   \   00002A   601A         JZ      ??Receive_Byte_1
     49            {
     50              if (usart0_getchar(c) == 1)
   \   00002C                ; Setup parameters for call to function usart0_getchar
   \   00002C   EE           MOV     A,R6
   \   00002D   FA           MOV     R2,A
   \   00002E   EF           MOV     A,R7
   \   00002F   FB           MOV     R3,A
   \   000030   12....       LCALL   usart0_getchar
   \   000033   8A..         MOV     ?V4,R2
   \   000035   7401         MOV     A,#0x1
   \   000037   65..         XRL     A,?V4
   \   000039   4B           ORL     A,R3
   \   00003A   70D7         JNZ     ??Receive_Byte_0
     51              {
     52                return 0;
   \   00003C   7A00         MOV     R2,#0x0
   \   00003E   7B00         MOV     R3,#0x0
   \   000040   7C00         MOV     R4,#0x0
   \   000042   7D00         MOV     R5,#0x0
   \   000044   8008         SJMP    ??Receive_Byte_2
     53              }
     54            }
     55            return -1;
   \                     ??Receive_Byte_1:
   \   000046   7AFF         MOV     R2,#-0x1
   \   000048   7BFF         MOV     R3,#-0x1
   \   00004A   7CFF         MOV     R4,#-0x1
   \   00004C   7DFF         MOV     R5,#-0x1
   \                     ??Receive_Byte_2:
   \   00004E   02....       LJMP    ??Subroutine21_0
     56          }

   \                                 In  segment NEAR_CODE, align 1, keep-with-next
   \                     ??Subroutine21_0:
   \   000000   7F08         MOV     R7,#0x8
   \   000002   02....       LJMP    ?FUNC_LEAVE_XDATA

   \                                 In  segment NEAR_CODE, align 1, keep-with-next
   \                     ?Subroutine1:
   \   000000   E5..         MOV     A,?V4
   \   000002   45..         ORL     A,?V5
   \   000004   45..         ORL     A,?V6
   \   000006   45..         ORL     A,?V7
   \   000008   22           RET
     57          
     58          /**
     59            * @brief  Send a byte
     60            * @param  c: Character
     61            * @retval 0: Byte sent
     62            */
     63          static uint32_t Send_Byte (uint8_t c)
     64          {
     65            Uart0_Send_char(c);
     66            return 0;
     67          }
     68          
     69          /**
     70            * @brief  Convert an Integer to a string
     71            * @param  str: The string
     72            * @param  intnum: The intger to be converted
     73            * @retval None
     74            */

   \                                 In  segment NEAR_CODE, align 1, keep-with-next
     75          void Int2Str(uint8_t* str, int32_t intnum)
   \                     Int2Str:
     76          {
   \   000000                REQUIRE ?V0
   \   000000                REQUIRE ?V1
   \   000000                REQUIRE ?V2
   \   000000                REQUIRE ?V3
   \   000000                REQUIRE ?V4
   \   000000                REQUIRE ?V5
   \   000000                REQUIRE ?V6
   \   000000                REQUIRE ?V7
   \   000000   74F1         MOV     A,#-0xf
   \   000002   12....       LCALL   ?FUNC_ENTER_XDATA
   \   000005                ; Saved register size: 15
   \   000005                ; Auto size: 14
   \   000005   74F2         MOV     A,#-0xe
   \   000007   12....       LCALL   ?ALLOC_XSTACK8
   \   00000A   85..82       MOV     DPL,?XSP + 0
   \   00000D   85..83       MOV     DPH,?XSP + 1
   \   000010   EA           MOV     A,R2
   \   000011   F0           MOVX    @DPTR,A
   \   000012   A3           INC     DPTR
   \   000013   EB           MOV     A,R3
   \   000014   F0           MOVX    @DPTR,A
     77            uint32_t i, Div = 1000000000, j = 0, Status = 0;
   \   000015   7406         MOV     A,#0x6
   \   000017   12....       LCALL   ?XSTACK_DISP0_8
   \   00001A   E4           CLR     A
   \   00001B   F0           MOVX    @DPTR,A
   \   00001C   A3           INC     DPTR
   \   00001D   74CA         MOV     A,#-0x36
   \   00001F   F0           MOVX    @DPTR,A
   \   000020   A3           INC     DPTR
   \   000021   749A         MOV     A,#-0x66
   \   000023   F0           MOVX    @DPTR,A
   \   000024   A3           INC     DPTR
   \   000025   743B         MOV     A,#0x3b
   \   000027   F0           MOVX    @DPTR,A
   \   000028   7402         MOV     A,#0x2
   \   00002A   12....       LCALL   ?XSTACK_DISP0_8
   \   00002D   12....       LCALL   ?Subroutine2
   \                     ??CrossCallReturnLabel_33:
   \   000030   740A         MOV     A,#0xa
   \   000032   12....       LCALL   ?XSTACK_DISP0_8
   \   000035   12....       LCALL   ?Subroutine2
     78          
     79            for (i = 0; i < 10; i++)
   \                     ??CrossCallReturnLabel_34:
   \   000038   7A0A         MOV     R2,#0xa
     80            {
     81              str[j++] = (intnum / Div) + 48;
   \                     ??Int2Str_0:
   \   00003A   741D         MOV     A,#0x1d
   \   00003C   12....       LCALL   ?XSTACK_DISP0_8
   \   00003F   78..         MOV     R0,#?V4
   \   000041   12....       LCALL   ?L_MOV_X
   \   000044   7406         MOV     A,#0x6
   \   000046   12....       LCALL   ?XSTACK_DISP0_8
   \   000049   78..         MOV     R0,#?V0
   \   00004B   12....       LCALL   ?L_MOV_X
   \   00004E   78..         MOV     R0,#?V4
   \   000050   79..         MOV     R1,#?V0
   \   000052   12....       LCALL   ?UL_DIV_MOD
   \   000055   E5..         MOV     A,?V4
   \   000057   2430         ADD     A,#0x30
   \   000059   C0E0         PUSH    A
   \   00005B   7402         MOV     A,#0x2
   \   00005D   12....       LCALL   ?XSTACK_DISP0_8
   \   000060   78..         MOV     R0,#?V0
   \   000062   12....       LCALL   ?L_MOV_X
   \   000065   12....       LCALL   ?Subroutine13
   \                     ??CrossCallReturnLabel_21:
   \   000068   8882         MOV     DPL,R0
   \   00006A   F583         MOV     DPH,A
   \   00006C   D0E0         POP     A
   \   00006E   F0           MOVX    @DPTR,A
   \   00006F   90....       MOV     DPTR,#__Constant_1
   \   000072   78..         MOV     R0,#?V0
   \   000074   12....       LCALL   ?L_MOV_X
   \   000077   7402         MOV     A,#0x2
   \   000079   12....       LCALL   ?XSTACK_DISP0_8
   \   00007C   78..         MOV     R0,#?V0
   \   00007E   12....       LCALL   ?L_ADD_TO_X
     82          
     83              intnum = intnum % Div;
   \   000081   741D         MOV     A,#0x1d
   \   000083   12....       LCALL   ?XSTACK_DISP0_8
   \   000086   78..         MOV     R0,#?V4
   \   000088   12....       LCALL   ?L_MOV_X
   \   00008B   7406         MOV     A,#0x6
   \   00008D   12....       LCALL   ?XSTACK_DISP0_8
   \   000090   78..         MOV     R0,#?V0
   \   000092   12....       LCALL   ?L_MOV_X
   \   000095   78..         MOV     R0,#?V4
   \   000097   79..         MOV     R1,#?V0
   \   000099   12....       LCALL   ?UL_DIV_MOD
   \   00009C   741D         MOV     A,#0x1d
   \   00009E   12....       LCALL   ?XSTACK_DISP0_8
   \   0000A1   78..         MOV     R0,#?V0
   \   0000A3   12....       LCALL   ?L_MOV_TO_X
     84              Div /= 10;
   \   0000A6   7406         MOV     A,#0x6
   \   0000A8   12....       LCALL   ?XSTACK_DISP0_8
   \   0000AB   78..         MOV     R0,#?V4
   \   0000AD   12....       LCALL   ?L_MOV_X
   \   0000B0   90....       MOV     DPTR,#__Constant_a
   \   0000B3   78..         MOV     R0,#?V0
   \   0000B5   12....       LCALL   ?L_MOV_X
   \   0000B8   78..         MOV     R0,#?V4
   \   0000BA   79..         MOV     R1,#?V0
   \   0000BC   12....       LCALL   ?UL_DIV_MOD
   \   0000BF   7406         MOV     A,#0x6
   \   0000C1   12....       LCALL   ?XSTACK_DISP0_8
   \   0000C4   78..         MOV     R0,#?V4
   \   0000C6   12....       LCALL   ?L_MOV_TO_X
     85              if ((str[j-1] == '0') & (Status == 0))
   \   0000C9   7402         MOV     A,#0x2
   \   0000CB   12....       LCALL   ?XSTACK_DISP0_8
   \   0000CE   78..         MOV     R0,#?V0
   \   0000D0   12....       LCALL   ?L_MOV_X
   \   0000D3   12....       LCALL   ?Subroutine13
   \                     ??CrossCallReturnLabel_22:
   \   0000D6   F9           MOV     R1,A
   \   0000D7   E8           MOV     A,R0
   \   0000D8   24FF         ADD     A,#-0x1
   \   0000DA   F582         MOV     DPL,A
   \   0000DC   E9           MOV     A,R1
   \   0000DD   34FF         ADDC    A,#-0x1
   \   0000DF   F583         MOV     DPH,A
   \   0000E1   E0           MOVX    A,@DPTR
   \   0000E2   6430         XRL     A,#0x30
   \   0000E4   7018         JNZ     ??Int2Str_1
   \   0000E6   740A         MOV     A,#0xa
   \   0000E8   12....       LCALL   ?XSTACK_DISP0_8
   \   0000EB   12....       LCALL   ?XLOAD_R4567
   \   0000EE   EC           MOV     A,R4
   \   0000EF   4D           ORL     A,R5
   \   0000F0   4E           ORL     A,R6
   \   0000F1   4F           ORL     A,R7
   \   0000F2   700A         JNZ     ??Int2Str_1
     86              {
     87                j = 0;
   \   0000F4   7402         MOV     A,#0x2
   \   0000F6   12....       LCALL   ?XSTACK_DISP0_8
   \   0000F9   12....       LCALL   ?Subroutine2
     88              }
   \                     ??CrossCallReturnLabel_35:
   \   0000FC   8012         SJMP    ??Int2Str_2
     89              else
     90              {
     91                Status++;
   \                     ??Int2Str_1:
   \   0000FE   90....       MOV     DPTR,#__Constant_1
   \   000101   78..         MOV     R0,#?V0
   \   000103   12....       LCALL   ?L_MOV_X
   \   000106   740A         MOV     A,#0xa
   \   000108   12....       LCALL   ?XSTACK_DISP0_8
   \   00010B   78..         MOV     R0,#?V0
   \   00010D   12....       LCALL   ?L_ADD_TO_X
     92              }
     93            }
   \                     ??Int2Str_2:
   \   000110   1A           DEC     R2
   \   000111   EA           MOV     A,R2
   \   000112   6003         JZ      $+5
   \   000114   02....       LJMP    ??Int2Str_0
     94          }
   \   000117   740E         MOV     A,#0xe
   \   000119   02....       LJMP    ?Subroutine0

   \                                 In  segment NEAR_CODE, align 1, keep-with-next
   \                     ?Subroutine13:
   \   000000   85..82       MOV     DPL,?XSP + 0
   \   000003   85..83       MOV     DPH,?XSP + 1
   \   000006   E0           MOVX    A,@DPTR
   \   000007   25..         ADD     A,?V0
   \   000009   F8           MOV     R0,A
   \   00000A   A3           INC     DPTR
   \   00000B   E0           MOVX    A,@DPTR
   \   00000C   35..         ADDC    A,?V1
   \   00000E   22           RET

   \                                 In  segment NEAR_CODE, align 1, keep-with-next
   \                     ?Subroutine2:
   \   000000   E4           CLR     A
   \   000001                REQUIRE ??Subroutine18_0
   \   000001                ; // Fall through to label ??Subroutine18_0

   \                                 In  segment NEAR_CODE, align 1, keep-with-next
   \                     ??Subroutine18_0:
   \   000000   12....       LCALL   ??Subroutine23_0
   \                     ??CrossCallReturnLabel_54:
   \   000003   A3           INC     DPTR
   \   000004   F0           MOVX    @DPTR,A
   \   000005   22           RET

   \                                 In  segment NEAR_CODE, align 1, keep-with-next
   \                     ?Subroutine0:
   \   000000   12....       LCALL   ?DEALLOC_XSTACK8
   \   000003                REQUIRE ??Subroutine21_0
   \   000003                ; // Fall through to label ??Subroutine21_0

   \                                 In  segment NEAR_CODE, align 1, keep-with-next
   \                     ??Subroutine23_0:
   \   000000   F0           MOVX    @DPTR,A
   \   000001   A3           INC     DPTR
   \   000002   F0           MOVX    @DPTR,A
   \   000003   A3           INC     DPTR
   \   000004   F0           MOVX    @DPTR,A
   \   000005   22           RET
     95          
     96          /**
     97            * @brief  Convert a string to an integer
     98            * @param  inputstr: The string to be converted
     99            * @param  intnum: The intger value
    100            * @retval 1: Correct
    101            *         0: Error
    102            */

   \                                 In  segment NEAR_CODE, align 1, keep-with-next
    103          uint32_t Str2Int(uint8_t *inputstr, int32_t *intnum)
   \                     Str2Int:
    104          {
   \   000000                REQUIRE ?V0
   \   000000                REQUIRE ?V1
   \   000000                REQUIRE ?V2
   \   000000                REQUIRE ?V3
   \   000000                REQUIRE ?V4
   \   000000                REQUIRE ?V5
   \   000000                REQUIRE ?V6
   \   000000                REQUIRE ?V7
   \   000000   74F1         MOV     A,#-0xf
   \   000002   12....       LCALL   ?FUNC_ENTER_XDATA
   \   000005                ; Saved register size: 15
   \   000005                ; Auto size: 12
   \   000005   74F4         MOV     A,#-0xc
   \   000007   12....       LCALL   ?ALLOC_XSTACK8
   \   00000A   85..82       MOV     DPL,?XSP + 0
   \   00000D   85..83       MOV     DPH,?XSP + 1
   \   000010   EA           MOV     A,R2
   \   000011   F0           MOVX    @DPTR,A
   \   000012   A3           INC     DPTR
   \   000013   EB           MOV     A,R3
   \   000014   F0           MOVX    @DPTR,A
   \   000015   7406         MOV     A,#0x6
   \   000017   12....       LCALL   ?XSTACK_DISP0_8
   \   00001A   EC           MOV     A,R4
   \   00001B   F0           MOVX    @DPTR,A
   \   00001C   A3           INC     DPTR
   \   00001D   ED           MOV     A,R5
   \   00001E   F0           MOVX    @DPTR,A
    105            uint32_t i = 0, res = 0;
   \   00001F   7402         MOV     A,#0x2
   \   000021   12....       LCALL   ?XSTACK_DISP0_8
   \   000024   12....       LCALL   ?Subroutine2
   \                     ??CrossCallReturnLabel_36:
   \   000027   7408         MOV     A,#0x8
   \   000029   12....       LCALL   ?XSTACK_DISP0_8
   \   00002C   12....       LCALL   ?Subroutine2
    106            uint32_t val = 0;
   \                     ??CrossCallReturnLabel_37:
   \   00002F   F5..         MOV     ?V0,A
   \   000031   F5..         MOV     ?V1,A
   \   000033   F5..         MOV     ?V2,A
   \   000035   F5..         MOV     ?V3,A
    107          
    108            if (inputstr[0] == '0' && (inputstr[1] == 'x' || inputstr[1] == 'X'))
   \   000037   85..82       MOV     DPL,?XSP + 0
   \   00003A   85..83       MOV     DPH,?XSP + 1
   \   00003D   12....       LCALL   ?Subroutine9
   \                     ??CrossCallReturnLabel_11:
   \   000040   6430         XRL     A,#0x30
   \   000042   6003         JZ      $+5
   \   000044   02....       LJMP    ??Str2Int_0
   \   000047   85..82       MOV     DPL,?XSP + 0
   \   00004A   85..83       MOV     DPH,?XSP + 1
   \   00004D   A3           INC     DPTR
   \   00004E   E0           MOVX    A,@DPTR
   \   00004F   F583         MOV     DPH,A
   \   000051   8882         MOV     DPL,R0
   \   000053   A3           INC     DPTR
   \   000054   E0           MOVX    A,@DPTR
   \   000055   F8           MOV     R0,A
   \   000056   7478         MOV     A,#0x78
   \   000058   68           XRL     A,R0
   \   000059   6008         JZ      ??Str2Int_1
   \   00005B   7458         MOV     A,#0x58
   \   00005D   68           XRL     A,R0
   \   00005E   6003         JZ      $+5
   \   000060   02....       LJMP    ??Str2Int_0
    109            {
    110              if (inputstr[2] == '\0')
   \                     ??Str2Int_1:
   \   000063   85..82       MOV     DPL,?XSP + 0
   \   000066   85..83       MOV     DPH,?XSP + 1
   \   000069   12....       LCALL   ?Subroutine10
   \                     ??CrossCallReturnLabel_13:
   \   00006C   A3           INC     DPTR
   \   00006D   E0           MOVX    A,@DPTR
   \   00006E   700B         JNZ     ??Str2Int_2
    111              {
    112                return 0;
   \   000070   7A00         MOV     R2,#0x0
   \   000072   7B00         MOV     R3,#0x0
   \   000074   7C00         MOV     R4,#0x0
   \   000076   7D00         MOV     R5,#0x0
   \   000078   02....       LJMP    ??Str2Int_3
    113              }
    114              for (i = 2; i < 11; i++)
   \                     ??Str2Int_2:
   \   00007B   7402         MOV     A,#0x2
   \   00007D   12....       LCALL   ?XSTACK_DISP0_8
   \   000080   7402         MOV     A,#0x2
   \   000082   12....       LCALL   ??Subroutine22_0
    115              {
    116                if (inputstr[i] == '\0')
   \                     ??CrossCallReturnLabel_50:
   \   000085   7402         MOV     A,#0x2
   \   000087   12....       LCALL   ?XSTACK_DISP0_8
   \   00008A   78..         MOV     R0,#?V4
   \   00008C   12....       LCALL   ?L_MOV_X
   \   00008F   12....       LCALL   ?Subroutine6
   \                     ??CrossCallReturnLabel_5:
   \   000092   F8           MOV     R0,A
   \   000093   7003         JNZ     $+5
   \   000095   02....       LJMP    ??Str2Int_4
    117                {
    118                  *intnum = val;
    119                  /* return 1; */
    120                  res = 1;
    121                  break;
    122                }
    123                if (ISVALIDHEX(inputstr[i]))
   \   000098   74BF         MOV     A,#-0x41
   \   00009A   28           ADD     A,R0
   \   00009B   F9           MOV     R1,A
   \   00009C   C3           CLR     C
   \   00009D   9406         SUBB    A,#0x6
   \   00009F   4013         JC      ??Str2Int_5
   \   0000A1   749F         MOV     A,#-0x61
   \   0000A3   28           ADD     A,R0
   \   0000A4   C3           CLR     C
   \   0000A5   9406         SUBB    A,#0x6
   \   0000A7   400B         JC      ??Str2Int_5
   \   0000A9   74D0         MOV     A,#-0x30
   \   0000AB   28           ADD     A,R0
   \   0000AC   C3           CLR     C
   \   0000AD   940A         SUBB    A,#0xa
   \   0000AF   4003         JC      $+5
   \   0000B1   02....       LJMP    ??Str2Int_6
    124                {
    125                  val = (val << 4) + CONVERTHEX(inputstr[i]);
   \                     ??Str2Int_5:
   \   0000B4   74D0         MOV     A,#-0x30
   \   0000B6   28           ADD     A,R0
   \   0000B7   C3           CLR     C
   \   0000B8   940A         SUBB    A,#0xa
   \   0000BA   5005         JNC     ??Str2Int_7
   \   0000BC   E8           MOV     A,R0
   \   0000BD   24D0         ADD     A,#-0x30
   \   0000BF   800D         SJMP    ??Str2Int_8
   \                     ??Str2Int_7:
   \   0000C1   E9           MOV     A,R1
   \   0000C2   C3           CLR     C
   \   0000C3   9406         SUBB    A,#0x6
   \   0000C5   E8           MOV     A,R0
   \   0000C6   5004         JNC     ??Str2Int_9
   \   0000C8   24C9         ADD     A,#-0x37
   \   0000CA   8002         SJMP    ??Str2Int_8
   \                     ??Str2Int_9:
   \   0000CC   24A9         ADD     A,#-0x57
   \                     ??Str2Int_8:
   \   0000CE   FA           MOV     R2,A
   \   0000CF   E4           CLR     A
   \   0000D0   34FF         ADDC    A,#-0x1
   \   0000D2   FB           MOV     R3,A
   \   0000D3   7404         MOV     A,#0x4
   \   0000D5   78..         MOV     R0,#?V0
   \   0000D7   12....       LCALL   ?L_SHL
   \   0000DA   8A..         MOV     ?V4,R2
   \   0000DC   EB           MOV     A,R3
   \   0000DD   12....       LCALL   ?Subroutine14
    126                }
    127                else
    128                {
    129                  /* return 0, Invalid input */
    130                  res = 0;
    131                  break;
    132                }
    133              }
   \                     ??CrossCallReturnLabel_23:
   \   0000E0   12....       LCALL   ?L_ADD
   \   0000E3   90....       MOV     DPTR,#__Constant_1
   \   0000E6   78..         MOV     R0,#?V4
   \   0000E8   12....       LCALL   ?L_MOV_X
   \   0000EB   7402         MOV     A,#0x2
   \   0000ED   12....       LCALL   ?XSTACK_DISP0_8
   \   0000F0   78..         MOV     R0,#?V4
   \   0000F2   12....       LCALL   ?L_ADD_TO_X
   \   0000F5   90....       MOV     DPTR,#__Constant_b
   \   0000F8   78..         MOV     R0,#?V4
   \   0000FA   12....       LCALL   ?L_MOV_X
   \   0000FD   7402         MOV     A,#0x2
   \   0000FF   12....       LCALL   ?XSTACK_DISP0_8
   \   000102   78..         MOV     R0,#?V4
   \   000104   12....       LCALL   ?UL_GT_X
   \   000107   4003         JC      $+5
   \   000109   02....       LJMP    ??Str2Int_6
   \   00010C   02....       LJMP    ??CrossCallReturnLabel_50
    134              /* over 8 digit hex --invalid */
    135              if (i >= 11)
    136              {
    137                res = 0;
    138              }
    139            }
    140            else /* max 10-digit decimal input */
    141            {
    142              for (i = 0;i < 11;i++)
    143              {
    144                if (inputstr[i] == '\0')
   \                     ??Str2Int_0:
   \   00010F   7402         MOV     A,#0x2
   \   000111   12....       LCALL   ?XSTACK_DISP0_8
   \   000114   78..         MOV     R0,#?V4
   \   000116   12....       LCALL   ?L_MOV_X
   \   000119   12....       LCALL   ?Subroutine6
   \                     ??CrossCallReturnLabel_6:
   \   00011C   FA           MOV     R2,A
   \   00011D   7016         JNZ     ??Str2Int_10
    145                {
    146                  *intnum = val;
   \                     ??Str2Int_4:
   \   00011F   7406         MOV     A,#0x6
   \   000121   12....       LCALL   ?XSTACK_DISP0_8
   \   000124   12....       LCALL   ?Subroutine7
   \                     ??CrossCallReturnLabel_7:
   \   000127   12....       LCALL   ?L_MOV_TO_X
    147                  /* return 1 */
    148                  res = 1;
   \   00012A   7408         MOV     A,#0x8
   \   00012C   12....       LCALL   ?XSTACK_DISP0_8
   \   00012F   12....       LCALL   ?Subroutine4
    149                  break;
   \                     ??CrossCallReturnLabel_51:
   \   000132   02....       LJMP    ??Str2Int_6
    150                }
    151                else if ((inputstr[i] == 'k' || inputstr[i] == 'K') && (i > 0))
   \                     ??Str2Int_10:
   \   000135   746B         MOV     A,#0x6b
   \   000137   6A           XRL     A,R2
   \   000138   6005         JZ      ??Str2Int_11
   \   00013A   744B         MOV     A,#0x4b
   \   00013C   6A           XRL     A,R2
   \   00013D   7012         JNZ     ??Str2Int_12
   \                     ??Str2Int_11:
   \   00013F   7402         MOV     A,#0x2
   \   000141   12....       LCALL   ?XSTACK_DISP0_8
   \   000144   12....       LCALL   ?XLOAD_R4567
   \   000147   EC           MOV     A,R4
   \   000148   4D           ORL     A,R5
   \   000149   4E           ORL     A,R6
   \   00014A   4F           ORL     A,R7
   \   00014B   6004         JZ      ??Str2Int_12
    152                {
    153                  val = val << 10;
    154                  *intnum = val;
   \   00014D   740A         MOV     A,#0xa
   \   00014F   801A         SJMP    ??Str2Int_13
    155                  res = 1;
    156                  break;
    157                }
    158                else if ((inputstr[i] == 'm' || inputstr[i] == 'M') && (i > 0))
   \                     ??Str2Int_12:
   \   000151   746D         MOV     A,#0x6d
   \   000153   6A           XRL     A,R2
   \   000154   6005         JZ      ??Str2Int_14
   \   000156   744D         MOV     A,#0x4d
   \   000158   6A           XRL     A,R2
   \   000159   702C         JNZ     ??Str2Int_15
   \                     ??Str2Int_14:
   \   00015B   7402         MOV     A,#0x2
   \   00015D   12....       LCALL   ?XSTACK_DISP0_8
   \   000160   12....       LCALL   ?XLOAD_R4567
   \   000163   EC           MOV     A,R4
   \   000164   4D           ORL     A,R5
   \   000165   4E           ORL     A,R6
   \   000166   4F           ORL     A,R7
   \   000167   601E         JZ      ??Str2Int_15
    159                {
    160                  val = val << 20;
    161                  *intnum = val;
   \   000169   7414         MOV     A,#0x14
   \                     ??Str2Int_13:
   \   00016B   78..         MOV     R0,#?V0
   \   00016D   12....       LCALL   ?L_SHL
   \   000170   7406         MOV     A,#0x6
   \   000172   12....       LCALL   ?XSTACK_DISP0_8
   \   000175   12....       LCALL   ?Subroutine7
   \                     ??CrossCallReturnLabel_8:
   \   000178   12....       LCALL   ?L_MOV_TO_X
    162                  res = 1;
   \   00017B   7408         MOV     A,#0x8
   \   00017D   12....       LCALL   ?XSTACK_DISP0_8
   \   000180   7401         MOV     A,#0x1
   \   000182   F0           MOVX    @DPTR,A
   \   000183   A3           INC     DPTR
   \   000184   E4           CLR     A
   \   000185   806A         SJMP    ??Str2Int_16
    163                  break;
    164                }
    165                else if (ISVALIDDEC(inputstr[i]))
   \                     ??Str2Int_15:
   \   000187   74D0         MOV     A,#-0x30
   \   000189   2A           ADD     A,R2
   \   00018A   C3           CLR     C
   \   00018B   940A         SUBB    A,#0xa
   \   00018D   5065         JNC     ??CrossCallReturnLabel_53
    166                {
    167                  val = val * 10 + CONVERTDEC(inputstr[i]);
   \   00018F   90....       MOV     DPTR,#__Constant_a
   \   000192   78..         MOV     R0,#?V4
   \   000194   12....       LCALL   ?L_MOV_X
   \   000197   78..         MOV     R0,#?V0
   \   000199   79..         MOV     R1,#?V4
   \   00019B   12....       LCALL   ?L_MUL
   \   00019E   EA           MOV     A,R2
   \   00019F   24D0         ADD     A,#-0x30
   \   0001A1   F5..         MOV     ?V4,A
   \   0001A3   E4           CLR     A
   \   0001A4   34FF         ADDC    A,#-0x1
   \   0001A6   12....       LCALL   ?Subroutine14
    168                }
    169                else
    170                {
    171                  /* return 0, Invalid input */
    172                  res = 0;
    173                  break;
    174                }
    175              }
   \                     ??CrossCallReturnLabel_24:
   \   0001A9   12....       LCALL   ?L_ADD
   \   0001AC   90....       MOV     DPTR,#__Constant_1
   \   0001AF   78..         MOV     R0,#?V4
   \   0001B1   12....       LCALL   ?L_MOV_X
   \   0001B4   7402         MOV     A,#0x2
   \   0001B6   12....       LCALL   ?XSTACK_DISP0_8
   \   0001B9   78..         MOV     R0,#?V4
   \   0001BB   12....       LCALL   ?L_ADD_TO_X
   \   0001BE   90....       MOV     DPTR,#__Constant_b
   \   0001C1   78..         MOV     R0,#?V4
   \   0001C3   12....       LCALL   ?L_MOV_X
   \   0001C6   7402         MOV     A,#0x2
   \   0001C8   12....       LCALL   ?XSTACK_DISP0_8
   \   0001CB   78..         MOV     R0,#?V4
   \   0001CD   12....       LCALL   ?UL_GT_X
   \   0001D0   5003         JNC     $+5
   \   0001D2   02....       LJMP    ??Str2Int_0
    176              /* Over 10 digit decimal --invalid */
    177              if (i >= 11)
   \                     ??Str2Int_6:
   \   0001D5   90....       MOV     DPTR,#__Constant_b
   \   0001D8   78..         MOV     R0,#?V0
   \   0001DA   12....       LCALL   ?L_MOV_X
   \   0001DD   7402         MOV     A,#0x2
   \   0001DF   12....       LCALL   ?XSTACK_DISP0_8
   \   0001E2   78..         MOV     R0,#?V0
   \   0001E4   12....       LCALL   ?UL_GT_X
   \   0001E7   400B         JC      ??CrossCallReturnLabel_53
    178              {
    179                res = 0;
   \   0001E9   7408         MOV     A,#0x8
   \   0001EB   12....       LCALL   ?XSTACK_DISP0_8
   \   0001EE   E4           CLR     A
   \   0001EF   F0           MOVX    @DPTR,A
   \   0001F0   A3           INC     DPTR
    180              }
    181            }
   \                     ??Str2Int_16:
   \   0001F1   12....       LCALL   ??Subroutine23_0
    182          
    183            return res;
   \                     ??CrossCallReturnLabel_53:
   \   0001F4   7408         MOV     A,#0x8
   \   0001F6   12....       LCALL   ?XSTACK_DISP0_8
   \   0001F9   12....       LCALL   ?XLOAD_R2345
   \                     ??Str2Int_3:
   \   0001FC   740C         MOV     A,#0xc
   \   0001FE   02....       LJMP    ?Subroutine0
    184          }

   \                                 In  segment NEAR_CODE, align 1, keep-with-next
   \                     ?Subroutine14:
   \   000000   F5..         MOV     ?V5,A
   \   000002   33           RLC     A
   \   000003   95E0         SUBB    A,0xE0 /* A   */
   \   000005   F5..         MOV     ?V6,A
   \   000007   F5..         MOV     ?V7,A
   \   000009   78..         MOV     R0,#?V0
   \   00000B   79..         MOV     R1,#?V4
   \   00000D   22           RET

   \                                 In  segment NEAR_CODE, align 1, keep-with-next
   \                     ?Subroutine7:
   \   000000   12....       LCALL   ?Subroutine17
   \                     ??CrossCallReturnLabel_27:
   \   000003   78..         MOV     R0,#?V0
   \   000005   22           RET

   \                                 In  segment NEAR_CODE, align 1, keep-with-next
   \                     ?Subroutine6:
   \   000000   85..82       MOV     DPL,?XSP + 0
   \   000003   85..83       MOV     DPH,?XSP + 1
   \   000006   E0           MOVX    A,@DPTR
   \   000007   25..         ADD     A,?V4
   \   000009   F8           MOV     R0,A
   \   00000A   A3           INC     DPTR
   \   00000B   E0           MOVX    A,@DPTR
   \   00000C   35..         ADDC    A,?V5
   \   00000E   8882         MOV     DPL,R0
   \   000010   F583         MOV     DPH,A
   \   000012   E0           MOVX    A,@DPTR
   \   000013   22           RET

   \                                 In  segment NEAR_CODE, align 1, keep-with-next
   \                     ?Subroutine10:
   \   000000   12....       LCALL   ?Subroutine17
   \                     ??CrossCallReturnLabel_30:
   \   000003   A3           INC     DPTR
   \   000004   22           RET

   \                                 In  segment NEAR_CODE, align 1, keep-with-next
   \                     ?Subroutine9:
   \   000000   12....       LCALL   ?Subroutine17
   \                     ??CrossCallReturnLabel_29:
   \   000003   E0           MOVX    A,@DPTR
   \   000004   22           RET

   \                                 In  segment NEAR_CODE, align 1, keep-with-next
   \                     ?Subroutine17:
   \   000000   E0           MOVX    A,@DPTR
   \   000001   F8           MOV     R0,A
   \   000002   A3           INC     DPTR
   \   000003   E0           MOVX    A,@DPTR
   \   000004   F583         MOV     DPH,A
   \   000006   8882         MOV     DPL,R0
   \   000008   22           RET

   \                                 In  segment NEAR_CODE, align 1, keep-with-next
   \                     ?Subroutine4:
   \   000000   7401         MOV     A,#0x1
   \   000002                REQUIRE ??Subroutine22_0
   \   000002                ; // Fall through to label ??Subroutine22_0

   \                                 In  segment NEAR_CODE, align 1, keep-with-next
   \                     ??Subroutine22_0:
   \   000000   F0           MOVX    @DPTR,A
   \   000001   A3           INC     DPTR
   \   000002   12....       LCALL   ?Subroutine16
   \                     ??CrossCallReturnLabel_56:
   \   000005   22           RET

   \                                 In  segment NEAR_CODE, align 1, keep-with-next
   \                     ?Subroutine16:
   \   000000   E4           CLR     A
   \   000001                REQUIRE ??Subroutine23_0
   \   000001                ; // Fall through to label ??Subroutine23_0
    185          
    186          /**
    187            * @brief  从发送方接收一个数据包
    188            * @param  data     数据包的缓存区
    189            * @param  length   数据包长度
    190            * @param  timeout  一个数据包的超时时间
    191            *     0: end of transmission
    192            *    -1: abort by sender
    193            *    >0: packet length
    194            * @retval 0: normally return
    195            *        -1: timeout or packet error
    196            *         1: abort by user
    197            */

   \                                 In  segment NEAR_CODE, align 1, keep-with-next
    198          static int32_t Receive_Packet (uint8_t *data, int32_t *length, uint32_t timeout)
   \                     Receive_Packet:
    199          {
   \   000000                REQUIRE ?V0
   \   000000                REQUIRE ?V1
   \   000000                REQUIRE ?V2
   \   000000                REQUIRE ?V3
   \   000000                REQUIRE ?V4
   \   000000                REQUIRE ?V5
   \   000000                REQUIRE ?V6
   \   000000                REQUIRE ?V7
   \   000000   74F1         MOV     A,#-0xf
   \   000002   12....       LCALL   ?FUNC_ENTER_XDATA
   \   000005                ; Saved register size: 15
   \   000005                ; Auto size: 13
   \   000005   74F3         MOV     A,#-0xd
   \   000007   12....       LCALL   ?ALLOC_XSTACK8
   \   00000A   7401         MOV     A,#0x1
   \   00000C   12....       LCALL   ?XSTACK_DISP0_8
   \   00000F   EA           MOV     A,R2
   \   000010   F0           MOVX    @DPTR,A
   \   000011   A3           INC     DPTR
   \   000012   EB           MOV     A,R3
   \   000013   F0           MOVX    @DPTR,A
   \   000014   7403         MOV     A,#0x3
   \   000016   12....       LCALL   ?XSTACK_DISP0_8
   \   000019   EC           MOV     A,R4
   \   00001A   F0           MOVX    @DPTR,A
   \   00001B   A3           INC     DPTR
   \   00001C   ED           MOV     A,R5
   \   00001D   F0           MOVX    @DPTR,A
    200            uint16_t i, packet_size;
    201            uint8_t c;
    202            *length = 0;
   \   00001E   7403         MOV     A,#0x3
   \   000020   12....       LCALL   ?XSTACK_DISP0_8
   \   000023   12....       LCALL   ?Subroutine11
   \                     ??CrossCallReturnLabel_15:
   \   000026   12....       LCALL   ?Subroutine2
    203            const char tcp_flag[6]={0xFF,0xFD,0x00,0xFF,0xFB,0x00};
   \                     ??CrossCallReturnLabel_38:
   \   000029   90....       MOV     DPTR,#`?<Constant {255, 253, 0, 255, 251, 0}>`
   \   00002C   7407         MOV     A,#0x7
   \   00002E   12....       LCALL   ?XSTACK_DISP102_8
   \   000031   7406         MOV     A,#0x6
   \   000033   12....       LCALL   ?MOVE_LONG8_XDATA_XDATA
   \   000036   741C         MOV     A,#0x1c
   \   000038   12....       LCALL   ?XSTACK_DISP0_8
   \   00003B   78..         MOV     R0,#?V0
   \   00003D   12....       LCALL   ?L_MOV_X
    204          
    205            if (Receive_Byte(&c, timeout) != 0)
   \   000040                ; Setup parameters for call to function Receive_Byte
   \   000040   78..         MOV     R0,#?V0
   \   000042   12....       LCALL   ?PUSH_XSTACK_I_FOUR
   \   000045   7404         MOV     A,#0x4
   \   000047   12....       LCALL   ?XSTACK_DISP101_8
   \   00004A   12....       LCALL   Receive_Byte
   \   00004D   7404         MOV     A,#0x4
   \   00004F   12....       LCALL   ?DEALLOC_XSTACK8
   \   000052   EA           MOV     A,R2
   \   000053   4B           ORL     A,R3
   \   000054   4C           ORL     A,R4
   \   000055   4D           ORL     A,R5
   \   000056   6003         JZ      $+5
   \   000058   02....       LJMP    ??Receive_Packet_0
    206            {
    207              return -1;
    208            }
    209            // 帧头
    210            switch (c)
   \   00005B   85..82       MOV     DPL,?XSP + 0
   \   00005E   85..83       MOV     DPH,?XSP + 1
   \   000061   E0           MOVX    A,@DPTR
   \   000062   14           DEC     A
   \   000063   601A         JZ      ??Receive_Packet_1
   \   000065   14           DEC     A
   \   000066   6035         JZ      ??Receive_Packet_2
   \   000068   24FE         ADD     A,#-0x2
   \   00006A   6039         JZ      ??Receive_Packet_3
   \   00006C   24EC         ADD     A,#-0x14
   \   00006E   6038         JZ      ??Receive_Packet_4
   \   000070   24D7         ADD     A,#-0x29
   \   000072   606B         JZ      ??Receive_Packet_5
   \   000074   24E0         ADD     A,#-0x20
   \   000076   6067         JZ      ??Receive_Packet_5
   \   000078   2462         ADD     A,#0x62
   \   00007A   6068         JZ      ??Receive_Packet_6
   \   00007C   02....       LJMP    ??Receive_Packet_0
    211            {
    212              case SOH:     // Ymodem 128数据帧头
    213                packet_size = PACKET_SIZE;
   \                     ??Receive_Packet_1:
   \   00007F   75..80       MOV     ?V4,#-0x80
   \   000082   75..00       MOV     ?V5,#0x0
    214                break;
    215              case STX:     // Ymodem 1024数据帧头
    216                packet_size = PACKET_1K_SIZE;
    217                break;
    218              case EOT:     // 发送结束
    219                return 0;
    220              case CA:      // 取消发送
    221                if ((Receive_Byte(&c, timeout) == 0) && (c == CA))
    222                {
    223                  *length = -1;
    224                  return 0;
    225                }
    226                else
    227                {
    228                  return -1;
    229                }
    230              case ABORT1:  // 用户终止按键
    231              case ABORT2:
    232                return 1;
    233              /** 清除掉标志位 **/
    234              case YMODEM_TCP:
    235                *data = c;
    236                // 接收 "FF FD 00 FF FB 00" 标志位
    237                for(i=1;i<6;i++){
    238                  if (Receive_Byte(data + i, timeout)!= 0) return -1;
    239                }
    240                if(strstr((char*)data,tcp_flag)) tcp_valid = 1;
    241                return -1;
    242              default:
    243                return -1;
    244            }
    245            // 接收一个包
    246            *data = c;
   \                     ??Receive_Packet_7:
   \   000085   E0           MOVX    A,@DPTR
   \   000086   C0E0         PUSH    A
   \   000088   7401         MOV     A,#0x1
   \   00008A   12....       LCALL   ?XSTACK_DISP0_8
   \   00008D   12....       LCALL   ?Subroutine11
   \                     ??CrossCallReturnLabel_16:
   \   000090   D0E0         POP     A
   \   000092   F0           MOVX    @DPTR,A
    247            for (int ff_flag = 0,i = 1; i < (packet_size + PACKET_OVERHEAD); i ++)
   \   000093   7E00         MOV     R6,#0x0
   \   000095   75..01       MOV     ?V6,#0x1
   \   000098   8E..         MOV     ?V7,R6
   \   00009A   02....       LJMP    ??Receive_Packet_8
   \                     ??Receive_Packet_2:
   \   00009D   75..00       MOV     ?V4,#0x0
   \   0000A0   75..04       MOV     ?V5,#0x4
   \   0000A3   80E0         SJMP    ??Receive_Packet_7
   \                     ??Receive_Packet_3:
   \   0000A5   02....       LJMP    ??Receive_Packet_9
   \                     ??Receive_Packet_4:
   \   0000A8                ; Setup parameters for call to function Receive_Byte
   \   0000A8   78..         MOV     R0,#?V0
   \   0000AA   12....       LCALL   ?PUSH_XSTACK_I_FOUR
   \   0000AD   7404         MOV     A,#0x4
   \   0000AF   12....       LCALL   ?XSTACK_DISP101_8
   \   0000B2   12....       LCALL   Receive_Byte
   \   0000B5   7404         MOV     A,#0x4
   \   0000B7   12....       LCALL   ?DEALLOC_XSTACK8
   \   0000BA   EA           MOV     A,R2
   \   0000BB   4B           ORL     A,R3
   \   0000BC   4C           ORL     A,R4
   \   0000BD   4D           ORL     A,R5
   \   0000BE   6003         JZ      $+5
   \   0000C0   02....       LJMP    ??Receive_Packet_0
   \   0000C3   85..82       MOV     DPL,?XSP + 0
   \   0000C6   85..83       MOV     DPH,?XSP + 1
   \   0000C9   E0           MOVX    A,@DPTR
   \   0000CA   6418         XRL     A,#0x18
   \   0000CC   6003         JZ      $+5
   \   0000CE   02....       LJMP    ??Receive_Packet_0
   \   0000D1   7403         MOV     A,#0x3
   \   0000D3   12....       LCALL   ?XSTACK_DISP0_8
   \   0000D6   12....       LCALL   ?Subroutine8
   \                     ??CrossCallReturnLabel_9:
   \   0000D9   12....       LCALL   ??Subroutine18_0
   \                     ??CrossCallReturnLabel_32:
   \   0000DC   02....       LJMP    ??Receive_Packet_9
   \                     ??Receive_Packet_5:
   \   0000DF   7A01         MOV     R2,#0x1
   \   0000E1   02....       LJMP    ??Receive_Packet_10
   \                     ??Receive_Packet_6:
   \   0000E4   7401         MOV     A,#0x1
   \   0000E6   12....       LCALL   ?XSTACK_DISP0_8
   \   0000E9   12....       LCALL   ?Subroutine8
   \                     ??CrossCallReturnLabel_10:
   \   0000EC   F0           MOVX    @DPTR,A
   \   0000ED   7E01         MOV     R6,#0x1
   \   0000EF   7F00         MOV     R7,#0x0
   \                     ??Receive_Packet_11:
   \   0000F1                ; Setup parameters for call to function Receive_Byte
   \   0000F1   78..         MOV     R0,#?V0
   \   0000F3   12....       LCALL   ?PUSH_XSTACK_I_FOUR
   \   0000F6   7405         MOV     A,#0x5
   \   0000F8   12....       LCALL   ?XSTACK_DISP0_8
   \   0000FB   E0           MOVX    A,@DPTR
   \   0000FC   2E           ADD     A,R6
   \   0000FD   FA           MOV     R2,A
   \   0000FE   A3           INC     DPTR
   \   0000FF   E0           MOVX    A,@DPTR
   \   000100   3F           ADDC    A,R7
   \   000101   FB           MOV     R3,A
   \   000102   12....       LCALL   Receive_Byte
   \   000105   7404         MOV     A,#0x4
   \   000107   12....       LCALL   ?DEALLOC_XSTACK8
   \   00010A   EA           MOV     A,R2
   \   00010B   4B           ORL     A,R3
   \   00010C   4C           ORL     A,R4
   \   00010D   4D           ORL     A,R5
   \   00010E   6003         JZ      $+5
   \   000110   02....       LJMP    ??Receive_Packet_0
   \   000113   0E           INC     R6
   \   000114   EE           MOV     A,R6
   \   000115   7001         JNZ     ??Receive_Packet_12
   \   000117   0F           INC     R7
   \                     ??Receive_Packet_12:
   \   000118   C3           CLR     C
   \   000119   9406         SUBB    A,#0x6
   \   00011B   EF           MOV     A,R7
   \   00011C   9400         SUBB    A,#0x0
   \   00011E   40D1         JC      ??Receive_Packet_11
   \   000120                ; Setup parameters for call to function strstr
   \   000120   7407         MOV     A,#0x7
   \   000122   12....       LCALL   ?XSTACK_DISP102_8
   \   000125   7401         MOV     A,#0x1
   \   000127   12....       LCALL   ?XSTACK_DISP0_8
   \   00012A   E0           MOVX    A,@DPTR
   \   00012B   FA           MOV     R2,A
   \   00012C   A3           INC     DPTR
   \   00012D   E0           MOVX    A,@DPTR
   \   00012E   FB           MOV     R3,A
   \   00012F   12....       LCALL   strstr
   \   000132   8B..         MOV     ?V1,R3
   \   000134   EA           MOV     A,R2
   \   000135   45..         ORL     A,?V1
   \   000137   7003         JNZ     $+5
   \   000139   02....       LJMP    ??Receive_Packet_0
   \   00013C   90....       MOV     DPTR,#tcp_valid
   \   00013F   7401         MOV     A,#0x1
   \   000141   F0           MOVX    @DPTR,A
   \   000142   02....       LJMP    ??Receive_Packet_0
    248            {
    249              if (Receive_Byte(data + i, timeout) != 0) return -1;
    250              /** 清除掉多余的 FF **/
    251              if(tcp_valid != 1) continue;
    252              if(ff_flag == 1 && *(data+i) == 0xFF){
    253                i-=1;
    254                ff_flag = 0;
    255              }else{
    256                if(*(data+i) == 0xFF) ff_flag =1;
    257                else ff_flag =0;
   \                     ??Receive_Packet_13:
   \   000145   7E00         MOV     R6,#0x0
   \                     ??Receive_Packet_14:
   \   000147   05..         INC     ?V6
   \   000149   E5..         MOV     A,?V6
   \   00014B   7002         JNZ     ??Receive_Packet_8
   \   00014D   05..         INC     ?V7
   \                     ??Receive_Packet_8:
   \   00014F   E5..         MOV     A,?V4
   \   000151   2405         ADD     A,#0x5
   \   000153   F8           MOV     R0,A
   \   000154   E4           CLR     A
   \   000155   35..         ADDC    A,?V5
   \   000157   F9           MOV     R1,A
   \   000158   C3           CLR     C
   \   000159   E5..         MOV     A,?V6
   \   00015B   98           SUBB    A,R0
   \   00015C   E5..         MOV     A,?V7
   \   00015E   99           SUBB    A,R1
   \   00015F   7401         MOV     A,#0x1
   \   000161   506C         JNC     ??Receive_Packet_15
   \   000163   12....       LCALL   ?XSTACK_DISP0_8
   \   000166   E0           MOVX    A,@DPTR
   \   000167   25..         ADD     A,?V6
   \   000169   F8           MOV     R0,A
   \   00016A   A3           INC     DPTR
   \   00016B   E0           MOVX    A,@DPTR
   \   00016C   35..         ADDC    A,?V7
   \   00016E   F9           MOV     R1,A
   \   00016F   7405         MOV     A,#0x5
   \   000171   12....       LCALL   ?XSTACK_DISP0_8
   \   000174   E8           MOV     A,R0
   \   000175   F0           MOVX    @DPTR,A
   \   000176   A3           INC     DPTR
   \   000177   E9           MOV     A,R1
   \   000178   F0           MOVX    @DPTR,A
   \   000179                ; Setup parameters for call to function Receive_Byte
   \   000179   78..         MOV     R0,#?V0
   \   00017B   12....       LCALL   ?PUSH_XSTACK_I_FOUR
   \   00017E   7409         MOV     A,#0x9
   \   000180   12....       LCALL   ?XSTACK_DISP0_8
   \   000183   E0           MOVX    A,@DPTR
   \   000184   FA           MOV     R2,A
   \   000185   A3           INC     DPTR
   \   000186   E0           MOVX    A,@DPTR
   \   000187   FB           MOV     R3,A
   \   000188   12....       LCALL   Receive_Byte
   \   00018B   7404         MOV     A,#0x4
   \   00018D   12....       LCALL   ?DEALLOC_XSTACK8
   \   000190   EA           MOV     A,R2
   \   000191   4B           ORL     A,R3
   \   000192   4C           ORL     A,R4
   \   000193   4D           ORL     A,R5
   \   000194   6003         JZ      $+5
   \   000196   02....       LJMP    ??Receive_Packet_0
   \   000199   90....       MOV     DPTR,#tcp_valid
   \   00019C   E0           MOVX    A,@DPTR
   \   00019D   6401         XRL     A,#0x1
   \   00019F   70A6         JNZ     ??Receive_Packet_14
   \   0001A1   7405         MOV     A,#0x5
   \   0001A3   12....       LCALL   ?XSTACK_DISP0_8
   \   0001A6   12....       LCALL   ?Subroutine9
   \                     ??CrossCallReturnLabel_12:
   \   0001A9   F8           MOV     R0,A
   \   0001AA   EE           MOV     A,R6
   \   0001AB   A2E0         MOV     C,0xE0 /* A   */.0
   \   0001AD   5013         JNC     ??Receive_Packet_16
   \   0001AF   74FF         MOV     A,#-0x1
   \   0001B1   68           XRL     A,R0
   \   0001B2   700E         JNZ     ??Receive_Packet_16
   \   0001B4   E5..         MOV     A,?V6
   \   0001B6   24FF         ADD     A,#-0x1
   \   0001B8   F5..         MOV     ?V6,A
   \   0001BA   E5..         MOV     A,?V7
   \   0001BC   34FF         ADDC    A,#-0x1
   \   0001BE   F5..         MOV     ?V7,A
   \   0001C0   8083         SJMP    ??Receive_Packet_13
   \                     ??Receive_Packet_16:
   \   0001C2   74FF         MOV     A,#-0x1
   \   0001C4   68           XRL     A,R0
   \   0001C5   6003         JZ      $+5
   \   0001C7   02....       LJMP    ??Receive_Packet_13
   \   0001CA   7E01         MOV     R6,#0x1
   \   0001CC   02....       LJMP    ??Receive_Packet_14
    258              }
    259            }
    260            // 帧序号取反
    261            if (data[PACKET_SEQNO_INDEX] != ((data[PACKET_SEQNO_COMP_INDEX] ^ 0xff) & 0xff))
   \                     ??Receive_Packet_15:
   \   0001CF   12....       LCALL   ?XSTACK_DISP0_8
   \   0001D2   12....       LCALL   ?Subroutine10
   \                     ??CrossCallReturnLabel_14:
   \   0001D5   E0           MOVX    A,@DPTR
   \   0001D6   F8           MOV     R0,A
   \   0001D7   7401         MOV     A,#0x1
   \   0001D9   12....       LCALL   ?XSTACK_DISP0_8
   \   0001DC   E0           MOVX    A,@DPTR
   \   0001DD   F9           MOV     R1,A
   \   0001DE   A3           INC     DPTR
   \   0001DF   E0           MOVX    A,@DPTR
   \   0001E0   F583         MOV     DPH,A
   \   0001E2   8982         MOV     DPL,R1
   \   0001E4   A3           INC     DPTR
   \   0001E5   A3           INC     DPTR
   \   0001E6   E0           MOVX    A,@DPTR
   \   0001E7   F4           CPL     A
   \   0001E8   68           XRL     A,R0
   \   0001E9   7032         JNZ     ??Receive_Packet_0
    262            {
    263              return -1;
    264            }
    265            // crc校验出错 
    266            if((Cal_CRC16((unsigned char *)(data + PACKET_HEADER), packet_size + PACKET_TRAILER)&0xFFFF) != 0)	{
   \   0001EB                ; Setup parameters for call to function Cal_CRC16
   \   0001EB   E5..         MOV     A,?V4
   \   0001ED   2402         ADD     A,#0x2
   \   0001EF   F5..         MOV     ?V0,A
   \   0001F1   E4           CLR     A
   \   0001F2   35..         ADDC    A,?V5
   \   0001F4   F5..         MOV     ?V1,A
   \   0001F6   E4           CLR     A
   \   0001F7   F5..         MOV     ?V2,A
   \   0001F9   F5..         MOV     ?V3,A
   \   0001FB   78..         MOV     R0,#?V0
   \   0001FD   12....       LCALL   ?PUSH_XSTACK_I_FOUR
   \   000200   7405         MOV     A,#0x5
   \   000202   12....       LCALL   ?XSTACK_DISP0_8
   \   000205   E0           MOVX    A,@DPTR
   \   000206   2403         ADD     A,#0x3
   \   000208   FA           MOV     R2,A
   \   000209   A3           INC     DPTR
   \   00020A   E0           MOVX    A,@DPTR
   \   00020B   3400         ADDC    A,#0x0
   \   00020D   FB           MOV     R3,A
   \   00020E   12....       LCALL   Cal_CRC16
   \   000211   7404         MOV     A,#0x4
   \   000213   12....       LCALL   ?DEALLOC_XSTACK8
   \   000216   8B..         MOV     ?V1,R3
   \   000218   EA           MOV     A,R2
   \   000219   45..         ORL     A,?V1
   \   00021B   600A         JZ      ??Receive_Packet_17
    267              return -1;
   \                     ??Receive_Packet_0:
   \   00021D   7AFF         MOV     R2,#-0x1
   \   00021F   7BFF         MOV     R3,#-0x1
   \   000221   7CFF         MOV     R4,#-0x1
   \   000223   7DFF         MOV     R5,#-0x1
   \   000225   801A         SJMP    ??Receive_Packet_18
    268            }
    269            // 数据包长度
    270            *length = packet_size;
   \                     ??Receive_Packet_17:
   \   000227   E4           CLR     A
   \   000228   F5..         MOV     ?V6,A
   \   00022A   F5..         MOV     ?V7,A
   \   00022C   7403         MOV     A,#0x3
   \   00022E   12....       LCALL   ?XSTACK_DISP0_8
   \   000231   12....       LCALL   ?Subroutine11
   \                     ??CrossCallReturnLabel_17:
   \   000234   78..         MOV     R0,#?V4
   \   000236   12....       LCALL   ?L_MOV_TO_X
    271            return 0;
   \                     ??Receive_Packet_9:
   \   000239   7A00         MOV     R2,#0x0
   \                     ??Receive_Packet_10:
   \   00023B   7B00         MOV     R3,#0x0
   \   00023D   7C00         MOV     R4,#0x0
   \   00023F   7D00         MOV     R5,#0x0
   \                     ??Receive_Packet_18:
   \   000241   740D         MOV     A,#0xd
   \   000243   02....       LJMP    ?Subroutine0
    272          }

   \                                 In  segment NEAR_CODE, align 1, keep-with-next
   \                     ?Subroutine8:
   \   000000   12....       LCALL   ?Subroutine17
   \                     ??CrossCallReturnLabel_28:
   \   000003   74FF         MOV     A,#-0x1
   \   000005   22           RET

   \                                 In  segment NEAR_CODE, align 1, keep-with-next
   \                     ?Subroutine11:
   \   000000   12....       LCALL   ?Subroutine17
   \                     ??CrossCallReturnLabel_31:
   \   000003   22           RET
    273          
    274          /**
    275            * @brief  Receive a file using the ymodem protocol
    276            * @param  buf: Address of the first byte 存放数据的buf
    277            * @param  Destination: 烧写起始地址
    278            * @param  partition_size: 分区大小
    279            * @param  timeout: 超时
    280            * @retval The size of the file
    281            */

   \                                 In  segment NEAR_CODE, align 1, keep-with-next
    282          int32_t Ymodem_Receive (uint32_t partition_start ,uint32_t partition_size,uint32_t timeout)
   \                     Ymodem_Receive:
    283          {
   \   000000                REQUIRE ?V0
   \   000000                REQUIRE ?V1
   \   000000                REQUIRE ?V2
   \   000000                REQUIRE ?V3
   \   000000                REQUIRE ?V4
   \   000000                REQUIRE ?V5
   \   000000                REQUIRE ?V6
   \   000000                REQUIRE ?V7
   \   000000   74F1         MOV     A,#-0xf
   \   000002   12....       LCALL   ?FUNC_ENTER_XDATA
   \   000005                ; Saved register size: 15
   \   000005                ; Auto size: 48
   \   000005   74D0         MOV     A,#-0x30
   \   000007   12....       LCALL   ?ALLOC_XSTACK8
   \   00000A   7408         MOV     A,#0x8
   \   00000C   12....       LCALL   ?XSTACK_DISP0_8
   \   00000F   EA           MOV     A,R2
   \   000010   F0           MOVX    @DPTR,A
   \   000011   A3           INC     DPTR
   \   000012   EB           MOV     A,R3
   \   000013   F0           MOVX    @DPTR,A
   \   000014   A3           INC     DPTR
   \   000015   EC           MOV     A,R4
   \   000016   F0           MOVX    @DPTR,A
   \   000017   A3           INC     DPTR
   \   000018   ED           MOV     A,R5
   \   000019   F0           MOVX    @DPTR,A
    284            uint8_t* RamSource;
    285            uint8_t file_size[FILE_SIZE_LENGTH], *file_ptr;
    286            int32_t i, packet_length, session_done, file_done, packets_received, errors, session_begin, size = 0;
   \   00001A   85..82       MOV     DPL,?XSP + 0
   \   00001D   85..83       MOV     DPH,?XSP + 1
   \   000020   12....       LCALL   ?Subroutine2
    287            uint32_t times=0;
   \                     ??CrossCallReturnLabel_39:
   \   000023   7418         MOV     A,#0x18
   \   000025   12....       LCALL   ?XSTACK_DISP0_8
   \   000028   12....       LCALL   ?Subroutine2
    288            tcp_valid = 0;
   \                     ??CrossCallReturnLabel_40:
   \   00002B   90....       MOV     DPTR,#tcp_valid
   \   00002E   F0           MOVX    @DPTR,A
    289            
    290            /* 初始化写flash的地址 */
    291            uint32_t FlashDestination = partition_start; 
   \   00002F   7408         MOV     A,#0x8
   \   000031   12....       LCALL   ?XSTACK_DISP0_8
   \   000034   12....       LCALL   ?XLOAD_R0123
   \   000037   7414         MOV     A,#0x14
   \   000039   12....       LCALL   ?XSTACK_DISP0_8
   \   00003C   12....       LCALL   ?XSTORE_R0123
    292            uint32_t partition_end = FlashDestination+partition_size;  // 加1
   \   00003F   7414         MOV     A,#0x14
   \   000041   12....       LCALL   ?XSTACK_DISP0_8
   \   000044   78..         MOV     R0,#?V0
   \   000046   12....       LCALL   ?L_MOV_X
   \   000049   743F         MOV     A,#0x3f
   \   00004B   12....       LCALL   ?XSTACK_DISP0_8
   \   00004E   78..         MOV     R0,#?V0
   \   000050   12....       LCALL   ?L_ADD_X
   \   000053   741C         MOV     A,#0x1c
   \   000055   12....       LCALL   ?XSTACK_DISP0_8
   \   000058   78..         MOV     R0,#?V0
   \   00005A   12....       LCALL   ?L_MOV_TO_X
    293            
    294            for (session_done = 0, errors = 0, session_begin = 0; ;)
   \   00005D   7410         MOV     A,#0x10
   \   00005F   12....       LCALL   ?XSTACK_DISP0_8
   \   000062   12....       LCALL   ?Subroutine2
   \                     ??CrossCallReturnLabel_41:
   \   000065   F5..         MOV     ?V4,A
   \   000067   8005         SJMP    ??Ymodem_Receive_0
    295            {
    296              /* 开始接收数据包,阻塞访问 */
    297              for (packets_received = 0, file_done = 0; ;)
    298              {
    299                /* 开始接收数据包 */
    300                switch (Receive_Packet(packet_data, &packet_length, NAK_TIMEOUT))
    301                {
    302                  /* 正常处理数据包 */
    303                  case 0:
    304                    errors = 0;
    305                    switch (packet_length)
    306                    {
    307                      /* 发送端终止信号CA */
    308                      case -1:
    309                        Send_Byte(ACK);
    310                        return 0;
    311                      /* 终止传输 */
    312                      case 0:
    313                        Send_Byte(ACK);
   \                     ??Ymodem_Receive_1:
   \   000069                ; Setup parameters for call to function Uart0_Send_char
   \   000069   7906         MOV     R1,#0x6
   \   00006B   12....       LCALL   Uart0_Send_char
    314                        file_done = 1;
    315                        break;
    316                      /* 处理正常的数据包 */
    317                      default:
    318                        times=0;
    319                        /* 数据帧序号，保证接收和发送数量一致 */
    320                        if ((packet_data[PACKET_SEQNO_INDEX] & 0xff) != (packets_received & 0xff))
    321                        {
    322                          Send_Byte(NAK);
    323                        }
    324                        else
    325                        {
    326                          /* 接收第一个数据包:文件名包 */
    327                          if (packets_received == 0)
    328                          {
    329                            /* 文件名包 */
    330                            if (packet_data[PACKET_HEADER] != 0)
    331                            {
    332                              /* Filename packet has valid data */
    333                              for (i = 0, file_ptr = packet_data + PACKET_HEADER; (*file_ptr != 0) && (i < FILE_NAME_LENGTH);)
    334                              {
    335                                file_name[i++] = *file_ptr++;
    336                              }
    337                              file_name[i++] = '\0';
    338                              for (i = 0, file_ptr ++; (*file_ptr != ' ') && (i < FILE_SIZE_LENGTH);)
    339                              {
    340                                file_size[i++] = *file_ptr++;
    341                              }
    342                              file_size[i++] = '\0';
    343                              Str2Int(file_size, &size);
    344          
    345                              /* 检查地址 */
    346                              u32 addrx=partition_start;           // 写入起始地址
    347                              u32 end_addr=partition_start+size;   // 接收文件的写入终止地址，加1
    348                              
    349                              if (size > partition_size  || 
    350                                  end_addr > partition_end ||       // 终止地址检查
    351                                  addrx % 4 )
    352                              {
    353                                /* End session */
    354                                Send_Byte(CA);
    355                                Send_Byte(CA);
    356                                return -1;
    357                              }
    358          
    359                              /* 擦除需要的flash部分 */
    360                              uint8 spage = (addrx >> 11) & 0xFFFFF;        // 除以2048得到页码
    361                              uint8 epage = (end_addr >> 11) & 0xFFFFF;     // 除以2048得到页码
    362                              if(epage > CC2530_FLASH_MAX_PAGE){
    363                                debug_err(ERR"Get_Page error! epage:%d\r\n",epage);
    364                                return 0;
    365                              }
    366                              while( spage<=epage ){
    367                                HalFlashErase(spage);
    368                                spage++;
    369                              }    
    370                              
    371                              Send_Byte(ACK);
    372                              Send_Byte(CRC16);
    373                            }
    374                            /* 文件名数据包为空,结束帧,结束会话 */
    375                            else
    376                            {
    377                              Send_Byte(ACK);
    378                              file_done = 1;
    379                              session_done = 1;
    380                              break;
    381                            }
    382                          }
    383                          /* 获取其他数据包并烧写 */
    384                          else
    385                          {
    386                            RamSource = packet_data + PACKET_HEADER;
    387                            
    388                            /* 数据编程 */ 
    389                            HalFlashWrite(FlashDestination/4, RamSource , packet_length/4);
    390                            FlashDestination += packet_length;
    391                           
    392                            Send_Byte(ACK);
    393                          }
    394                          packets_received ++;        // 接收包裹加一
    395                          session_begin = 1;          // 表示任务进行中
    396                        }
    397                    }
    398                    break;
    399                  /* 用户终止 */
    400                  case 1:
    401                    Send_Byte(CA);
    402                    Send_Byte(CA);
    403                    return -30;
    404                  /* 其他处理 */
    405                  default:
    406                    if (session_begin > 0) errors ++;
    407                    
    408                    if (errors > MAX_ERRORS)
    409                    {
    410                      Send_Byte(CA);      // 请求结束传输
    411                      Send_Byte(CA);
    412                      return -10;
    413                    }
    414                    
    415                    // 超时
    416                    if(times > timeout){
    417                      Send_Byte(CA);      // 请求结束传输
    418                      Send_Byte(CA);
    419                      return -11;
    420                    }
    421                    Send_Byte(CRC16);     // 发送字符'C' 
    422                    times++;
    423                    break;
    424                }
    425                if (file_done != 0) break;
    426              }
    427              if (session_done != 0) break;
   \                     ??Ymodem_Receive_0:
   \   00006E   740C         MOV     A,#0xc
   \   000070   12....       LCALL   ?XSTACK_DISP0_8
   \   000073   12....       LCALL   ?Subroutine2
   \                     ??CrossCallReturnLabel_42:
   \   000076   8017         SJMP    ??Ymodem_Receive_2
   \                     ??Ymodem_Receive_3:
   \   000078                ; Setup parameters for call to function Uart0_Send_char
   \   000078   7943         MOV     R1,#0x43
   \   00007A   12....       LCALL   Uart0_Send_char
   \   00007D   90....       MOV     DPTR,#__Constant_1
   \   000080   78..         MOV     R0,#?V0
   \   000082   12....       LCALL   ?L_MOV_X
   \   000085   7418         MOV     A,#0x18
   \   000087   12....       LCALL   ?XSTACK_DISP0_8
   \   00008A   78..         MOV     R0,#?V0
   \   00008C   12....       LCALL   ?L_ADD_TO_X
   \                     ??Ymodem_Receive_2:
   \   00008F                ; Setup parameters for call to function Receive_Packet
   \   00008F   90....       MOV     DPTR,#__Constant_10000
   \   000092   12....       LCALL   ?PUSH_XSTACK8_X_FOUR
   \   000095   7408         MOV     A,#0x8
   \   000097   12....       LCALL   ?XSTACK_DISP102_8
   \   00009A   7A..         MOV     R2,#packet_data & 0xff
   \   00009C   7B..         MOV     R3,#(packet_data >> 8) & 0xff
   \   00009E   12....       LCALL   Receive_Packet
   \   0000A1   7404         MOV     A,#0x4
   \   0000A3   12....       LCALL   ?DEALLOC_XSTACK8
   \   0000A6   8A..         MOV     ?V0,R2
   \   0000A8   8B..         MOV     ?V1,R3
   \   0000AA   8C..         MOV     ?V2,R4
   \   0000AC   8D..         MOV     ?V3,R5
   \   0000AE   78..         MOV     R0,#?V0
   \   0000B0   12....       LCALL   ?UL_SWITCH_DENSE
   \                     `?<Jumptable for Ymodem_Receive>_0`:
   \   0000B3   00000000     DD        0
   \   0000B7   01           DB        1
   \   0000B8   ....         DW        ??Ymodem_Receive_4
   \   0000BA   ....         DW        ??Ymodem_Receive_5
   \   0000BC   ....         DW        ??Ymodem_Receive_6
   \                     ??Ymodem_Receive_5:
   \   0000BE   7410         MOV     A,#0x10
   \   0000C0   12....       LCALL   ?XSTACK_DISP0_8
   \   0000C3   12....       LCALL   ?Subroutine2
   \                     ??CrossCallReturnLabel_43:
   \   0000C6   7404         MOV     A,#0x4
   \   0000C8   12....       LCALL   ?XSTACK_DISP0_8
   \   0000CB   78..         MOV     R0,#?V0
   \   0000CD   12....       LCALL   ?L_MOV_X
   \   0000D0   78..         MOV     R0,#?V0
   \   0000D2   12....       LCALL   ?UL_SWITCH_DENSE
   \                     `?<Jumptable for Ymodem_Receive>_1`:
   \   0000D5   FFFFFFFF     DD        4294967295
   \   0000D9   01           DB        1
   \   0000DA   ....         DW        ??Ymodem_Receive_7
   \   0000DC   ....         DW        ??Ymodem_Receive_8
   \   0000DE   ....         DW        ??Ymodem_Receive_1
   \                     ??Ymodem_Receive_8:
   \   0000E0                ; Setup parameters for call to function Uart0_Send_char
   \   0000E0   7906         MOV     R1,#0x6
   \   0000E2   12....       LCALL   Uart0_Send_char
   \   0000E5   02....       LJMP    ??Ymodem_Receive_9
   \                     ??Ymodem_Receive_7:
   \   0000E8   7418         MOV     A,#0x18
   \   0000EA   12....       LCALL   ?XSTACK_DISP0_8
   \   0000ED   12....       LCALL   ?Subroutine2
   \                     ??CrossCallReturnLabel_44:
   \   0000F0   90....       MOV     DPTR,#packet_data + 1
   \   0000F3   E0           MOVX    A,@DPTR
   \   0000F4   C0E0         PUSH    A
   \   0000F6   740C         MOV     A,#0xc
   \   0000F8   12....       LCALL   ?XSTACK_DISP0_8
   \   0000FB   78..         MOV     R0,#?V0
   \   0000FD   12....       LCALL   ?L_MOV_X
   \   000100   D0E0         POP     A
   \   000102   65..         XRL     A,?V0
   \   000104   6007         JZ      ??Ymodem_Receive_10
   \   000106                ; Setup parameters for call to function Uart0_Send_char
   \   000106   7915         MOV     R1,#0x15
   \   000108   12....       LCALL   Uart0_Send_char
   \   00010B   8082         SJMP    ??Ymodem_Receive_2
   \                     ??Ymodem_Receive_10:
   \   00010D   740C         MOV     A,#0xc
   \   00010F   12....       LCALL   ?XSTACK_DISP0_8
   \   000112   12....       LCALL   ?XLOAD_R0123
   \   000115   E8           MOV     A,R0
   \   000116   49           ORL     A,R1
   \   000117   4A           ORL     A,R2
   \   000118   4B           ORL     A,R3
   \   000119   6003         JZ      $+5
   \   00011B   02....       LJMP    ??Ymodem_Receive_11
   \   00011E   90....       MOV     DPTR,#packet_data + 3
   \   000121   E0           MOVX    A,@DPTR
   \   000122   7003         JNZ     $+5
   \   000124   02....       LJMP    ??Ymodem_Receive_12
   \   000127   75..00       MOV     ?V0,#0x0
   \   00012A   75..00       MOV     ?V1,#0x0
   \   00012D   75..00       MOV     ?V2,#0x0
   \   000130   75..00       MOV     ?V3,#0x0
   \   000133   7A..         MOV     R2,#(packet_data + 3) & 0xff
   \   000135   7B..         MOV     R3,#((packet_data + 3) >> 8) & 0xff
   \   000137   8012         SJMP    ??Ymodem_Receive_13
   \                     ??Ymodem_Receive_14:
   \   000139   E9           MOV     A,R1
   \   00013A   8E82         MOV     DPL,R6
   \   00013C   8F83         MOV     DPH,R7
   \   00013E   F0           MOVX    @DPTR,A
   \   00013F   EC           MOV     A,R4
   \   000140   FA           MOV     R2,A
   \   000141   ED           MOV     A,R5
   \   000142   FB           MOV     R3,A
   \   000143   90....       MOV     DPTR,#__Constant_1
   \   000146   78..         MOV     R0,#?V0
   \   000148   12....       LCALL   ?L_ADD_X
   \                     ??Ymodem_Receive_13:
   \   00014B   85....       MOV     ?V4,?V0
   \   00014E   85....       MOV     ?V5,?V1
   \   000151   74..         MOV     A,#file_name & 0xff
   \   000153   25..         ADD     A,?V4
   \   000155   F8           MOV     R0,A
   \   000156   74..         MOV     A,#(file_name >> 8) & 0xff
   \   000158   35..         ADDC    A,?V5
   \   00015A   F9           MOV     R1,A
   \   00015B   E8           MOV     A,R0
   \   00015C   FE           MOV     R6,A
   \   00015D   E9           MOV     A,R1
   \   00015E   FF           MOV     R7,A
   \   00015F   8A82         MOV     DPL,R2
   \   000161   8B83         MOV     DPH,R3
   \   000163   A3           INC     DPTR
   \   000164   AC82         MOV     R4,DPL
   \   000166   AD83         MOV     R5,DPH
   \   000168   8A82         MOV     DPL,R2
   \   00016A   8B83         MOV     DPH,R3
   \   00016C   E0           MOVX    A,@DPTR
   \   00016D   F9           MOV     R1,A
   \   00016E   600A         JZ      ??Ymodem_Receive_15
   \   000170   90....       MOV     DPTR,#__Constant_100
   \   000173   78..         MOV     R0,#?V0
   \   000175   12....       LCALL   ?SL_GE_X
   \   000178   50BF         JNC     ??Ymodem_Receive_14
   \                     ??Ymodem_Receive_15:
   \   00017A   8E82         MOV     DPL,R6
   \   00017C   8F83         MOV     DPH,R7
   \   00017E   12....       LCALL   ??Subroutine19_0
   \                     ??CrossCallReturnLabel_48:
   \   000181   EC           MOV     A,R4
   \   000182   FA           MOV     R2,A
   \   000183   ED           MOV     A,R5
   \   000184   FB           MOV     R3,A
   \   000185   8010         SJMP    ??Ymodem_Receive_16
   \                     ??Ymodem_Receive_17:
   \   000187   E9           MOV     A,R1
   \   000188   8C82         MOV     DPL,R4
   \   00018A   8D83         MOV     DPH,R5
   \   00018C   12....       LCALL   ?Subroutine5
   \                     ??CrossCallReturnLabel_3:
   \   00018F   90....       MOV     DPTR,#__Constant_1
   \   000192   78..         MOV     R0,#?V0
   \   000194   12....       LCALL   ?L_ADD_X
   \                     ??Ymodem_Receive_16:
   \   000197   85....       MOV     ?V4,?V0
   \   00019A   85....       MOV     ?V5,?V1
   \   00019D   7420         MOV     A,#0x20
   \   00019F   12....       LCALL   ?XSTACK_DISP0_8
   \   0001A2   E582         MOV     A,DPL
   \   0001A4   25..         ADD     A,?V4
   \   0001A6   F8           MOV     R0,A
   \   0001A7   E583         MOV     A,DPH
   \   0001A9   35..         ADDC    A,?V5
   \   0001AB   F9           MOV     R1,A
   \   0001AC   E8           MOV     A,R0
   \   0001AD   FC           MOV     R4,A
   \   0001AE   E9           MOV     A,R1
   \   0001AF   FD           MOV     R5,A
   \   0001B0   8A82         MOV     DPL,R2
   \   0001B2   8B83         MOV     DPH,R3
   \   0001B4   E0           MOVX    A,@DPTR
   \   0001B5   F9           MOV     R1,A
   \   0001B6   7420         MOV     A,#0x20
   \   0001B8   69           XRL     A,R1
   \   0001B9   600A         JZ      ??Ymodem_Receive_18
   \   0001BB   90....       MOV     DPTR,#__Constant_10
   \   0001BE   78..         MOV     R0,#?V0
   \   0001C0   12....       LCALL   ?SL_GE_X
   \   0001C3   50C2         JNC     ??Ymodem_Receive_17
   \                     ??Ymodem_Receive_18:
   \   0001C5   8C82         MOV     DPL,R4
   \   0001C7   8D83         MOV     DPH,R5
   \   0001C9   E4           CLR     A
   \   0001CA   F0           MOVX    @DPTR,A
   \   0001CB                ; Setup parameters for call to function Str2Int
   \   0001CB   AC..         MOV     R4,?XSP + 0
   \   0001CD   AD..         MOV     R5,?XSP + 1
   \   0001CF   7420         MOV     A,#0x20
   \   0001D1   12....       LCALL   ?XSTACK_DISP101_8
   \   0001D4   12....       LCALL   Str2Int
   \   0001D7   7408         MOV     A,#0x8
   \   0001D9   12....       LCALL   ?XSTACK_DISP0_8
   \   0001DC   78..         MOV     R0,#?V0
   \   0001DE   12....       LCALL   ?L_MOV_X
   \   0001E1   85..82       MOV     DPL,?XSP + 0
   \   0001E4   85..83       MOV     DPH,?XSP + 1
   \   0001E7   78..         MOV     R0,#?V0
   \   0001E9   12....       LCALL   ?L_ADD_X
   \   0001EC   85..82       MOV     DPL,?XSP + 0
   \   0001EF   85..83       MOV     DPH,?XSP + 1
   \   0001F2   78..         MOV     R0,#?V4
   \   0001F4   12....       LCALL   ?L_MOV_X
   \   0001F7   743F         MOV     A,#0x3f
   \   0001F9   12....       LCALL   ?XSTACK_DISP0_8
   \   0001FC   78..         MOV     R0,#?V4
   \   0001FE   12....       LCALL   ?UL_GT_X
   \   000201   401C         JC      ??Ymodem_Receive_19
   \   000203   741C         MOV     A,#0x1c
   \   000205   12....       LCALL   ?XSTACK_DISP0_8
   \   000208   78..         MOV     R0,#?V0
   \   00020A   12....       LCALL   ?UL_GT_X
   \   00020D   4010         JC      ??Ymodem_Receive_19
   \   00020F   7408         MOV     A,#0x8
   \   000211   12....       LCALL   ?XSTACK_DISP0_8
   \   000214   78..         MOV     R0,#?V4
   \   000216   12....       LCALL   ?L_MOV_X
   \   000219   E5..         MOV     A,?V4
   \   00021B   5403         ANL     A,#0x3
   \   00021D   600F         JZ      ??Ymodem_Receive_20
   \                     ??Ymodem_Receive_19:
   \   00021F                ; Setup parameters for call to function Uart0_Send_char
   \   00021F   7918         MOV     R1,#0x18
   \   000221   12....       LCALL   Uart0_Send_char
   \   000224                ; Setup parameters for call to function Uart0_Send_char
   \   000224   7918         MOV     R1,#0x18
   \   000226   12....       LCALL   Uart0_Send_char
   \   000229   7AFF         MOV     R2,#-0x1
   \   00022B   02....       LJMP    ??Ymodem_Receive_21
   \                     ??Ymodem_Receive_20:
   \   00022E   7408         MOV     A,#0x8
   \   000230   12....       LCALL   ?XSTACK_DISP0_8
   \   000233   78..         MOV     R0,#?V4
   \   000235   12....       LCALL   ?L_MOV_X
   \   000238   740B         MOV     A,#0xb
   \   00023A   78..         MOV     R0,#?V4
   \   00023C   12....       LCALL   ?UL_SHR
   \   00023F   E5..         MOV     A,?V4
   \   000241   FE           MOV     R6,A
   \   000242   740B         MOV     A,#0xb
   \   000244   78..         MOV     R0,#?V0
   \   000246   12....       LCALL   ?UL_SHR
   \   000249   E5..         MOV     A,?V0
   \   00024B   F5..         MOV     ?V0,A
   \   00024D   C3           CLR     C
   \   00024E   9481         SUBB    A,#-0x7f
   \   000250   4025         JC      ??Ymodem_Receive_22
   \   000252                ; Setup parameters for call to function printf
   \   000252   75..00       MOV     ?V1,#0x0
   \   000255   78..         MOV     R0,#?V0
   \   000257   12....       LCALL   ?PUSH_XSTACK_I_TWO
   \   00025A   7A..         MOV     R2,#`?<Constant "ERROR:Get_Page error!...">` & 0xff
   \   00025C   7B..         MOV     R3,#(`?<Constant "ERROR:Get_Page error!...">` >> 8) & 0xff
   \   00025E   12....       LCALL   printf
   \   000261   7402         MOV     A,#0x2
   \   000263   12....       LCALL   ?DEALLOC_XSTACK8
   \                     ??Ymodem_Receive_9:
   \   000266   7A00         MOV     R2,#0x0
   \   000268   7B00         MOV     R3,#0x0
   \   00026A   7C00         MOV     R4,#0x0
   \   00026C   7D00         MOV     R5,#0x0
   \   00026E   02....       LJMP    ??Ymodem_Receive_23
   \                     ??Ymodem_Receive_24:
   \   000271                ; Setup parameters for call to function HalFlashErase
   \   000271   EE           MOV     A,R6
   \   000272   F9           MOV     R1,A
   \   000273   12....       LCALL   HalFlashErase
   \   000276   0E           INC     R6
   \                     ??Ymodem_Receive_22:
   \   000277   E5..         MOV     A,?V0
   \   000279   C3           CLR     C
   \   00027A   9E           SUBB    A,R6
   \   00027B   50F4         JNC     ??Ymodem_Receive_24
   \   00027D                ; Setup parameters for call to function Uart0_Send_char
   \   00027D   7906         MOV     R1,#0x6
   \   00027F   12....       LCALL   Uart0_Send_char
   \   000282                ; Setup parameters for call to function Uart0_Send_char
   \   000282   7943         MOV     R1,#0x43
   \   000284   8066         SJMP    ??Ymodem_Receive_25
   \                     ??Ymodem_Receive_12:
   \   000286                ; Setup parameters for call to function Uart0_Send_char
   \   000286   7906         MOV     R1,#0x6
   \   000288   12....       LCALL   Uart0_Send_char
    428            }
    429            return (int32_t)size;
   \   00028B   85..82       MOV     DPL,?XSP + 0
   \   00028E   85..83       MOV     DPH,?XSP + 1
   \   000291   12....       LCALL   ?XLOAD_R2345
   \   000294   02....       LJMP    ??Ymodem_Receive_23
   \                     ??Ymodem_Receive_11:
   \   000297                ; Setup parameters for call to function HalFlashWrite
   \   000297   7404         MOV     A,#0x4
   \   000299   12....       LCALL   ?XSTACK_DISP0_8
   \   00029C   78..         MOV     R0,#?V0
   \   00029E   12....       LCALL   ?L_MOV_X
   \   0002A1   90....       MOV     DPTR,#__Constant_4
   \   0002A4   78..         MOV     R0,#?V4
   \   0002A6   12....       LCALL   ?L_MOV_X
   \   0002A9   78..         MOV     R0,#?V0
   \   0002AB   79..         MOV     R1,#?V4
   \   0002AD   12....       LCALL   ?L_DIV_MOD
   \   0002B0   78..         MOV     R0,#?V0
   \   0002B2   12....       LCALL   ?PUSH_XSTACK_I_TWO
   \   0002B5   7C..         MOV     R4,#(packet_data + 3) & 0xff
   \   0002B7   7D..         MOV     R5,#((packet_data + 3) >> 8) & 0xff
   \   0002B9   7416         MOV     A,#0x16
   \   0002BB   12....       LCALL   ?XSTACK_DISP0_8
   \   0002BE   78..         MOV     R0,#?V0
   \   0002C0   12....       LCALL   ?L_MOV_X
   \   0002C3   7402         MOV     A,#0x2
   \   0002C5   78..         MOV     R0,#?V0
   \   0002C7   12....       LCALL   ?UL_SHR
   \   0002CA   AA..         MOV     R2,?V0
   \   0002CC   AB..         MOV     R3,?V1
   \   0002CE   12....       LCALL   HalFlashWrite
   \   0002D1   7402         MOV     A,#0x2
   \   0002D3   12....       LCALL   ?DEALLOC_XSTACK8
   \   0002D6   7404         MOV     A,#0x4
   \   0002D8   12....       LCALL   ?XSTACK_DISP0_8
   \   0002DB   78..         MOV     R0,#?V0
   \   0002DD   12....       LCALL   ?L_MOV_X
   \   0002E0   7414         MOV     A,#0x14
   \   0002E2   12....       LCALL   ?XSTACK_DISP0_8
   \   0002E5   78..         MOV     R0,#?V0
   \   0002E7   12....       LCALL   ?L_ADD_TO_X
   \   0002EA                ; Setup parameters for call to function Uart0_Send_char
   \   0002EA   7906         MOV     R1,#0x6
   \                     ??Ymodem_Receive_25:
   \   0002EC   12....       LCALL   Uart0_Send_char
   \   0002EF   90....       MOV     DPTR,#__Constant_1
   \   0002F2   78..         MOV     R0,#?V0
   \   0002F4   12....       LCALL   ?L_MOV_X
   \   0002F7   740C         MOV     A,#0xc
   \   0002F9   12....       LCALL   ?XSTACK_DISP0_8
   \   0002FC   78..         MOV     R0,#?V0
   \   0002FE   12....       LCALL   ?L_ADD_TO_X
   \   000301   75..01       MOV     ?V4,#0x1
   \   000304   02....       LJMP    ??Ymodem_Receive_2
   \                     ??Ymodem_Receive_6:
   \   000307                ; Setup parameters for call to function Uart0_Send_char
   \   000307   7918         MOV     R1,#0x18
   \   000309   12....       LCALL   Uart0_Send_char
   \   00030C                ; Setup parameters for call to function Uart0_Send_char
   \   00030C   7918         MOV     R1,#0x18
   \   00030E   12....       LCALL   Uart0_Send_char
   \   000311   7AE2         MOV     R2,#-0x1e
   \   000313   8062         SJMP    ??Ymodem_Receive_21
   \                     ??Ymodem_Receive_4:
   \   000315   85....       MOV     ?V0,?V4
   \   000318   E5..         MOV     A,?V0
   \   00031A   A2E0         MOV     C,0xE0 /* A   */.0
   \   00031C   5012         JNC     ??Ymodem_Receive_26
   \   00031E   90....       MOV     DPTR,#__Constant_1
   \   000321   78..         MOV     R0,#?V0
   \   000323   12....       LCALL   ?L_MOV_X
   \   000326   7410         MOV     A,#0x10
   \   000328   12....       LCALL   ?XSTACK_DISP0_8
   \   00032B   78..         MOV     R0,#?V0
   \   00032D   12....       LCALL   ?L_ADD_TO_X
   \                     ??Ymodem_Receive_26:
   \   000330   90....       MOV     DPTR,#__Constant_6
   \   000333   78..         MOV     R0,#?V0
   \   000335   12....       LCALL   ?L_MOV_X
   \   000338   7410         MOV     A,#0x10
   \   00033A   12....       LCALL   ?XSTACK_DISP0_8
   \   00033D   78..         MOV     R0,#?V0
   \   00033F   12....       LCALL   ?SL_GT_X
   \   000342   400E         JC      ??Ymodem_Receive_27
   \   000344                ; Setup parameters for call to function Uart0_Send_char
   \   000344   7918         MOV     R1,#0x18
   \   000346   12....       LCALL   Uart0_Send_char
   \   000349                ; Setup parameters for call to function Uart0_Send_char
   \   000349   7918         MOV     R1,#0x18
   \   00034B   12....       LCALL   Uart0_Send_char
   \   00034E   7AF6         MOV     R2,#-0xa
   \   000350   8025         SJMP    ??Ymodem_Receive_21
   \                     ??Ymodem_Receive_27:
   \   000352   7418         MOV     A,#0x18
   \   000354   12....       LCALL   ?XSTACK_DISP0_8
   \   000357   78..         MOV     R0,#?V0
   \   000359   12....       LCALL   ?L_MOV_X
   \   00035C   7443         MOV     A,#0x43
   \   00035E   12....       LCALL   ?XSTACK_DISP0_8
   \   000361   78..         MOV     R0,#?V0
   \   000363   12....       LCALL   ?UL_GT_X
   \   000366   4003         JC      $+5
   \   000368   02....       LJMP    ??Ymodem_Receive_3
   \   00036B                ; Setup parameters for call to function Uart0_Send_char
   \   00036B   7918         MOV     R1,#0x18
   \   00036D   12....       LCALL   Uart0_Send_char
   \   000370                ; Setup parameters for call to function Uart0_Send_char
   \   000370   7918         MOV     R1,#0x18
   \   000372   12....       LCALL   Uart0_Send_char
   \   000375   7AF5         MOV     R2,#-0xb
   \                     ??Ymodem_Receive_21:
   \   000377   7BFF         MOV     R3,#-0x1
   \   000379   7CFF         MOV     R4,#-0x1
   \   00037B   7DFF         MOV     R5,#-0x1
   \                     ??Ymodem_Receive_23:
   \   00037D   7430         MOV     A,#0x30
   \   00037F   02....       LJMP    ?Subroutine0
    430          }

   \                                 In  segment NEAR_CODE, align 1, keep-with-next
   \                     ??Subroutine19_0:
   \   000000   E4           CLR     A
   \   000001                REQUIRE ??Subroutine20_0
   \   000001                ; // Fall through to label ??Subroutine20_0

   \                                 In  segment NEAR_CODE, align 1, keep-with-next
   \                     ??Subroutine20_0:
   \   000000   F0           MOVX    @DPTR,A
   \   000001   F5..         MOV     ?V0,A
   \   000003   F5..         MOV     ?V1,A
   \   000005   F5..         MOV     ?V2,A
   \   000007   F5..         MOV     ?V3,A
   \   000009   22           RET

   \                                 In  segment NEAR_CODE, align 1, keep-with-next
   \                     ?Subroutine5:
   \   000000   F0           MOVX    @DPTR,A
   \   000001   8A82         MOV     DPL,R2
   \   000003   8B83         MOV     DPH,R3
   \   000005   A3           INC     DPTR
   \   000006   AA82         MOV     R2,DPL
   \   000008   AB83         MOV     R3,DPH
   \   00000A   22           RET
    431          
    432          /**
    433            * @brief  check response using the ymodem protocol
    434            * @param  buf: Address of the first byte
    435            * @retval The size of the file
    436            */

   \                                 In  segment NEAR_CODE, align 1, keep-with-next
    437          int32_t Ymodem_CheckResponse(uint8_t c)
   \                     Ymodem_CheckResponse:
    438          {
   \   000000                ; Saved register size: 0
   \   000000                ; Auto size: 0
    439            return 0;
   \   000000   7A00         MOV     R2,#0x0
   \   000002   7B00         MOV     R3,#0x0
   \   000004   7C00         MOV     R4,#0x0
   \   000006   7D00         MOV     R5,#0x0
   \   000008   22           RET
    440          }
    441          
    442          /**
    443            * @brief  Prepare the first block
    444            * @param  timeout
    445            *     0: end of transmission
    446            */

   \                                 In  segment NEAR_CODE, align 1, keep-with-next
    447          void Ymodem_PrepareIntialPacket(uint8_t *data, const uint8_t* fileName, uint32_t *length)
   \                     Ymodem_PrepareIntialPacket:
    448          {
   \   000000                REQUIRE ?V0
   \   000000                REQUIRE ?V1
   \   000000   74F7         MOV     A,#-0x9
   \   000002   12....       LCALL   ?FUNC_ENTER_XDATA
   \   000005                ; Saved register size: 9
   \   000005                ; Auto size: 10
   \   000005   74F6         MOV     A,#-0xa
   \   000007   12....       LCALL   ?ALLOC_XSTACK8
   \   00000A   8A..         MOV     ?V0,R2
   \   00000C   8B..         MOV     ?V1,R3
    449            uint16_t i, j;
    450            uint8_t file_ptr[10];
    451            
    452            /* Make first three packet */
    453            data[0] = SOH;
   \   00000E   8A82         MOV     DPL,R2
   \   000010   8B83         MOV     DPH,R3
   \   000012   7401         MOV     A,#0x1
   \   000014   F0           MOVX    @DPTR,A
    454            data[1] = 0x00;
   \   000015   A3           INC     DPTR
   \   000016   E4           CLR     A
   \   000017   F0           MOVX    @DPTR,A
    455            data[2] = 0xff;
   \   000018   8A82         MOV     DPL,R2
   \   00001A   8B83         MOV     DPH,R3
   \   00001C   A3           INC     DPTR
   \   00001D   A3           INC     DPTR
   \   00001E   74FF         MOV     A,#-0x1
   \   000020   F0           MOVX    @DPTR,A
    456            
    457            /* Filename packet has valid data */
    458            for (i = 0; (fileName[i] != '\0') && (i < FILE_NAME_LENGTH);i++)
   \   000021   7E00         MOV     R6,#0x0
   \   000023   7F00         MOV     R7,#0x0
   \   000025   800B         SJMP    ??Ymodem_PrepareIntialPacket_0
    459            {
    460               data[i + PACKET_HEADER] = fileName[i];
   \                     ??Ymodem_PrepareIntialPacket_1:
   \   000027   EA           MOV     A,R2
   \   000028   8882         MOV     DPL,R0
   \   00002A   8983         MOV     DPH,R1
   \   00002C   F0           MOVX    @DPTR,A
    461            }
   \   00002D   0E           INC     R6
   \   00002E   EE           MOV     A,R6
   \   00002F   7001         JNZ     ??Ymodem_PrepareIntialPacket_0
   \   000031   0F           INC     R7
   \                     ??Ymodem_PrepareIntialPacket_0:
   \   000032   E5..         MOV     A,?V0
   \   000034   2E           ADD     A,R6
   \   000035   F8           MOV     R0,A
   \   000036   EB           MOV     A,R3
   \   000037   3F           ADDC    A,R7
   \   000038   F9           MOV     R1,A
   \   000039   E8           MOV     A,R0
   \   00003A   2403         ADD     A,#0x3
   \   00003C   F8           MOV     R0,A
   \   00003D   5001         JNC     ??Ymodem_PrepareIntialPacket_2
   \   00003F   09           INC     R1
   \                     ??Ymodem_PrepareIntialPacket_2:
   \   000040   EC           MOV     A,R4
   \   000041   2E           ADD     A,R6
   \   000042   F582         MOV     DPL,A
   \   000044   ED           MOV     A,R5
   \   000045   3F           ADDC    A,R7
   \   000046   F583         MOV     DPH,A
   \   000048   E0           MOVX    A,@DPTR
   \   000049   FA           MOV     R2,A
   \   00004A   6006         JZ      ??Ymodem_PrepareIntialPacket_3
   \   00004C   C3           CLR     C
   \   00004D   EF           MOV     A,R7
   \   00004E   9401         SUBB    A,#0x1
   \   000050   40D5         JC      ??Ymodem_PrepareIntialPacket_1
    462          
    463            data[i + PACKET_HEADER] = 0x00;
   \                     ??Ymodem_PrepareIntialPacket_3:
   \   000052   8882         MOV     DPL,R0
   \   000054   8983         MOV     DPH,R1
   \   000056   E4           CLR     A
   \   000057   F0           MOVX    @DPTR,A
    464            
    465            Int2Str (file_ptr, *length);
   \   000058                ; Setup parameters for call to function Int2Str
   \   000058   7413         MOV     A,#0x13
   \   00005A   12....       LCALL   ?XSTACK_DISP0_8
   \   00005D   12....       LCALL   ?Subroutine11
   \                     ??CrossCallReturnLabel_18:
   \   000060   12....       LCALL   ?PUSH_XSTACK8_X_FOUR
   \   000063   7404         MOV     A,#0x4
   \   000065   12....       LCALL   ?XSTACK_DISP101_8
   \   000068   12....       LCALL   Int2Str
   \   00006B   7404         MOV     A,#0x4
   \   00006D   12....       LCALL   ?DEALLOC_XSTACK8
    466            for (j =0, i = i + PACKET_HEADER + 1; file_ptr[j] != '\0' ; )
   \   000070   7800         MOV     R0,#0x0
   \   000072   7900         MOV     R1,#0x0
   \   000074   EE           MOV     A,R6
   \   000075   2404         ADD     A,#0x4
   \   000077   FE           MOV     R6,A
   \   000078   E4           CLR     A
   \   000079   3F           ADDC    A,R7
   \   00007A   FF           MOV     R7,A
   \   00007B   8012         SJMP    ??Ymodem_PrepareIntialPacket_4
    467            {
    468               data[i++] = file_ptr[j++];
   \                     ??Ymodem_PrepareIntialPacket_5:
   \   00007D   C0E0         PUSH    A
   \   00007F   12....       LCALL   ?Subroutine15
    469            }
   \                     ??CrossCallReturnLabel_25:
   \   000082   D0E0         POP     A
   \   000084   F0           MOVX    @DPTR,A
   \   000085   08           INC     R0
   \   000086   E8           MOV     A,R0
   \   000087   7001         JNZ     ??Ymodem_PrepareIntialPacket_6
   \   000089   09           INC     R1
   \                     ??Ymodem_PrepareIntialPacket_6:
   \   00008A   0E           INC     R6
   \   00008B   EE           MOV     A,R6
   \   00008C   7001         JNZ     ??Ymodem_PrepareIntialPacket_4
   \   00008E   0F           INC     R7
   \                     ??Ymodem_PrepareIntialPacket_4:
   \   00008F   85..82       MOV     DPL,?XSP + 0
   \   000092   85..83       MOV     DPH,?XSP + 1
   \   000095   E582         MOV     A,DPL
   \   000097   28           ADD     A,R0
   \   000098   F582         MOV     DPL,A
   \   00009A   E583         MOV     A,DPH
   \   00009C   39           ADDC    A,R1
   \   00009D   F583         MOV     DPH,A
   \   00009F   E0           MOVX    A,@DPTR
   \   0000A0   70DB         JNZ     ??Ymodem_PrepareIntialPacket_5
    470            
    471            for (j = i; j < PACKET_SIZE + PACKET_HEADER; j++)
   \   0000A2   C3           CLR     C
   \   0000A3   EE           MOV     A,R6
   \   0000A4   9483         SUBB    A,#-0x7d
   \   0000A6   EF           MOV     A,R7
   \   0000A7   9400         SUBB    A,#0x0
   \   0000A9   5019         JNC     ??Ymodem_PrepareIntialPacket_7
    472            {
    473              data[j] = 0;
   \   0000AB   7483         MOV     A,#-0x7d
   \   0000AD   C3           CLR     C
   \   0000AE   9E           SUBB    A,R6
   \   0000AF   F8           MOV     R0,A
   \   0000B0   E4           CLR     A
   \   0000B1   9F           SUBB    A,R7
   \   0000B2   F9           MOV     R1,A
   \   0000B3   12....       LCALL   ?Subroutine15
    474            }
   \                     ??CrossCallReturnLabel_26:
   \   0000B6   E4           CLR     A
   \   0000B7   F0           MOVX    @DPTR,A
   \   0000B8   A3           INC     DPTR
   \   0000B9   E8           MOV     A,R0
   \   0000BA   24FF         ADD     A,#-0x1
   \   0000BC   18           DEC     R0
   \   0000BD   E9           MOV     A,R1
   \   0000BE   34FF         ADDC    A,#-0x1
   \   0000C0   F9           MOV     R1,A
   \   0000C1   48           ORL     A,R0
   \   0000C2   70F2         JNZ     ??CrossCallReturnLabel_26
    475          }
   \                     ??Ymodem_PrepareIntialPacket_7:
   \   0000C4   740A         MOV     A,#0xa
   \   0000C6   12....       LCALL   ?DEALLOC_XSTACK8
   \   0000C9   7F02         MOV     R7,#0x2
   \   0000CB   02....       LJMP    ?FUNC_LEAVE_XDATA

   \                                 In  segment NEAR_CODE, align 1, keep-with-next
   \                     ?Subroutine15:
   \   000000   E5..         MOV     A,?V0
   \   000002   2E           ADD     A,R6
   \   000003   F582         MOV     DPL,A
   \   000005   E5..         MOV     A,?V1
   \   000007   3F           ADDC    A,R7
   \   000008   F583         MOV     DPH,A
   \   00000A   22           RET
    476          
    477          /**
    478            * @brief  Prepare the data packet
    479            * @param  timeout
    480            *     0: end of transmission
    481            */

   \                                 In  segment NEAR_CODE, align 1, keep-with-next
    482          void Ymodem_PreparePacket(uint8_t *SourceBuf, uint8_t *data, uint8_t pktNo, uint32_t sizeBlk)
   \                     Ymodem_PreparePacket:
    483          {
   \   000000                REQUIRE ?V0
   \   000000                REQUIRE ?V1
   \   000000                REQUIRE ?V2
   \   000000                REQUIRE ?V3
   \   000000                REQUIRE ?V4
   \   000000                REQUIRE ?V5
   \   000000   74F3         MOV     A,#-0xd
   \   000002   12....       LCALL   ?FUNC_ENTER_XDATA
   \   000005                ; Saved register size: 13
   \   000005                ; Auto size: 0
   \   000005   740D         MOV     A,#0xd
   \   000007   12....       LCALL   ?XSTACK_DISP0_8
   \   00000A   78..         MOV     R0,#?V0
   \   00000C   12....       LCALL   ?L_MOV_X
    484            uint16_t i, size, packetSize;
    485            uint8_t* file_ptr;
    486            
    487            /* Make first three packet */
    488            packetSize = sizeBlk >= PACKET_1K_SIZE ? PACKET_1K_SIZE : PACKET_SIZE;
   \   00000F   90....       MOV     DPTR,#__Constant_400
   \   000012   78..         MOV     R0,#?V0
   \   000014   12....       LCALL   ?UL_GE_X
   \   000017   5018         JNC     ??Ymodem_PreparePacket_0
   \   000019   7E00         MOV     R6,#0x0
   \   00001B   7F04         MOV     R7,#0x4
   \                     ??Ymodem_PreparePacket_1:
   \   00001D   8E..         MOV     ?V2,R6
   \   00001F   8F..         MOV     ?V3,R7
    489            size = sizeBlk < packetSize ? sizeBlk :packetSize;
    490            if (packetSize == PACKET_1K_SIZE)
   \   000021   EE           MOV     A,R6
   \   000022   7003         JNZ     ??Ymodem_PreparePacket_2
   \   000024   7404         MOV     A,#0x4
   \   000026   6F           XRL     A,R7
   \                     ??Ymodem_PreparePacket_2:
   \   000027   701C         JNZ     ??Ymodem_PreparePacket_3
    491            {
    492               data[0] = STX;
   \   000029   8C82         MOV     DPL,R4
   \   00002B   8D83         MOV     DPH,R5
   \   00002D   7402         MOV     A,#0x2
   \   00002F   801A         SJMP    ??Ymodem_PreparePacket_4
    493            }
   \                     ??Ymodem_PreparePacket_0:
   \   000031   7E80         MOV     R6,#-0x80
   \   000033   7F00         MOV     R7,#0x0
   \   000035   90....       MOV     DPTR,#__Constant_80
   \   000038   78..         MOV     R0,#?V0
   \   00003A   12....       LCALL   ?UL_GE_X
   \   00003D   40DE         JC      ??Ymodem_PreparePacket_1
   \   00003F   85....       MOV     ?V2,?V0
   \   000042   85....       MOV     ?V3,?V1
    494            else
    495            {
    496               data[0] = SOH;
   \                     ??Ymodem_PreparePacket_3:
   \   000045   8C82         MOV     DPL,R4
   \   000047   8D83         MOV     DPH,R5
   \   000049   7401         MOV     A,#0x1
   \                     ??Ymodem_PreparePacket_4:
   \   00004B   F0           MOVX    @DPTR,A
    497            }
    498            data[1] = pktNo;
   \   00004C   E9           MOV     A,R1
   \   00004D   A3           INC     DPTR
   \   00004E   F0           MOVX    @DPTR,A
    499            data[2] = (~pktNo);
   \   00004F   F4           CPL     A
   \   000050   8C82         MOV     DPL,R4
   \   000052   8D83         MOV     DPH,R5
   \   000054   A3           INC     DPTR
   \   000055   A3           INC     DPTR
   \   000056   F0           MOVX    @DPTR,A
    500            file_ptr = SourceBuf;
    501            
    502            /* Filename packet has valid data */
    503            for (i = PACKET_HEADER; i < size + PACKET_HEADER;i++)
   \   000057   75..03       MOV     ?V0,#0x3
   \   00005A   75..00       MOV     ?V1,#0x0
   \   00005D   E5..         MOV     A,?V2
   \   00005F   2403         ADD     A,#0x3
   \   000061   F5..         MOV     ?V4,A
   \   000063   E4           CLR     A
   \   000064   35..         ADDC    A,?V3
   \   000066   F5..         MOV     ?V5,A
   \   000068   8017         SJMP    ??Ymodem_PreparePacket_5
    504            {
    505               data[i] = *file_ptr++;
   \                     ??Ymodem_PreparePacket_6:
   \   00006A   8A82         MOV     DPL,R2
   \   00006C   8B83         MOV     DPH,R3
   \   00006E   E0           MOVX    A,@DPTR
   \   00006F   C0E0         PUSH    A
   \   000071   12....       LCALL   ?Subroutine12
    506            }
   \                     ??CrossCallReturnLabel_19:
   \   000074   D0E0         POP     A
   \   000076   12....       LCALL   ?Subroutine5
   \                     ??CrossCallReturnLabel_4:
   \   000079   05..         INC     ?V0
   \   00007B   E5..         MOV     A,?V0
   \   00007D   7002         JNZ     ??Ymodem_PreparePacket_5
   \   00007F   05..         INC     ?V1
   \                     ??Ymodem_PreparePacket_5:
   \   000081   C3           CLR     C
   \   000082   E5..         MOV     A,?V0
   \   000084   95..         SUBB    A,?V4
   \   000086   E5..         MOV     A,?V1
   \   000088   95..         SUBB    A,?V5
   \   00008A   40DE         JC      ??Ymodem_PreparePacket_6
    507            if ( size  <= packetSize)
   \   00008C   C3           CLR     C
   \   00008D   EE           MOV     A,R6
   \   00008E   95..         SUBB    A,?V2
   \   000090   EF           MOV     A,R7
   \   000091   95..         SUBB    A,?V3
   \   000093   4032         JC      ??Ymodem_PreparePacket_7
    508            {
    509              for (i = size + PACKET_HEADER; i < packetSize + PACKET_HEADER; i++)
   \   000095   85....       MOV     ?V0,?V4
   \   000098   85....       MOV     ?V1,?V5
   \   00009B   EE           MOV     A,R6
   \   00009C   C3           CLR     C
   \   00009D   95..         SUBB    A,?V2
   \   00009F   FA           MOV     R2,A
   \   0000A0   EF           MOV     A,R7
   \   0000A1   95..         SUBB    A,?V3
   \   0000A3   FB           MOV     R3,A
   \   0000A4   EE           MOV     A,R6
   \   0000A5   2403         ADD     A,#0x3
   \   0000A7   FE           MOV     R6,A
   \   0000A8   5001         JNC     ??Ymodem_PreparePacket_8
   \   0000AA   0F           INC     R7
   \                     ??Ymodem_PreparePacket_8:
   \   0000AB   C3           CLR     C
   \   0000AC   E5..         MOV     A,?V0
   \   0000AE   9E           SUBB    A,R6
   \   0000AF   E5..         MOV     A,?V1
   \   0000B1   9F           SUBB    A,R7
   \   0000B2   5013         JNC     ??Ymodem_PreparePacket_7
    510              {
    511                data[i] = 0x1A; /* EOF (0x1A) or 0x00 */
   \   0000B4   781A         MOV     R0,#0x1a
   \   0000B6   12....       LCALL   ?Subroutine12
    512              }
   \                     ??CrossCallReturnLabel_20:
   \   0000B9   E8           MOV     A,R0
   \   0000BA   F0           MOVX    @DPTR,A
   \   0000BB   A3           INC     DPTR
   \   0000BC   EA           MOV     A,R2
   \   0000BD   24FF         ADD     A,#-0x1
   \   0000BF   1A           DEC     R2
   \   0000C0   EB           MOV     A,R3
   \   0000C1   34FF         ADDC    A,#-0x1
   \   0000C3   FB           MOV     R3,A
   \   0000C4   4A           ORL     A,R2
   \   0000C5   70F2         JNZ     ??CrossCallReturnLabel_20
    513            }
    514          }
   \                     ??Ymodem_PreparePacket_7:
   \   0000C7   7F06         MOV     R7,#0x6
   \   0000C9   02....       LJMP    ?FUNC_LEAVE_XDATA

   \                                 In  segment NEAR_CODE, align 1, keep-with-next
   \                     ?Subroutine12:
   \   000000   EC           MOV     A,R4
   \   000001   25..         ADD     A,?V0
   \   000003   F582         MOV     DPL,A
   \   000005   ED           MOV     A,R5
   \   000006   35..         ADDC    A,?V1
   \   000008   F583         MOV     DPH,A
   \   00000A   22           RET
    515          
    516          /**
    517            * @brief  Update CRC16 for input byte
    518            * @param  CRC input value 
    519            * @param  input byte
    520             * @retval None
    521            */

   \                                 In  segment NEAR_CODE, align 1, keep-with-next
    522          uint16_t UpdateCRC16(uint16_t crcIn, uint8_t byte)
   \                     UpdateCRC16:
    523          {
   \   000000                REQUIRE ?V0
   \   000000                REQUIRE ?V1
   \   000000                REQUIRE ?V2
   \   000000                REQUIRE ?V3
   \   000000                REQUIRE ?V4
   \   000000                REQUIRE ?V5
   \   000000                REQUIRE ?V6
   \   000000                REQUIRE ?V7
   \   000000   74F1         MOV     A,#-0xf
   \   000002   12....       LCALL   ?FUNC_ENTER_XDATA
   \   000005                ; Saved register size: 15
   \   000005                ; Auto size: 5
   \   000005   74FB         MOV     A,#-0x5
   \   000007   12....       LCALL   ?ALLOC_XSTACK8
   \   00000A   E9           MOV     A,R1
   \   00000B   85..82       MOV     DPL,?XSP + 0
   \   00000E   85..83       MOV     DPH,?XSP + 1
   \   000011   F0           MOVX    @DPTR,A
    524           uint32_t crc = crcIn;
   \   000012   8A..         MOV     ?V0,R2
   \   000014   8B..         MOV     ?V1,R3
   \   000016   E4           CLR     A
   \   000017   F5..         MOV     ?V2,A
   \   000019   F5..         MOV     ?V3,A
    525           uint32_t in = byte|0x100;
   \   00001B   E0           MOVX    A,@DPTR
   \   00001C   FC           MOV     R4,A
   \   00001D   7D01         MOV     R5,#0x1
   \   00001F   ED           MOV     A,R5
   \   000020   33           RLC     A
   \   000021   95E0         SUBB    A,0xE0 /* A   */
   \   000023   04           INC     A
   \   000024   12....       LCALL   ?XSTACK_DISP0_8
   \   000027   EC           MOV     A,R4
   \   000028   F0           MOVX    @DPTR,A
   \   000029   A3           INC     DPTR
   \   00002A   ED           MOV     A,R5
   \   00002B   F0           MOVX    @DPTR,A
   \   00002C   A3           INC     DPTR
   \   00002D   E4           CLR     A
   \   00002E   F0           MOVX    @DPTR,A
   \   00002F   A3           INC     DPTR
   \   000030   F0           MOVX    @DPTR,A
    526           do
    527           {
    528           crc <<= 1;
   \                     ??UpdateCRC16_0:
   \   000031   ED           MOV     A,R5
   \   000032   78..         MOV     R0,#?V0
   \   000034   12....       LCALL   ?L_SHL
    529           in <<= 1;
   \   000037   04           INC     A
   \   000038   12....       LCALL   ?XSTACK_DISP0_8
   \   00003B   78..         MOV     R0,#?V4
   \   00003D   12....       LCALL   ?L_MOV_X
   \   000040   ED           MOV     A,R5
   \   000041   78..         MOV     R0,#?V4
   \   000043   12....       LCALL   ?L_SHL
   \   000046   04           INC     A
   \   000047   12....       LCALL   ?XSTACK_DISP0_8
   \   00004A   78..         MOV     R0,#?V4
   \   00004C   12....       LCALL   ?L_MOV_TO_X
    530           if(in&0x100)
   \   00004F   ED           MOV     A,R5
   \   000050   12....       LCALL   ?XSTACK_DISP0_8
   \   000053   78..         MOV     R0,#?V4
   \   000055   12....       LCALL   ?L_MOV_X
   \   000058   E5..         MOV     A,?V5
   \   00005A   5401         ANL     A,#0x1
   \   00005C   6008         JZ      ??UpdateCRC16_1
    531           ++crc;
   \   00005E   90....       MOV     DPTR,#__Constant_1
   \   000061   78..         MOV     R0,#?V0
   \   000063   12....       LCALL   ?L_ADD_X
    532           if(crc&0x10000)
   \                     ??UpdateCRC16_1:
   \   000066   85....       MOV     ?V4,?V0
   \   000069   85....       MOV     ?V5,?V1
   \   00006C   85....       MOV     ?V6,?V2
   \   00006F   85....       MOV     ?V7,?V3
   \   000072   90....       MOV     DPTR,#__Constant_10000
   \   000075   78..         MOV     R0,#?V4
   \   000077   12....       LCALL   ?L_AND_X
   \   00007A   12....       LCALL   ?Subroutine1
   \                     ??CrossCallReturnLabel_1:
   \   00007D   6008         JZ      ??UpdateCRC16_2
    533           crc ^= 0x1021;
   \   00007F   90....       MOV     DPTR,#__Constant_1021
   \   000082   78..         MOV     R0,#?V0
   \   000084   12....       LCALL   ?L_XOR_X
    534           }
    535           while(!(in&0x10000));
   \                     ??UpdateCRC16_2:
   \   000087   ED           MOV     A,R5
   \   000088   12....       LCALL   ?XSTACK_DISP0_8
   \   00008B   78..         MOV     R0,#?V4
   \   00008D   12....       LCALL   ?L_MOV_X
   \   000090   90....       MOV     DPTR,#__Constant_10000
   \   000093   78..         MOV     R0,#?V4
   \   000095   12....       LCALL   ?L_AND_X
   \   000098   12....       LCALL   ?Subroutine1
   \                     ??CrossCallReturnLabel_2:
   \   00009B   6094         JZ      ??UpdateCRC16_0
    536           return crc&0xffffu;
   \   00009D   AA..         MOV     R2,?V0
   \   00009F   AB..         MOV     R3,?V1
   \   0000A1   7405         MOV     A,#0x5
   \   0000A3                REQUIRE ?Subroutine0
   \   0000A3                ; // Fall through to label ?Subroutine0
    537          }
    538          
    539          
    540          /**
    541            * @brief  Cal CRC16 for YModem Packet
    542            * @param  data
    543            * @param  length
    544             * @retval None
    545            */

   \                                 In  segment NEAR_CODE, align 1, keep-with-next
    546          uint16_t Cal_CRC16(const uint8_t* data, uint32_t size)
   \                     Cal_CRC16:
    547          {
   \   000000                REQUIRE ?V0
   \   000000                REQUIRE ?V1
   \   000000                REQUIRE ?V2
   \   000000                REQUIRE ?V3
   \   000000                REQUIRE ?V4
   \   000000                REQUIRE ?V5
   \   000000                REQUIRE ?V6
   \   000000                REQUIRE ?V7
   \   000000   74F1         MOV     A,#-0xf
   \   000002   12....       LCALL   ?FUNC_ENTER_XDATA
   \   000005                ; Saved register size: 15
   \   000005                ; Auto size: 0
   \   000005   EA           MOV     A,R2
   \   000006   FE           MOV     R6,A
   \   000007   EB           MOV     A,R3
   \   000008   FF           MOV     R7,A
    548           uint32_t crc = 0;
   \   000009   75..00       MOV     ?V0,#0x0
   \   00000C   75..00       MOV     ?V1,#0x0
    549           const uint8_t* dataEnd = data+size;
   \   00000F   740F         MOV     A,#0xf
   \   000011   12....       LCALL   ?XSTACK_DISP0_8
   \   000014   78..         MOV     R0,#?V4
   \   000016   12....       LCALL   ?L_MOV_X
   \   000019   EE           MOV     A,R6
   \   00001A   25..         ADD     A,?V4
   \   00001C   F5..         MOV     ?V4,A
   \   00001E   EF           MOV     A,R7
   \   00001F   35..         ADDC    A,?V5
   \   000021   F5..         MOV     ?V5,A
   \   000023   8016         SJMP    ??Cal_CRC16_0
    550           while(data<dataEnd)
    551            crc = UpdateCRC16(crc,*data++);
   \                     ??Cal_CRC16_1:
   \   000025                ; Setup parameters for call to function UpdateCRC16
   \   000025   8E82         MOV     DPL,R6
   \   000027   8F83         MOV     DPH,R7
   \   000029   E0           MOVX    A,@DPTR
   \   00002A   F9           MOV     R1,A
   \   00002B   AA..         MOV     R2,?V0
   \   00002D   AB..         MOV     R3,?V1
   \   00002F   12....       LCALL   UpdateCRC16
   \   000032   8A..         MOV     ?V0,R2
   \   000034   8B..         MOV     ?V1,R3
   \   000036   A3           INC     DPTR
   \   000037   AE82         MOV     R6,DPL
   \   000039   AF83         MOV     R7,DPH
   \                     ??Cal_CRC16_0:
   \   00003B   C3           CLR     C
   \   00003C   EE           MOV     A,R6
   \   00003D   95..         SUBB    A,?V4
   \   00003F   EF           MOV     A,R7
   \   000040   95..         SUBB    A,?V5
   \   000042   40E1         JC      ??Cal_CRC16_1
    552           
    553           crc = UpdateCRC16(crc,0);
    554           crc = UpdateCRC16(crc,0);
    555           return crc&0xffffu;
   \   000044                ; Setup parameters for call to function UpdateCRC16
   \   000044   E4           CLR     A
   \   000045   F9           MOV     R1,A
   \   000046                ; Setup parameters for call to function UpdateCRC16
   \   000046   AA..         MOV     R2,?V0
   \   000048   AB..         MOV     R3,?V1
   \   00004A   12....       LCALL   UpdateCRC16
   \   00004D   E4           CLR     A
   \   00004E   F9           MOV     R1,A
   \   00004F   12....       LCALL   UpdateCRC16
   \   000052   80..         SJMP    ??Subroutine21_0
    556          }
    557          
    558          /**
    559            * @brief  Cal Check sum for YModem Packet
    560            * @param  data
    561            * @param  length
    562             * @retval None
    563            */

   \                                 In  segment NEAR_CODE, align 1, keep-with-next
    564          uint8_t CalChecksum(const uint8_t* data, uint32_t size)
   \                     CalChecksum:
    565          {
   \   000000                REQUIRE ?V0
   \   000000                REQUIRE ?V1
   \   000000                REQUIRE ?V2
   \   000000                REQUIRE ?V3
   \   000000                REQUIRE ?V4
   \   000000                REQUIRE ?V5
   \   000000                REQUIRE ?V6
   \   000000                REQUIRE ?V7
   \   000000   74F1         MOV     A,#-0xf
   \   000002   12....       LCALL   ?FUNC_ENTER_XDATA
   \   000005                ; Saved register size: 15
   \   000005                ; Auto size: 0
    566           uint32_t sum = 0;
   \   000005   75..00       MOV     ?V0,#0x0
   \   000008   75..00       MOV     ?V1,#0x0
   \   00000B   75..00       MOV     ?V2,#0x0
   \   00000E   75..00       MOV     ?V3,#0x0
    567           const uint8_t* dataEnd = data+size;
   \   000011   740F         MOV     A,#0xf
   \   000013   12....       LCALL   ?XSTACK_DISP0_8
   \   000016   78..         MOV     R0,#?V4
   \   000018   12....       LCALL   ?L_MOV_X
   \   00001B   EA           MOV     A,R2
   \   00001C   25..         ADD     A,?V4
   \   00001E   FC           MOV     R4,A
   \   00001F   EB           MOV     A,R3
   \   000020   35..         ADDC    A,?V5
   \   000022   FD           MOV     R5,A
   \   000023   801A         SJMP    ??CalChecksum_0
    568           while(data < dataEnd )
    569             sum += *data++;
   \                     ??CalChecksum_1:
   \   000025   8A82         MOV     DPL,R2
   \   000027   8B83         MOV     DPH,R3
   \   000029   E0           MOVX    A,@DPTR
   \   00002A   F5..         MOV     ?V4,A
   \   00002C   E4           CLR     A
   \   00002D   F5..         MOV     ?V5,A
   \   00002F   F5..         MOV     ?V6,A
   \   000031   F5..         MOV     ?V7,A
   \   000033   78..         MOV     R0,#?V0
   \   000035   79..         MOV     R1,#?V4
   \   000037   12....       LCALL   ?L_ADD
   \   00003A   A3           INC     DPTR
   \   00003B   AA82         MOV     R2,DPL
   \   00003D   AB83         MOV     R3,DPH
   \                     ??CalChecksum_0:
   \   00003F   EC           MOV     A,R4
   \   000040   F8           MOV     R0,A
   \   000041   ED           MOV     A,R5
   \   000042   F9           MOV     R1,A
   \   000043   C3           CLR     C
   \   000044   EA           MOV     A,R2
   \   000045   98           SUBB    A,R0
   \   000046   EB           MOV     A,R3
   \   000047   99           SUBB    A,R1
   \   000048   40DB         JC      ??CalChecksum_1
    570           return sum&0xffu;
   \   00004A   A9..         MOV     R1,?V0
   \   00004C   02....       LJMP    ??Subroutine21_0
    571          }
    572          
    573          /**
    574            * @brief  Transmit a data packet using the ymodem protocol
    575            * @param  data
    576            * @param  length
    577             * @retval None
    578            */

   \                                 In  segment NEAR_CODE, align 1, keep-with-next
    579          void Ymodem_SendPacket(uint8_t *data, uint16_t length)
   \                     Ymodem_SendPacket:
    580          {
   \   000000                REQUIRE ?V0
   \   000000                REQUIRE ?V1
   \   000000                REQUIRE ?V2
   \   000000                REQUIRE ?V3
   \   000000   74F5         MOV     A,#-0xb
   \   000002   12....       LCALL   ?FUNC_ENTER_XDATA
   \   000005                ; Saved register size: 11
   \   000005                ; Auto size: 0
   \   000005   8A..         MOV     ?V2,R2
   \   000007   8B..         MOV     ?V3,R3
   \   000009   EC           MOV     A,R4
   \   00000A   FE           MOV     R6,A
   \   00000B   ED           MOV     A,R5
   \   00000C   FF           MOV     R7,A
    581            uint16_t i;
    582            i = 0;
   \   00000D   75..00       MOV     ?V0,#0x0
   \   000010   75..00       MOV     ?V1,#0x0
   \   000013   8019         SJMP    ??Ymodem_SendPacket_0
    583            while (i < length)
    584            {
    585              Send_Byte(data[i]);
   \                     ??Ymodem_SendPacket_1:
   \   000015                ; Setup parameters for call to function Uart0_Send_char
   \   000015   E5..         MOV     A,?V2
   \   000017   25..         ADD     A,?V0
   \   000019   F582         MOV     DPL,A
   \   00001B   E5..         MOV     A,?V3
   \   00001D   35..         ADDC    A,?V1
   \   00001F   F583         MOV     DPH,A
   \   000021   E0           MOVX    A,@DPTR
   \   000022   F9           MOV     R1,A
   \   000023   12....       LCALL   Uart0_Send_char
    586              i++;
   \   000026   05..         INC     ?V0
   \   000028   E5..         MOV     A,?V0
   \   00002A   7002         JNZ     ??Ymodem_SendPacket_0
   \   00002C   05..         INC     ?V1
    587            }
   \                     ??Ymodem_SendPacket_0:
   \   00002E   C3           CLR     C
   \   00002F   E5..         MOV     A,?V0
   \   000031   9E           SUBB    A,R6
   \   000032   E5..         MOV     A,?V1
   \   000034   9F           SUBB    A,R7
   \   000035   40DE         JC      ??Ymodem_SendPacket_1
    588          }
   \   000037   7F04         MOV     R7,#0x4
   \   000039   02....       LJMP    ?FUNC_LEAVE_XDATA
    589          
    590          /**
    591            * @brief  Transmit a file using the ymodem protocol
    592            * @param  buf: Address of the first byte
    593            * @retval The size of the file
    594            */

   \                                 In  segment NEAR_CODE, align 1, keep-with-next
   \                     ?Subroutine3:
   \   000000   85..82       MOV     DPL,?XSP + 0
   \   000003   85..83       MOV     DPH,?XSP + 1
   \   000006                REQUIRE ??Subroutine19_0
   \   000006                ; // Fall through to label ??Subroutine19_0

   \                                 In  segment NEAR_CODE, align 1, keep-with-next
    595          uint8_t Ymodem_Transmit (uint8_t *buf, const uint8_t* sendFileName, uint32_t sizeFile)
   \                     Ymodem_Transmit:
    596          {
   \   000000                REQUIRE ?V0
   \   000000                REQUIRE ?V1
   \   000000                REQUIRE ?V2
   \   000000                REQUIRE ?V3
   \   000000                REQUIRE ?V4
   \   000000                REQUIRE ?V5
   \   000000                REQUIRE ?V6
   \   000000                REQUIRE ?V7
   \   000000   74F1         MOV     A,#-0xf
   \   000002   12....       LCALL   ?FUNC_ENTER_XDATA
   \   000005                ; Saved register size: 15
   \   000005                ; Auto size: 1299
   \   000005   7582ED       MOV     DPL,#-0x13
   \   000008   7583FA       MOV     DPH,#-0x6
   \   00000B   12....       LCALL   ?ADD_XSTACK_DISP0_16
   \   00000E   8A..         MOV     ?V6,R2
   \   000010   8B..         MOV     ?V7,R3
    597            
    598            uint8_t packet_data[PACKET_1K_SIZE + PACKET_OVERHEAD];
    599            uint8_t FileName[FILE_NAME_LENGTH];
    600            uint8_t *buf_ptr, tempCheckSum ;
    601            uint16_t tempCRC, blkNumber;
    602            uint8_t receivedC[2], CRC16_F = 0, i;
    603            uint32_t errors, ackReceived, size = 0, pktSize;
    604          
    605            errors = 0;
   \   000012   75..00       MOV     ?V0,#0x0
   \   000015   75..00       MOV     ?V1,#0x0
   \   000018   75..00       MOV     ?V2,#0x0
   \   00001B   75..00       MOV     ?V3,#0x0
    606            ackReceived = 0;
    607            for (i = 0; i < (FILE_NAME_LENGTH - 1); i++)
   \   00001E   7A00         MOV     R2,#0x0
    608            {
    609              FileName[i] = sendFileName[i];
   \                     ??Ymodem_Transmit_0:
   \   000020   EA           MOV     A,R2
   \   000021   F8           MOV     R0,A
   \   000022   EC           MOV     A,R4
   \   000023   28           ADD     A,R0
   \   000024   F582         MOV     DPL,A
   \   000026   E4           CLR     A
   \   000027   3D           ADDC    A,R5
   \   000028   F583         MOV     DPH,A
   \   00002A   E0           MOVX    A,@DPTR
   \   00002B   C0E0         PUSH    A
   \   00002D   740E         MOV     A,#0xe
   \   00002F   12....       LCALL   ?XSTACK_DISP0_8
   \   000032   E582         MOV     A,DPL
   \   000034   28           ADD     A,R0
   \   000035   F582         MOV     DPL,A
   \   000037   E4           CLR     A
   \   000038   3583         ADDC    A,DPH
   \   00003A   F583         MOV     DPH,A
   \   00003C   D0E0         POP     A
   \   00003E   F0           MOVX    @DPTR,A
    610            }
   \   00003F   0A           INC     R2
   \   000040   74FF         MOV     A,#-0x1
   \   000042   6A           XRL     A,R2
   \   000043   70DB         JNZ     ??Ymodem_Transmit_0
    611            CRC16_F = 1;       
    612              
    613            /* Prepare first block */
    614            Ymodem_PrepareIntialPacket(&packet_data[0], FileName, &sizeFile);
   \   000045                ; Setup parameters for call to function Ymodem_PrepareIntialPacket
   \   000045   7822         MOV     R0,#0x22
   \   000047   7905         MOV     R1,#0x5
   \   000049   12....       LCALL   ?XSTACK_DISP100_16
   \   00004C   88..         MOV     ?V4,R0
   \   00004E   89..         MOV     ?V5,R1
   \   000050   78..         MOV     R0,#?V4
   \   000052   12....       LCALL   ?PUSH_XSTACK_I_TWO
   \   000055   7410         MOV     A,#0x10
   \   000057   12....       LCALL   ?XSTACK_DISP102_8
   \   00005A   7A10         MOV     R2,#0x10
   \   00005C   7B01         MOV     R3,#0x1
   \   00005E   12....       LCALL   ?XSTACK_DISP101_16
   \   000061   12....       LCALL   Ymodem_PrepareIntialPacket
   \   000064   7402         MOV     A,#0x2
   \   000066   12....       LCALL   ?DEALLOC_XSTACK8
    615            
    616            do 
    617            {
    618              /* Send Packet */
    619              Ymodem_SendPacket(packet_data, PACKET_SIZE + PACKET_HEADER);
   \                     ??Ymodem_Transmit_1:
   \   000069                ; Setup parameters for call to function Ymodem_SendPacket
   \   000069   7C83         MOV     R4,#-0x7d
   \   00006B   7D00         MOV     R5,#0x0
   \   00006D   7A0E         MOV     R2,#0xe
   \   00006F   7B01         MOV     R3,#0x1
   \   000071   12....       LCALL   ?XSTACK_DISP101_16
   \   000074   12....       LCALL   Ymodem_SendPacket
    620              /* Send CRC or Check Sum based on CRC16_F */
    621              if (CRC16_F)
    622              {
    623                 tempCRC = Cal_CRC16(&packet_data[3], PACKET_SIZE);
   \   000077                ; Setup parameters for call to function Cal_CRC16
   \   000077   90....       MOV     DPTR,#__Constant_80
   \   00007A   12....       LCALL   ?PUSH_XSTACK8_X_FOUR
   \   00007D   900115       MOV     DPTR,#0x115
   \   000080   12....       LCALL   ?XSTACK_DISP0_16
   \   000083   AA82         MOV     R2,DPL
   \   000085   AB83         MOV     R3,DPH
   \   000087   12....       LCALL   Cal_CRC16
   \   00008A   7404         MOV     A,#0x4
   \   00008C   12....       LCALL   ?DEALLOC_XSTACK8
   \   00008F   8A..         MOV     ?V4,R2
   \   000091   8B..         MOV     ?V5,R3
    624                 Send_Byte(tempCRC >> 8);
   \   000093                ; Setup parameters for call to function Uart0_Send_char
   \   000093   A9..         MOV     R1,?V5
   \   000095   12....       LCALL   Uart0_Send_char
    625                 Send_Byte(tempCRC & 0xFF);
   \   000098                ; Setup parameters for call to function Uart0_Send_char
   \   000098   A9..         MOV     R1,?V4
   \   00009A   12....       LCALL   Uart0_Send_char
    626              }
    627              else
    628              {
    629                 tempCheckSum = CalChecksum (&packet_data[3], PACKET_SIZE);
    630                 Send_Byte(tempCheckSum);
    631              }
    632            
    633              /* Wait for Ack and 'C' */
    634              if (Receive_Byte(&receivedC[0], 10000) == 0)  
   \   00009D                ; Setup parameters for call to function Receive_Byte
   \   00009D   90....       MOV     DPTR,#__Constant_2710
   \   0000A0   12....       LCALL   ?PUSH_XSTACK8_X_FOUR
   \   0000A3   7404         MOV     A,#0x4
   \   0000A5   12....       LCALL   ?XSTACK_DISP101_8
   \   0000A8   12....       LCALL   Receive_Byte
   \   0000AB   7404         MOV     A,#0x4
   \   0000AD   12....       LCALL   ?DEALLOC_XSTACK8
   \   0000B0   EA           MOV     A,R2
   \   0000B1   4B           ORL     A,R3
   \   0000B2   4C           ORL     A,R4
   \   0000B3   4D           ORL     A,R5
   \   0000B4   700D         JNZ     ??Ymodem_Transmit_2
    635              {
    636                if (receivedC[0] == ACK)
   \   0000B6   85..82       MOV     DPL,?XSP + 0
   \   0000B9   85..83       MOV     DPH,?XSP + 1
   \   0000BC   E0           MOVX    A,@DPTR
   \   0000BD   6406         XRL     A,#0x6
   \   0000BF   700A         JNZ     ??Ymodem_Transmit_3
   \   0000C1   8012         SJMP    ??Ymodem_Transmit_4
    637                { 
    638                  /* Packet transfered correctly */
    639                  ackReceived = 1;
    640                }
    641              }
    642              else
    643              {
    644                  errors++;
   \                     ??Ymodem_Transmit_2:
   \   0000C3   90....       MOV     DPTR,#__Constant_1
   \   0000C6   78..         MOV     R0,#?V0
   \   0000C8   12....       LCALL   ?L_ADD_X
   \                     ??Ymodem_Transmit_3:
   \   0000CB   90....       MOV     DPTR,#__Constant_a
   \   0000CE   78..         MOV     R0,#?V0
   \   0000D0   12....       LCALL   ?UL_GE_X
   \   0000D3   5094         JNC     ??Ymodem_Transmit_1
    645              }
    646            }while (!ackReceived && (errors < 0x0A));
    647            
    648            if (errors >=  0x0A)
   \                     ??Ymodem_Transmit_4:
   \   0000D5   90....       MOV     DPTR,#__Constant_a
   \   0000D8   78..         MOV     R0,#?V0
   \   0000DA   12....       LCALL   ?UL_GE_X
   \   0000DD   5003         JNC     $+5
   \   0000DF   02....       LJMP    ??Ymodem_Transmit_5
    649            {
    650              return errors;
    651            }
    652            buf_ptr = buf;
   \   0000E2   7406         MOV     A,#0x6
   \   0000E4   12....       LCALL   ?XSTACK_DISP0_8
   \   0000E7   E5..         MOV     A,?V6
   \   0000E9   F0           MOVX    @DPTR,A
   \   0000EA   A3           INC     DPTR
   \   0000EB   E5..         MOV     A,?V7
   \   0000ED   F0           MOVX    @DPTR,A
    653            size = sizeFile;
    654            blkNumber = 0x01;
   \   0000EE   7408         MOV     A,#0x8
   \   0000F0   12....       LCALL   ?XSTACK_DISP0_8
   \   0000F3   7401         MOV     A,#0x1
   \   0000F5   F0           MOVX    @DPTR,A
   \   0000F6   A3           INC     DPTR
   \   0000F7   E4           CLR     A
   \   0000F8   F0           MOVX    @DPTR,A
    655            /* Here 1024 bytes package is used to send the packets */
    656            
    657            
    658            /* Resend packet if NAK  for a count of 10 else end of commuincation */
    659            while (size)
   \                     ??Ymodem_Transmit_6:
   \   0000F9   740A         MOV     A,#0xa
   \   0000FB   12....       LCALL   ?XSTACK_DISP0_8
   \   0000FE   12....       LCALL   ?XLOAD_R0123
   \   000101   E8           MOV     A,R0
   \   000102   49           ORL     A,R1
   \   000103   4A           ORL     A,R2
   \   000104   4B           ORL     A,R3
   \   000105   7003         JNZ     $+5
   \   000107   02....       LJMP    ??Ymodem_Transmit_7
    660            {
    661              /* Prepare next packet */
    662              Ymodem_PreparePacket(buf_ptr, &packet_data[0], blkNumber, size);
   \   00010A                ; Setup parameters for call to function Ymodem_PreparePacket
   \   00010A   740A         MOV     A,#0xa
   \   00010C   12....       LCALL   ?XSTACK_DISP0_8
   \   00010F   12....       LCALL   ?PUSH_XSTACK8_X_FOUR
   \   000112   740C         MOV     A,#0xc
   \   000114   12....       LCALL   ?XSTACK_DISP0_8
   \   000117   E0           MOVX    A,@DPTR
   \   000118   F9           MOV     R1,A
   \   000119   7C12         MOV     R4,#0x12
   \   00011B   7D01         MOV     R5,#0x1
   \   00011D   12....       LCALL   ?XSTACK_DISP102_16
   \   000120   740A         MOV     A,#0xa
   \   000122   12....       LCALL   ?XSTACK_DISP0_8
   \   000125   E0           MOVX    A,@DPTR
   \   000126   FA           MOV     R2,A
   \   000127   A3           INC     DPTR
   \   000128   E0           MOVX    A,@DPTR
   \   000129   FB           MOV     R3,A
   \   00012A   12....       LCALL   Ymodem_PreparePacket
   \   00012D   7404         MOV     A,#0x4
   \   00012F   12....       LCALL   ?DEALLOC_XSTACK8
    663              ackReceived = 0;
    664              receivedC[0]= 0;
   \   000132   12....       LCALL   ?Subroutine3
    665              errors = 0;
    666              do
    667              {
    668                /* Send next packet */
    669                if (size >= PACKET_1K_SIZE)
   \                     ??CrossCallReturnLabel_46:
   \   000135   90....       MOV     DPTR,#__Constant_400
   \   000138   78..         MOV     R0,#?V4
   \   00013A   12....       LCALL   ?L_MOV_X
   \   00013D   740A         MOV     A,#0xa
   \   00013F   12....       LCALL   ?XSTACK_DISP0_8
   \   000142   78..         MOV     R0,#?V4
   \   000144   12....       LCALL   ?UL_GT_X
   \   000147   7402         MOV     A,#0x2
   \   000149   400D         JC      ??Ymodem_Transmit_8
    670                {
    671                  pktSize = PACKET_1K_SIZE;
   \   00014B   12....       LCALL   ?XSTACK_DISP0_8
   \   00014E   E4           CLR     A
   \   00014F   F0           MOVX    @DPTR,A
   \   000150   A3           INC     DPTR
   \   000151   7404         MOV     A,#0x4
   \   000153   F0           MOVX    @DPTR,A
   \   000154   A3           INC     DPTR
   \   000155   E4           CLR     A
   \   000156   800A         SJMP    ??Ymodem_Transmit_9
    672                 
    673                }
    674                else
    675                {
    676                  pktSize = PACKET_SIZE;
   \                     ??Ymodem_Transmit_8:
   \   000158   12....       LCALL   ?XSTACK_DISP0_8
   \   00015B   7480         MOV     A,#-0x80
   \   00015D   F0           MOVX    @DPTR,A
   \   00015E   A3           INC     DPTR
   \   00015F   E4           CLR     A
   \   000160   F0           MOVX    @DPTR,A
   \   000161   A3           INC     DPTR
   \                     ??Ymodem_Transmit_9:
   \   000162   F0           MOVX    @DPTR,A
   \   000163   A3           INC     DPTR
   \   000164   F0           MOVX    @DPTR,A
    677                }
    678                Ymodem_SendPacket(packet_data, pktSize + PACKET_HEADER);
   \   000165                ; Setup parameters for call to function Ymodem_SendPacket
   \   000165   7402         MOV     A,#0x2
   \   000167   12....       LCALL   ?XSTACK_DISP0_8
   \   00016A   78..         MOV     R0,#?V4
   \   00016C   12....       LCALL   ?L_MOV_X
   \   00016F   E5..         MOV     A,?V4
   \   000171   2403         ADD     A,#0x3
   \   000173   FC           MOV     R4,A
   \   000174   E4           CLR     A
   \   000175   35..         ADDC    A,?V5
   \   000177   FD           MOV     R5,A
   \   000178   7A0E         MOV     R2,#0xe
   \   00017A   7B01         MOV     R3,#0x1
   \   00017C   12....       LCALL   ?XSTACK_DISP101_16
   \   00017F   12....       LCALL   Ymodem_SendPacket
    679                /* Send CRC or Check Sum based on CRC16_F */
    680                /* Send CRC or Check Sum based on CRC16_F */
    681                if (CRC16_F)
    682                {
    683                   tempCRC = Cal_CRC16(&packet_data[3], pktSize);
   \   000182                ; Setup parameters for call to function Cal_CRC16
   \   000182   7402         MOV     A,#0x2
   \   000184   12....       LCALL   ?XSTACK_DISP0_8
   \   000187   12....       LCALL   ?PUSH_XSTACK8_X_FOUR
   \   00018A   900115       MOV     DPTR,#0x115
   \   00018D   12....       LCALL   ?XSTACK_DISP0_16
   \   000190   AA82         MOV     R2,DPL
   \   000192   AB83         MOV     R3,DPH
   \   000194   12....       LCALL   Cal_CRC16
   \   000197   7404         MOV     A,#0x4
   \   000199   12....       LCALL   ?DEALLOC_XSTACK8
   \   00019C   8A..         MOV     ?V4,R2
   \   00019E   8B..         MOV     ?V5,R3
    684                   Send_Byte(tempCRC >> 8);
   \   0001A0                ; Setup parameters for call to function Uart0_Send_char
   \   0001A0   A9..         MOV     R1,?V5
   \   0001A2   12....       LCALL   Uart0_Send_char
    685                   Send_Byte(tempCRC & 0xFF);
   \   0001A5                ; Setup parameters for call to function Uart0_Send_char
   \   0001A5   A9..         MOV     R1,?V4
   \   0001A7   12....       LCALL   Uart0_Send_char
    686                }
    687                else
    688                {
    689                  tempCheckSum = CalChecksum (&packet_data[3], pktSize);
    690                  Send_Byte(tempCheckSum);
    691                }
    692                
    693                /* Wait for Ack */
    694                if ((Receive_Byte(&receivedC[0], 100000) == 0)  && (receivedC[0] == ACK))
   \   0001AA                ; Setup parameters for call to function Receive_Byte
   \   0001AA   90....       MOV     DPTR,#__Constant_186a0
   \   0001AD   12....       LCALL   ?PUSH_XSTACK8_X_FOUR
   \   0001B0   7404         MOV     A,#0x4
   \   0001B2   12....       LCALL   ?XSTACK_DISP101_8
   \   0001B5   12....       LCALL   Receive_Byte
   \   0001B8   7404         MOV     A,#0x4
   \   0001BA   12....       LCALL   ?DEALLOC_XSTACK8
   \   0001BD   EA           MOV     A,R2
   \   0001BE   4B           ORL     A,R3
   \   0001BF   4C           ORL     A,R4
   \   0001C0   4D           ORL     A,R5
   \   0001C1   6003         JZ      $+5
   \   0001C3   02....       LJMP    ??Ymodem_Transmit_10
   \   0001C6   85..82       MOV     DPL,?XSP + 0
   \   0001C9   85..83       MOV     DPH,?XSP + 1
   \   0001CC   E0           MOVX    A,@DPTR
   \   0001CD   6406         XRL     A,#0x6
   \   0001CF   6003         JZ      $+5
   \   0001D1   02....       LJMP    ??Ymodem_Transmit_10
    695                {
    696                  ackReceived = 1;  
    697                  if (size > pktSize)
   \   0001D4   7402         MOV     A,#0x2
   \   0001D6   12....       LCALL   ?XSTACK_DISP0_8
   \   0001D9   78..         MOV     R0,#?V4
   \   0001DB   12....       LCALL   ?L_MOV_X
   \   0001DE   7406         MOV     A,#0x6
   \   0001E0   12....       LCALL   ?XSTACK_DISP0_8
   \   0001E3   E0           MOVX    A,@DPTR
   \   0001E4   25..         ADD     A,?V4
   \   0001E6   FA           MOV     R2,A
   \   0001E7   A3           INC     DPTR
   \   0001E8   E0           MOVX    A,@DPTR
   \   0001E9   35..         ADDC    A,?V5
   \   0001EB   FB           MOV     R3,A
   \   0001EC   740A         MOV     A,#0xa
   \   0001EE   12....       LCALL   ?XSTACK_DISP0_8
   \   0001F1   78..         MOV     R0,#?V4
   \   0001F3   12....       LCALL   ?L_MOV_X
   \   0001F6   7402         MOV     A,#0x2
   \   0001F8   12....       LCALL   ?XSTACK_DISP0_8
   \   0001FB   78..         MOV     R0,#?V4
   \   0001FD   12....       LCALL   ?UL_GT_X
   \   000200   5040         JNC     ??Ymodem_Transmit_11
    698                  {
    699                     buf_ptr += pktSize;  
   \   000202   7406         MOV     A,#0x6
   \   000204   12....       LCALL   ?XSTACK_DISP0_8
   \   000207   EA           MOV     A,R2
   \   000208   F0           MOVX    @DPTR,A
   \   000209   A3           INC     DPTR
   \   00020A   EB           MOV     A,R3
   \   00020B   F0           MOVX    @DPTR,A
    700                     size -= pktSize;
   \   00020C   7402         MOV     A,#0x2
   \   00020E   12....       LCALL   ?XSTACK_DISP0_8
   \   000211   78..         MOV     R0,#?V4
   \   000213   12....       LCALL   ?L_MOV_X
   \   000216   740A         MOV     A,#0xa
   \   000218   12....       LCALL   ?XSTACK_DISP0_8
   \   00021B   78..         MOV     R0,#?V4
   \   00021D   12....       LCALL   ?L_SUB_FROM_X
    701                     if (blkNumber == (FLASH_IMAGE_SIZE/1024))
   \   000220   7408         MOV     A,#0x8
   \   000222   12....       LCALL   ?XSTACK_DISP0_8
   \   000225   E0           MOVX    A,@DPTR
   \   000226   64EC         XRL     A,#0xec
   \   000228   7002         JNZ     ??Ymodem_Transmit_12
   \   00022A   A3           INC     DPTR
   \   00022B   E0           MOVX    A,@DPTR
   \                     ??Ymodem_Transmit_12:
   \   00022C   7005         JNZ     ??Ymodem_Transmit_13
    702                     {
    703                       return 0xFF; /*  error */
   \   00022E   79FF         MOV     R1,#-0x1
   \   000230   02....       LJMP    ??Ymodem_Transmit_14
    704                     }
    705                     else
    706                     {
    707                        blkNumber++;
   \                     ??Ymodem_Transmit_13:
   \   000233   7408         MOV     A,#0x8
   \   000235   12....       LCALL   ?XSTACK_DISP0_8
   \   000238   E0           MOVX    A,@DPTR
   \   000239   2401         ADD     A,#0x1
   \   00023B   F0           MOVX    @DPTR,A
   \   00023C   A3           INC     DPTR
   \   00023D   E0           MOVX    A,@DPTR
   \   00023E   3400         ADDC    A,#0x0
   \   000240   8017         SJMP    ??Ymodem_Transmit_15
    708                     }
    709                  }
    710                  else
    711                  {
    712                    buf_ptr += pktSize;
   \                     ??Ymodem_Transmit_11:
   \   000242   EA           MOV     A,R2
   \   000243   F8           MOV     R0,A
   \   000244   EB           MOV     A,R3
   \   000245   F9           MOV     R1,A
   \   000246   7406         MOV     A,#0x6
   \   000248   12....       LCALL   ?XSTACK_DISP0_8
   \   00024B   E8           MOV     A,R0
   \   00024C   F0           MOVX    @DPTR,A
   \   00024D   A3           INC     DPTR
   \   00024E   E9           MOV     A,R1
   \   00024F   F0           MOVX    @DPTR,A
    713                    size = 0;
   \   000250   740A         MOV     A,#0xa
   \   000252   12....       LCALL   ?XSTACK_DISP0_8
   \   000255   12....       LCALL   ?Subroutine16
    714                  }
    715                }
   \                     ??CrossCallReturnLabel_55:
   \   000258   A3           INC     DPTR
   \                     ??Ymodem_Transmit_15:
   \   000259   F0           MOVX    @DPTR,A
   \   00025A   8015         SJMP    ??Ymodem_Transmit_16
    716                else
    717                {
    718                  errors++;
   \                     ??Ymodem_Transmit_10:
   \   00025C   90....       MOV     DPTR,#__Constant_1
   \   00025F   78..         MOV     R0,#?V0
   \   000261   12....       LCALL   ?L_ADD_X
   \   000264   90....       MOV     DPTR,#__Constant_a
   \   000267   78..         MOV     R0,#?V0
   \   000269   12....       LCALL   ?UL_GE_X
   \   00026C   4003         JC      $+5
   \   00026E   02....       LJMP    ??CrossCallReturnLabel_46
    719                }
    720              }while(!ackReceived && (errors < 0x0A));
    721              /* Resend packet if NAK  for a count of 10 else end of commuincation */
    722              
    723              if (errors >=  0x0A)
   \                     ??Ymodem_Transmit_16:
   \   000271   90....       MOV     DPTR,#__Constant_a
   \   000274   78..         MOV     R0,#?V0
   \   000276   12....       LCALL   ?UL_GE_X
   \   000279   4003         JC      $+5
   \   00027B   02....       LJMP    ??Ymodem_Transmit_6
   \   00027E   02....       LJMP    ??Ymodem_Transmit_5
    724              {
    725                return errors;
    726              }
    727              
    728            }
    729            ackReceived = 0;
    730            receivedC[0] = 0x00;
   \                     ??Ymodem_Transmit_7:
   \   000281   12....       LCALL   ?Subroutine3
    731            errors = 0;
    732            do 
    733            {
    734              Send_Byte(EOT);
   \                     ??CrossCallReturnLabel_47:
   \   000284                ; Setup parameters for call to function Uart0_Send_char
   \   000284   7904         MOV     R1,#0x4
   \   000286   12....       LCALL   Uart0_Send_char
    735              /* Send (EOT); */
    736              /* Wait for Ack */
    737                if ((Receive_Byte(&receivedC[0], 10000) == 0)  && receivedC[0] == ACK)
   \   000289                ; Setup parameters for call to function Receive_Byte
   \   000289   90....       MOV     DPTR,#__Constant_2710
   \   00028C   12....       LCALL   ?PUSH_XSTACK8_X_FOUR
   \   00028F   7404         MOV     A,#0x4
   \   000291   12....       LCALL   ?XSTACK_DISP101_8
   \   000294   12....       LCALL   Receive_Byte
   \   000297   7404         MOV     A,#0x4
   \   000299   12....       LCALL   ?DEALLOC_XSTACK8
   \   00029C   EA           MOV     A,R2
   \   00029D   4B           ORL     A,R3
   \   00029E   4C           ORL     A,R4
   \   00029F   4D           ORL     A,R5
   \   0002A0   700B         JNZ     ??Ymodem_Transmit_17
   \   0002A2   85..82       MOV     DPL,?XSP + 0
   \   0002A5   85..83       MOV     DPH,?XSP + 1
   \   0002A8   E0           MOVX    A,@DPTR
   \   0002A9   6406         XRL     A,#0x6
   \   0002AB   6012         JZ      ??Ymodem_Transmit_18
    738                {
    739                  ackReceived = 1;  
    740                }
    741                else
    742                {
    743                  errors++;
   \                     ??Ymodem_Transmit_17:
   \   0002AD   90....       MOV     DPTR,#__Constant_1
   \   0002B0   78..         MOV     R0,#?V0
   \   0002B2   12....       LCALL   ?L_ADD_X
   \   0002B5   90....       MOV     DPTR,#__Constant_a
   \   0002B8   78..         MOV     R0,#?V0
   \   0002BA   12....       LCALL   ?UL_GE_X
   \   0002BD   50C5         JNC     ??CrossCallReturnLabel_47
    744                }
    745            }while (!ackReceived && (errors < 0x0A));
    746              
    747            if (errors >=  0x0A)
   \                     ??Ymodem_Transmit_18:
   \   0002BF   90....       MOV     DPTR,#__Constant_a
   \   0002C2   78..         MOV     R0,#?V0
   \   0002C4   12....       LCALL   ?UL_GE_X
   \   0002C7   5003         JNC     $+5
   \   0002C9   02....       LJMP    ??Ymodem_Transmit_5
    748            {
    749              return errors;
    750            }
    751            
    752            /* Last packet preparation */
    753            ackReceived = 0;
   \   0002CC   7402         MOV     A,#0x2
   \   0002CE   12....       LCALL   ?XSTACK_DISP0_8
   \   0002D1   12....       LCALL   ?Subroutine2
    754            receivedC[0] = 0x00;
   \                     ??CrossCallReturnLabel_45:
   \   0002D4   85..82       MOV     DPL,?XSP + 0
   \   0002D7   85..83       MOV     DPH,?XSP + 1
   \   0002DA   12....       LCALL   ??Subroutine20_0
    755            errors = 0;
    756          
    757            packet_data[0] = SOH;
   \                     ??CrossCallReturnLabel_49:
   \   0002DD   90010E       MOV     DPTR,#0x10e
   \   0002E0   12....       LCALL   ?XSTACK_DISP0_16
   \   0002E3   04           INC     A
   \   0002E4   F0           MOVX    @DPTR,A
    758            packet_data[1] = 0;
   \   0002E5   90010F       MOV     DPTR,#0x10f
   \   0002E8   12....       LCALL   ?XSTACK_DISP0_16
   \   0002EB   E4           CLR     A
   \   0002EC   F0           MOVX    @DPTR,A
    759            packet_data [2] = 0xFF;
   \   0002ED   900110       MOV     DPTR,#0x110
   \   0002F0   12....       LCALL   ?XSTACK_DISP0_16
   \   0002F3   74FF         MOV     A,#-0x1
   \   0002F5   F0           MOVX    @DPTR,A
    760          
    761            for (i = PACKET_HEADER; i < (PACKET_SIZE + PACKET_HEADER); i++)
    762            {
    763               packet_data [i] = 0x00;
   \   0002F6   E4           CLR     A
   \   0002F7   900111       MOV     DPTR,#0x111
   \   0002FA   12....       LCALL   ?XSTACK_DISP0_16
   \   0002FD   7880         MOV     R0,#-0x80
   \                     ??Ymodem_Transmit_19:
   \   0002FF   F0           MOVX    @DPTR,A
   \   000300   A3           INC     DPTR
   \   000301   D8FC         DJNZ    R0,??Ymodem_Transmit_19
    764            }
    765            
    766            do 
    767            {
    768              /* Send Packet */
    769              Ymodem_SendPacket(packet_data, PACKET_SIZE + PACKET_HEADER);
   \                     ??Ymodem_Transmit_20:
   \   000303                ; Setup parameters for call to function Ymodem_SendPacket
   \   000303   7C83         MOV     R4,#-0x7d
   \   000305   7D00         MOV     R5,#0x0
   \   000307   7A0E         MOV     R2,#0xe
   \   000309   7B01         MOV     R3,#0x1
   \   00030B   12....       LCALL   ?XSTACK_DISP101_16
   \   00030E   12....       LCALL   Ymodem_SendPacket
    770              /* Send CRC or Check Sum based on CRC16_F */
    771              tempCRC = Cal_CRC16(&packet_data[3], PACKET_SIZE);
   \   000311                ; Setup parameters for call to function Cal_CRC16
   \   000311   90....       MOV     DPTR,#__Constant_80
   \   000314   12....       LCALL   ?PUSH_XSTACK8_X_FOUR
   \   000317   900115       MOV     DPTR,#0x115
   \   00031A   12....       LCALL   ?XSTACK_DISP0_16
   \   00031D   AA82         MOV     R2,DPL
   \   00031F   AB83         MOV     R3,DPH
   \   000321   12....       LCALL   Cal_CRC16
   \   000324   7404         MOV     A,#0x4
   \   000326   12....       LCALL   ?DEALLOC_XSTACK8
   \   000329   8A..         MOV     ?V4,R2
   \   00032B   8B..         MOV     ?V5,R3
    772              Send_Byte(tempCRC >> 8);
   \   00032D                ; Setup parameters for call to function Uart0_Send_char
   \   00032D   A9..         MOV     R1,?V5
   \   00032F   12....       LCALL   Uart0_Send_char
    773              Send_Byte(tempCRC & 0xFF);
   \   000332                ; Setup parameters for call to function Uart0_Send_char
   \   000332   A9..         MOV     R1,?V4
   \   000334   12....       LCALL   Uart0_Send_char
    774            
    775              /* Wait for Ack and 'C' */
    776              if (Receive_Byte(&receivedC[0], 10000) == 0)  
   \   000337                ; Setup parameters for call to function Receive_Byte
   \   000337   90....       MOV     DPTR,#__Constant_2710
   \   00033A   12....       LCALL   ?PUSH_XSTACK8_X_FOUR
   \   00033D   7404         MOV     A,#0x4
   \   00033F   12....       LCALL   ?XSTACK_DISP101_8
   \   000342   12....       LCALL   Receive_Byte
   \   000345   7404         MOV     A,#0x4
   \   000347   12....       LCALL   ?DEALLOC_XSTACK8
   \   00034A   EA           MOV     A,R2
   \   00034B   4B           ORL     A,R3
   \   00034C   4C           ORL     A,R4
   \   00034D   4D           ORL     A,R5
   \   00034E   7015         JNZ     ??Ymodem_Transmit_21
    777              {
    778                if (receivedC[0] == ACK)
   \   000350   85..82       MOV     DPL,?XSP + 0
   \   000353   85..83       MOV     DPH,?XSP + 1
   \   000356   E0           MOVX    A,@DPTR
   \   000357   6406         XRL     A,#0x6
   \   000359   7012         JNZ     ??Ymodem_Transmit_22
    779                { 
    780                  /* Packet transfered correctly */
    781                  ackReceived = 1;
   \   00035B   7402         MOV     A,#0x2
   \   00035D   12....       LCALL   ?XSTACK_DISP0_8
   \   000360   12....       LCALL   ?Subroutine4
    782                }
    783              }
   \                     ??CrossCallReturnLabel_52:
   \   000363   8012         SJMP    ??Ymodem_Transmit_23
    784              else
    785              {
    786                  errors++;
   \                     ??Ymodem_Transmit_21:
   \   000365   90....       MOV     DPTR,#__Constant_1
   \   000368   78..         MOV     R0,#?V0
   \   00036A   12....       LCALL   ?L_ADD_X
   \                     ??Ymodem_Transmit_22:
   \   00036D   90....       MOV     DPTR,#__Constant_a
   \   000370   78..         MOV     R0,#?V0
   \   000372   12....       LCALL   ?UL_GE_X
   \   000375   508C         JNC     ??Ymodem_Transmit_20
    787              }
    788           
    789            }while (!ackReceived && (errors < 0x0A));
    790            /* Resend packet if NAK  for a count of 10  else end of commuincation */
    791            if (errors >=  0x0A)
   \                     ??Ymodem_Transmit_23:
   \   000377   90....       MOV     DPTR,#__Constant_a
   \   00037A   78..         MOV     R0,#?V0
   \   00037C   12....       LCALL   ?UL_GE_X
   \   00037F   4053         JC      ??Ymodem_Transmit_5
    792            {
    793              return errors;
    794            }  
    795            
    796            do 
    797            {
    798              Send_Byte(EOT);
   \                     ??Ymodem_Transmit_24:
   \   000381                ; Setup parameters for call to function Uart0_Send_char
   \   000381   7904         MOV     R1,#0x4
   \   000383   12....       LCALL   Uart0_Send_char
    799              /* Send (EOT); */
    800              /* Wait for Ack */
    801                if ((Receive_Byte(&receivedC[0], 10000) == 0)  && receivedC[0] == ACK)
   \   000386                ; Setup parameters for call to function Receive_Byte
   \   000386   90....       MOV     DPTR,#__Constant_2710
   \   000389   12....       LCALL   ?PUSH_XSTACK8_X_FOUR
   \   00038C   7404         MOV     A,#0x4
   \   00038E   12....       LCALL   ?XSTACK_DISP101_8
   \   000391   12....       LCALL   Receive_Byte
   \   000394   7404         MOV     A,#0x4
   \   000396   12....       LCALL   ?DEALLOC_XSTACK8
   \   000399   EA           MOV     A,R2
   \   00039A   4B           ORL     A,R3
   \   00039B   4C           ORL     A,R4
   \   00039C   4D           ORL     A,R5
   \   00039D   700B         JNZ     ??Ymodem_Transmit_25
   \   00039F   85..82       MOV     DPL,?XSP + 0
   \   0003A2   85..83       MOV     DPH,?XSP + 1
   \   0003A5   E0           MOVX    A,@DPTR
   \   0003A6   6406         XRL     A,#0x6
   \   0003A8   6020         JZ      ??Ymodem_Transmit_26
    802                {
    803                  ackReceived = 1;  
    804                }
    805                else
    806                {
    807                  errors++;
   \                     ??Ymodem_Transmit_25:
   \   0003AA   90....       MOV     DPTR,#__Constant_1
   \   0003AD   78..         MOV     R0,#?V0
   \   0003AF   12....       LCALL   ?L_ADD_X
    808                }
    809            }while (!ackReceived && (errors < 0x0A));
   \   0003B2   7402         MOV     A,#0x2
   \   0003B4   12....       LCALL   ?XSTACK_DISP0_8
   \   0003B7   12....       LCALL   ?XLOAD_R0123
   \   0003BA   E8           MOV     A,R0
   \   0003BB   49           ORL     A,R1
   \   0003BC   4A           ORL     A,R2
   \   0003BD   4B           ORL     A,R3
   \   0003BE   700A         JNZ     ??Ymodem_Transmit_26
   \   0003C0   90....       MOV     DPTR,#__Constant_a
   \   0003C3   78..         MOV     R0,#?V0
   \   0003C5   12....       LCALL   ?UL_GE_X
   \   0003C8   50B7         JNC     ??Ymodem_Transmit_24
    810              
    811            if (errors >=  0x0A)
   \                     ??Ymodem_Transmit_26:
   \   0003CA   90....       MOV     DPTR,#__Constant_a
   \   0003CD   78..         MOV     R0,#?V0
   \   0003CF   12....       LCALL   ?UL_GE_X
   \   0003D2   5004         JNC     ??Ymodem_Transmit_27
    812            {
    813              return errors;
   \                     ??Ymodem_Transmit_5:
   \   0003D4   A9..         MOV     R1,?V0
   \   0003D6   8002         SJMP    ??Ymodem_Transmit_14
    814            }
    815            return 0; /* file trasmitted successfully */
   \                     ??Ymodem_Transmit_27:
   \   0003D8   7900         MOV     R1,#0x0
   \                     ??Ymodem_Transmit_14:
   \   0003DA   758213       MOV     DPL,#0x13
   \   0003DD   758305       MOV     DPH,#0x5
   \   0003E0   12....       LCALL   ?ADD_XSTACK_DISP0_16
   \   0003E3   02....       LJMP    ??Subroutine21_0
    816          }

   \                                 In  segment XDATA_ID, align 1, keep-with-next
   \                     `?<Initializer for <Constant {255, 253, 0, 255,`:
   \   000000   FF           DB 255
   \   000001   FD           DB 253
   \   000002   00           DB 0
   \   000003   FF           DB 255
   \   000004   FB           DB 251
   \   000005   00           DB 0

   \                                 In  segment XDATA_ID, align 1, keep-with-next
   \                     `?<Initializer for <Constant "ERROR:Get_Page er`:
   \   000000   4552524F     DB "ERROR:Get_Page error! epage:%d\015\012"
   \            523A4765
   \            745F5061
   \            67652065
   \            72726F72
   \            21206570
   \            6167653A
   \            25640D0A
   \            00      

   \                                 In  segment XDATA_ID, align 1, keep-with-next
   \                     `?<Initializer for __Constant_ffffffff>`:
   \   000000   FFFFFFFF     DD 4294967295

   \                                 In  segment XDATA_ID, align 1, keep-with-next
   \                     `?<Initializer for __Constant_1>`:
   \   000000   01000000     DD 1

   \                                 In  segment XDATA_ID, align 1, keep-with-next
   \                     `?<Initializer for __Constant_a>`:
   \   000000   0A000000     DD 10

   \                                 In  segment XDATA_ID, align 1, keep-with-next
   \                     `?<Initializer for __Constant_b>`:
   \   000000   0B000000     DD 11

   \                                 In  segment XDATA_ID, align 1, keep-with-next
   \                     `?<Initializer for __Constant_10000>`:
   \   000000   00000100     DD 65536

   \                                 In  segment XDATA_ID, align 1, keep-with-next
   \                     `?<Initializer for __Constant_100>`:
   \   000000   00010000     DD 256

   \                                 In  segment XDATA_ID, align 1, keep-with-next
   \                     `?<Initializer for __Constant_10>`:
   \   000000   10000000     DD 16

   \                                 In  segment XDATA_ID, align 1, keep-with-next
   \                     `?<Initializer for __Constant_4>`:
   \   000000   04000000     DD 4

   \                                 In  segment XDATA_ID, align 1, keep-with-next
   \                     `?<Initializer for __Constant_6>`:
   \   000000   06000000     DD 6

   \                                 In  segment XDATA_ID, align 1, keep-with-next
   \                     `?<Initializer for __Constant_400>`:
   \   000000   00040000     DD 1024

   \                                 In  segment XDATA_ID, align 1, keep-with-next
   \                     `?<Initializer for __Constant_80>`:
   \   000000   80000000     DD 128

   \                                 In  segment XDATA_ID, align 1, keep-with-next
   \                     `?<Initializer for __Constant_1021>`:
   \   000000   21100000     DD 4129

   \                                 In  segment XDATA_ID, align 1, keep-with-next
   \                     `?<Initializer for __Constant_2710>`:
   \   000000   10270000     DD 10000

   \                                 In  segment XDATA_ID, align 1, keep-with-next
   \                     `?<Initializer for __Constant_186a0>`:
   \   000000   A0860100     DD 100000

   \                                 In  segment XDATA_I, align 1, keep-with-next
   \                     `?<Constant {255, 253, 0, 255, 251, 0}>`:
   \   000000                DS 6
   \   000006                REQUIRE `?<Initializer for <Constant {255, 253, 0, 255,`
   \   000006                REQUIRE __INIT_XDATA_I

   \                                 In  segment XDATA_I, align 1, keep-with-next
   \                     `?<Constant "ERROR:Get_Page error!...">`:
   \   000000                DS 33
   \   000021                REQUIRE `?<Initializer for <Constant "ERROR:Get_Page er`
   \   000021                REQUIRE __INIT_XDATA_I

   \                                 In  segment XDATA_I, align 1, keep-with-next
   \                     __Constant_ffffffff:
   \   000000                DS 4
   \   000004                REQUIRE `?<Initializer for __Constant_ffffffff>`
   \   000004                REQUIRE __INIT_XDATA_I

   \                                 In  segment XDATA_I, align 1, keep-with-next
   \                     __Constant_1:
   \   000000                DS 4
   \   000004                REQUIRE `?<Initializer for __Constant_1>`
   \   000004                REQUIRE __INIT_XDATA_I

   \                                 In  segment XDATA_I, align 1, keep-with-next
   \                     __Constant_a:
   \   000000                DS 4
   \   000004                REQUIRE `?<Initializer for __Constant_a>`
   \   000004                REQUIRE __INIT_XDATA_I

   \                                 In  segment XDATA_I, align 1, keep-with-next
   \                     __Constant_b:
   \   000000                DS 4
   \   000004                REQUIRE `?<Initializer for __Constant_b>`
   \   000004                REQUIRE __INIT_XDATA_I

   \                                 In  segment XDATA_I, align 1, keep-with-next
   \                     __Constant_10000:
   \   000000                DS 4
   \   000004                REQUIRE `?<Initializer for __Constant_10000>`
   \   000004                REQUIRE __INIT_XDATA_I

   \                                 In  segment XDATA_I, align 1, keep-with-next
   \                     __Constant_100:
   \   000000                DS 4
   \   000004                REQUIRE `?<Initializer for __Constant_100>`
   \   000004                REQUIRE __INIT_XDATA_I

   \                                 In  segment XDATA_I, align 1, keep-with-next
   \                     __Constant_10:
   \   000000                DS 4
   \   000004                REQUIRE `?<Initializer for __Constant_10>`
   \   000004                REQUIRE __INIT_XDATA_I

   \                                 In  segment XDATA_I, align 1, keep-with-next
   \                     __Constant_4:
   \   000000                DS 4
   \   000004                REQUIRE `?<Initializer for __Constant_4>`
   \   000004                REQUIRE __INIT_XDATA_I

   \                                 In  segment XDATA_I, align 1, keep-with-next
   \                     __Constant_6:
   \   000000                DS 4
   \   000004                REQUIRE `?<Initializer for __Constant_6>`
   \   000004                REQUIRE __INIT_XDATA_I

   \                                 In  segment XDATA_I, align 1, keep-with-next
   \                     __Constant_400:
   \   000000                DS 4
   \   000004                REQUIRE `?<Initializer for __Constant_400>`
   \   000004                REQUIRE __INIT_XDATA_I

   \                                 In  segment XDATA_I, align 1, keep-with-next
   \                     __Constant_80:
   \   000000                DS 4
   \   000004                REQUIRE `?<Initializer for __Constant_80>`
   \   000004                REQUIRE __INIT_XDATA_I

   \                                 In  segment XDATA_I, align 1, keep-with-next
   \                     __Constant_1021:
   \   000000                DS 4
   \   000004                REQUIRE `?<Initializer for __Constant_1021>`
   \   000004                REQUIRE __INIT_XDATA_I

   \                                 In  segment XDATA_I, align 1, keep-with-next
   \                     __Constant_2710:
   \   000000                DS 4
   \   000004                REQUIRE `?<Initializer for __Constant_2710>`
   \   000004                REQUIRE __INIT_XDATA_I

   \                                 In  segment XDATA_I, align 1, keep-with-next
   \                     __Constant_186a0:
   \   000000                DS 4
   \   000004                REQUIRE `?<Initializer for __Constant_186a0>`
   \   000004                REQUIRE __INIT_XDATA_I
    817          
    818          /**
    819            * @}
    820            */
    821          
    822          /*******************(C)COPYRIGHT 2010 STMicroelectronics *****END OF FILE****/

   Maximum stack usage in bytes:

   ISTACK XSTACK Function
   ------ ------ --------
      0     19   CalChecksum
      0   1333   Cal_CRC16
        0     15   -> UpdateCRC16
      1     52   Int2Str
      0   1333   Receive_Byte
        0     15   -> usart0_getchar
      1     99   Receive_Packet
        0     32   -> Cal_CRC16
        0     32   -> Receive_Byte
        0     28   -> strstr
      0     90   Str2Int
      1     35   UpdateCRC16
      0      0   Ymodem_CheckResponse
      1   1339   Ymodem_PrepareIntialPacket
        0     23   -> Int2Str
      1   1331   Ymodem_PreparePacket
      1     75   Ymodem_Receive
        0     63   -> HalFlashErase
        0     65   -> HalFlashWrite
        0     67   -> Receive_Packet
        0     63   -> Str2Int
        0     63   -> Uart0_Send_char
        0     65   -> printf
      0   1325   Ymodem_SendPacket
        0     11   -> Uart0_Send_char
      1   1322   Ymodem_Transmit
        0   1318   -> Cal_CRC16
        0   1318   -> Receive_Byte
        0   1314   -> Uart0_Send_char
        0   1316   -> Ymodem_PrepareIntialPacket
        0   1318   -> Ymodem_PreparePacket
        0   1314   -> Ymodem_SendPacket


   Segment part sizes:

   Bytes  Function/Label
   -----  --------------
      33  ?<Constant "ERROR:Get_Page error!...">
       6  ?<Constant {255, 253, 0, 255, 251, 0}>
      33  ?<Initializer for <Constant "ERROR:Get_Page er
       6  ?<Initializer for <Constant {255, 253, 0, 255,
       4  ?<Initializer for __Constant_10000>
       4  ?<Initializer for __Constant_100>
       4  ?<Initializer for __Constant_1021>
       4  ?<Initializer for __Constant_10>
       4  ?<Initializer for __Constant_186a0>
       4  ?<Initializer for __Constant_1>
       4  ?<Initializer for __Constant_2710>
       4  ?<Initializer for __Constant_400>
       4  ?<Initializer for __Constant_4>
       4  ?<Initializer for __Constant_6>
       4  ?<Initializer for __Constant_80>
       4  ?<Initializer for __Constant_a>
       4  ?<Initializer for __Constant_b>
       4  ?<Initializer for __Constant_ffffffff>
       6  ??Subroutine18_0
       1  ??Subroutine19_0
      10  ??Subroutine20_0
       5  ??Subroutine21_0
       6  ??Subroutine22_0
       6  ??Subroutine23_0
       3  ?Subroutine0
       9  ?Subroutine1
       5  ?Subroutine10
       4  ?Subroutine11
      11  ?Subroutine12
      15  ?Subroutine13
      14  ?Subroutine14
      11  ?Subroutine15
       1  ?Subroutine16
       9  ?Subroutine17
       1  ?Subroutine2
       6  ?Subroutine3
       2  ?Subroutine4
      11  ?Subroutine5
      20  ?Subroutine6
       6  ?Subroutine7
       6  ?Subroutine8
       5  ?Subroutine9
      79  CalChecksum
      84  Cal_CRC16
     284  Int2Str
      81  Receive_Byte
     582  Receive_Packet
     513  Str2Int
     163  UpdateCRC16
       9  Ymodem_CheckResponse
     206  Ymodem_PrepareIntialPacket
     204  Ymodem_PreparePacket
     898  Ymodem_Receive
      60  Ymodem_SendPacket
     998  Ymodem_Transmit
       4  __Constant_1
       4  __Constant_10
       4  __Constant_100
       4  __Constant_10000
       4  __Constant_1021
       4  __Constant_186a0
       4  __Constant_2710
       4  __Constant_4
       4  __Constant_400
       4  __Constant_6
       4  __Constant_80
       4  __Constant_a
       4  __Constant_b
       4  __Constant_ffffffff
     256  file_name
    1029  packet_data
       1  tcp_valid

 
 4 334 bytes in segment NEAR_CODE
    95 bytes in segment XDATA_I
    95 bytes in segment XDATA_ID
 1 286 bytes in segment XDATA_Z
 
 4 373 bytes of CODE  memory (+ 56 bytes shared)
 1 325 bytes of XDATA memory (+ 56 bytes shared)

Errors: none
Warnings: none
